BL51 BANKED LINKER/LOCATER V6.22                                                        04/22/2015  16:23:43  PAGE 1


BL51 BANKED LINKER/LOCATER V6.22, INVOKED BY:
C:\KEIL\C51\BIN\BL51.EXE .\Output\adc.obj, .\Output\cpu.obj, .\Output\dispinfo.obj, .\Output\etc_eep.obj, .\Output\I2c.o
>> bj, .\Output\keyremo.obj, .\Output\Main.obj, .\Output\Measure.obj, .\Output\Osdbasic.obj, .\Output\osdmenu.obj, .\Out
>> put\pc_eep.obj, .\Output\Printf.obj, .\Output\table.obj, .\Output\TW88.obj, .\Output\udfont.obj, .\Output\HS_keyremo.
>> obj, .\Output\HS_DisplayOSD.obj, .\Output\audio.obj, .\Output\Debug.obj, .\Output\HS_DVRProtocol.obj TO .\Output\AWT-
>> ML077 PRINT (.\Source\AWT-ML077.m51) RAMSIZE (256)




PROGRAM RECURSIONS REMOVED FROM CALL TREE
=========================================
+--> ?PR?CLEAROSDINFO?DISPINFO
|  | ?PR?CLOSEOSDMENU?OSDMENU
|  | ?PR?SETNOWMODE?HS_KEYREMO
|  | ?PR?_SETSOURCEMODE?HS_KEYREMO
|  | ?PR?_CHANGEINPUT?MAIN
<--+ ?PR?DISPLAYINPUT?DISPINFO



MEMORY MODEL: LARGE


INPUT MODULES INCLUDED:
  .\Output\adc.obj (ADC)
  .\Output\cpu.obj (CPU)
  .\Output\dispinfo.obj (DISPINFO)
  .\Output\etc_eep.obj (ETC_EEP)
  .\Output\I2c.obj (I2C)
  .\Output\keyremo.obj (KEYREMO)
  .\Output\Main.obj (MAIN)
  .\Output\Measure.obj (MEASURE)
  .\Output\Osdbasic.obj (OSDBASIC)
  .\Output\osdmenu.obj (OSDMENU)
  .\Output\pc_eep.obj (PC_EEP)
  .\Output\Printf.obj (PRINTF)
  .\Output\table.obj (TABLE)
  .\Output\TW88.obj (TW88)
  .\Output\udfont.obj (UDFONT)
  .\Output\HS_keyremo.obj (HS_KEYREMO)
  .\Output\HS_DisplayOSD.obj (HS_DISPLAYOSD)
  .\Output\audio.obj (AUDIO)
  .\Output\Debug.obj (DEBUG)
  .\Output\HS_DVRProtocol.obj (HS_DVRPROTOCOL)
  C:\KEIL\C51\LIB\C51L.LIB (?C_STARTUP)
  C:\KEIL\C51\LIB\C51L.LIB (?C?COPY)
  C:\KEIL\C51\LIB\C51L.LIB (?C?CLDPTR)
  C:\KEIL\C51\LIB\C51L.LIB (?C?CLDOPTR)
  C:\KEIL\C51\LIB\C51L.LIB (?C?CSTPTR)
  C:\KEIL\C51\LIB\C51L.LIB (?C?IMUL)
  C:\KEIL\C51\LIB\C51L.LIB (?C?UIDIV)
  C:\KEIL\C51\LIB\C51L.LIB (?C?SIDIV)
  C:\KEIL\C51\LIB\C51L.LIB (?C?IILDX)
  C:\KEIL\C51\LIB\C51L.LIB (?C?ILDPTR)
  C:\KEIL\C51\LIB\C51L.LIB (?C?ILDOPTR)
  C:\KEIL\C51\LIB\C51L.LIB (?C?ISTPTR)
  C:\KEIL\C51\LIB\C51L.LIB (?C?LMUL)
BL51 BANKED LINKER/LOCATER V6.22                                                      04/22/2015  16:23:43  PAGE 2


  C:\KEIL\C51\LIB\C51L.LIB (?C?ULDIV)
  C:\KEIL\C51\LIB\C51L.LIB (?C?ULCMP)
  C:\KEIL\C51\LIB\C51L.LIB (?C?SLSHR)
  C:\KEIL\C51\LIB\C51L.LIB (?C?LLDPTR)
  C:\KEIL\C51\LIB\C51L.LIB (?C?LLDXDATA)
  C:\KEIL\C51\LIB\C51L.LIB (?C?LLDXDATA0)
  C:\KEIL\C51\LIB\C51L.LIB (?C?LSTXDATA)
  C:\KEIL\C51\LIB\C51L.LIB (?C?LSTKXDATA)
  C:\KEIL\C51\LIB\C51L.LIB (?C?OFFXADD)
  C:\KEIL\C51\LIB\C51L.LIB (?C?PLDXDATA)
  C:\KEIL\C51\LIB\C51L.LIB (?C?PLDIXDATA)
  C:\KEIL\C51\LIB\C51L.LIB (?C?PSTXDATA)
  C:\KEIL\C51\LIB\C51L.LIB (?C?PLDCODE)
  C:\KEIL\C51\LIB\C51L.LIB (?C?PLDPTR)
  C:\KEIL\C51\LIB\C51L.LIB (?C?PLDOPTR)
  C:\KEIL\C51\LIB\C51L.LIB (?C?CCASE)
  C:\KEIL\C51\LIB\C51L.LIB (ABS)
  C:\KEIL\C51\LIB\C51L.LIB (?C_INIT)
  C:\KEIL\C51\LIB\C51L.LIB (?C?LLDIDATA)
  C:\KEIL\C51\LIB\C51L.LIB (?C?LLDPDATA)
  C:\KEIL\C51\LIB\C51L.LIB (?C?LLDCODE)
  C:\KEIL\C51\LIB\C51L.LIB (?C?PLDIDATA)
  C:\KEIL\C51\LIB\C51L.LIB (?C?PLDPDATA)


LINK MAP OF MODULE:  .\Output\AWT-ML077 (ADC)


            TYPE    BASE      LENGTH    RELOCATION   SEGMENT NAME
            -----------------------------------------------------

            * * * * * * *   D A T A   M E M O R Y   * * * * * * *
            REG     0000H     0008H     ABSOLUTE     "REG BANK 0"
            REG     0008H     0008H     ABSOLUTE     "REG BANK 1"
            DATA    0010H     000AH     UNIT         ?DT?OSDBASIC
            DATA    001AH     0005H     UNIT         ?DT?OSDMENU
                    001FH     0001H                  *** GAP ***
            BIT     0020H.0   0001H.3   UNIT         ?BI?MAIN
            BIT     0021H.3   0000H.5   UNIT         ?BI?CPU
            BIT     0022H.0   0000H.5   UNIT         ?BI?HS_DVRPROTOCOL
            BIT     0022H.5   0000H.3   UNIT         ?BI?HS_KEYREMO
            BIT     0023H.0   0000H.2   UNIT         ?BI?OSDMENU
            BIT     0023H.2   0000H.2   UNIT         _BIT_GROUP_
            BIT     0023H.4   0000H.1   UNIT         ?BI?KEYREMO
            BIT     0023H.5   0000H.1   UNIT         ?BI?HS_DISPLAYOSD
                    0023H.6   0000H.2                *** GAP ***
            DATA    0024H     003FH     UNIT         ?DT?CPU
            DATA    0063H     0007H     UNIT         ?DT?MAIN
            DATA    006AH     0002H     UNIT         ?DT?DISPINFO
            IDATA   006CH     0001H     UNIT         ?STACK

            * * * * * * *  X D A T A   M E M O R Y  * * * * * * *
            XDATA   0000H     006CH     UNIT         _XDATA_GROUP_
            XDATA   006CH     0048H     UNIT         ?XD?HS_DVRPROTOCOL
            XDATA   00B4H     0020H     UNIT         ?XD?OSDMENU
            XDATA   00D4H     0013H     UNIT         ?XD?MAIN
            XDATA   00E7H     000CH     UNIT         ?XD?HS_KEYREMO
BL51 BANKED LINKER/LOCATER V6.22                                                      04/22/2015  16:23:43  PAGE 3


            XDATA   00F3H     0009H     UNIT         ?XD?CPU
            XDATA   00FCH     0007H     UNIT         ?XD?KEYREMO
            XDATA   0103H     0002H     UNIT         ?XD?DISPINFO
            XDATA   0105H     0002H     UNIT         ?XD?AUDIO
            XDATA   0107H     0001H     UNIT         ?XD?TW88

            * * * * * * *   C O D E   M E M O R Y   * * * * * * *
            CODE    0000H     0003H     ABSOLUTE     
            CODE    0003H     0008H     UNIT         ?PR?_RS_TX?CPU
            CODE    000BH     0003H     ABSOLUTE     
            CODE    000EH     0004H     UNIT         ?PR?GETOSDPOSITIONMODE?OSDMENU
            CODE    0012H     0001H     UNIT         ?PR?DD?I2C
            CODE    0013H     0003H     ABSOLUTE     
            CODE    0016H     000DH     UNIT         ?PR?I2CSTOP?I2C
            CODE    0023H     0003H     ABSOLUTE     
            CODE    0026H     0003H     UNIT         ?PR?EXT1_INT?CPU
            CODE    0029H     0001H     UNIT         ?PR?ON_LVDS?TW88
            CODE    002AH     0001H     UNIT         ?PR?OFF_LVDS?TW88
            CODE    002BH     0003H     ABSOLUTE     
            CODE    002EH     0035H     UNIT         ?PR?OSDHIGHMENU?OSDMENU
            CODE    0063H     0003H     ABSOLUTE     
            CODE    0066H     1772H     UNIT         ?CO?OSDMENU
            CODE    17D8H     14F2H     UNIT         ?CO?UDFONT
            CODE    2CCAH     0937H     UNIT         ?PR?_SETITEMVALUE?OSDMENU
            CODE    3601H     0844H     UNIT         ?CO?CPU
            CODE    3E45H     052BH     UNIT         ?C?LIB_CODE
            CODE    4370H     03DCH     UNIT         ?PR?OSDMENU
            CODE    474CH     038DH     UNIT         ?PR?_DISPLAYOSDMENUONEITEM?OSDMENU
            CODE    4AD9H     0321H     UNIT         ?PR?_DOPRINT?PRINTF
            CODE    4DFAH     02ADH     UNIT         ?PR?CHECKKEYIN?KEYREMO
            CODE    50A7H     02A0H     UNIT         ?CO?TABLE
            CODE    5347H     0266H     UNIT         ?PR?_TW2835COMMAND?CPU
            CODE    55ADH     0216H     UNIT         ?CO?MAIN
            CODE    57C3H     020CH     UNIT         ?PR?_CAM_TXCOMMAND_TORS485?HS_DVRPROTOCOL
            CODE    59CFH     01F7H     UNIT         ?PR?_GETITEMVALUE?OSDMENU
            CODE    5BC6H     01CBH     UNIT         ?PR?RESETOSDVALUE?OSDMENU
            CODE    5D91H     01BBH     UNIT         ?PR?_DRAWMENULIST?OSDMENU
            CODE    5F4CH     01B3H     UNIT         ?PR?_TRIGGERHANDLER?HS_KEYREMO
            CODE    60FFH     01AAH     UNIT         ?CO?HS_KEYREMO
            CODE    62A9H     017DH     UNIT         ?PR?_OSDCURSORMOVE?OSDMENU
            CODE    6426H     016DH     UNIT         ?PR?DISPLAYINFO_OSD?OSDMENU
            CODE    6593H     016DH     UNIT         ?PR?OSDSELECT?OSDMENU
            CODE    6700H     0169H     UNIT         ?PR?_SETOSDPOSITIONMODE?OSDMENU
            CODE    6869H     0156H     UNIT         ?PR?MAIN_LOOP?MAIN
            CODE    69BFH     0150H     UNIT         ?PR?TIMER0_INT?CPU
            CODE    6B0FH     0136H     UNIT         ?CO?HS_DISPLAYOSD
            CODE    6C45H     0121H     UNIT         ?PR?_UTOA?OSDBASIC
            CODE    6D66H     0121H     UNIT         ?PR?_CHANGEVOL?AUDIO
            CODE    6E87H     0120H     UNIT         ?PR?DISPLAYINPUT?DISPINFO
            CODE    6FA7H     011DH     UNIT         ?PR?MAIN_INIT?CPU
            CODE    70C4H     011DH     UNIT         ?CO?OSDBASIC
            CODE    71E1H     0105H     UNIT         ?PR?LOADEEPROM?MAIN
            CODE    72E6H     0102H     UNIT         ?PR?_OSDVALUEUPDN?OSDMENU
            CODE    73E8H     00FEH     UNIT         ?CO?KEYREMO
            CODE    74E6H     00FBH     UNIT         ?PR?DISPLAYOSDMENU?OSDMENU
            CODE    75E1H     00F9H     UNIT         ?PR?CHECKDECODERINPUT?MAIN
            CODE    76DAH     00F4H     UNIT         ?PR?_GETKEY?KEYREMO
BL51 BANKED LINKER/LOCATER V6.22                                                      04/22/2015  16:23:43  PAGE 4


            CODE    77CEH     00F0H     UNIT         ?PR?DISPLAYGAUGEOSD?HS_DISPLAYOSD
            CODE    78BEH     00EFH     UNIT         ?CO?DISPINFO
            CODE    79ADH     00E9H     UNIT         ?PR?_SETVIDEOMODE?OSDMENU
            CODE    7A96H     00E5H     UNIT         ?PR?_DISPLAYINFORMATION?HS_DISPLAYOSD
            CODE    7B7BH     00E3H     UNIT         ?C_INITSEG
            CODE    7C5EH     00DDH     UNIT         ?PR?DISPLAYCURSOR?OSDMENU
            CODE    7D3BH     00DBH     UNIT         ?PR?_DISPLAYVIEWBAR?OSDMENU
            CODE    7E16H     00DAH     UNIT         ?PR?_ACTIONREMO?KEYREMO
            CODE    7EF0H     00D2H     UNIT         ?PR?_DRAWNUM?OSDMENU
            CODE    7FC2H     00D1H     UNIT         ?PR?_ADJUSTAUTODAYNIGHT?MAIN
            CODE    8093H     00D0H     UNIT         ?PR?_DRAWSTRINGBYLANG?OSDMENU
            CODE    8163H     00CAH     UNIT         ?PR?DISPLAYVOL?DISPINFO
            CODE    822DH     00CAH     UNIT         ?PR?_SET4WIDESCREEN?OSDMENU
            CODE    82F7H     00B0H     UNIT         ?PR?SETSELECTMODE?HS_KEYREMO
            CODE    83A7H     00B0H     UNIT         ?PR?SETREARSOURCE?HS_KEYREMO
            CODE    8457H     00AFH     UNIT         ?PR?_CHANGEINPUT?MAIN
            CODE    8506H     00A6H     UNIT         ?PR?_SETPCCOLOR?OSDMENU
            CODE    85ACH     00A6H     UNIT         ?PR?OSDHIGHMENU_SUB?OSDMENU
            CODE    8652H     00A5H     UNIT         ?PR?_MAPPING1?TW88
            CODE    86F7H     00A2H     UNIT         ?PR?_I2CDEVICEINITIALIZE?MAIN
            CODE    8799H     00A2H     UNIT         ?PR?_INITOSDWINDOW?OSDBASIC
            CODE    883BH     009EH     UNIT         ?PR?_SETVIDEOSHARPNESS?OSDMENU
            CODE    88D9H     0099H     UNIT         ?PR?_CHANGEVIDEODATA?OSDMENU
            CODE    8972H     0090H     UNIT         ?PR?_DISPLAYVOLUMEBAR?OSDMENU
            CODE    8A02H     0090H     UNIT         ?PR?_LCDPOWERON?TW88
            CODE    8A92H     008CH     UNIT         ?C_C51STARTUP
            CODE    8B1EH     008BH     UNIT         ?PR?INITTECHWELL?CPU
            CODE    8BA9H     008AH     UNIT         ?PR?CHECKTRIGGER?HS_KEYREMO
            CODE    8C33H     0088H     UNIT         ?PR?SETPOSSIBLEAUTODETECTSTDEE?ETC_EEP
            CODE    8CBBH     0088H     UNIT         ?PR?OSDBASIC
            CODE    8D43H     0087H     UNIT         ?PR?CHECKANDCLEAROSD?DISPINFO
            CODE    8DCAH     0083H     UNIT         ?PR?INITOSDMENU?OSDMENU
            CODE    8E4DH     0082H     UNIT         ?PR?_INITVIDEODATA?MAIN
            CODE    8ECFH     0082H     UNIT         ?PR?_DOACTION?OSDMENU
            CODE    8F51H     0081H     UNIT         ?PR?SEND_PELCOP_COMMAND?HS_DVRPROTOCOL
            CODE    8FD2H     007CH     UNIT         ?PR?SEND_PELCOD_COMMAND?HS_DVRPROTOCOL
            CODE    904EH     007BH     UNIT         ?PR?_SETPCCOLORTEMP?OSDMENU
            CODE    90C9H     007AH     UNIT         ?PR?WAITPOWERON?MAIN
            CODE    9143H     0070H     UNIT         ?PR?_SETVIDEOSATURATION?OSDMENU
            CODE    91B3H     006CH     UNIT         ?PR?_SETVIDEOHUE?OSDMENU
            CODE    921FH     0069H     UNIT         ?PR?_I2CWRITEDATA?I2C
            CODE    9288H     0069H     UNIT         ?PR?_SETVIDEOBACKLIGHT?OSDMENU
            CODE    92F1H     0066H     UNIT         ?PR?_SETRGBCONTRAST?OSDMENU
            CODE    9357H     0066H     UNIT         ?PR?RESETVIDEOVALUE?OSDMENU
            CODE    93BDH     0061H     UNIT         ?PR?GETFWREVEE?ETC_EEP
            CODE    941EH     0060H     UNIT         ?PR?TW88
            CODE    947EH     005FH     UNIT         ?PR?HS_KEYREMO
            CODE    94DDH     005EH     UNIT         ?PR?_DOWNLOADFONT?OSDBASIC
            CODE    953BH     005EH     UNIT         ?PR?INITOSDMENUXY?OSDMENU
            CODE    9599H     005BH     UNIT         ?PR?DISPLAYLOGO?DISPINFO
            CODE    95F4H     005BH     UNIT         ?PR?CHANGE_OSDCOLORLOOKUP?OSDBASIC
            CODE    964FH     005BH     UNIT         ?PR?PRINTF
            CODE    96AAH     0059H     UNIT         ?PR?GETVINPUTSTDINX?MAIN
            CODE    9703H     0059H     UNIT         ?PR?MAIN?MAIN
            CODE    975CH     0058H     UNIT         ?PR?CHECKPANELIMAGE?OSDMENU
            CODE    97B4H     0058H     UNIT         ?PR?SETJUMPMODE?HS_KEYREMO
            CODE    980CH     0057H     UNIT         ?PR?_GETOSDWINDOWY?OSDBASIC
BL51 BANKED LINKER/LOCATER V6.22                                                      04/22/2015  16:23:43  PAGE 5


            CODE    9863H     0056H     UNIT         ?PR?DETECTDECODERINPUT?TW88
            CODE    98B9H     0054H     UNIT         ?PR?DISPLAYFWVERSION?HS_DISPLAYOSD
            CODE    990DH     004FH     UNIT         ?CO?TW88
            CODE    995CH     004DH     UNIT         ?PR?CLEARCURSOR?OSDMENU
            CODE    99A9H     004DH     UNIT         ?PR?_CAMOUTDSEL?OSDMENU
            CODE    99F6H     004DH     UNIT         ?PR?SETNOWMODE?HS_KEYREMO
            CODE    9A43H     004CH     UNIT         ?PR?CLEAROSDINFO?DISPINFO
            CODE    9A8FH     004CH     UNIT         ?PR?_SETVIDEOBRIGHTNESS?OSDMENU
            CODE    9ADBH     004BH     UNIT         ?PR?INITCPU?CPU
            CODE    9B26H     004BH     UNIT         ?PR?_GETOSDWINDOWX?OSDBASIC
            CODE    9B71H     0048H     UNIT         ?PR?_WAIT_MS?CPU
            CODE    9BB9H     0047H     UNIT         ?PR?_WRITEEEP?I2C
            CODE    9C00H     0045H     UNIT         ?PR?_GETLOWERMENUITEM?OSDMENU
            CODE    9C45H     0044H     UNIT         ?PR?_SAVEFWREVEE?ETC_EEP
            CODE    9C89H     0044H     UNIT         ?PR?_SHOWOSDWINDOW_TW88?OSDBASIC
            CODE    9CCDH     0042H     UNIT         ?PR?_SETOSDWINDOWY_TW88?OSDBASIC
            CODE    9D0FH     0041H     UNIT         ?PR?_WRITEI2CN?I2C
            CODE    9D50H     0041H     UNIT         ?PR?_GETTARGETCHILD?OSDMENU
            CODE    9D91H     003FH     UNIT         ?PR?CPU
            CODE    9DD0H     003FH     UNIT         ?PR?_SETOSDWINDOWX_TW88?OSDBASIC
            CODE    9E0FH     003FH     UNIT         ?PR?_SETVIDEOCONTRAST?OSDMENU
            CODE    9E4EH     003EH     UNIT         ?PR?_WRITEI2CND?I2C
            CODE    9E8CH     003EH     UNIT         ?PR?CLOSEOSDMENU?OSDMENU
            CODE    9ECAH     003EH     UNIT         ?PR?_SETSOURCEMODE?HS_KEYREMO
            CODE    9F08H     003DH     UNIT         ?PR?GETTIME_MS?CPU
            CODE    9F45H     003CH     UNIT         ?PR?_SHOWOSDWINDOWALL?OSDBASIC
            CODE    9F81H     003AH     UNIT         ?PR?LCDPOWEROFF?TW88
            CODE    9FBBH     0039H     UNIT         ?PR?_READI2C?I2C
            CODE    9FF4H     0039H     UNIT         ?PR?_WRITEI2CN_?I2C
            CODE    A02DH     0039H     UNIT         ?PR?_SETVINPUTSTD?MAIN
            CODE    A066H     0038H     UNIT         ?PR?DOWNLOADUDFONT?OSDBASIC
            CODE    A09EH     0035H     UNIT         ?PR?HS_DVRPROTOCOL
            CODE    A0D3H     0034H     UNIT         ?PR?SERIAL_INT?CPU
            CODE    A107H     0034H     UNIT         ?PR?OPENOSDMENU?OSDMENU
            CODE    A13BH     0033H     UNIT         ?PR?_WRITESTRINGTOADDR?OSDBASIC
            CODE    A16EH     0031H     UNIT         ?PR?SERIAL2_INT?CPU
            CODE    A19FH     0031H     UNIT         ?PR?MAIN
            CODE    A1D0H     0031H     UNIT         ?PR?_DRAWATTRCNT?OSDBASIC
            CODE    A201H     0030H     UNIT         ?PR?I2CREADDATA?I2C
            CODE    A231H     0030H     UNIT         ?PR?_GET_CURSOR_ITEM?OSDMENU
            CODE    A261H     0030H     UNIT         ?PR?SETRIGHTSOURCE?HS_KEYREMO
            CODE    A291H     002DH     UNIT         ?PR?WAITENDOFDISPLAYAREA?OSDBASIC
            CODE    A2BEH     002DH     UNIT         ?PR?_CLEARDATACNT?OSDBASIC
            CODE    A2EBH     002CH     UNIT         ?PR?PUSHMENU?OSDMENU
            CODE    A317H     002CH     UNIT         ?CO?HS_DVRPROTOCOL
            CODE    A343H     0029H     UNIT         ?PR?SETAUTODETECTSTD?TW88
            CODE    A36CH     0029H     UNIT         ?PR?HS_DISPLAYOSD
            CODE    A395H     0028H     UNIT         ?PR?SAVEVALUE1?OSDMENU
            CODE    A3BDH     0027H     UNIT         ?PR?CLEARINPUT?DISPINFO
            CODE    A3E4H     0027H     UNIT         ?PR?CLEARBASICEE?ETC_EEP
            CODE    A40BH     0027H     UNIT         ?PR?_PRINTF?PRINTF
            CODE    A432H     0027H     UNIT         ?PR?SETLEFTSOURCE?HS_KEYREMO
            CODE    A459H     0026H     UNIT         ?PR?CLEARTVINFO?DISPINFO
            CODE    A47FH     0026H     UNIT         ?PR?_READEEP?I2C
            CODE    A4A5H     0026H     UNIT         ?PR?_WRITEI2C?I2C
            CODE    A4CBH     0025H     UNIT         ?PR?SEQMODE?HS_KEYREMO
            CODE    A4F0H     0024H     UNIT         ?PR?DISPINFO
BL51 BANKED LINKER/LOCATER V6.22                                                      04/22/2015  16:23:43  PAGE 6


            CODE    A514H     0023H     UNIT         ?PR?REMOVOLUP_RIGHTKEY?KEYREMO
            CODE    A537H     0023H     UNIT         ?PR?REMOVOLDN_LEFTKEY?KEYREMO
            CODE    A55AH     0023H     UNIT         ?PR?READVINPUTSTD?MAIN
            CODE    A57DH     0021H     UNIT         ?PR?_GETVIDEODATAFROMEE?ETC_EEP
            CODE    A59EH     0020H     UNIT         ?PR?CLEARGAUGEINFO?HS_DISPLAYOSD
            CODE    A5BEH     001FH     UNIT         ?PR?_DIFFTIME_MS?CPU
            CODE    A5DDH     001FH     UNIT         ?PR?GETNEXTINPUTSELECTION?MAIN
            CODE    A5FCH     001FH     UNIT         ?PR?SETTRIGGERCSOURCE?HS_KEYREMO
            CODE    A61BH     001EH     UNIT         ?PR?INITVARS?CPU
            CODE    A639H     001EH     UNIT         ?PR?_POWERLED?CPU
            CODE    A657H     001EH     UNIT         ?PR?I2C
            CODE    A675H     001DH     UNIT         ?PR?_SETLANGUAGE?OSDMENU
            CODE    A692H     001DH     UNIT         ?PR?_CLEARAUTODETECTSTD?TW88
            CODE    A6AFH     001CH     UNIT         ?PR?POPMENU?OSDMENU
            CODE    A6CBH     001CH     UNIT         ?PR?_GETNEXTCURSORMENUITEM?OSDMENU
            CODE    A6E7H     001CH     UNIT         ?PR?COMPOSITE1INPUT?TW88
            CODE    A703H     001CH     UNIT         ?PR?COMPOSITE3INPUT?TW88
            CODE    A71FH     001CH     UNIT         ?PR?COMPOSITE4INPUT?TW88
            CODE    A73BH     001BH     UNIT         ?PR?_STRLEN?OSDBASIC
            CODE    A756H     001BH     UNIT         ?PR?_PUTS?PRINTF
            CODE    A771H     0019H     UNIT         ?CO?AUDIO
            CODE    A78AH     0018H     UNIT         ?PR?_DELAY?CPU
            CODE    A7A2H     0012H     UNIT         ?PR?I2CSTART?I2C
            CODE    A7B4H     0011H     UNIT         ?PR?_SAVEVIDEODATATOEE?ETC_EEP
            CODE    A7C5H     0011H     UNIT         ?PR?ISNOINPUT?MAIN
            CODE    A7D6H     0011H     UNIT         ?PR?GETOSDLANG?OSDMENU
            CODE    A7E7H     0011H     UNIT         ?CO?PRINTF
            CODE    A7F8H     0010H     UNIT         ?PR?HS_INITVARS?MAIN
            CODE    A808H     000FH     UNIT         ?PR?TIMER2_INT?CPU
            CODE    A817H     000FH     UNIT         ?PR?CLEARMUTEINFO?DISPINFO
            CODE    A826H     000FH     UNIT         ?PR?GETLCDPOWERSTATE?TW88
            CODE    A835H     000EH     UNIT         ?PR?REMOMENU_MENUKEY?KEYREMO
            CODE    A843H     000DH     UNIT         ?PR?REMOCHNUP_UPKEY?KEYREMO
            CODE    A850H     000DH     UNIT         ?PR?REMOCHNDN_DNKEY?KEYREMO
            CODE    A85DH     000DH     UNIT         ?PR?POWEROFF?MAIN
            CODE    A86AH     000CH     UNIT         ?PR?_CLEARDISPLAYEDOSD?DISPINFO
            CODE    A876H     000CH     UNIT         ?PR?SETOSDLASTKEYINTIME?MAIN
            CODE    A882H     000CH     UNIT         ?PR?CLEARVALUEWIN?OSDMENU
            CODE    A88EH     000CH     UNIT         ?PR?_ABS?ABS
            CODE    A89AH     000BH     UNIT         ?PR?RS_READY?CPU
            CODE    A8A5H     0009H     UNIT         ?PR?_SAVEDEBUGLEVELEE?ETC_EEP
            CODE    A8AEH     0009H     UNIT         ?PR?_SAVEWIDEMODEEE?ETC_EEP
            CODE    A8B7H     0009H     UNIT         ?PR?_SAVEOSDPOSITIONMODEEE?ETC_EEP
            CODE    A8C0H     0009H     UNIT         ?PR?_SAVEINPUTSELECTIONEE?ETC_EEP
            CODE    A8C9H     0009H     UNIT         ?PR?_SAVEOSDLANGEE?ETC_EEP
            CODE    A8D2H     0009H     UNIT         ?PR?_SETAUDIOVOLEE?ETC_EEP
            CODE    A8DBH     0009H     UNIT         ?PR?_SETPCAUDIOVOLEE?ETC_EEP
            CODE    A8E4H     0009H     UNIT         ?PR?POWERDOWN_XTAL?MAIN
            CODE    A8EDH     0009H     UNIT         ?PR?GETOSDLASTKEYINTIME?MAIN
            CODE    A8F6H     0009H     UNIT         ?PR?_GETVIDEODATAWITHOFFSET?OSDMENU
            CODE    A8FFH     0009H     UNIT         ?PR?_GETUPPERMENUITEM?OSDMENU
            CODE    A908H     0009H     UNIT         ?PR?AUDIOMUTE?AUDIO
            CODE    A911H     0008H     UNIT         ?PR?_RS2_TX?CPU
            CODE    A919H     0008H     UNIT         ?PR?GETDEBUGLEVELEE?ETC_EEP
            CODE    A921H     0008H     UNIT         ?PR?GETWIDEMODEEE?ETC_EEP
            CODE    A929H     0008H     UNIT         ?PR?GETPOSSIBLEAUTODETECTSTDEE?ETC_EEP
            CODE    A931H     0008H     UNIT         ?PR?GETOSDPOSITIONMODEEE?ETC_EEP
BL51 BANKED LINKER/LOCATER V6.22                                                      04/22/2015  16:23:43  PAGE 7


            CODE    A939H     0008H     UNIT         ?PR?GETOSDLANGEE?ETC_EEP
            CODE    A941H     0008H     UNIT         ?PR?GETAUDIOVOLEE?ETC_EEP
            CODE    A949H     0008H     UNIT         ?PR?GETPCAUDIOVOLEE?ETC_EEP
            CODE    A951H     0008H     UNIT         ?PR?KEYREMO
            CODE    A959H     0007H     UNIT         ?PR?CLEARLOGO?DISPINFO
            CODE    A960H     0007H     UNIT         ?PR?_SETDISPLAYEDOSD?DISPINFO
            CODE    A967H     0006H     UNIT         ?PR?GETDISPLAYEDOSD?DISPINFO
            CODE    A96DH     0006H     UNIT         ?PR?GETVINPUTSTD?MAIN
            CODE    A973H     0006H     UNIT         ?PR?GETINPUTSELECTION?MAIN
            CODE    A979H     0003H     UNIT         ?PR?ISINPUTANALOGRGB?OSDMENU



OVERLAY MAP OF MODULE:   .\Output\AWT-ML077 (ADC)


SEGMENT                                             BIT_GROUP          XDATA_GROUP
  +--> CALLED SEGMENT                            START    LENGTH     START    LENGTH
------------------------------------------------------------------------------------
?C_C51STARTUP                                    -----    -----      -----    -----
  +--> ?PR?MAIN?MAIN
  +--> ?C_INITSEG

?PR?MAIN?MAIN                                    -----    -----      0000H    0002H
  +--> ?PR?AUDIOMUTE?AUDIO
  +--> ?PR?_WAIT_MS?CPU
  +--> ?PR?INITCPU?CPU
  +--> ?PR?_POWERLED?CPU
  +--> ?PR?INITVARS?CPU
  +--> ?PR?HS_INITVARS?MAIN
  +--> ?PR?INITTECHWELL?CPU
  +--> ?PR?MAIN_INIT?CPU
  +--> ?PR?LOADEEPROM?MAIN
  +--> ?PR?MAIN_LOOP?MAIN
  +--> ?PR?WAITPOWERON?MAIN
  +--> ?PR?_CHANGEVOL?AUDIO
  +--> ?PR?_READEEP?I2C
  +--> ?PR?_CAMOUTDSEL?OSDMENU

?PR?AUDIOMUTE?AUDIO                              0023H.2  0000H.1    -----    -----

?PR?_WAIT_MS?CPU                                 -----    -----      0027H    0004H

?PR?INITVARS?CPU                                 -----    -----      -----    -----
  +--> ?PR?_DELAY?CPU
  +--> ?PR?POWERDOWN_XTAL?MAIN

?PR?POWERDOWN_XTAL?MAIN                          0023H.2  0000H.1    -----    -----

?PR?INITTECHWELL?CPU                             -----    -----      -----    -----
  +--> ?PR?_READI2C?I2C
  +--> ?CO?CPU
  +--> ?PR?_PUTS?PRINTF
  +--> ?PR?_PRINTF?PRINTF
  +--> ?PR?RS_READY?CPU
  +--> ?PR?_DELAY?CPU
  +--> ?PR?CPU
BL51 BANKED LINKER/LOCATER V6.22                                                      04/22/2015  16:23:43  PAGE 8



?PR?_READI2C?I2C                                 -----    -----      0036H    0003H
  +--> ?PR?I2CSTART?I2C
  +--> ?PR?_I2CWRITEDATA?I2C
  +--> ?PR?I2CREADDATA?I2C
  +--> ?PR?I2CSTOP?I2C

?PR?I2CSTART?I2C                                 -----    -----      -----    -----
  +--> ?PR?DD?I2C

?PR?_I2CWRITEDATA?I2C                            -----    -----      -----    -----
  +--> ?PR?I2C

?PR?I2C                                          -----    -----      -----    -----
  +--> ?PR?DD?I2C

?PR?I2CREADDATA?I2C                              -----    -----      -----    -----
  +--> ?PR?DD?I2C

?PR?I2CSTOP?I2C                                  -----    -----      -----    -----
  +--> ?PR?DD?I2C

?PR?_PUTS?PRINTF                                 -----    -----      0021H    0003H
  +--> ?PR?PRINTF
  +--> ?PR?_RS_TX?CPU

?PR?_PRINTF?PRINTF                               -----    -----      0029H    002EH
  +--> ?PR?_DOPRINT?PRINTF

?PR?_DOPRINT?PRINTF                              0023H.2  0000H.2    0057H    0015H
  +--> ?PR?PRINTF
  +--> ?CO?PRINTF

?PR?MAIN_INIT?CPU                                -----    -----      0002H    0002H
  +--> ?PR?_WRITEI2C?I2C
  +--> ?PR?GETFWREVEE?ETC_EEP
  +--> ?PR?CPU
  +--> ?CO?CPU
  +--> ?PR?_PRINTF?PRINTF
  +--> ?PR?_SAVEFWREVEE?ETC_EEP
  +--> ?PR?_SAVEDEBUGLEVELEE?ETC_EEP
  +--> ?PR?_SAVEINPUTSELECTIONEE?ETC_EEP
  +--> ?PR?CLEARBASICEE?ETC_EEP
  +--> ?PR?GETDEBUGLEVELEE?ETC_EEP
  +--> ?PR?_SETVINPUTSTD?MAIN
  +--> ?PR?DISPLAYLOGO?DISPINFO
  +--> ?PR?_LCDPOWERON?TW88
  +--> ?PR?_READEEP?I2C
  +--> ?PR?SETPOSSIBLEAUTODETECTSTDEE?ETC_EEP
  +--> ?PR?CHANGE_OSDCOLORLOOKUP?OSDBASIC
  +--> ?PR?DOWNLOADUDFONT?OSDBASIC
  +--> ?PR?_DISPLAYINFORMATION?HS_DISPLAYOSD
  +--> ?PR?_DELAY?CPU
  +--> ?PR?CLEARGAUGEINFO?HS_DISPLAYOSD

?PR?_WRITEI2C?I2C                                -----    -----      0057H    0003H
  +--> ?PR?I2C
BL51 BANKED LINKER/LOCATER V6.22                                                      04/22/2015  16:23:43  PAGE 9


  +--> ?PR?I2CSTART?I2C
  +--> ?PR?_I2CWRITEDATA?I2C
  +--> ?PR?I2CSTOP?I2C

?PR?GETFWREVEE?ETC_EEP                           -----    -----      0004H    0002H
  +--> ?PR?_READEEP?I2C

?PR?_READEEP?I2C                                 -----    -----      0035H    0001H
  +--> ?PR?_READI2C?I2C
  +--> ?PR?_DELAY?CPU

?PR?_SAVEFWREVEE?ETC_EEP                         -----    -----      0004H    0002H
  +--> ?PR?_WRITEEEP?I2C

?PR?_WRITEEEP?I2C                                -----    -----      002AH    0004H
  +--> ?PR?I2CSTART?I2C
  +--> ?PR?_I2CWRITEDATA?I2C
  +--> ?PR?I2CSTOP?I2C
  +--> ?PR?_DELAY?CPU

?PR?_SAVEDEBUGLEVELEE?ETC_EEP                    -----    -----      -----    -----
  +--> ?PR?_WRITEEEP?I2C

?PR?_SAVEINPUTSELECTIONEE?ETC_EEP                -----    -----      -----    -----
  +--> ?PR?_WRITEEEP?I2C

?PR?CLEARBASICEE?ETC_EEP                         -----    -----      -----    -----
  +--> ?PR?_WRITEEEP?I2C
  +--> ?PR?RESETOSDVALUE?OSDMENU
  +--> ?PR?RESETVIDEOVALUE?OSDMENU
  +--> ?PR?_SET4WIDESCREEN?OSDMENU

?PR?RESETOSDVALUE?OSDMENU                        -----    -----      -----    -----
  +--> ?CO?OSDMENU
  +--> ?PR?_SAVEOSDPOSITIONMODEEE?ETC_EEP
  +--> ?PR?_READEEP?I2C
  +--> ?PR?_WRITEEEP?I2C
  +--> ?PR?_CHANGEVOL?AUDIO
  +--> ?PR?_CAMOUTDSEL?OSDMENU
  +--> ?PR?_PUTS?PRINTF
  +--> ?PR?_CLEARDATACNT?OSDBASIC
  +--> ?PR?LOADEEPROM?MAIN
  +--> ?PR?_SAVEOSDLANGEE?ETC_EEP
  +--> ?PR?INITOSDMENU?OSDMENU

?PR?_SAVEOSDPOSITIONMODEEE?ETC_EEP               -----    -----      -----    -----
  +--> ?PR?_WRITEEEP?I2C

?PR?_CHANGEVOL?AUDIO                             -----    -----      001BH    0002H
  +--> ?PR?AUDIOMUTE?AUDIO
  +--> ?CO?OSDMENU
  +--> ?PR?_WRITEI2C?I2C
  +--> ?CO?AUDIO
  +--> ?PR?_SETPCAUDIOVOLEE?ETC_EEP
  +--> ?PR?_SETAUDIOVOLEE?ETC_EEP
  +--> ?PR?_PRINTF?PRINTF

BL51 BANKED LINKER/LOCATER V6.22                                                      04/22/2015  16:23:43  PAGE 10


?PR?_SETPCAUDIOVOLEE?ETC_EEP                     -----    -----      -----    -----
  +--> ?PR?_WRITEEEP?I2C

?PR?_SETAUDIOVOLEE?ETC_EEP                       -----    -----      -----    -----
  +--> ?PR?_WRITEEEP?I2C

?PR?_CAMOUTDSEL?OSDMENU                          -----    -----      0014H    0001H
  +--> ?CO?OSDMENU
  +--> ?PR?_PUTS?PRINTF

?PR?_CLEARDATACNT?OSDBASIC                       -----    -----      0032H    0003H
  +--> ?PR?OSDBASIC
  +--> ?PR?_WRITEI2C?I2C
  +--> ?PR?_WRITEI2CND?I2C

?PR?_WRITEI2CND?I2C                              -----    -----      0036H    0005H
  +--> ?PR?I2C
  +--> ?PR?I2CSTART?I2C
  +--> ?PR?_I2CWRITEDATA?I2C
  +--> ?PR?I2CSTOP?I2C

?PR?LOADEEPROM?MAIN                              -----    -----      -----    -----
  +--> ?PR?_READEEP?I2C
  +--> ?PR?GETAUDIOVOLEE?ETC_EEP
  +--> ?PR?GETPCAUDIOVOLEE?ETC_EEP

?PR?GETAUDIOVOLEE?ETC_EEP                        -----    -----      -----    -----
  +--> ?PR?_READEEP?I2C

?PR?GETPCAUDIOVOLEE?ETC_EEP                      -----    -----      -----    -----
  +--> ?PR?_READEEP?I2C

?PR?_SAVEOSDLANGEE?ETC_EEP                       -----    -----      -----    -----
  +--> ?PR?_WRITEEEP?I2C

?PR?INITOSDMENU?OSDMENU                          -----    -----      000BH    0001H
  +--> ?PR?GETOSDLANGEE?ETC_EEP
  +--> ?PR?GETINPUTSELECTION?MAIN
  +--> ?CO?OSDMENU
  +--> ?PR?OSDMENU
  +--> ?CO?OSDBASIC
  +--> ?PR?_INITOSDWINDOW?OSDBASIC
  +--> ?PR?_CLEARDATACNT?OSDBASIC
  +--> ?PR?GETOSDPOSITIONMODEEE?ETC_EEP
  +--> ?PR?INITOSDMENUXY?OSDMENU
  +--> ?PR?DISPLAYOSDMENU?OSDMENU

?PR?GETOSDLANGEE?ETC_EEP                         -----    -----      -----    -----
  +--> ?PR?_READEEP?I2C

?PR?OSDMENU                                      -----    -----      -----    -----
  +--> ?CO?OSDMENU
  +--> ?CO?MAIN

?PR?_INITOSDWINDOW?OSDBASIC                      -----    -----      0020H    0005H
  +--> ?PR?_READI2C?I2C
  +--> ?PR?_WRITEI2C?I2C
BL51 BANKED LINKER/LOCATER V6.22                                                      04/22/2015  16:23:43  PAGE 11


  +--> ?PR?OSDBASIC
  +--> ?PR?_WRITEI2CN_?I2C

?PR?_WRITEI2CN_?I2C                              -----    -----      0025H    0006H
  +--> ?PR?I2CSTART?I2C
  +--> ?PR?_I2CWRITEDATA?I2C
  +--> ?PR?I2C
  +--> ?PR?I2CSTOP?I2C

?PR?GETOSDPOSITIONMODEEE?ETC_EEP                 -----    -----      -----    -----
  +--> ?PR?_READEEP?I2C

?PR?INITOSDMENUXY?OSDMENU                        -----    -----      000CH    0007H
  +--> ?CO?OSDMENU
  +--> ?PR?OSDMENU
  +--> ?PR?_GETOSDWINDOWX?OSDBASIC
  +--> ?PR?_SETOSDWINDOWX_TW88?OSDBASIC
  +--> ?PR?_GETOSDWINDOWY?OSDBASIC
  +--> ?PR?_SETOSDWINDOWY_TW88?OSDBASIC

?PR?_GETOSDWINDOWX?OSDBASIC                      -----    -----      002AH    0002H
  +--> ?PR?OSDBASIC
  +--> ?PR?_WRITEI2C?I2C
  +--> ?PR?_READI2C?I2C

?PR?_SETOSDWINDOWX_TW88?OSDBASIC                 -----    -----      0013H    0003H
  +--> ?PR?OSDBASIC
  +--> ?PR?_WRITEI2C?I2C
  +--> ?PR?_READI2C?I2C

?PR?_GETOSDWINDOWY?OSDBASIC                      -----    -----      002AH    0002H
  +--> ?PR?OSDBASIC
  +--> ?PR?_WRITEI2C?I2C
  +--> ?PR?_READI2C?I2C

?PR?_SETOSDWINDOWY_TW88?OSDBASIC                 -----    -----      0013H    0003H
  +--> ?PR?OSDBASIC
  +--> ?PR?_WRITEI2C?I2C
  +--> ?PR?_READI2C?I2C

?PR?DISPLAYOSDMENU?OSDMENU                       -----    -----      -----    -----
  +--> ?PR?_DRAWATTRCNT?OSDBASIC
  +--> ?PR?OSDMENU
  +--> ?PR?GETINPUTSELECTION?MAIN
  +--> ?PR?_READEEP?I2C
  +--> ?PR?_DRAWMENULIST?OSDMENU
  +--> ?PR?PUSHMENU?OSDMENU
  +--> ?PR?POPMENU?OSDMENU
  +--> ?PR?DISPLAYCURSOR?OSDMENU

?PR?_DRAWATTRCNT?OSDBASIC                        -----    -----      0032H    0004H
  +--> ?PR?OSDBASIC
  +--> ?PR?_WRITEI2C?I2C
  +--> ?PR?_WRITEI2CND?I2C

?PR?_DRAWMENULIST?OSDMENU                        -----    -----      0013H    000CH
  +--> ?PR?OSDMENU
BL51 BANKED LINKER/LOCATER V6.22                                                      04/22/2015  16:23:43  PAGE 12


  +--> ?PR?_STRLEN?OSDBASIC
  +--> ?PR?_DRAWATTRCNT?OSDBASIC
  +--> ?PR?_WRITESTRINGTOADDR?OSDBASIC
  +--> ?PR?_CLEARDATACNT?OSDBASIC
  +--> ?PR?_WRITEI2C?I2C
  +--> ?PR?_DISPLAYOSDMENUONEITEM?OSDMENU
  +--> ?PR?_GETLOWERMENUITEM?OSDMENU

?PR?_STRLEN?OSDBASIC                             -----    -----      0051H    0003H

?PR?_WRITESTRINGTOADDR?OSDBASIC                  -----    -----      0051H    0006H
  +--> ?PR?OSDBASIC
  +--> ?PR?_WRITEI2C?I2C
  +--> ?PR?_WRITEI2CN?I2C

?PR?_WRITEI2CN?I2C                               -----    -----      0057H    0007H
  +--> ?PR?I2C
  +--> ?PR?I2CSTART?I2C
  +--> ?PR?_I2CWRITEDATA?I2C
  +--> ?PR?I2CSTOP?I2C

?PR?_DISPLAYOSDMENUONEITEM?OSDMENU               -----    -----      001FH    0013H
  +--> ?PR?OSDMENU
  +--> ?PR?_DRAWATTRCNT?OSDBASIC
  +--> ?PR?_CLEARDATACNT?OSDBASIC
  +--> ?PR?_GETITEMVALUE?OSDMENU
  +--> ?PR?_DISPLAYVIEWBAR?OSDMENU
  +--> ?PR?_DRAWNUM?OSDMENU
  +--> ?CO?OSDMENU
  +--> ?PR?_WRITESTRINGTOADDR?OSDBASIC
  +--> ?PR?_DRAWSTRINGBYLANG?OSDMENU
  +--> ?PR?_STRLEN?OSDBASIC

?PR?_GETITEMVALUE?OSDMENU                        -----    -----      0032H    0003H
  +--> ?PR?GETOSDPOSITIONMODE?OSDMENU
  +--> ?PR?_READEEP?I2C
  +--> ?PR?_GETVIDEODATAWITHOFFSET?OSDMENU
  +--> ?PR?OSDMENU

?PR?GETOSDPOSITIONMODE?OSDMENU                   -----    -----      -----    -----
  +--> ?PR?GETOSDPOSITIONMODEEE?ETC_EEP

?PR?_GETVIDEODATAWITHOFFSET?OSDMENU              -----    -----      -----    -----
  +--> ?PR?_GETVIDEODATAFROMEE?ETC_EEP
  +--> ?PR?OSDMENU

?PR?_GETVIDEODATAFROMEE?ETC_EEP                  -----    -----      -----    -----
  +--> ?PR?_READEEP?I2C

?PR?_DISPLAYVIEWBAR?OSDMENU                      -----    -----      0032H    0010H
  +--> ?CO?OSDMENU
  +--> ?PR?OSDMENU
  +--> ?PR?_WRITESTRINGTOADDR?OSDBASIC

?PR?_DRAWNUM?OSDMENU                             -----    -----      0032H    001FH
  +--> ?PR?OSDMENU
  +--> ?CO?OSDMENU
BL51 BANKED LINKER/LOCATER V6.22                                                      04/22/2015  16:23:43  PAGE 13


  +--> ?PR?_UTOA?OSDBASIC
  +--> ?PR?_STRLEN?OSDBASIC
  +--> ?PR?_WRITESTRINGTOADDR?OSDBASIC

?PR?_UTOA?OSDBASIC                               -----    -----      0051H    000EH
  +--> ?PR?OSDBASIC

?PR?_DRAWSTRINGBYLANG?OSDMENU                    -----    -----      0032H    0018H
  +--> ?PR?OSDMENU
  +--> ?CO?OSDMENU
  +--> ?PR?_WRITESTRINGTOADDR?OSDBASIC
  +--> ?PR?_STRLEN?OSDBASIC

?PR?_GETLOWERMENUITEM?OSDMENU                    -----    -----      001FH    0004H

?PR?PUSHMENU?OSDMENU                             -----    -----      -----    -----
  +--> ?PR?OSDMENU

?PR?POPMENU?OSDMENU                              -----    -----      -----    -----
  +--> ?PR?OSDMENU

?PR?DISPLAYCURSOR?OSDMENU                        -----    -----      000CH    0004H
  +--> ?PR?OSDMENU
  +--> ?PR?_DRAWATTRCNT?OSDBASIC
  +--> ?PR?_GETITEMVALUE?OSDMENU

?PR?RESETVIDEOVALUE?OSDMENU                      -----    -----      000BH    0002H
  +--> ?CO?OSDMENU
  +--> ?PR?_SETVIDEOMODE?OSDMENU
  +--> ?PR?_SAVEVIDEODATATOEE?ETC_EEP

?PR?_SETVIDEOMODE?OSDMENU                        -----    -----      0021H    0007H
  +--> ?PR?_WRITEEEP?I2C
  +--> ?CO?OSDMENU
  +--> ?PR?_WRITEI2C?I2C
  +--> ?PR?OSDMENU
  +--> ?PR?_GETVIDEODATAWITHOFFSET?OSDMENU
  +--> ?PR?_SETVIDEOCONTRAST?OSDMENU
  +--> ?PR?_SETVIDEOBRIGHTNESS?OSDMENU
  +--> ?PR?_SETVIDEOSATURATION?OSDMENU
  +--> ?PR?_SETVIDEOHUE?OSDMENU
  +--> ?PR?_MAPPING1?TW88
  +--> ?PR?_READI2C?I2C

?PR?_SETVIDEOCONTRAST?OSDMENU                    -----    -----      0028H    0003H
  +--> ?PR?GETINPUTSELECTION?MAIN
  +--> ?PR?OSDMENU
  +--> ?CO?OSDMENU
  +--> ?PR?_MAPPING1?TW88
  +--> ?PR?_WRITEI2C?I2C

?PR?_MAPPING1?TW88                               -----    -----      002CH    000FH
  +--> ?PR?TW88

?PR?_SETVIDEOBRIGHTNESS?OSDMENU                  -----    -----      0028H    0003H
  +--> ?PR?OSDMENU
  +--> ?CO?OSDMENU
BL51 BANKED LINKER/LOCATER V6.22                                                      04/22/2015  16:23:43  PAGE 14


  +--> ?PR?_MAPPING1?TW88
  +--> ?PR?ISINPUTANALOGRGB?OSDMENU
  +--> ?PR?_WRITEI2C?I2C

?PR?_SETVIDEOSATURATION?OSDMENU                  -----    -----      0028H    0004H
  +--> ?PR?ISINPUTANALOGRGB?OSDMENU
  +--> ?PR?OSDMENU
  +--> ?CO?OSDMENU
  +--> ?PR?_MAPPING1?TW88
  +--> ?PR?_READI2C?I2C
  +--> ?PR?_WRITEI2C?I2C

?PR?_SETVIDEOHUE?OSDMENU                         -----    -----      0028H    0003H
  +--> ?PR?OSDMENU
  +--> ?CO?OSDMENU
  +--> ?PR?_MAPPING1?TW88
  +--> ?PR?_READI2C?I2C
  +--> ?PR?ISINPUTANALOGRGB?OSDMENU
  +--> ?PR?_WRITEI2C?I2C

?PR?_SAVEVIDEODATATOEE?ETC_EEP                   -----    -----      -----    -----
  +--> ?PR?_WRITEEEP?I2C

?PR?_SET4WIDESCREEN?OSDMENU                      -----    -----      0021H    0006H
  +--> ?PR?GETVINPUTSTD?MAIN
  +--> ?CO?OSDMENU
  +--> ?PR?OSDMENU
  +--> ?PR?WAITENDOFDISPLAYAREA?OSDBASIC
  +--> ?PR?_WRITEI2C?I2C
  +--> ?PR?_SAVEWIDEMODEEE?ETC_EEP

?PR?WAITENDOFDISPLAYAREA?OSDBASIC                -----    -----      002AH    0002H
  +--> ?PR?_READI2C?I2C

?PR?_SAVEWIDEMODEEE?ETC_EEP                      -----    -----      -----    -----
  +--> ?PR?_WRITEEEP?I2C

?PR?GETDEBUGLEVELEE?ETC_EEP                      -----    -----      -----    -----
  +--> ?PR?_READEEP?I2C

?PR?_SETVINPUTSTD?MAIN                           -----    -----      -----    -----
  +--> ?PR?MAIN

?PR?MAIN                                         -----    -----      -----    -----
  +--> ?CO?MAIN

?PR?DISPLAYLOGO?DISPINFO                         -----    -----      0004H    0002H
  +--> ?CO?DISPINFO
  +--> ?CO?OSDBASIC
  +--> ?PR?_INITOSDWINDOW?OSDBASIC
  +--> ?PR?_CLEARDATACNT?OSDBASIC
  +--> ?PR?_DRAWATTRCNT?OSDBASIC
  +--> ?PR?DISPINFO
  +--> ?PR?_WRITESTRINGTOADDR?OSDBASIC
  +--> ?PR?_SHOWOSDWINDOW_TW88?OSDBASIC

?PR?DISPINFO                                     -----    -----      -----    -----
BL51 BANKED LINKER/LOCATER V6.22                                                      04/22/2015  16:23:43  PAGE 15


  +--> ?PR?GETDISPLAYEDOSD?DISPINFO
  +--> ?CO?MAIN

?PR?_SHOWOSDWINDOW_TW88?OSDBASIC                 -----    -----      0020H    0002H
  +--> ?PR?OSDBASIC
  +--> ?PR?_WRITEI2C?I2C
  +--> ?PR?_READI2C?I2C
  +--> ?PR?WAITENDOFDISPLAYAREA?OSDBASIC

?PR?_LCDPOWERON?TW88                             -----    -----      -----    -----
  +--> ?PR?CHECKTRIGGER?HS_KEYREMO
  +--> ?PR?_POWERLED?CPU
  +--> ?PR?GETLCDPOWERSTATE?TW88
  +--> ?CO?TW88
  +--> ?PR?_PRINTF?PRINTF
  +--> ?PR?OFF_LVDS?TW88
  +--> ?PR?_WAIT_MS?CPU
  +--> ?PR?_DELAY?CPU
  +--> ?PR?ON_LVDS?TW88
  +--> ?PR?_WRITEI2C?I2C
  +--> ?PR?_PUTS?PRINTF

?PR?CHECKTRIGGER?HS_KEYREMO                      -----    -----      001BH    0001H
  +--> ?PR?_WAIT_MS?CPU
  +--> ?CO?HS_KEYREMO
  +--> ?PR?_PRINTF?PRINTF

?PR?GETLCDPOWERSTATE?TW88                        -----    -----      -----    -----
  +--> ?PR?_READI2C?I2C

?PR?SETPOSSIBLEAUTODETECTSTDEE?ETC_EEP           -----    -----      0004H    0002H
  +--> ?CO?MAIN
  +--> ?PR?_WRITEEEP?I2C

?PR?CHANGE_OSDCOLORLOOKUP?OSDBASIC               -----    -----      0004H    0002H
  +--> ?CO?UDFONT
  +--> ?PR?_WRITEI2C?I2C

?PR?DOWNLOADUDFONT?OSDBASIC                      -----    -----      0004H    0001H
  +--> ?PR?_WRITEI2C?I2C
  +--> ?CO?UDFONT
  +--> ?PR?_DOWNLOADFONT?OSDBASIC

?PR?_DOWNLOADFONT?OSDBASIC                       -----    -----      0005H    0004H
  +--> ?PR?_READI2C?I2C
  +--> ?PR?_WRITEI2C?I2C
  +--> ?PR?_WRITEI2CN?I2C

?PR?_DISPLAYINFORMATION?HS_DISPLAYOSD            -----    -----      0006H    0001H
  +--> ?PR?GETDISPLAYEDOSD?DISPINFO
  +--> ?CO?HS_DISPLAYOSD
  +--> ?PR?_PRINTF?PRINTF
  +--> ?PR?HS_DISPLAYOSD
  +--> ?PR?_INITOSDWINDOW?OSDBASIC
  +--> ?PR?CLEAROSDINFO?DISPINFO
  +--> ?PR?_CLEARDATACNT?OSDBASIC
  +--> ?PR?_DRAWATTRCNT?OSDBASIC
BL51 BANKED LINKER/LOCATER V6.22                                                      04/22/2015  16:23:43  PAGE 16


  +--> ?PR?_WRITESTRINGTOADDR?OSDBASIC
  +--> ?PR?_SETDISPLAYEDOSD?DISPINFO
  +--> ?PR?_SHOWOSDWINDOW_TW88?OSDBASIC
  +--> ?PR?_SHOWOSDWINDOWALL?OSDBASIC
  +--> ?PR?_WRITEI2C?I2C

?PR?HS_DISPLAYOSD                                -----    -----      -----    -----
  +--> ?CO?HS_DISPLAYOSD

?PR?CLEAROSDINFO?DISPINFO                        -----    -----      000FH    0001H
  +--> ?PR?CLEARLOGO?DISPINFO
  +--> ?PR?GETDISPLAYEDOSD?DISPINFO
  +--> ?PR?DISPINFO
  +--> ?CO?DISPINFO
  +--> ?PR?_PRINTF?PRINTF
  +--> ?PR?CLEARTVINFO?DISPINFO
  +--> ?PR?CLEARMUTEINFO?DISPINFO
  +--> ?PR?CLEARINPUT?DISPINFO
  +--> ?PR?CLOSEOSDMENU?OSDMENU
  +--> ?PR?CLEARGAUGEINFO?HS_DISPLAYOSD

?PR?CLEARLOGO?DISPINFO                           -----    -----      -----    -----
  +--> ?PR?_SHOWOSDWINDOW_TW88?OSDBASIC

?PR?CLEARTVINFO?DISPINFO                         -----    -----      -----    -----
  +--> ?PR?_SHOWOSDWINDOW_TW88?OSDBASIC

?PR?CLEARMUTEINFO?DISPINFO                       -----    -----      -----    -----
  +--> ?PR?_SHOWOSDWINDOW_TW88?OSDBASIC

?PR?CLEARINPUT?DISPINFO                          -----    -----      -----    -----
  +--> ?PR?_SHOWOSDWINDOWALL?OSDBASIC
  +--> ?PR?_SHOWOSDWINDOW_TW88?OSDBASIC
  +--> ?PR?GETDISPLAYEDOSD?DISPINFO
  +--> ?CO?DISPINFO
  +--> ?PR?_PRINTF?PRINTF

?PR?_SHOWOSDWINDOWALL?OSDBASIC                   -----    -----      0020H    0002H
  +--> ?CO?OSDBASIC
  +--> ?PR?_PRINTF?PRINTF
  +--> ?PR?WAITENDOFDISPLAYAREA?OSDBASIC
  +--> ?PR?_READI2C?I2C
  +--> ?PR?_WRITEI2C?I2C

?PR?CLOSEOSDMENU?OSDMENU                         -----    -----      0010H    0001H
  +--> ?PR?_SHOWOSDWINDOWALL?OSDBASIC
  +--> ?PR?WAITENDOFDISPLAYAREA?OSDBASIC
  +--> ?PR?_WRITEI2C?I2C
  +--> ?PR?_CLEARDISPLAYEDOSD?DISPINFO
  +--> ?PR?SETNOWMODE?HS_KEYREMO

?PR?SETNOWMODE?HS_KEYREMO                        -----    -----      0014H    0001H
  +--> ?PR?HS_KEYREMO
  +--> ?PR?_PUTS?PRINTF
  +--> ?PR?_SETSOURCEMODE?HS_KEYREMO
  +--> ?PR?_READEEP?I2C
  +--> ?CO?HS_KEYREMO
BL51 BANKED LINKER/LOCATER V6.22                                                      04/22/2015  16:23:43  PAGE 17



?PR?HS_KEYREMO                                   -----    -----      -----    -----
  +--> ?CO?HS_KEYREMO

?PR?_SETSOURCEMODE?HS_KEYREMO                    -----    -----      0015H    0005H
  +--> ?CO?HS_KEYREMO
  +--> ?PR?_TW2835COMMAND?CPU
  +--> ?PR?_CHANGEINPUT?MAIN

?PR?_TW2835COMMAND?CPU                           -----    -----      001AH    000DH
  +--> ?PR?CPU
  +--> ?CO?CPU
  +--> ?PR?_PRINTF?PRINTF
  +--> ?PR?GETTIME_MS?CPU
  +--> ?PR?_ABS?ABS
  +--> ?PR?_WAIT_MS?CPU

?PR?GETTIME_MS?CPU                               -----    -----      0027H    0002H

?PR?_CHANGEINPUT?MAIN                            -----    -----      001AH    0001H
  +--> ?PR?LCDPOWEROFF?TW88
  +--> ?PR?_INITVIDEODATA?MAIN
  +--> ?PR?COMPOSITE1INPUT?TW88
  +--> ?CO?MAIN
  +--> ?PR?COMPOSITE3INPUT?TW88
  +--> ?PR?_CHANGEVOL?AUDIO
  +--> ?PR?MAIN
  +--> ?PR?_PRINTF?PRINTF
  +--> ?PR?CHECKPANELIMAGE?OSDMENU
  +--> ?PR?_SAVEINPUTSELECTIONEE?ETC_EEP
  +--> ?PR?_DELAY?CPU
  +--> ?PR?CHECKDECODERINPUT?MAIN
  +--> ?PR?DISPLAYINPUT?DISPINFO
  +--> ?PR?_LCDPOWERON?TW88
  +--> ?PR?_WRITEI2C?I2C

?PR?LCDPOWEROFF?TW88                             -----    -----      -----    -----
  +--> ?PR?_WRITEI2C?I2C
  +--> ?PR?OFF_LVDS?TW88
  +--> ?PR?_WAIT_MS?CPU
  +--> ?PR?_DELAY?CPU

?PR?_INITVIDEODATA?MAIN                          -----    -----      0020H    0001H
  +--> ?CO?TABLE
  +--> ?PR?_I2CDEVICEINITIALIZE?MAIN
  +--> ?PR?MAIN
  +--> ?PR?_WRITEI2C?I2C
  +--> ?PR?_CLEARAUTODETECTSTD?TW88
  +--> ?PR?SETAUTODETECTSTD?TW88
  +--> ?PR?_READEEP?I2C
  +--> ?PR?_SETVIDEOMODE?OSDMENU
  +--> ?PR?GETWIDEMODEEE?ETC_EEP
  +--> ?PR?_SET4WIDESCREEN?OSDMENU

?PR?_I2CDEVICEINITIALIZE?MAIN                    -----    -----      0021H    0008H
  +--> ?CO?MAIN
  +--> ?PR?MAIN
BL51 BANKED LINKER/LOCATER V6.22                                                      04/22/2015  16:23:43  PAGE 18


  +--> ?PR?_PRINTF?PRINTF
  +--> ?PR?_WRITEI2C?I2C

?PR?_CLEARAUTODETECTSTD?TW88                     -----    -----      0021H    0001H
  +--> ?PR?_READI2C?I2C
  +--> ?PR?_WRITEI2C?I2C

?PR?SETAUTODETECTSTD?TW88                        -----    -----      -----    -----
  +--> ?CO?TW88
  +--> ?PR?_PUTS?PRINTF
  +--> ?PR?GETPOSSIBLEAUTODETECTSTDEE?ETC_EEP
  +--> ?PR?_WRITEI2C?I2C
  +--> ?PR?_READI2C?I2C

?PR?GETPOSSIBLEAUTODETECTSTDEE?ETC_EEP           -----    -----      -----    -----
  +--> ?PR?_READEEP?I2C

?PR?GETWIDEMODEEE?ETC_EEP                        -----    -----      -----    -----
  +--> ?PR?_READEEP?I2C

?PR?COMPOSITE1INPUT?TW88                         -----    -----      -----    -----
  +--> ?PR?_WRITEI2C?I2C
  +--> ?PR?TW88
  +--> ?PR?_READI2C?I2C

?PR?COMPOSITE3INPUT?TW88                         -----    -----      -----    -----
  +--> ?PR?_WRITEI2C?I2C
  +--> ?PR?TW88
  +--> ?PR?_READI2C?I2C

?PR?CHECKPANELIMAGE?OSDMENU                      -----    -----      -----    -----
  +--> ?PR?_READI2C?I2C
  +--> ?PR?_WRITEI2C?I2C

?PR?CHECKDECODERINPUT?MAIN                       -----    -----      001BH    0005H
  +--> ?PR?DETECTDECODERINPUT?TW88
  +--> ?CO?MAIN
  +--> ?PR?_PRINTF?PRINTF
  +--> ?PR?_SETVINPUTSTD?MAIN
  +--> ?PR?CLEARGAUGEINFO?HS_DISPLAYOSD
  +--> ?PR?GETDISPLAYEDOSD?DISPINFO
  +--> ?PR?_DELAY?CPU
  +--> ?PR?_INITVIDEODATA?MAIN

?PR?DETECTDECODERINPUT?TW88                      -----    -----      0020H    0002H
  +--> ?PR?_DELAY?CPU
  +--> ?PR?_READI2C?I2C

?PR?CLEARGAUGEINFO?HS_DISPLAYOSD                 -----    -----      -----    -----
  +--> ?PR?GETDISPLAYEDOSD?DISPINFO
  +--> ?CO?HS_DISPLAYOSD
  +--> ?PR?_PRINTF?PRINTF
  +--> ?PR?_SHOWOSDWINDOW_TW88?OSDBASIC

?PR?DISPLAYINPUT?DISPINFO                        -----    -----      001BH    0005H
  +--> ?PR?DISPINFO
  +--> ?CO?DISPINFO
BL51 BANKED LINKER/LOCATER V6.22                                                      04/22/2015  16:23:43  PAGE 19


  +--> ?PR?_PRINTF?PRINTF
  +--> ?CO?OSDBASIC
  +--> ?PR?_INITOSDWINDOW?OSDBASIC
  +--> ?PR?_CLEARDATACNT?OSDBASIC
  +--> ?PR?_DRAWATTRCNT?OSDBASIC
  +--> ?PR?_WRITESTRINGTOADDR?OSDBASIC
  +--> ?PR?GETINPUTSELECTION?MAIN
  +--> ?PR?GETVINPUTSTDINX?MAIN
  +--> ?CO?MAIN
  +--> ?PR?_STRLEN?OSDBASIC
  +--> ?PR?_READEEP?I2C
  +--> ?PR?_SHOWOSDWINDOW_TW88?OSDBASIC
  +--> ?PR?_SHOWOSDWINDOWALL?OSDBASIC
  +--> ?PR?GETTIME_MS?CPU

?PR?GETVINPUTSTDINX?MAIN                         -----    -----      -----    -----
  +--> ?PR?READVINPUTSTD?MAIN
  +--> ?PR?MAIN
  +--> ?CO?MAIN

?PR?READVINPUTSTD?MAIN                           -----    -----      -----    -----
  +--> ?PR?ISNOINPUT?MAIN
  +--> ?PR?_READI2C?I2C

?PR?ISNOINPUT?MAIN                               -----    -----      -----    -----
  +--> ?PR?_READI2C?I2C

?PR?MAIN_LOOP?MAIN                               -----    -----      0002H    0001H
  +--> ?CO?MAIN
  +--> ?PR?_PUTS?PRINTF
  +--> ?PR?GETDISPLAYEDOSD?DISPINFO
  +--> ?PR?_READEEP?I2C
  +--> ?PR?_DISPLAYINFORMATION?HS_DISPLAYOSD
  +--> ?PR?DISPLAYINPUT?DISPINFO
  +--> ?PR?CHECKTRIGGER?HS_KEYREMO
  +--> ?PR?_TRIGGERHANDLER?HS_KEYREMO
  +--> ?PR?SEQMODE?HS_KEYREMO
  +--> ?PR?_READI2C?I2C
  +--> ?PR?_ADJUSTAUTODAYNIGHT?MAIN
  +--> ?PR?CHECKKEYIN?KEYREMO
  +--> ?PR?CLEARINPUT?DISPINFO
  +--> ?PR?SETNOWMODE?HS_KEYREMO
  +--> ?PR?CHECKANDCLEAROSD?DISPINFO
  +--> ?PR?GETINPUTSELECTION?MAIN
  +--> ?PR?CHECKDECODERINPUT?MAIN
  +--> ?PR?_WRITEI2C?I2C
  +--> ?PR?_POWERLED?CPU
  +--> ?PR?_WAIT_MS?CPU

?PR?_TRIGGERHANDLER?HS_KEYREMO                   -----    -----      0005H    0008H
  +--> ?CO?HS_KEYREMO
  +--> ?PR?SETREARSOURCE?HS_KEYREMO
  +--> ?PR?CLEARGAUGEINFO?HS_DISPLAYOSD
  +--> ?PR?SETLEFTSOURCE?HS_KEYREMO
  +--> ?PR?SETRIGHTSOURCE?HS_KEYREMO
  +--> ?PR?HS_KEYREMO
  +--> ?PR?_PUTS?PRINTF
BL51 BANKED LINKER/LOCATER V6.22                                                      04/22/2015  16:23:43  PAGE 20


  +--> ?PR?SETTRIGGERCSOURCE?HS_KEYREMO
  +--> ?PR?_PRINTF?PRINTF
  +--> ?PR?CHECKTRIGGER?HS_KEYREMO
  +--> ?PR?_WAIT_MS?CPU
  +--> ?PR?DISPLAYINPUT?DISPINFO
  +--> ?PR?SETNOWMODE?HS_KEYREMO
  +--> ?PR?_READEEP?I2C
  +--> ?PR?_READI2C?I2C
  +--> ?PR?_WRITEI2C?I2C

?PR?SETREARSOURCE?HS_KEYREMO                     -----    -----      000DH    0001H
  +--> ?PR?_READEEP?I2C
  +--> ?CO?HS_KEYREMO
  +--> ?PR?HS_KEYREMO
  +--> ?PR?_SETSOURCEMODE?HS_KEYREMO
  +--> ?PR?_PRINTF?PRINTF
  +--> ?PR?_WRITEI2C?I2C
  +--> ?PR?_READI2C?I2C
  +--> ?PR?DISPLAYGAUGEOSD?HS_DISPLAYOSD

?PR?DISPLAYGAUGEOSD?HS_DISPLAYOSD                -----    -----      000EH    0001H
  +--> ?PR?CLEAROSDINFO?DISPINFO
  +--> ?PR?HS_DISPLAYOSD
  +--> ?PR?_INITOSDWINDOW?OSDBASIC
  +--> ?PR?_CLEARDATACNT?OSDBASIC
  +--> ?PR?_DRAWATTRCNT?OSDBASIC
  +--> ?CO?HS_DISPLAYOSD
  +--> ?PR?_WRITESTRINGTOADDR?OSDBASIC
  +--> ?PR?_SETDISPLAYEDOSD?DISPINFO
  +--> ?PR?_SHOWOSDWINDOW_TW88?OSDBASIC
  +--> ?PR?_SHOWOSDWINDOWALL?OSDBASIC
  +--> ?PR?_WRITEI2C?I2C

?PR?SETLEFTSOURCE?HS_KEYREMO                     -----    -----      -----    -----
  +--> ?PR?_READEEP?I2C
  +--> ?CO?HS_KEYREMO
  +--> ?PR?HS_KEYREMO
  +--> ?PR?_SETSOURCEMODE?HS_KEYREMO

?PR?SETRIGHTSOURCE?HS_KEYREMO                    -----    -----      -----    -----
  +--> ?PR?_READEEP?I2C
  +--> ?CO?HS_KEYREMO
  +--> ?PR?HS_KEYREMO
  +--> ?PR?_SETSOURCEMODE?HS_KEYREMO

?PR?SETTRIGGERCSOURCE?HS_KEYREMO                 -----    -----      -----    -----
  +--> ?PR?_READEEP?I2C
  +--> ?CO?HS_KEYREMO
  +--> ?PR?HS_KEYREMO
  +--> ?PR?_SETSOURCEMODE?HS_KEYREMO

?PR?SEQMODE?HS_KEYREMO                           -----    -----      -----    -----
  +--> ?CO?HS_KEYREMO
  +--> ?PR?HS_KEYREMO
  +--> ?PR?_SETSOURCEMODE?HS_KEYREMO

?PR?_ADJUSTAUTODAYNIGHT?MAIN                     -----    -----      0003H    0002H
BL51 BANKED LINKER/LOCATER V6.22                                                      04/22/2015  16:23:43  PAGE 21


  +--> ?PR?_READI2C?I2C
  +--> ?PR?MAIN
  +--> ?PR?_WRITEI2C?I2C

?PR?CHECKKEYIN?KEYREMO                           -----    -----      0003H    0003H
  +--> ?PR?_GETKEY?KEYREMO
  +--> ?CO?KEYREMO
  +--> ?PR?_PRINTF?PRINTF
  +--> ?PR?_READEEP?I2C
  +--> ?PR?KEYREMO
  +--> ?PR?_WAIT_MS?CPU
  +--> ?PR?_WRITEEEP?I2C
  +--> ?PR?_DISPLAYINFORMATION?HS_DISPLAYOSD
  +--> ?PR?CLEARGAUGEINFO?HS_DISPLAYOSD
  +--> ?PR?DISPLAYINPUT?DISPINFO
  +--> ?PR?_POWERLED?CPU
  +--> ?PR?_DELAY?CPU
  +--> ?PR?SETOSDLASTKEYINTIME?MAIN
  +--> ?PR?_ACTIONREMO?KEYREMO
  +--> ?PR?_WRITEI2C?I2C
  +--> ?PR?CLEAROSDINFO?DISPINFO
  +--> ?PR?CLOSEOSDMENU?OSDMENU
  +--> ?PR?GETDISPLAYEDOSD?DISPINFO
  +--> ?PR?OSDSELECT?OSDMENU
  +--> ?PR?_OSDVALUEUPDN?OSDMENU
  +--> ?PR?_OSDCURSORMOVE?OSDMENU
  +--> ?PR?SETSELECTMODE?HS_KEYREMO
  +--> ?PR?SETJUMPMODE?HS_KEYREMO
  +--> ?PR?_CAM_TXCOMMAND_TORS485?HS_DVRPROT...
  +--> ?PR?DISPLAYFWVERSION?HS_DISPLAYOSD

?PR?_GETKEY?KEYREMO                              0023H.2  0000H.1    0006H    0001H
  +--> ?PR?GETDISPLAYEDOSD?DISPINFO

?PR?SETOSDLASTKEYINTIME?MAIN                     -----    -----      -----    -----
  +--> ?PR?GETTIME_MS?CPU

?PR?_ACTIONREMO?KEYREMO                          -----    -----      0006H    0002H
  +--> ?PR?SETOSDLASTKEYINTIME?MAIN
  +--> ?PR?GETNEXTINPUTSELECTION?MAIN
  +--> ?PR?_CHANGEINPUT?MAIN
  +--> ?PR?GETDISPLAYEDOSD?DISPINFO
  +--> ?PR?CLEARINPUT?DISPINFO
  +--> ?PR?DISPLAYINPUT?DISPINFO
  +--> ?PR?REMOCHNUP_UPKEY?KEYREMO
  +--> ?PR?REMOCHNDN_DNKEY?KEYREMO
  +--> ?PR?OSDSELECT?OSDMENU
  +--> ?PR?REMOVOLUP_RIGHTKEY?KEYREMO
  +--> ?PR?REMOVOLDN_LEFTKEY?KEYREMO
  +--> ?PR?REMOMENU_MENUKEY?KEYREMO
  +--> ?PR?_DOACTION?OSDMENU
  +--> ?PR?_SETITEMVALUE?OSDMENU

?PR?GETNEXTINPUTSELECTION?MAIN                   -----    -----      -----    -----
  +--> ?PR?MAIN

?PR?REMOCHNUP_UPKEY?KEYREMO                      -----    -----      -----    -----
BL51 BANKED LINKER/LOCATER V6.22                                                      04/22/2015  16:23:43  PAGE 22


  +--> ?PR?GETDISPLAYEDOSD?DISPINFO
  +--> ?PR?_OSDCURSORMOVE?OSDMENU

?PR?_OSDCURSORMOVE?OSDMENU                       0023H.2  0000H.1    0008H    0004H
  +--> ?PR?OSDMENU
  +--> ?PR?_READEEP?I2C
  +--> ?PR?_GETNEXTCURSORMENUITEM?OSDMENU
  +--> ?PR?_GETLOWERMENUITEM?OSDMENU
  +--> ?PR?CLEARVALUEWIN?OSDMENU
  +--> ?PR?CLEARCURSOR?OSDMENU
  +--> ?PR?WAITENDOFDISPLAYAREA?OSDBASIC
  +--> ?PR?_GETOSDWINDOWY?OSDBASIC
  +--> ?PR?_SETOSDWINDOWY_TW88?OSDBASIC
  +--> ?PR?_WRITEI2C?I2C
  +--> ?PR?DISPLAYOSDMENU?OSDMENU
  +--> ?PR?_DRAWMENULIST?OSDMENU
  +--> ?PR?DISPLAYCURSOR?OSDMENU

?PR?_GETNEXTCURSORMENUITEM?OSDMENU               -----    -----      000CH    0005H
  +--> ?PR?_GETUPPERMENUITEM?OSDMENU
  +--> ?PR?_GETLOWERMENUITEM?OSDMENU

?PR?CLEARVALUEWIN?OSDMENU                        -----    -----      -----    -----
  +--> ?PR?SAVEVALUE1?OSDMENU

?PR?SAVEVALUE1?OSDMENU                           -----    -----      -----    -----
  +--> ?PR?OSDMENU

?PR?CLEARCURSOR?OSDMENU                          -----    -----      000CH    0002H
  +--> ?PR?OSDMENU
  +--> ?PR?_DRAWATTRCNT?OSDBASIC

?PR?REMOCHNDN_DNKEY?KEYREMO                      -----    -----      -----    -----
  +--> ?PR?GETDISPLAYEDOSD?DISPINFO
  +--> ?PR?_OSDCURSORMOVE?OSDMENU

?PR?OSDSELECT?OSDMENU                            -----    -----      0008H    0002H
  +--> ?PR?OSDMENU
  +--> ?PR?GETINPUTSELECTION?MAIN
  +--> ?PR?READVINPUTSTD?MAIN
  +--> ?PR?_DOACTION?OSDMENU
  +--> ?PR?CLEARCURSOR?OSDMENU
  +--> ?PR?CLOSEOSDMENU?OSDMENU
  +--> ?PR?DISPLAYCURSOR?OSDMENU
  +--> ?PR?_GETITEMVALUE?OSDMENU
  +--> ?PR?_WRITEI2C?I2C
  +--> ?PR?PUSHMENU?OSDMENU
  +--> ?PR?_GET_CURSOR_ITEM?OSDMENU
  +--> ?PR?DISPLAYOSDMENU?OSDMENU

?PR?_DOACTION?OSDMENU                            -----    -----      000AH    0001H
  +--> ?PR?_CHANGEINPUT?MAIN
  +--> ?CO?OSDMENU
  +--> ?PR?_PRINTF?PRINTF
  +--> ?PR?OSDHIGHMENU_SUB?OSDMENU
  +--> ?PR?DISPLAYINFO_OSD?OSDMENU
  +--> ?PR?CLOSEOSDMENU?OSDMENU
BL51 BANKED LINKER/LOCATER V6.22                                                      04/22/2015  16:23:43  PAGE 23


  +--> ?PR?DISPLAYINPUT?DISPINFO
  +--> ?PR?CLEAROSDINFO?DISPINFO
  +--> ?PR?RESETVIDEOVALUE?OSDMENU
  +--> ?PR?RESETOSDVALUE?OSDMENU
  +--> ?PR?SETNOWMODE?HS_KEYREMO

?PR?OSDHIGHMENU_SUB?OSDMENU                      -----    -----      000BH    0001H
  +--> ?PR?OSDMENU
  +--> ?PR?POPMENU?OSDMENU
  +--> ?PR?CLOSEOSDMENU?OSDMENU
  +--> ?CO?OSDMENU
  +--> ?PR?_PRINTF?PRINTF
  +--> ?PR?DISPLAYOSDMENU?OSDMENU
  +--> ?PR?_DRAWMENULIST?OSDMENU
  +--> ?PR?DISPLAYCURSOR?OSDMENU
  +--> ?PR?_WRITEI2C?I2C

?PR?DISPLAYINFO_OSD?OSDMENU                      -----    -----      000BH    0008H
  +--> ?PR?PUSHMENU?OSDMENU
  +--> ?PR?OSDMENU
  +--> ?PR?_DRAWMENULIST?OSDMENU
  +--> ?PR?_DRAWATTRCNT?OSDBASIC
  +--> ?CO?OSDMENU
  +--> ?PR?_WRITESTRINGTOADDR?OSDBASIC
  +--> ?PR?GETINPUTSELECTION?MAIN
  +--> ?CO?MAIN
  +--> ?PR?_STRLEN?OSDBASIC
  +--> ?PR?GETVINPUTSTDINX?MAIN
  +--> ?PR?_READEEP?I2C

?PR?_GET_CURSOR_ITEM?OSDMENU                     -----    -----      000AH    0002H
  +--> ?PR?GETINPUTSELECTION?MAIN
  +--> ?PR?_GETTARGETCHILD?OSDMENU

?PR?_GETTARGETCHILD?OSDMENU                      -----    -----      -----    -----
  +--> ?PR?OSDMENU
  +--> ?PR?_GETLOWERMENUITEM?OSDMENU

?PR?REMOVOLUP_RIGHTKEY?KEYREMO                   -----    -----      -----    -----
  +--> ?PR?GETDISPLAYEDOSD?DISPINFO
  +--> ?PR?OSDSELECT?OSDMENU
  +--> ?PR?_OSDVALUEUPDN?OSDMENU
  +--> ?PR?_CHANGEVOL?AUDIO
  +--> ?PR?DISPLAYVOL?DISPINFO

?PR?_OSDVALUEUPDN?OSDMENU                        -----    -----      0008H    0008H
  +--> ?PR?OSDMENU
  +--> ?PR?_SETITEMVALUE?OSDMENU
  +--> ?PR?_DISPLAYVIEWBAR?OSDMENU
  +--> ?PR?_DRAWNUM?OSDMENU
  +--> ?PR?_DRAWSTRINGBYLANG?OSDMENU

?PR?_SETITEMVALUE?OSDMENU                        -----    -----      0010H    0004H
  +--> ?PR?OSDMENU
  +--> ?CO?OSDMENU
  +--> ?PR?_PRINTF?PRINTF
  +--> ?PR?_SETOSDPOSITIONMODE?OSDMENU
BL51 BANKED LINKER/LOCATER V6.22                                                      04/22/2015  16:23:43  PAGE 24


  +--> ?PR?_SETLANGUAGE?OSDMENU
  +--> ?PR?_SETPCCOLORTEMP?OSDMENU
  +--> ?PR?_SETPCCOLOR?OSDMENU
  +--> ?PR?_SETVIDEOMODE?OSDMENU
  +--> ?PR?_READEEP?I2C
  +--> ?PR?_DRAWATTRCNT?OSDBASIC
  +--> ?PR?_CHANGEVIDEODATA?OSDMENU
  +--> ?PR?_SETVIDEOSHARPNESS?OSDMENU
  +--> ?PR?_CHANGEVOL?AUDIO
  +--> ?PR?_SET4WIDESCREEN?OSDMENU
  +--> ?PR?_WRITEEEP?I2C
  +--> ?PR?SETNOWMODE?HS_KEYREMO
  +--> ?PR?GETINPUTSELECTION?MAIN
  +--> ?PR?_TW2835COMMAND?CPU
  +--> ?PR?SEQMODE?HS_KEYREMO
  +--> ?PR?_CAMOUTDSEL?OSDMENU

?PR?_SETOSDPOSITIONMODE?OSDMENU                  -----    -----      0014H    0016H
  +--> ?PR?GETOSDPOSITIONMODE?OSDMENU
  +--> ?PR?OSDMENU
  +--> ?PR?_GETOSDWINDOWX?OSDBASIC
  +--> ?PR?_GETOSDWINDOWY?OSDBASIC
  +--> ?PR?WAITENDOFDISPLAYAREA?OSDBASIC
  +--> ?PR?_READI2C?I2C
  +--> ?PR?_WRITEI2C?I2C
  +--> ?PR?_WRITEI2CN?I2C
  +--> ?PR?_SAVEOSDPOSITIONMODEEE?ETC_EEP

?PR?_SETLANGUAGE?OSDMENU                         -----    -----      -----    -----
  +--> ?PR?OSDMENU
  +--> ?PR?_SAVEOSDLANGEE?ETC_EEP

?PR?_SETPCCOLORTEMP?OSDMENU                      -----    -----      0014H    0002H
  +--> ?PR?OSDMENU
  +--> ?PR?_WRITEEEP?I2C
  +--> ?PR?_READEEP?I2C
  +--> ?CO?OSDMENU
  +--> ?PR?_MAPPING1?TW88
  +--> ?PR?_SETRGBCONTRAST?OSDMENU
  +--> ?PR?_DRAWATTRCNT?OSDBASIC

?PR?_SETRGBCONTRAST?OSDMENU                      -----    -----      0016H    0008H
  +--> ?PR?_READEEP?I2C
  +--> ?PR?OSDMENU
  +--> ?PR?_MAPPING1?TW88
  +--> ?PR?_WRITEI2C?I2C

?PR?_SETPCCOLOR?OSDMENU                          -----    -----      0014H    0007H
  +--> ?PR?OSDMENU
  +--> ?PR?_MAPPING1?TW88
  +--> ?PR?_WRITEEEP?I2C
  +--> ?PR?_READEEP?I2C
  +--> ?CO?OSDMENU
  +--> ?PR?_WRITEI2C?I2C

?PR?_CHANGEVIDEODATA?OSDMENU                     -----    -----      0014H    0003H
  +--> ?PR?OSDMENU
BL51 BANKED LINKER/LOCATER V6.22                                                      04/22/2015  16:23:43  PAGE 25


  +--> ?PR?_SETVIDEOCONTRAST?OSDMENU
  +--> ?PR?_SETVIDEOBRIGHTNESS?OSDMENU
  +--> ?PR?_SETVIDEOSATURATION?OSDMENU
  +--> ?PR?_SETVIDEOHUE?OSDMENU
  +--> ?PR?_SETVIDEOBACKLIGHT?OSDMENU
  +--> ?PR?_SAVEVIDEODATATOEE?ETC_EEP

?PR?_SETVIDEOBACKLIGHT?OSDMENU                   -----    -----      0017H    0003H
  +--> ?PR?OSDMENU
  +--> ?CO?OSDMENU
  +--> ?PR?_MAPPING1?TW88
  +--> ?PR?_READI2C?I2C
  +--> ?PR?_WRITEI2C?I2C

?PR?_SETVIDEOSHARPNESS?OSDMENU                   -----    -----      0014H    0005H
  +--> ?PR?_READI2C?I2C
  +--> ?PR?OSDMENU
  +--> ?CO?OSDMENU
  +--> ?PR?_MAPPING1?TW88
  +--> ?PR?_WRITEI2C?I2C
  +--> ?PR?_SAVEVIDEODATATOEE?ETC_EEP

?PR?DISPLAYVOL?DISPINFO                          -----    -----      0008H    0002H
  +--> ?CO?DISPINFO
  +--> ?PR?_PRINTF?PRINTF
  +--> ?PR?_WRITEI2C?I2C
  +--> ?PR?CLEAROSDINFO?DISPINFO
  +--> ?PR?_DELAY?CPU
  +--> ?CO?OSDBASIC
  +--> ?PR?_INITOSDWINDOW?OSDBASIC
  +--> ?PR?_CLEARDATACNT?OSDBASIC
  +--> ?PR?_DRAWATTRCNT?OSDBASIC
  +--> ?PR?GETOSDLANG?OSDMENU
  +--> ?CO?OSDMENU
  +--> ?PR?DISPINFO
  +--> ?PR?_STRLEN?OSDBASIC
  +--> ?PR?_WRITESTRINGTOADDR?OSDBASIC
  +--> ?PR?_SHOWOSDWINDOW_TW88?OSDBASIC
  +--> ?PR?_SHOWOSDWINDOWALL?OSDBASIC
  +--> ?PR?_DISPLAYVOLUMEBAR?OSDMENU
  +--> ?PR?GETTIME_MS?CPU
  +--> ?PR?_WAIT_MS?CPU

?PR?GETOSDLANG?OSDMENU                           -----    -----      -----    -----
  +--> ?PR?GETOSDLANGEE?ETC_EEP

?PR?_DISPLAYVOLUMEBAR?OSDMENU                    -----    -----      000AH    0019H
  +--> ?CO?OSDMENU
  +--> ?PR?OSDMENU
  +--> ?PR?_WRITESTRINGTOADDR?OSDBASIC

?PR?REMOVOLDN_LEFTKEY?KEYREMO                    -----    -----      -----    -----
  +--> ?PR?GETDISPLAYEDOSD?DISPINFO
  +--> ?PR?OSDHIGHMENU?OSDMENU
  +--> ?PR?_OSDVALUEUPDN?OSDMENU
  +--> ?PR?_CHANGEVOL?AUDIO
  +--> ?PR?DISPLAYVOL?DISPINFO
BL51 BANKED LINKER/LOCATER V6.22                                                      04/22/2015  16:23:43  PAGE 26



?PR?OSDHIGHMENU?OSDMENU                          -----    -----      -----    -----
  +--> ?PR?CLEARVALUEWIN?OSDMENU
  +--> ?PR?_DRAWMENULIST?OSDMENU
  +--> ?PR?DISPLAYCURSOR?OSDMENU
  +--> ?PR?OSDMENU
  +--> ?PR?_DOACTION?OSDMENU
  +--> ?PR?CLEARCURSOR?OSDMENU
  +--> ?PR?OSDHIGHMENU_SUB?OSDMENU

?PR?REMOMENU_MENUKEY?KEYREMO                     -----    -----      -----    -----
  +--> ?PR?GETDISPLAYEDOSD?DISPINFO
  +--> ?PR?OSDHIGHMENU?OSDMENU
  +--> ?PR?OPENOSDMENU?OSDMENU

?PR?OPENOSDMENU?OSDMENU                          -----    -----      0008H    0001H
  +--> ?PR?CLEAROSDINFO?DISPINFO
  +--> ?PR?INITOSDMENU?OSDMENU
  +--> ?PR?_SHOWOSDWINDOW_TW88?OSDBASIC
  +--> ?PR?_SHOWOSDWINDOWALL?OSDBASIC
  +--> ?PR?_SETDISPLAYEDOSD?DISPINFO

?PR?SETSELECTMODE?HS_KEYREMO                     -----    -----      0006H    0001H
  +--> ?PR?HS_KEYREMO
  +--> ?PR?_PUTS?PRINTF
  +--> ?PR?_SETSOURCEMODE?HS_KEYREMO
  +--> ?PR?_WRITEEEP?I2C
  +--> ?PR?_READEEP?I2C

?PR?SETJUMPMODE?HS_KEYREMO                       -----    -----      0006H    0001H
  +--> ?PR?_READEEP?I2C
  +--> ?CO?HS_KEYREMO
  +--> ?PR?_PUTS?PRINTF
  +--> ?PR?HS_KEYREMO
  +--> ?PR?_SETSOURCEMODE?HS_KEYREMO
  +--> ?PR?_WRITEEEP?I2C

?PR?_CAM_TXCOMMAND_TORS485?HS_DVRPROT...         -----    -----      0006H    0002H
  +--> ?PR?HS_DVRPROTOCOL
  +--> ?PR?SEND_PELCOP_COMMAND?HS_DVRPROTOCOL
  +--> ?PR?SEND_PELCOD_COMMAND?HS_DVRPROTOCOL

?PR?SEND_PELCOP_COMMAND?HS_DVRPROTOCOL           -----    -----      0008H    0001H
  +--> ?PR?HS_DVRPROTOCOL
  +--> ?CO?HS_DVRPROTOCOL
  +--> ?PR?_PRINTF?PRINTF
  +--> ?PR?_WAIT_MS?CPU
  +--> ?PR?_RS2_TX?CPU

?PR?SEND_PELCOD_COMMAND?HS_DVRPROTOCOL           -----    -----      0008H    0001H
  +--> ?PR?HS_DVRPROTOCOL
  +--> ?CO?HS_DVRPROTOCOL
  +--> ?PR?_PRINTF?PRINTF
  +--> ?PR?_WAIT_MS?CPU
  +--> ?PR?_RS2_TX?CPU

?PR?DISPLAYFWVERSION?HS_DISPLAYOSD               -----    -----      -----    -----
BL51 BANKED LINKER/LOCATER V6.22                                                      04/22/2015  16:23:43  PAGE 27


  +--> ?PR?CLEAROSDINFO?DISPINFO
  +--> ?PR?HS_DISPLAYOSD
  +--> ?PR?_INITOSDWINDOW?OSDBASIC
  +--> ?PR?_CLEARDATACNT?OSDBASIC
  +--> ?PR?_DRAWATTRCNT?OSDBASIC
  +--> ?CO?HS_DISPLAYOSD
  +--> ?PR?_WRITESTRINGTOADDR?OSDBASIC
  +--> ?CO?OSDMENU
  +--> ?PR?_SETDISPLAYEDOSD?DISPINFO
  +--> ?PR?_SHOWOSDWINDOW_TW88?OSDBASIC
  +--> ?PR?_SHOWOSDWINDOWALL?OSDBASIC
  +--> ?PR?_WRITEI2C?I2C

?PR?CHECKANDCLEAROSD?DISPINFO                    -----    -----      0003H    0006H
  +--> ?PR?GETDISPLAYEDOSD?DISPINFO
  +--> ?PR?GETOSDLASTKEYINTIME?MAIN
  +--> ?PR?GETTIME_MS?CPU
  +--> ?PR?_DIFFTIME_MS?CPU
  +--> ?PR?CLEARTVINFO?DISPINFO
  +--> ?PR?DISPLAYINPUT?DISPINFO
  +--> ?PR?CLOSEOSDMENU?OSDMENU

?PR?WAITPOWERON?MAIN                             -----    -----      0002H    0003H
  +--> ?PR?CHECKTRIGGER?HS_KEYREMO
  +--> ?PR?_TRIGGERHANDLER?HS_KEYREMO
  +--> ?PR?_LCDPOWERON?TW88
  +--> ?PR?POWEROFF?MAIN
  +--> ?PR?AUDIOMUTE?AUDIO
  +--> ?PR?_GETKEY?KEYREMO
  +--> ?PR?_WRITEEEP?I2C
  +--> ?PR?DISPLAYINPUT?DISPINFO
  +--> ?PR?SETNOWMODE?HS_KEYREMO
  +--> ?PR?_READEEP?I2C

?PR?POWEROFF?MAIN                                -----    -----      -----    -----
  +--> ?PR?AUDIOMUTE?AUDIO
  +--> ?PR?LCDPOWEROFF?TW88
  +--> ?PR?_POWERLED?CPU



UNRESOLVED EXTERNAL SYMBOLS:
   COMPOSITE2INPUT



SYMBOL TABLE OF MODULE:  .\Output\AWT-ML077 (ADC)

  VALUE           TYPE          NAME
  ----------------------------------

  -------         MODULE        ADC
  C:0000H         SYMBOL        _ICE_DUMMY_
  -------         ENDMOD        ADC

  -------         MODULE        CPU
  C:0000H         SYMBOL        _ICE_DUMMY_
BL51 BANKED LINKER/LOCATER V6.22                                                      04/22/2015  16:23:43  PAGE 28


  C:9ADBH         PUBLIC        InitCPU
  D:00B1H         PUBLIC        P3M0
  C:69BFH         PUBLIC        timer0_int
  X:00F3H         PUBLIC        FormatSDCard
  D:00B2H         PUBLIC        P3M1
  D:00A0H         PUBLIC        P2
  C:A808H         PUBLIC        timer2_int
  D:00E8H         PUBLIC        P4
  X:00F4H         PUBLIC        FormatWait
  D:0024H         PUBLIC        DVR_buf
  D:0042H         PUBLIC        keytic
  D:00A8H         PUBLIC        IE
  D:0043H         PUBLIC        RS2_in
  B:0021H.3       PUBLIC        RepeatKey
  C:A78AH         PUBLIC        _delay
  B:00B0H.4       PUBLIC        P3_4
  B:00A8H.4       PUBLIC        ES
  D:00B8H         PUBLIC        IP
  D:00DEH         PUBLIC        CCAPM4
  B:0098H.0       PUBLIC        RI
  B:0098H.1       PUBLIC        TI
  C:A89AH         PUBLIC        RS_ready
  D:0044H         PUBLIC        tic01
  B:0021H.4       PUBLIC        KeyReady
  B:0021H.5       PUBLIC        RS_Xbusy
  D:00D8H         PUBLIC        CCON
  C:A911H         PUBLIC        _RS2_tx
  X:00F5H         PUBLIC        Time5ms
  X:00F6H         PUBLIC        keyticSec
  D:0045H         PUBLIC        Key
  C:A0D3H         PUBLIC        serial_int
  C:0026H         PUBLIC        ext1_int
  D:0099H         PUBLIC        SBUF
  D:0087H         PUBLIC        PCON
  D:0098H         PUBLIC        SCON
  C:A61BH         PUBLIC        InitVars
  D:0089H         PUBLIC        TMOD
  D:0088H         PUBLIC        TCON
  C:3E16H         PUBLIC        PanelInfoStr
  D:00BFH         PUBLIC        CHPCON
  C:6FA7H         PUBLIC        main_init
  D:00F6H         PUBLIC        CHPENR
  X:00F7H         PUBLIC        PowerDownWait
  D:0046H         PUBLIC        tm01
  D:0048H         PUBLIC        stopWatch
  C:5347H         PUBLIC        _TW2835Command
  D:004AH         SYMBOL        RS_buf
  B:00A8H.5       PUBLIC        ET2
  B:00C8H.7       PUBLIC        TF2
  D:008CH         PUBLIC        TH0
  D:008DH         PUBLIC        TH1
  C:A5BEH         PUBLIC        _DiffTime_ms
  B:00A8H.2       PUBLIC        EX1
  D:008AH         PUBLIC        TL0
  C:8B1EH         PUBLIC        InitTechwell
  B:0021H.6       PUBLIC        RS2_Xbusy
  C:9B71H         PUBLIC        _Wait_ms
BL51 BANKED LINKER/LOCATER V6.22                                                      04/22/2015  16:23:43  PAGE 29


  B:00C8H.2       PUBLIC        TR2
  X:00F8H         PUBLIC        updn_reg
  D:0052H         PUBLIC        RS_in
  D:0053H         PUBLIC        RS_out
  C:A16EH         PUBLIC        serial2_int
  D:009AH         PUBLIC        S2BUF
  C:A639H         PUBLIC        _PowerLED
  D:00AAH         PUBLIC        S2CON
  D:00C8H         PUBLIC        T2CON
  D:00BAH         PUBLIC        S2BRT
  C:0003H         PUBLIC        _RS_tx
  D:0054H         PUBLIC        tm001
  D:00A6H         PUBLIC        AUXR2
  B:0021H.7       PUBLIC        ChangeKey
  C:9F08H         PUBLIC        GetTime_ms
  D:0055H         PUBLIC        tic_pc
  D:0057H         PUBLIC        RS_buf2
  D:005FH         PUBLIC        SystemClock
  C:3DB0H         PUBLIC        CommTable
  D:00ADH         PUBLIC        AUXIE
  C:9D91H         SYMBOL        Com00A5
  C:9D91H         SYMBOL        L?0166
  C:9D92H         SYMBOL        L?0167
  C:9D95H         SYMBOL        L?0168
  C:9D9EH         SYMBOL        L?0169
  C:9D9EH         SYMBOL        L?0170
  C:9DA7H         SYMBOL        L?0171
  C:9DA8H         SYMBOL        L?0172
  C:9DA9H         SYMBOL        L?0173
  C:9DB2H         SYMBOL        L?0175
  C:9DB2H         SYMBOL        L?0176
  C:9DBAH         SYMBOL        L?0177
  C:9DBEH         SYMBOL        L?0178
  C:9DC6H         SYMBOL        L?0179
  C:9DC9H         SYMBOL        L?0180
  -------         PROC          COM00A5
  -------         ENDPROC       COM00A5
  C:70BCH         SYMBOL        L?0181
  -------         PROC          MAIN_INIT
  -------         DO            
  X:0002H         SYMBOL        rev
  -------         ENDDO         
  C:6FA7H         LINE#         278
  C:6FA7H         LINE#         279
  C:6FA7H         LINE#         285
  C:6FB0H         LINE#         297
  C:6FB7H         LINE#         298
  C:6FC9H         LINE#         300
  C:6FD6H         LINE#         301
  C:6FD6H         LINE#         302
  C:6FE9H         LINE#         303
  C:6FF0H         LINE#         304
  C:6FFEH         LINE#         305
  C:6FFEH         LINE#         309
  C:700BH         LINE#         310
  C:700BH         LINE#         311
  C:7019H         LINE#         312
BL51 BANKED LINKER/LOCATER V6.22                                                      04/22/2015  16:23:43  PAGE 30


  C:7019H         LINE#         313
  C:7021H         LINE#         316
  C:7026H         LINE#         317
  C:7029H         LINE#         318
  C:7032H         LINE#         323
  C:7034H         LINE#         325
  C:7034H         LINE#         327
  C:703CH         LINE#         329
  C:703CH         LINE#         330
  C:703EH         LINE#         332
  C:703EH         LINE#         333
  C:7047H         LINE#         334
  C:7050H         LINE#         335
  C:7056H         LINE#         336
  C:705BH         LINE#         338
  C:705EH         LINE#         339
  C:7063H         LINE#         341
  C:7063H         LINE#         348
  C:706FH         LINE#         349
  C:7071H         LINE#         350
  C:7071H         LINE#         351
  C:7073H         LINE#         352
  C:7075H         LINE#         354
  C:7075H         LINE#         355
  C:707AH         LINE#         356
  C:707AH         LINE#         357
  C:707DH         LINE#         360
  C:7083H         LINE#         365
  C:7086H         LINE#         367
  C:7089H         LINE#         370
  C:708EH         LINE#         371
  C:7093H         LINE#         372
  C:7096H         LINE#         387
  C:709BH         LINE#         388
  C:70A0H         LINE#         390
  C:70A9H         LINE#         394
  C:70B2H         LINE#         395
  C:70BBH         LINE#         396
  -------         ENDPROC       MAIN_INIT
  -------         PROC          INITCPU
  C:9ADBH         LINE#         401
  C:9ADBH         LINE#         402
  C:9ADBH         LINE#         403
  C:9ADEH         LINE#         404
  C:9AE1H         LINE#         405
  C:9AE4H         LINE#         406
  C:9AE7H         LINE#         410
  C:9AEAH         LINE#         417
  C:9AEDH         LINE#         419
  C:9AF0H         LINE#         421
  C:9AF3H         LINE#         425
  C:9AF9H         LINE#         427
  C:9AFCH         LINE#         428
  C:9AFFH         LINE#         432
  C:9B02H         LINE#         435
  C:9B04H         LINE#         436
  C:9B06H         LINE#         442
BL51 BANKED LINKER/LOCATER V6.22                                                      04/22/2015  16:23:43  PAGE 31


  C:9B08H         LINE#         443
  C:9B0AH         LINE#         444
  C:9B0CH         LINE#         450
  C:9B0FH         LINE#         451
  C:9B12H         LINE#         454
  C:9B15H         LINE#         457
  C:9B18H         LINE#         459
  C:9B1AH         LINE#         462
  C:9B1DH         LINE#         463
  C:9B20H         LINE#         470
  C:9B22H         LINE#         471
  C:9B25H         LINE#         472
  -------         ENDPROC       INITCPU
  -------         PROC          TIMER0_INT
  -------         DO            
  D:000FH         SYMBOL        TempKey
  -------         ENDDO         
  C:69BFH         LINE#         490
  C:69CAH         LINE#         494
  C:69CCH         LINE#         497
  C:69D2H         LINE#         498
  C:69D4H         LINE#         499
  C:69DAH         LINE#         500
  C:69DAH         LINE#         504
  C:69E3H         LINE#         506
  C:69EAH         LINE#         507
  C:69EAH         LINE#         508
  C:69F2H         LINE#         509
  C:69FAH         LINE#         510
  C:6A02H         LINE#         511
  C:6A05H         LINE#         512
  C:6A07H         LINE#         515
  C:6A0DH         LINE#         516
  C:6A0DH         LINE#         517
  C:6A0DH         LINE#         525
  C:6A17H         LINE#         528
  C:6A1FH         LINE#         529
  C:6A22H         LINE#         530
  C:6A24H         LINE#         532
  C:6A2DH         LINE#         533
  C:6A2DH         LINE#         534
  C:6A38H         LINE#         535
  C:6A50H         LINE#         536
  C:6A53H         LINE#         540
  C:6A5CH         LINE#         541
  C:6A5FH         LINE#         543
  C:6A65H         LINE#         545
  C:6A6EH         LINE#         546
  C:6A71H         LINE#         548
  C:6A74H         LINE#         549
  C:6A7AH         LINE#         550
  C:6A7DH         LINE#         551
  C:6A83H         LINE#         552
  C:6A8AH         LINE#         553
  C:6A8AH         LINE#         554
  C:6A8CH         LINE#         555
  C:6A92H         LINE#         556
BL51 BANKED LINKER/LOCATER V6.22                                                      04/22/2015  16:23:43  PAGE 32


  C:6A92H         LINE#         558
  C:6A99H         LINE#         559
  C:6A99H         LINE#         560
  C:6A9BH         LINE#         561
  C:6AA1H         LINE#         562
  C:6AA1H         LINE#         564
  C:6AA8H         LINE#         565
  C:6AA8H         LINE#         566
  C:6AAAH         LINE#         567
  C:6AB0H         LINE#         568
  C:6AB0H         LINE#         570
  C:6AB7H         LINE#         571
  C:6ABCH         LINE#         573
  C:6ABEH         LINE#         580
  C:6ABEH         LINE#         581
  C:6AC8H         LINE#         582
  C:6AD0H         LINE#         585
  C:6AD7H         LINE#         586
  C:6ADCH         LINE#         587
  C:6AE3H         LINE#         588
  C:6AE5H         LINE#         589
  C:6AE7H         LINE#         590
  C:6AE9H         LINE#         591
  C:6AEEH         LINE#         592
  C:6AF5H         LINE#         593
  C:6AF7H         LINE#         594
  C:6AF9H         LINE#         595
  C:6AFCH         LINE#         596
  C:6AFCH         LINE#         597
  C:6AFEH         LINE#         598
  C:6B00H         LINE#         600
  C:6B00H         LINE#         601
  C:6B03H         LINE#         602
  C:6B06H         LINE#         603
  C:6B06H         LINE#         605
  C:6B06H         LINE#         606
  -------         ENDPROC       TIMER0_INT
  -------         PROC          INITVARS
  C:A61BH         LINE#         611
  C:A61BH         LINE#         612
  C:A61BH         LINE#         613
  C:A624H         LINE#         622
  C:A628H         LINE#         627
  C:A62DH         LINE#         628
  C:A632H         LINE#         630
  C:A634H         LINE#         631
  -------         ENDPROC       INITVARS
  C:8B8AH         SYMBOL        L?0164
  C:8B9CH         SYMBOL        L?0174
  -------         PROC          INITTECHWELL
  C:8B1EH         LINE#         637
  C:8B1EH         LINE#         638
  C:8B1EH         LINE#         656
  C:8B32H         LINE#         657
  C:8B3AH         LINE#         658
  C:8B42H         LINE#         659
  C:8B4BH         LINE#         660
BL51 BANKED LINKER/LOCATER V6.22                                                      04/22/2015  16:23:43  PAGE 33


  C:8B55H         LINE#         661
  C:8B55H         LINE#         663
  C:8B5BH         LINE#         666
  C:8B65H         LINE#         667
  C:8B65H         LINE#         668
  C:8B6BH         LINE#         669
  C:8B76H         LINE#         670
  C:8B76H         LINE#         671
  C:8B76H         LINE#         673
  C:8B7BH         LINE#         674
  C:8B7BH         LINE#         675
  C:8B89H         LINE#         676
  C:8B89H         LINE#         677
  C:8B89H         LINE#         683
  -------         ENDPROC       INITTECHWELL
  -------         PROC          _POWERLED
  D:0007H         SYMBOL        flag
  C:A639H         LINE#         689
  C:A639H         LINE#         690
  C:A639H         LINE#         694
  C:A63DH         LINE#         696
  C:A640H         LINE#         697
  C:A640H         LINE#         699
  C:A642H         LINE#         700
  C:A645H         LINE#         701
  C:A645H         LINE#         703
  C:A648H         LINE#         704
  C:A64BH         LINE#         706
  C:A64CH         LINE#         707
  C:A650H         LINE#         708
  C:A650H         LINE#         710
  C:A653H         LINE#         711
  C:A656H         LINE#         713
  C:A656H         LINE#         714
  -------         ENDPROC       _POWERLED
  -------         PROC          EXT1_INT
  C:0026H         LINE#         723
  C:0026H         LINE#         725
  C:0028H         LINE#         726
  -------         ENDPROC       EXT1_INT
  -------         PROC          SERIAL_INT
  C:A0D3H         LINE#         841
  C:A0DAH         LINE#         847
  C:A0DDH         LINE#         848
  C:A0DFH         LINE#         849
  C:A0EFH         LINE#         851
  C:A0F1H         LINE#         852
  C:A0FBH         LINE#         853
  C:A0FBH         LINE#         855
  C:A0FEH         LINE#         856
  C:A100H         LINE#         857
  C:A102H         LINE#         858
  C:A102H         LINE#         859
  -------         ENDPROC       SERIAL_INT
  -------         PROC          SERIAL2_INT
  C:A16EH         LINE#         863
  C:A175H         LINE#         868
BL51 BANKED LINKER/LOCATER V6.22                                                      04/22/2015  16:23:43  PAGE 34


  C:A17AH         LINE#         869
  C:A17AH         LINE#         871
  C:A17DH         LINE#         872
  C:A184H         LINE#         874
  C:A186H         LINE#         875
  C:A190H         LINE#         876
  C:A190H         LINE#         878
  C:A195H         LINE#         879
  C:A195H         LINE#         880
  C:A198H         LINE#         881
  C:A19AH         LINE#         882
  C:A19AH         LINE#         883
  -------         ENDPROC       SERIAL2_INT
  -------         PROC          RS_READY
  C:A89AH         LINE#         890
  C:A89AH         LINE#         891
  C:A89AH         LINE#         892
  C:A8A2H         LINE#         893
  C:A8A4H         LINE#         894
  -------         ENDPROC       RS_READY
  -------         PROC          _RS_TX
  D:0007H         SYMBOL        tx_buf
  C:0003H         LINE#         916
  C:0003H         LINE#         917
  C:0003H         LINE#         918
  C:0006H         LINE#         919
  C:0008H         LINE#         920
  C:000AH         LINE#         921
  -------         ENDPROC       _RS_TX
  -------         PROC          _RS2_TX
  D:0007H         SYMBOL        tx_buf
  C:A911H         LINE#         926
  C:A911H         LINE#         927
  C:A911H         LINE#         936
  C:A914H         LINE#         937
  C:A916H         LINE#         938
  C:A918H         LINE#         939
  -------         ENDPROC       _RS2_TX
  -------         PROC          TIMER2_INT
  C:A808H         LINE#         977
  C:A80AH         LINE#         979
  C:A80CH         LINE#         981
  C:A814H         LINE#         1112
  -------         ENDPROC       TIMER2_INT
  -------         PROC          _DELAY
  D:0007H         SYMBOL        cnt
  -------         DO            
  D:0004H         SYMBOL        ttic01
  -------         ENDDO         
  C:A78AH         LINE#         1115
  C:A78AH         LINE#         1116
  C:A78AH         LINE#         1119
  C:A798H         LINE#         1120
  C:A798H         LINE#         1122
  C:A7A1H         LINE#         1123
  -------         ENDPROC       _DELAY
  -------         PROC          GETTIME_MS
BL51 BANKED LINKER/LOCATER V6.22                                                      04/22/2015  16:23:43  PAGE 35


  -------         DO            
  X:0027H         SYMBOL        tms
  -------         ENDDO         
  C:9F08H         LINE#         1130
  C:9F08H         LINE#         1131
  C:9F08H         LINE#         1134
  C:9F11H         LINE#         1135
  C:9F3CH         LINE#         1136
  C:9F44H         LINE#         1137
  -------         ENDPROC       GETTIME_MS
  -------         PROC          _DIFFTIME_MS
  D:0006H         SYMBOL        stime
  D:0004H         SYMBOL        etime
  C:A5BEH         LINE#         1186
  C:A5BEH         LINE#         1187
  C:A5BEH         LINE#         1191
  C:A5C5H         LINE#         1192
  C:A5D5H         LINE#         1193
  C:A5D5H         LINE#         1194
  C:A5D5H         LINE#         1195
  C:A5DCH         LINE#         1196
  C:A5DCH         LINE#         1197
  -------         ENDPROC       _DIFFTIME_MS
  -------         PROC          _WAIT_MS
  X:0027H         SYMBOL        Tms
  -------         DO            
  X:0029H         SYMBOL        count
  -------         ENDDO         
  C:9B71H         LINE#         1199
  C:9B79H         LINE#         1200
  C:9B79H         LINE#         1206
  C:9B83H         LINE#         1207
  C:9B83H         LINE#         1208
  C:9BACH         LINE#         1209
  C:9BB6H         LINE#         1210
  C:9BB8H         LINE#         1211
  -------         ENDPROC       _WAIT_MS
  -------         PROC          _TW2835COMMAND
  X:001AH         SYMBOL        _commid
  D:0005H         SYMBOL        _attr0
  D:0003H         SYMBOL        _attr1
  X:001DH         SYMBOL        _attr2
  X:001EH         SYMBOL        _attr3
  -------         DO            
  X:001FH         SYMBOL        AttrBuf
  X:0023H         SYMBOL        i
  X:0024H         SYMBOL        j
  X:0025H         SYMBOL        WaitCnt
  -------         ENDDO         
  C:5347H         LINE#         1213
  C:534CH         LINE#         1214
  C:534CH         LINE#         1219
  C:5350H         LINE#         1220
  C:5354H         LINE#         1222
  C:5364H         LINE#         1224
  C:536BH         LINE#         1225
  C:5372H         LINE#         1229
BL51 BANKED LINKER/LOCATER V6.22                                                      04/22/2015  16:23:43  PAGE 36


  C:53E3H         LINE#         1230
  C:53E3H         LINE#         1232
  C:53E3H         LINE#         1233
  C:53E3H         LINE#         1234
  C:53E3H         LINE#         1235
  C:53E3H         LINE#         1236
  C:53E3H         LINE#         1237
  C:53E3H         LINE#         1238
  C:53E5H         LINE#         1241
  C:53E5H         LINE#         1242
  C:53E5H         LINE#         1243
  C:53E5H         LINE#         1244
  C:53EAH         LINE#         1245
  C:53ECH         LINE#         1246
  C:53ECH         LINE#         1247
  C:53ECH         LINE#         1248
  C:53EEH         LINE#         1251
  C:53EEH         LINE#         1252
  C:53EEH         LINE#         1253
  C:53EEH         LINE#         1254
  C:53F1H         LINE#         1255
  C:53F3H         LINE#         1256
  C:53F3H         LINE#         1257
  C:53F3H         LINE#         1258
  C:53F5H         LINE#         1261
  C:53F5H         LINE#         1262
  C:53F5H         LINE#         1263
  C:53F5H         LINE#         1264
  C:53F5H         LINE#         1265
  C:53F9H         LINE#         1266
  C:53F9H         LINE#         1267
  C:53F9H         LINE#         1268
  C:53FBH         LINE#         1271
  C:53FBH         LINE#         1272
  C:53FBH         LINE#         1273
  C:5400H         LINE#         1274
  C:5403H         LINE#         1275
  C:540AH         LINE#         1276
  C:540AH         LINE#         1277
  C:540CH         LINE#         1280
  C:540CH         LINE#         1281
  C:540CH         LINE#         1282
  C:540CH         LINE#         1283
  C:540CH         LINE#         1284
  C:540CH         LINE#         1285
  C:540FH         LINE#         1288
  C:540FH         LINE#         1289
  C:5410H         LINE#         1290
  C:5414H         LINE#         1291
  C:5416H         LINE#         1292
  C:5416H         LINE#         1293
  C:5418H         LINE#         1296
  C:5418H         LINE#         1297
  C:5418H         LINE#         1298
  C:541DH         LINE#         1299
  C:541FH         LINE#         1300
  C:541FH         LINE#         1301
BL51 BANKED LINKER/LOCATER V6.22                                                      04/22/2015  16:23:43  PAGE 37


  C:5421H         LINE#         1305
  C:5421H         LINE#         1306
  C:5421H         LINE#         1307
  C:5425H         LINE#         1308
  C:5427H         LINE#         1309
  C:5427H         LINE#         1310
  C:5429H         LINE#         1313
  C:5429H         LINE#         1314
  C:542CH         LINE#         1315
  C:542FH         LINE#         1316
  C:5432H         LINE#         1317
  C:5435H         LINE#         1318
  C:5438H         LINE#         1324
  C:5438H         LINE#         1325
  C:5438H         LINE#         1326
  C:543DH         LINE#         1327
  C:543DH         LINE#         1328
  C:5441H         LINE#         1329
  C:5444H         LINE#         1330
  C:5447H         LINE#         1336
  C:5447H         LINE#         1340
  C:544CH         LINE#         1341
  C:5450H         LINE#         1342
  C:5452H         LINE#         1343
  C:5452H         LINE#         1344
  C:5455H         LINE#         1347
  C:5455H         LINE#         1348
  C:5455H         LINE#         1349
  C:5455H         LINE#         1350
  C:545AH         LINE#         1351
  C:545DH         LINE#         1352
  C:545DH         LINE#         1353
  C:5460H         LINE#         1356
  C:5460H         LINE#         1357
  C:5460H         LINE#         1358
  C:5460H         LINE#         1359
  C:5465H         LINE#         1360
  C:546CH         LINE#         1361
  C:546CH         LINE#         1362
  C:546EH         LINE#         1365
  C:546EH         LINE#         1366
  C:546EH         LINE#         1367
  C:5472H         LINE#         1368
  C:5475H         LINE#         1369
  C:5475H         LINE#         1370
  C:5478H         LINE#         1373
  C:5478H         LINE#         1374
  C:5478H         LINE#         1375
  C:5479H         LINE#         1376
  C:547CH         LINE#         1377
  C:547FH         LINE#         1378
  C:547FH         LINE#         1379
  C:5481H         LINE#         1382
  C:5481H         LINE#         1383
  C:5482H         LINE#         1384
  C:5486H         LINE#         1385
  C:5489H         LINE#         1386
BL51 BANKED LINKER/LOCATER V6.22                                                      04/22/2015  16:23:43  PAGE 38


  C:548CH         LINE#         1387
  C:548EH         LINE#         1390
  C:548EH         LINE#         1391
  C:5493H         LINE#         1392
  C:5494H         LINE#         1393
  C:5498H         LINE#         1394
  C:54A0H         LINE#         1395
  C:54A2H         LINE#         1398
  C:54A2H         LINE#         1399
  C:54A2H         LINE#         1400
  C:54A5H         LINE#         1401
  C:54A5H         LINE#         1402
  C:54A9H         LINE#         1403
  C:54ACH         LINE#         1404
  C:54AEH         LINE#         1407
  C:54B1H         LINE#         1409
  C:54B5H         LINE#         1410
  C:54B7H         LINE#         1411
  C:54B7H         LINE#         1412
  C:54B9H         LINE#         1415
  C:54B9H         LINE#         1416
  C:54BCH         LINE#         1417
  C:54BFH         LINE#         1418
  C:54C7H         LINE#         1419
  C:54CAH         LINE#         1420
  C:54CAH         LINE#         1421
  C:54CAH         LINE#         1423
  C:54EAH         LINE#         1425
  C:54EFH         LINE#         1426
  C:54EFH         LINE#         1427
  C:5531H         LINE#         1428
  C:553CH         LINE#         1429
  C:555AH         LINE#         1430
  C:555AH         LINE#         1431
  C:5569H         LINE#         1432
  C:5569H         LINE#         1433
  C:5572H         LINE#         1434
  C:5572H         LINE#         1435
  C:5589H         LINE#         1436
  C:558CH         LINE#         1437
  C:558CH         LINE#         1438
  C:5594H         LINE#         1439
  C:5594H         LINE#         1440
  C:559BH         LINE#         1441
  C:55AAH         LINE#         1442
  C:55ACH         LINE#         1444
  -------         ENDPROC       _TW2835COMMAND
  -------         ENDMOD        CPU

  -------         MODULE        DISPINFO
  C:0000H         SYMBOL        _ICE_DUMMY_
  C:7993H         PUBLIC        TW8806String
  X:0103H         PUBLIC        DisplayedOSD
  C:8163H         PUBLIC        DisplayVol
  C:A817H         PUBLIC        ClearMuteInfo
  X:0104H         PUBLIC        mirror_flag
  D:006AH         SYMBOL        OSDDisplayedTime
BL51 BANKED LINKER/LOCATER V6.22                                                      04/22/2015  16:23:43  PAGE 39


  C:A459H         PUBLIC        ClearTVInfo
  C:A967H         PUBLIC        GetDisplayedOSD
  C:79A0H         PUBLIC        TechwellString
  C:A960H         PUBLIC        _SetDisplayedOSD
  C:8D43H         PUBLIC        CheckAndClearOSD
  C:9A43H         PUBLIC        ClearOSDInfo
  C:9599H         PUBLIC        DisplayLogo
  C:6E87H         PUBLIC        DisplayInput
  C:A86AH         PUBLIC        _ClearDisplayedOSD
  C:A959H         PUBLIC        ClearLogo
  C:A3BDH         PUBLIC        ClearInput
  C:A4F0H         SYMBOL        Com002A
  C:A4F0H         SYMBOL        L?0043
  C:A4F7H         SYMBOL        L?0044
  C:A4FEH         SYMBOL        L?0045
  C:A50DH         SYMBOL        L?0047
  -------         PROC          COM002A
  -------         ENDPROC       COM002A
  -------         PROC          DISPLAYLOGO
  -------         DO            
  X:0004H         SYMBOL        str
  -------         ENDDO         
  C:9599H         LINE#         90
  C:9599H         LINE#         91
  C:9599H         LINE#         99
  C:95A3H         LINE#         102
  C:95ACH         LINE#         108
  C:95B4H         LINE#         110
  C:95BEH         LINE#         111
  C:95C9H         LINE#         113
  C:95DEH         LINE#         114
  C:95EDH         LINE#         116
  -------         ENDPROC       DISPLAYLOGO
  -------         PROC          CLEARLOGO
  C:A959H         LINE#         120
  C:A959H         LINE#         121
  C:A959H         LINE#         122
  -------         ENDPROC       CLEARLOGO
  -------         PROC          _CLEARDISPLAYEDOSD
  D:0007H         SYMBOL        newd
  C:A86AH         LINE#         129
  C:A86AH         LINE#         130
  C:A86AH         LINE#         131
  C:A875H         LINE#         132
  -------         ENDPROC       _CLEARDISPLAYEDOSD
  -------         PROC          _SETDISPLAYEDOSD
  D:0007H         SYMBOL        newd
  C:A960H         LINE#         134
  C:A960H         LINE#         135
  C:A960H         LINE#         136
  C:A966H         LINE#         137
  -------         ENDPROC       _SETDISPLAYEDOSD
  -------         PROC          GETDISPLAYEDOSD
  C:A967H         LINE#         139
  C:A967H         LINE#         140
  C:A967H         LINE#         141
  C:A96CH         LINE#         142
BL51 BANKED LINKER/LOCATER V6.22                                                      04/22/2015  16:23:43  PAGE 40


  -------         ENDPROC       GETDISPLAYEDOSD
  -------         PROC          CLEAROSDINFO
  -------         DO            
  X:000FH         SYMBOL        dt
  -------         ENDDO         
  C:9A43H         LINE#         144
  C:9A43H         LINE#         145
  C:9A43H         LINE#         148
  C:9A46H         LINE#         149
  C:9A4EH         LINE#         151
  C:9A58H         LINE#         157
  C:9A66H         LINE#         159
  C:9A70H         LINE#         160
  C:9A7AH         LINE#         161
  C:9A84H         LINE#         162
  C:9A8EH         LINE#         163
  -------         ENDPROC       CLEAROSDINFO
  -------         PROC          DISPLAYINPUT
  -------         DO            
  X:001BH         SYMBOL        inputs
  X:001CH         SYMBOL        len1
  X:001DH         SYMBOL        len2
  X:001EH         SYMBOL        i
  X:001FH         SYMBOL        SystemAddr
  -------         ENDDO         
  C:6E87H         LINE#         165
  C:6E87H         LINE#         166
  C:6E87H         LINE#         185
  C:6E91H         LINE#         190
  C:6E97H         LINE#         192
  C:6E9AH         LINE#         194
  C:6EA3H         LINE#         195
  C:6EACH         LINE#         196
  C:6EB7H         LINE#         197
  C:6EDFH         LINE#         198
  C:6EE6H         LINE#         200
  C:6EEEH         LINE#         207
  C:6F08H         LINE#         211
  C:6F26H         LINE#         214
  C:6F2CH         LINE#         215
  C:6F4EH         LINE#         217
  C:6F5AH         LINE#         218
  C:6F70H         LINE#         220
  C:6F80H         LINE#         221
  C:6F80H         LINE#         222
  C:6F86H         LINE#         223
  C:6F93H         LINE#         224
  C:6F93H         LINE#         426
  C:6F9AH         LINE#         436
  C:6F9FH         LINE#         438
  C:6FA6H         LINE#         440
  -------         ENDPROC       DISPLAYINPUT
  -------         PROC          CLEARINPUT
  C:A3BDH         LINE#         705
  C:A3BDH         LINE#         706
  C:A3BDH         LINE#         707
  C:A3C2H         LINE#         708
BL51 BANKED LINKER/LOCATER V6.22                                                      04/22/2015  16:23:43  PAGE 41


  C:A3C9H         LINE#         711
  C:A3D0H         LINE#         713
  C:A3E1H         LINE#         716
  C:A3E3H         LINE#         718
  -------         ENDPROC       CLEARINPUT
  C:821EH         SYMBOL        L?0046
  -------         PROC          DISPLAYVOL
  -------         DO            
  X:0008H         SYMBOL        Str
  D:0007H         SYMBOL        len
  -------         ENDDO         
  C:8163H         LINE#         720
  C:8163H         LINE#         721
  C:8163H         LINE#         726
  C:816CH         LINE#         729
  C:816EH         LINE#         730
  C:8171H         LINE#         732
  C:8173H         LINE#         733
  C:8176H         LINE#         734
  C:817FH         LINE#         736
  C:8186H         LINE#         737
  C:8186H         LINE#         738
  C:8189H         LINE#         742
  C:818EH         LINE#         744
  C:8197H         LINE#         746
  C:81A0H         LINE#         747
  C:81ABH         LINE#         748
  C:81B6H         LINE#         752
  C:81CEH         LINE#         754
  C:81D4H         LINE#         755
  C:81ECH         LINE#         757
  C:81F3H         LINE#         758
  C:81FAH         LINE#         759
  C:81FFH         LINE#         760
  C:81FFH         LINE#         762
  C:8202H         LINE#         763
  C:8207H         LINE#         765
  C:820FH         LINE#         767
  C:8216H         LINE#         768
  C:821DH         LINE#         769
  -------         ENDPROC       DISPLAYVOL
  -------         PROC          CLEARMUTEINFO
  C:A817H         LINE#         840
  C:A817H         LINE#         841
  C:A817H         LINE#         842
  C:A81EH         LINE#         843
  C:A825H         LINE#         844
  -------         ENDPROC       CLEARMUTEINFO
  -------         PROC          CHECKANDCLEAROSD
  -------         DO            
  D:0004H         SYMBOL        ctime
  X:0003H         SYMBOL        stime
  X:0005H         SYMBOL        diff
  X:0007H         SYMBOL        dt
  X:0008H         SYMBOL        Result
  -------         ENDDO         
  C:8D43H         LINE#         846
BL51 BANKED LINKER/LOCATER V6.22                                                      04/22/2015  16:23:43  PAGE 42


  C:8D43H         LINE#         847
  C:8D43H         LINE#         850
  C:8D48H         LINE#         852
  C:8D50H         LINE#         853
  C:8D54H         LINE#         855
  C:8D58H         LINE#         856
  C:8D63H         LINE#         857
  C:8D6BH         LINE#         858
  C:8D6DH         LINE#         859
  C:8D6DH         LINE#         860
  C:8D77H         LINE#         861
  C:8D7EH         LINE#         862
  C:8D7EH         LINE#         864
  C:8D85H         LINE#         866
  C:8D9DH         LINE#         868
  C:8DA5H         LINE#         869
  C:8DA5H         LINE#         873
  C:8DADH         LINE#         874
  C:8DB0H         LINE#         875
  C:8DB0H         LINE#         877
  C:8DB7H         LINE#         878
  C:8DB7H         LINE#         882
  C:8DBFH         LINE#         883
  C:8DC2H         LINE#         885
  C:8DC4H         LINE#         887
  C:8DC4H         LINE#         898
  C:8DC7H         LINE#         899
  C:8DC7H         LINE#         900
  C:8DC7H         LINE#         902
  C:8DC9H         LINE#         903
  -------         ENDPROC       CHECKANDCLEAROSD
  C:A475H         SYMBOL        L?0048
  -------         PROC          CLEARTVINFO
  C:A459H         LINE#         993
  C:A459H         LINE#         994
  C:A459H         LINE#         996
  C:A460H         LINE#         997
  C:A462H         LINE#         998
  C:A468H         LINE#         999
  C:A46AH         LINE#         1001
  C:A46AH         LINE#         1002
  C:A46CH         LINE#         1003
  C:A472H         LINE#         1004
  C:A472H         LINE#         1008
  C:A474H         LINE#         1009
  -------         ENDPROC       CLEARTVINFO
  -------         ENDMOD        DISPINFO

  -------         MODULE        ETC_EEP
  C:0000H         SYMBOL        _ICE_DUMMY_
  C:A8A5H         PUBLIC        _SaveDebugLevelEE
  C:A8C9H         PUBLIC        _SaveOSDLangEE
  C:A919H         PUBLIC        GetDebugLevelEE
  C:A939H         PUBLIC        GetOSDLangEE
  C:A929H         PUBLIC        GetPossibleAutoDetectStdEE
  C:8C33H         PUBLIC        SetPossibleAutoDetectStdEE
  C:A8AEH         PUBLIC        _SaveWideModeEE
BL51 BANKED LINKER/LOCATER V6.22                                                      04/22/2015  16:23:43  PAGE 43


  C:A921H         PUBLIC        GetWideModeEE
  C:A941H         PUBLIC        GetAudioVolEE
  C:A3E4H         PUBLIC        ClearBasicEE
  C:A57DH         PUBLIC        _GetVideoDatafromEE
  C:A8C0H         PUBLIC        _SaveInputSelectionEE
  C:A8D2H         PUBLIC        _SetAudioVolEE
  C:A8B7H         PUBLIC        _SaveOSDPositionModeEE
  C:A949H         PUBLIC        GetPCAudioVolEE
  C:9C45H         PUBLIC        _SaveFWRevEE
  C:A8DBH         PUBLIC        _SetPCAudioVolEE
  C:A931H         PUBLIC        GetOSDPositionModeEE
  C:A7B4H         PUBLIC        _SaveVideoDatatoEE
  C:93BDH         PUBLIC        GetFWRevEE
  -------         PROC          GETFWREVEE
  -------         DO            
  X:0004H         SYMBOL        rev
  -------         ENDDO         
  C:93BDH         LINE#         24
  C:93BDH         LINE#         25
  C:93BDH         LINE#         28
  C:93CAH         LINE#         29
  C:93D8H         LINE#         30
  C:93E6H         LINE#         31
  C:93F6H         LINE#         33
  C:9405H         LINE#         34
  C:941DH         LINE#         36
  C:941DH         LINE#         37
  -------         ENDPROC       GETFWREVEE
  -------         PROC          _SAVEFWREVEE
  X:0004H         SYMBOL        rev
  C:9C45H         LINE#         39
  C:9C4DH         LINE#         40
  C:9C4DH         LINE#         41
  C:9C55H         LINE#         42
  C:9C5EH         LINE#         43
  C:9C67H         LINE#         44
  C:9C70H         LINE#         46
  C:9C7CH         LINE#         47
  -------         ENDPROC       _SAVEFWREVEE
  -------         PROC          GETDEBUGLEVELEE
  C:A919H         LINE#         50
  C:A919H         LINE#         51
  C:A919H         LINE#         52
  C:A920H         LINE#         53
  -------         ENDPROC       GETDEBUGLEVELEE
  -------         PROC          _SAVEDEBUGLEVELEE
  D:0007H         SYMBOL        dl
  C:A8A5H         LINE#         55
  C:A8A5H         LINE#         56
  C:A8A5H         LINE#         57
  -------         ENDPROC       _SAVEDEBUGLEVELEE
  -------         PROC          GETWIDEMODEEE
  C:A921H         LINE#         62
  C:A921H         LINE#         63
  C:A921H         LINE#         64
  C:A928H         LINE#         65
  -------         ENDPROC       GETWIDEMODEEE
BL51 BANKED LINKER/LOCATER V6.22                                                      04/22/2015  16:23:43  PAGE 44


  -------         PROC          _SAVEWIDEMODEEE
  D:0007H         SYMBOL        dl
  C:A8AEH         LINE#         67
  C:A8AEH         LINE#         68
  C:A8AEH         LINE#         69
  -------         ENDPROC       _SAVEWIDEMODEEE
  -------         PROC          GETPOSSIBLEAUTODETECTSTDEE
  -------         DO            
  D:0007H         SYMBOL        val
  -------         ENDDO         
  C:A929H         LINE#         74
  C:A929H         LINE#         75
  C:A929H         LINE#         78
  C:A930H         LINE#         84
  C:A930H         LINE#         85
  -------         ENDPROC       GETPOSSIBLEAUTODETECTSTDEE
  -------         PROC          SETPOSSIBLEAUTODETECTSTDEE
  -------         DO            
  X:0004H         SYMBOL        i
  X:0005H         SYMBOL        val
  -------         ENDDO         
  C:8C33H         LINE#         87
  C:8C33H         LINE#         88
  C:8C33H         LINE#         89
  C:8C38H         LINE#         92
  C:8C3CH         LINE#         93
  C:8C6AH         LINE#         94
  C:8C6AH         LINE#         95
  C:8C76H         LINE#         101
  C:8C76H         LINE#         102
  C:8C7FH         LINE#         103
  C:8C88H         LINE#         104
  C:8C91H         LINE#         105
  C:8C9AH         LINE#         106
  C:8CA3H         LINE#         107
  C:8CACH         LINE#         108
  C:8CB3H         LINE#         109
  C:8CB3H         LINE#         110
  C:8CB3H         LINE#         111
  -------         ENDPROC       SETPOSSIBLEAUTODETECTSTDEE
  -------         PROC          GETOSDPOSITIONMODEEE
  -------         DO            
  D:0007H         SYMBOL        val
  -------         ENDDO         
  C:A931H         LINE#         118
  C:A931H         LINE#         119
  C:A931H         LINE#         122
  C:A938H         LINE#         124
  C:A938H         LINE#         125
  -------         ENDPROC       GETOSDPOSITIONMODEEE
  -------         PROC          _SAVEOSDPOSITIONMODEEE
  D:0007H         SYMBOL        ndata
  C:A8B7H         LINE#         127
  C:A8B7H         LINE#         128
  C:A8B7H         LINE#         130
  -------         ENDPROC       _SAVEOSDPOSITIONMODEEE
  -------         PROC          _GETVIDEODATAFROMEE
BL51 BANKED LINKER/LOCATER V6.22                                                      04/22/2015  16:23:43  PAGE 45


  D:0003H         SYMBOL        offset
  -------         DO            
  D:0007H         SYMBOL        val
  -------         ENDDO         
  C:A57DH         LINE#         137
  C:A57FH         LINE#         138
  C:A57FH         LINE#         141
  C:A59DH         LINE#         143
  C:A59DH         LINE#         144
  -------         ENDPROC       _GETVIDEODATAFROMEE
  -------         PROC          _SAVEVIDEODATATOEE
  D:0007H         SYMBOL        offset
  D:0005H         SYMBOL        ndata
  -------         DO            
  D:0007H         SYMBOL        tot
  -------         ENDDO         
  C:A7B4H         LINE#         146
  C:A7B4H         LINE#         147
  C:A7B4H         LINE#         150
  C:A7C0H         LINE#         152
  -------         ENDPROC       _SAVEVIDEODATATOEE
  -------         PROC          _SAVEINPUTSELECTIONEE
  D:0007H         SYMBOL        val
  C:A8C0H         LINE#         155
  C:A8C0H         LINE#         156
  C:A8C0H         LINE#         157
  -------         ENDPROC       _SAVEINPUTSELECTIONEE
  -------         PROC          GETOSDLANGEE
  -------         DO            
  D:0007H         SYMBOL        val
  -------         ENDDO         
  C:A939H         LINE#         181
  C:A939H         LINE#         182
  C:A939H         LINE#         185
  C:A940H         LINE#         191
  C:A940H         LINE#         192
  -------         ENDPROC       GETOSDLANGEE
  -------         PROC          _SAVEOSDLANGEE
  D:0007H         SYMBOL        val
  C:A8C9H         LINE#         194
  C:A8C9H         LINE#         195
  C:A8C9H         LINE#         196
  -------         ENDPROC       _SAVEOSDLANGEE
  -------         PROC          GETAUDIOVOLEE
  C:A941H         LINE#         221
  C:A941H         LINE#         222
  C:A941H         LINE#         223
  C:A948H         LINE#         224
  -------         ENDPROC       GETAUDIOVOLEE
  -------         PROC          _SETAUDIOVOLEE
  D:0007H         SYMBOL        vol
  C:A8D2H         LINE#         226
  C:A8D2H         LINE#         227
  C:A8D2H         LINE#         228
  -------         ENDPROC       _SETAUDIOVOLEE
  -------         PROC          GETPCAUDIOVOLEE
  C:A949H         LINE#         231
BL51 BANKED LINKER/LOCATER V6.22                                                      04/22/2015  16:23:43  PAGE 46


  C:A949H         LINE#         232
  C:A949H         LINE#         233
  C:A950H         LINE#         234
  -------         ENDPROC       GETPCAUDIOVOLEE
  -------         PROC          _SETPCAUDIOVOLEE
  D:0007H         SYMBOL        vol
  C:A8DBH         LINE#         235
  C:A8DBH         LINE#         236
  C:A8DBH         LINE#         237
  -------         ENDPROC       _SETPCAUDIOVOLEE
  -------         PROC          CLEARBASICEE
  C:A3E4H         LINE#         402
  C:A3E4H         LINE#         403
  C:A3E4H         LINE#         404
  C:A3ECH         LINE#         405
  C:A3F1H         LINE#         407
  C:A3F8H         LINE#         408
  C:A400H         LINE#         415
  C:A403H         LINE#         419
  C:A406H         LINE#         422
  -------         ENDPROC       CLEARBASICEE
  -------         ENDMOD        ETC_EEP

  -------         MODULE        I2C
  C:0000H         SYMBOL        _ICE_DUMMY_
  C:9E4EH         PUBLIC        _WriteI2CnD
  D:00E8H         PUBLIC        P4
  B:0090H.0       PUBLIC        P1_0
  B:0090H.1       PUBLIC        P1_1
  C:9FF4H         PUBLIC        _WriteI2Cn_
  C:A201H         PUBLIC        I2CReadData
  C:9D0FH         PUBLIC        _WriteI2Cn
  C:9FBBH         PUBLIC        _ReadI2C
  C:0012H         PUBLIC        dd
  C:921FH         PUBLIC        _I2CWriteData
  C:A4A5H         PUBLIC        _WriteI2C
  C:A7A2H         PUBLIC        I2CStart
  C:A47FH         PUBLIC        _ReadEEP
  C:0016H         PUBLIC        I2CStop
  C:9BB9H         PUBLIC        _WriteEEP
  C:A657H         SYMBOL        Com002D
  C:A657H         SYMBOL        L?0046
  C:A657H         SYMBOL        L?0047
  C:A661H         SYMBOL        L?0048
  C:A66EH         SYMBOL        L?0049
  C:A66EH         SYMBOL        L?0050
  -------         PROC          COM002D
  -------         ENDPROC       COM002D
  -------         PROC          _WRITEEEP
  X:002AH         SYMBOL        index
  X:002CH         SYMBOL        dat
  -------         DO            
  X:002DH         SYMBOL        addr
  -------         ENDDO         
  C:9BB9H         LINE#         91
  C:9BC4H         LINE#         92
  C:9BC4H         LINE#         95
BL51 BANKED LINKER/LOCATER V6.22                                                      04/22/2015  16:23:43  PAGE 47


  C:9BDCH         LINE#         97
  C:9BDFH         LINE#         98
  C:9BE7H         LINE#         99
  C:9BF0H         LINE#         100
  C:9BF8H         LINE#         101
  C:9BFBH         LINE#         107
  -------         ENDPROC       _WRITEEEP
  -------         PROC          _READEEP
  D:0004H         SYMBOL        index
  -------         DO            
  X:0035H         SYMBOL        val
  D:0007H         SYMBOL        addr
  -------         ENDDO         
  C:A47FH         LINE#         110
  C:A483H         LINE#         111
  C:A483H         LINE#         115
  C:A492H         LINE#         117
  C:A49AH         LINE#         122
  C:A49FH         LINE#         123
  C:A4A4H         LINE#         124
  -------         ENDPROC       _READEEP
  -------         PROC          _READI2C
  X:0036H         SYMBOL        addr
  X:0037H         SYMBOL        index
  -------         DO            
  X:0038H         SYMBOL        val
  -------         ENDDO         
  C:9FBBH         LINE#         126
  C:9FC3H         LINE#         127
  C:9FC3H         LINE#         130
  C:9FC6H         LINE#         131
  C:9FCEH         LINE#         132
  C:9FD6H         LINE#         133
  C:9FD9H         LINE#         134
  C:9FE3H         LINE#         135
  C:9FEBH         LINE#         136
  C:9FEEH         LINE#         138
  C:9FF3H         LINE#         139
  -------         ENDPROC       _READI2C
  -------         PROC          _WRITEI2C
  X:0057H         SYMBOL        addr
  X:0058H         SYMBOL        index
  X:0059H         SYMBOL        val
  C:A4A5H         LINE#         142
  C:A4ADH         LINE#         143
  C:A4ADH         LINE#         144
  C:A4B0H         LINE#         145
  C:A4B8H         LINE#         146
  C:A4C0H         LINE#         147
  C:A4C8H         LINE#         148
  -------         ENDPROC       _WRITEI2C
  -------         PROC          _WRITEI2CND
  X:0036H         SYMBOL        addr
  X:0037H         SYMBOL        index
  X:0038H         SYMBOL        val
  X:0039H         SYMBOL        cnt
  -------         DO            
BL51 BANKED LINKER/LOCATER V6.22                                                      04/22/2015  16:23:43  PAGE 48


  X:003AH         SYMBOL        i
  -------         ENDDO         
  C:9E4EH         LINE#         151
  C:9E56H         LINE#         152
  C:9E56H         LINE#         155
  C:9E59H         LINE#         156
  C:9E61H         LINE#         157
  C:9E69H         LINE#         159
  C:9E79H         LINE#         160
  C:9E81H         LINE#         162
  C:9E89H         LINE#         164
  -------         ENDPROC       _WRITEI2CND
  -------         PROC          _WRITEI2CN
  X:0057H         SYMBOL        addr
  X:0058H         SYMBOL        index
  X:0059H         SYMBOL        val
  X:005CH         SYMBOL        cnt
  -------         DO            
  X:005DH         SYMBOL        i
  -------         ENDDO         
  C:9D0FH         LINE#         167
  C:9D18H         LINE#         168
  C:9D18H         LINE#         172
  C:9D1BH         LINE#         173
  C:9D23H         LINE#         174
  C:9D2BH         LINE#         176
  C:9D3CH         LINE#         177
  C:9D45H         LINE#         179
  C:9D4DH         LINE#         180
  -------         ENDPROC       _WRITEI2CN
  -------         PROC          _WRITEI2CN_
  X:0025H         SYMBOL        addr
  X:0026H         SYMBOL        val
  X:0029H         SYMBOL        cnt
  -------         DO            
  X:002AH         SYMBOL        i
  -------         ENDDO         
  C:9FF4H         LINE#         183
  C:9FFDH         LINE#         184
  C:9FFDH         LINE#         187
  C:A000H         LINE#         188
  C:A008H         LINE#         190
  C:A019H         LINE#         191
  C:A022H         LINE#         192
  C:A02AH         LINE#         193
  -------         ENDPROC       _WRITEI2CN_
  -------         PROC          DD
  C:0012H         LINE#         249
  C:0012H         LINE#         250
  C:0012H         LINE#         254
  -------         ENDPROC       DD
  -------         PROC          I2CSTART
  C:A7A2H         LINE#         259
  C:A7A2H         LINE#         260
  C:A7A2H         LINE#         261
  C:A7A7H         LINE#         262
  C:A7ACH         LINE#         263
BL51 BANKED LINKER/LOCATER V6.22                                                      04/22/2015  16:23:43  PAGE 49


  C:A7B1H         LINE#         264
  C:A7B3H         LINE#         265
  -------         ENDPROC       I2CSTART
  -------         PROC          I2CSTOP
  C:0016H         LINE#         267
  C:0016H         LINE#         268
  C:0016H         LINE#         269
  C:001BH         LINE#         270
  C:0020H         LINE#         271
  C:0022H         LINE#         272
  -------         ENDPROC       I2CSTOP
  -------         PROC          _I2CWRITEDATA
  D:0007H         SYMBOL        value
  C:921FH         LINE#         274
  C:921FH         LINE#         275
  C:921FH         LINE#         289
  C:9229H         LINE#         290
  C:9234H         LINE#         291
  C:923FH         LINE#         292
  C:924AH         LINE#         294
  C:9255H         LINE#         295
  C:9260H         LINE#         296
  C:926BH         LINE#         297
  C:9276H         LINE#         300
  C:9279H         LINE#         301
  C:927BH         LINE#         302
  C:927DH         LINE#         303
  C:927FH         LINE#         305
  C:9281H         LINE#         306
  C:9283H         LINE#         307
  C:9285H         LINE#         308
  C:9287H         LINE#         309
  -------         ENDPROC       _I2CWRITEDATA
  -------         PROC          I2CREADDATA
  -------         DO            
  D:0004H         SYMBOL        i
  D:0007H         SYMBOL        value
  -------         ENDDO         
  C:A201H         LINE#         311
  C:A201H         LINE#         312
  C:A201H         LINE#         314
  C:A203H         LINE#         316
  C:A208H         LINE#         317
  C:A20AH         LINE#         319
  C:A20CH         LINE#         320
  C:A20EH         LINE#         321
  C:A212H         LINE#         322
  C:A218H         LINE#         323
  C:A21AH         LINE#         324
  C:A225H         LINE#         325
  C:A228H         LINE#         327
  C:A22AH         LINE#         328
  C:A22CH         LINE#         329
  C:A22EH         LINE#         330
  C:A230H         LINE#         332
  C:A230H         LINE#         334
  -------         ENDPROC       I2CREADDATA
BL51 BANKED LINKER/LOCATER V6.22                                                      04/22/2015  16:23:43  PAGE 50


  -------         ENDMOD        I2C

  -------         MODULE        KEYREMO
  C:0000H         SYMBOL        _ICE_DUMMY_
  X:00FCH         PUBLIC        GaugeSetup
  D:00A0H         PUBLIC        P2
  D:00E8H         PUBLIC        P4
  B:0023H.4       PUBLIC        CAM_PTZ_RUN_flag
  X:00FDH         PUBLIC        KeyBuffer
  C:A537H         PUBLIC        RemoVolDn_LeftKey
  X:00FEH         PUBLIC        DayNightLevel
  C:A514H         PUBLIC        RemoVolUp_RightKey
  X:00FFH         PUBLIC        lock_keycnt
  X:0100H         PUBLIC        BookMarkState
  C:A850H         PUBLIC        RemoChnDn_DnKey
  X:0101H         PUBLIC        LockKeyState
  C:4DFAH         PUBLIC        CheckKeyIn
  C:A843H         PUBLIC        RemoChnUp_UpKey
  C:76DAH         PUBLIC        _GetKey
  C:A835H         PUBLIC        RemoMenu_MenuKey
  X:0102H         PUBLIC        GaugeInfoOSD
  C:7E16H         PUBLIC        _ActionRemo
  C:A951H         SYMBOL        Com0093
  C:A951H         SYMBOL        L?0148
  C:A951H         SYMBOL        L?0149
  -------         PROC          COM0093
  -------         ENDPROC       COM0093
  -------         PROC          REMOMENU_MENUKEY
  C:A835H         LINE#         95
  C:A835H         LINE#         96
  C:A835H         LINE#         97
  C:A83FH         LINE#         98
  C:A842H         LINE#         99
  -------         ENDPROC       REMOMENU_MENUKEY
  -------         PROC          REMOCHNUP_UPKEY
  C:A843H         LINE#         102
  C:A843H         LINE#         103
  C:A843H         LINE#         112
  C:A84AH         LINE#         123
  C:A84FH         LINE#         131
  -------         ENDPROC       REMOCHNUP_UPKEY
  -------         PROC          REMOCHNDN_DNKEY
  C:A850H         LINE#         133
  C:A850H         LINE#         134
  C:A850H         LINE#         143
  C:A857H         LINE#         144
  C:A85CH         LINE#         145
  C:A85CH         LINE#         152
  -------         ENDPROC       REMOCHNDN_DNKEY
  -------         PROC          REMOVOLUP_RIGHTKEY
  C:A514H         LINE#         154
  C:A514H         LINE#         155
  C:A514H         LINE#         163
  C:A51BH         LINE#         164
  C:A522H         LINE#         165
  C:A525H         LINE#         166
  C:A525H         LINE#         168
BL51 BANKED LINKER/LOCATER V6.22                                                      04/22/2015  16:23:43  PAGE 51


  C:A525H         LINE#         169
  C:A52DH         LINE#         170
  C:A530H         LINE#         172
  C:A530H         LINE#         174
  C:A533H         LINE#         175
  C:A536H         LINE#         176
  C:A536H         LINE#         177
  C:A536H         LINE#         179
  -------         ENDPROC       REMOVOLUP_RIGHTKEY
  -------         PROC          REMOVOLDN_LEFTKEY
  C:A537H         LINE#         181
  C:A537H         LINE#         182
  C:A537H         LINE#         190
  C:A53EH         LINE#         191
  C:A53EH         LINE#         192
  C:A541H         LINE#         193
  C:A543H         LINE#         195
  C:A546H         LINE#         196
  C:A546H         LINE#         198
  C:A546H         LINE#         199
  C:A54CH         LINE#         200
  C:A551H         LINE#         202
  C:A551H         LINE#         204
  C:A556H         LINE#         205
  C:A559H         LINE#         206
  C:A559H         LINE#         207
  C:A559H         LINE#         208
  -------         ENDPROC       REMOVOLDN_LEFTKEY
  -------         PROC          _ACTIONREMO
  X:0006H         SYMBOL        _RemoDataCode
  X:0007H         SYMBOL        AutoKey
  C:7E16H         LINE#         214
  C:7E1EH         LINE#         215
  C:7E1EH         LINE#         217
  C:7E21H         LINE#         237
  C:7E6BH         LINE#         239
  C:7E6BH         LINE#         243
  C:7E73H         LINE#         244
  C:7E7CH         LINE#         245
  C:7E7FH         LINE#         247
  C:7E7FH         LINE#         260
  C:7E7FH         LINE#         262
  C:7E7FH         LINE#         266
  C:7E85H         LINE#         267
  C:7E88H         LINE#         269
  C:7E88H         LINE#         273
  C:7E94H         LINE#         274
  C:7E97H         LINE#         275
  C:7E9AH         LINE#         277
  C:7E9AH         LINE#         278
  C:7E9AH         LINE#         279
  C:7E9AH         LINE#         280
  C:7E9AH         LINE#         281
  C:7E9AH         LINE#         282
  C:7E9AH         LINE#         283
  C:7E9AH         LINE#         284
  C:7E9AH         LINE#         285
BL51 BANKED LINKER/LOCATER V6.22                                                      04/22/2015  16:23:43  PAGE 52


  C:7E9AH         LINE#         286
  C:7E9AH         LINE#         290
  C:7E9EH         LINE#         292
  C:7EA1H         LINE#         293
  C:7EA1H         LINE#         295
  C:7EA1H         LINE#         299
  C:7EA4H         LINE#         300
  C:7EA6H         LINE#         302
  C:7EA6H         LINE#         306
  C:7EA9H         LINE#         307
  C:7EABH         LINE#         309
  C:7EABH         LINE#         313
  C:7EB4H         LINE#         314
  C:7EBBH         LINE#         315
  C:7EBEH         LINE#         316
  C:7EBEH         LINE#         317
  C:7EC0H         LINE#         319
  C:7EC0H         LINE#         323
  C:7EC3H         LINE#         324
  C:7EC5H         LINE#         325
  C:7EC5H         LINE#         329
  C:7EC8H         LINE#         330
  C:7ECAH         LINE#         333
  C:7ECAH         LINE#         337
  C:7ED3H         LINE#         341
  C:7ED6H         LINE#         343
  C:7ED8H         LINE#         345
  C:7ED8H         LINE#         349
  C:7EDFH         LINE#         350
  C:7EE4H         LINE#         351
  C:7EE6H         LINE#         364
  C:7EE6H         LINE#         368
  C:7EEDH         LINE#         369
  C:7EEDH         LINE#         371
  C:7EEDH         LINE#         383
  C:7EEFH         LINE#         384
  -------         ENDPROC       _ACTIONREMO
  C:5083H         SYMBOL        L?0145
  C:508DH         SYMBOL        L?0146
  C:509CH         SYMBOL        L?0150
  -------         PROC          CHECKKEYIN
  -------         DO            
  X:0003H         SYMBOL        ret
  X:0004H         SYMBOL        ikey
  X:0005H         SYMBOL        OSD_LOCK
  -------         ENDDO         
  C:4DFAH         LINE#         387
  C:4DFAH         LINE#         388
  C:4DFAH         LINE#         389
  C:4E00H         LINE#         391
  C:4E0EH         LINE#         392
  C:4E0EH         LINE#         393
  C:4E27H         LINE#         394
  C:4E2FH         LINE#         395
  C:4E37H         LINE#         396
  C:4E3FH         LINE#         397
  C:4E47H         LINE#         398
BL51 BANKED LINKER/LOCATER V6.22                                                      04/22/2015  16:23:43  PAGE 53


  C:4E4FH         LINE#         399
  C:4E57H         LINE#         400
  C:4E60H         LINE#         401
  C:4E60H         LINE#         403
  C:4E66H         LINE#         404
  C:4E66H         LINE#         405
  C:4E6AH         LINE#         406
  C:4E6DH         LINE#         407
  C:4E6DH         LINE#         409
  C:4E79H         LINE#         413
  C:4E81H         LINE#         415
  C:4E81H         LINE#         416
  C:4E88H         LINE#         420
  C:4E94H         LINE#         422
  C:4E94H         LINE#         423
  C:4E9DH         LINE#         424
  C:4EA2H         LINE#         425
  C:4EA9H         LINE#         426
  C:4EACH         LINE#         427
  C:4EB1H         LINE#         428
  C:4EB5H         LINE#         429
  C:4EB8H         LINE#         430
  C:4EB8H         LINE#         431
  C:4EB8H         LINE#         448
  C:4ECAH         LINE#         449
  C:4ECAH         LINE#         450
  C:4ECCH         LINE#         451
  C:4ED1H         LINE#         452
  C:4ED1H         LINE#         458
  C:4EE0H         LINE#         460
  C:4EE0H         LINE#         461
  C:4EE5H         LINE#         462
  C:4EEAH         LINE#         463
  C:4EEDH         LINE#         466
  C:4EF0H         LINE#         467
  C:4EF0H         LINE#         470
  C:4EF3H         LINE#         472
  C:4F16H         LINE#         473
  C:4F16H         LINE#         474
  C:4F1FH         LINE#         475
  C:4F22H         LINE#         476
  C:4F22H         LINE#         477
  C:4F2BH         LINE#         478
  C:4F2BH         LINE#         480
  C:4F36H         LINE#         481
  C:4F3BH         LINE#         483
  C:4F42H         LINE#         484
  C:4F42H         LINE#         485
  C:4F45H         LINE#         487
  C:4F45H         LINE#         488
  C:4F47H         LINE#         492
  C:4F47H         LINE#         493
  C:4F47H         LINE#         494
  C:4F49H         LINE#         496
  C:4F49H         LINE#         497
  C:4F52H         LINE#         499
  C:4F58H         LINE#         500
BL51 BANKED LINKER/LOCATER V6.22                                                      04/22/2015  16:23:43  PAGE 54


  C:4F58H         LINE#         501
  C:4F61H         LINE#         502
  C:4F6AH         LINE#         503
  C:4F73H         LINE#         505
  C:4F7FH         LINE#         508
  C:4F82H         LINE#         509
  C:4F85H         LINE#         510
  C:4F8AH         LINE#         511
  C:4F8EH         LINE#         512
  C:4F91H         LINE#         513
  C:4F91H         LINE#         515
  C:4F94H         LINE#         516
  C:4F94H         LINE#         529
  C:4F94H         LINE#         530
  C:4F9BH         LINE#         531
  C:4F9BH         LINE#         532
  C:4F9EH         LINE#         533
  C:4FA0H         LINE#         536
  C:4FA3H         LINE#         537
  C:4FA6H         LINE#         538
  C:4FADH         LINE#         539
  C:4FADH         LINE#         540
  C:4FB0H         LINE#         541
  C:4FB3H         LINE#         542
  C:4FB6H         LINE#         543
  C:4FB9H         LINE#         545
  C:4FB9H         LINE#         565
  C:4FBFH         LINE#         566
  C:4FBFH         LINE#         567
  C:4FBFH         LINE#         568
  C:4FC2H         LINE#         570
  C:4FC2H         LINE#         571
  C:4FC4H         LINE#         572
  C:4FC4H         LINE#         573
  C:4FC4H         LINE#         575
  C:4FC7H         LINE#         579
  C:4FC7H         LINE#         580
  C:4FCAH         LINE#         581
  C:4FCAH         LINE#         582
  C:4FD1H         LINE#         583
  C:4FD1H         LINE#         584
  C:4FD6H         LINE#         585
  C:4FD8H         LINE#         595
  C:4FD8H         LINE#         596
  C:4FDFH         LINE#         597
  C:4FE4H         LINE#         598
  C:4FE6H         LINE#         599
  C:4FE6H         LINE#         600
  C:4FE6H         LINE#         602
  C:4FE6H         LINE#         603
  C:4FE8H         LINE#         604
  C:4FE8H         LINE#         606
  C:4FE8H         LINE#         607
  C:4FEAH         LINE#         609
  C:4FEAH         LINE#         610
  C:4FEDH         LINE#         611
  C:4FEDH         LINE#         612
BL51 BANKED LINKER/LOCATER V6.22                                                      04/22/2015  16:23:43  PAGE 55


  C:4FF4H         LINE#         613
  C:4FF4H         LINE#         614
  C:4FF9H         LINE#         615
  C:4FFFH         LINE#         617
  C:4FFFH         LINE#         621
  C:5002H         LINE#         622
  C:5002H         LINE#         623
  C:5005H         LINE#         625
  C:5005H         LINE#         626
  C:500CH         LINE#         627
  C:5018H         LINE#         628
  C:501BH         LINE#         629
  C:501BH         LINE#         630
  C:501BH         LINE#         632
  C:501BH         LINE#         633
  C:501DH         LINE#         634
  C:501DH         LINE#         636
  C:501DH         LINE#         637
  C:501FH         LINE#         639
  C:501FH         LINE#         640
  C:5022H         LINE#         641
  C:5022H         LINE#         642
  C:5025H         LINE#         643
  C:5027H         LINE#         645
  C:5027H         LINE#         646
  C:5029H         LINE#         647
  C:5029H         LINE#         649
  C:5029H         LINE#         650
  C:502BH         LINE#         654
  C:502BH         LINE#         655
  C:502EH         LINE#         656
  C:502EH         LINE#         657
  C:5034H         LINE#         658
  C:5038H         LINE#         660
  C:503DH         LINE#         662
  C:5040H         LINE#         663
  C:5042H         LINE#         665
  C:5042H         LINE#         666
  C:5047H         LINE#         667
  C:5049H         LINE#         669
  C:5049H         LINE#         670
  C:504BH         LINE#         673
  C:504BH         LINE#         674
  C:5054H         LINE#         676
  C:5056H         LINE#         679
  C:5056H         LINE#         683
  C:505FH         LINE#         699
  C:5067H         LINE#         700
  C:5067H         LINE#         701
  C:5069H         LINE#         702
  C:506CH         LINE#         704
  C:506EH         LINE#         705
  C:5071H         LINE#         706
  C:507AH         LINE#         707
  C:507DH         LINE#         708
  C:507DH         LINE#         716
  C:507DH         LINE#         718
BL51 BANKED LINKER/LOCATER V6.22                                                      04/22/2015  16:23:43  PAGE 56


  C:507DH         LINE#         720
  C:507DH         LINE#         721
  C:5082H         LINE#         722
  -------         ENDPROC       CHECKKEYIN
  -------         PROC          _GETKEY
  X:0006H         SYMBOL        repeat
  -------         DO            
  B:0023H.2       SYMBOL        ready
  -------         ENDDO         
  C:76DAH         LINE#         728
  C:76DFH         LINE#         729
  C:76DFH         LINE#         733
  C:76E3H         LINE#         734
  C:76E5H         LINE#         736
  C:76EBH         LINE#         737
  C:76EBH         LINE#         738
  C:76EDH         LINE#         740
  C:7703H         LINE#         741
  C:7706H         LINE#         742
  C:771AH         LINE#         743
  C:771DH         LINE#         745
  C:7732H         LINE#         746
  C:7735H         LINE#         747
  C:774AH         LINE#         748
  C:774DH         LINE#         751
  C:7754H         LINE#         752
  C:7754H         LINE#         753
  C:776AH         LINE#         754
  C:776DH         LINE#         755
  C:7781H         LINE#         756
  C:7784H         LINE#         757
  C:7799H         LINE#         758
  C:779CH         LINE#         759
  C:77B1H         LINE#         760
  C:77B4H         LINE#         761
  C:77B4H         LINE#         762
  C:77B6H         LINE#         763
  C:77B6H         LINE#         765
  C:77BCH         LINE#         766
  C:77C5H         LINE#         767
  C:77CBH         LINE#         769
  C:77CDH         LINE#         771
  -------         ENDPROC       _GETKEY
  -------         ENDMOD        KEYREMO

  -------         MODULE        MAIN
  C:0000H         SYMBOL        _ICE_DUMMY_
  D:00E8H         PUBLIC        P4
  C:A5DDH         PUBLIC        GetNextInputSelection
  B:0020H.0       PUBLIC        Range4Coarse
  X:00D4H         PUBLIC        Baud_rate
  X:00D5H         PUBLIC        PowerFlag
  C:8E4DH         PUBLIC        _InitVideoData
  C:A7C5H         PUBLIC        IsNoInput
  X:00D6H         PUBLIC        SelectModeType
  B:0090H.4       PUBLIC        P1_4
  C:A8EDH         PUBLIC        GetOSDLastKeyInTime
BL51 BANKED LINKER/LOCATER V6.22                                                      04/22/2015  16:23:43  PAGE 57


  B:0090H.5       PUBLIC        P1_5
  X:00D7H         PUBLIC        VInputStd
  B:00B0H.4       PUBLIC        P3_4
  B:00B0H.5       PUBLIC        P3_5
  B:00B0H.7       PUBLIC        P3_7
  C:572AH         PUBLIC        struct_VInputStd
  X:00D8H         PUBLIC        displayhold_flag
  C:A876H         PUBLIC        SetOSDLastKeyInTime
  X:00D9H         PUBLIC        DVR_AudioRecord
  C:9703H         PUBLIC        main
  C:7FC2H         PUBLIC        _AdjustAutoDayNight
  X:00DAH         PUBLIC        AutoDayNightDelay
  C:A85DH         PUBLIC        PowerOff
  C:86F7H         PUBLIC        _I2CDeviceInitialize
  C:75E1H         PUBLIC        CheckDecoderInput
  B:0020H.1       PUBLIC        I2CAutoIncFlagOn
  B:0020H.2       PUBLIC        AccPowerDown
  C:A96DH         PUBLIC        GetVInputStd
  B:0020H.3       PUBLIC        IsFirstRunfromAC
  B:0020H.4       PUBLIC        PowerDownStart
  X:00DBH         PUBLIC        CAMNumber
  X:00DCH         PUBLIC        InputSelection
  C:6869H         PUBLIC        main_loop
  C:A02DH         PUBLIC        _SetVInputStd
  C:A8E4H         PUBLIC        PowerDown_XTAL
  C:56D5H         PUBLIC        struct_InputSelection
  C:71E1H         PUBLIC        LoadEEPROM
  C:A7F8H         PUBLIC        Hs_InitVars
  B:0020H.5       PUBLIC        Flag4AutoPanelRegs
  C:A55AH         PUBLIC        ReadVInputSTD
  D:0063H         PUBLIC        IHF
  C:8457H         PUBLIC        _ChangeInput
  X:00DDH         PUBLIC        PelcoChoiceFLAG
  C:A973H         PUBLIC        GetInputSelection
  X:00DEH         PUBLIC        DebugLevel
  D:0067H         PUBLIC        IVF
  X:00DFH         PUBLIC        ReverseModeFlag
  C:90C9H         PUBLIC        WaitPowerOn
  X:00E0H         PUBLIC        Priority
  B:0020H.6       PUBLIC        IsDrawNoVideoSignal
  C:96AAH         PUBLIC        GetVInputStdInx
  B:0020H.7       PUBLIC        DVRReSendDisable
  D:0069H         PUBLIC        PWMLevel
  X:00E1H         PUBLIC        Commanderror
  X:00E2H         PUBLIC        OSDLastKeyInTime
  B:0021H.0       PUBLIC        SDCardCoverDetect
  X:00E4H         PUBLIC        WideScreenMode
  B:0021H.1       PUBLIC        DisplayInputHold
  B:0021H.2       PUBLIC        VGAflag
  X:00E5H         PUBLIC        SEQTime
  X:00E6H         PUBLIC        VInputStdDetectMode
  C:A19FH         SYMBOL        Com00AC
  C:A19FH         SYMBOL        L?0173
  C:A19FH         SYMBOL        L?0174
  C:A1B0H         SYMBOL        L?0178
  C:A1B9H         SYMBOL        L?0180
  C:A1B9H         SYMBOL        L?0181
BL51 BANKED LINKER/LOCATER V6.22                                                      04/22/2015  16:23:43  PAGE 58


  C:A1BFH         SYMBOL        L?0182
  C:A1BFH         SYMBOL        L?0183
  C:A1C6H         SYMBOL        L?0184
  -------         PROC          COM00AC
  -------         ENDPROC       COM00AC
  -------         PROC          _I2CDEVICEINITIALIZE
  X:0021H         SYMBOL        RegSet
  -------         DO            
  X:0024H         SYMBOL        cnt
  X:0026H         SYMBOL        addr
  X:0027H         SYMBOL        index
  X:0028H         SYMBOL        val
  -------         ENDDO         
  C:86F7H         LINE#         320
  C:86FDH         LINE#         321
  C:86FDH         LINE#         322
  C:8704H         LINE#         325
  C:870CH         LINE#         327
  C:8718H         LINE#         329
  C:872AH         LINE#         330
  C:872CH         LINE#         332
  C:873FH         LINE#         333
  C:8744H         LINE#         334
  C:874BH         LINE#         337
  C:8755H         LINE#         338
  C:8755H         LINE#         340
  C:875DH         LINE#         341
  C:8763H         LINE#         342
  C:8767H         LINE#         343
  C:876FH         LINE#         344
  C:8773H         LINE#         345
  C:8779H         LINE#         350
  C:8779H         LINE#         353
  C:8787H         LINE#         359
  C:8791H         LINE#         360
  C:8793H         LINE#         361
  -------         ENDPROC       _I2CDEVICEINITIALIZE
  -------         PROC          _INITVIDEODATA
  X:0020H         SYMBOL        src
  C:8E4DH         LINE#         380
  C:8E52H         LINE#         381
  C:8E52H         LINE#         392
  C:8E5BH         LINE#         393
  C:8E61H         LINE#         395
  C:8E7CH         LINE#         398
  C:8E7CH         LINE#         408
  C:8E7CH         LINE#         414
  C:8E7CH         LINE#         415
  C:8E7CH         LINE#         418
  C:8E85H         LINE#         425
  C:8E87H         LINE#         429
  C:8E87H         LINE#         432
  C:8E87H         LINE#         435
  C:8E87H         LINE#         437
  C:8E87H         LINE#         439
  C:8E87H         LINE#         440
  C:8E8DH         LINE#         441
BL51 BANKED LINKER/LOCATER V6.22                                                      04/22/2015  16:23:43  PAGE 59


  C:8E8DH         LINE#         443
  C:8E94H         LINE#         444
  C:8E94H         LINE#         445
  C:8E9CH         LINE#         446
  C:8EA5H         LINE#         447
  C:8EA7H         LINE#         449
  C:8EAAH         LINE#         455
  C:8EB3H         LINE#         457
  C:8EBCH         LINE#         461
  C:8EC6H         LINE#         467
  C:8ECCH         LINE#         469
  C:8ECEH         LINE#         470
  -------         ENDPROC       _INITVIDEODATA
  -------         PROC          ISNOINPUT
  C:A7C5H         LINE#         473
  C:A7C5H         LINE#         474
  C:A7C5H         LINE#         475
  C:A7D3H         LINE#         476
  C:A7D5H         LINE#         477
  -------         ENDPROC       ISNOINPUT
  C:76BEH         SYMBOL        L?0175
  C:76C9H         SYMBOL        L?0176
  -------         PROC          CHECKDECODERINPUT
  -------         DO            
  X:001BH         SYMBOL        std1
  X:001CH         SYMBOL        std
  X:001DH         SYMBOL        cnt
  X:001EH         SYMBOL        trycnt
  X:001FH         SYMBOL        ChangedNoinput
  -------         ENDDO         
  C:75E1H         LINE#         568
  C:75E1H         LINE#         569
  C:75E1H         LINE#         709
  C:75E8H         LINE#         718
  C:75F8H         LINE#         721
  C:75FDH         LINE#         722
  C:75FDH         LINE#         723
  C:7605H         LINE#         728
  C:760BH         LINE#         729
  C:7614H         LINE#         730
  C:7614H         LINE#         732
  C:7626H         LINE#         733
  C:7626H         LINE#         736
  C:7631H         LINE#         737
  C:7637H         LINE#         739
  C:7637H         LINE#         740
  C:763CH         LINE#         741
  C:7641H         LINE#         742
  C:7641H         LINE#         744
  C:764AH         LINE#         750
  C:7650H         LINE#         751
  C:7650H         LINE#         752
  C:765AH         LINE#         753
  C:7662H         LINE#         754
  C:7668H         LINE#         755
  C:766AH         LINE#         756
  C:7670H         LINE#         757
BL51 BANKED LINKER/LOCATER V6.22                                                      04/22/2015  16:23:43  PAGE 60


  C:7670H         LINE#         758
  C:767AH         LINE#         761
  C:7683H         LINE#         762
  C:7686H         LINE#         765
  C:7686H         LINE#         766
  C:7689H         LINE#         767
  C:7689H         LINE#         768
  C:768BH         LINE#         770
  C:768BH         LINE#         773
  C:769CH         LINE#         776
  C:76A5H         LINE#         777
  C:76A8H         LINE#         780
  C:76A8H         LINE#         781
  C:76ABH         LINE#         782
  C:76B0H         LINE#         784
  C:76B5H         LINE#         785
  C:76B5H         LINE#         793
  C:76BDH         LINE#         795
  C:76BDH         LINE#         796
  C:76BDH         LINE#         797
  C:76BDH         LINE#         808
  C:76BDH         LINE#         814
  -------         ENDPROC       CHECKDECODERINPUT
  -------         PROC          READVINPUTSTD
  -------         DO            
  D:0007H         SYMBOL        std
  -------         ENDDO         
  C:A55AH         LINE#         816
  C:A55AH         LINE#         817
  C:A55AH         LINE#         820
  C:A563H         LINE#         822
  C:A56EH         LINE#         823
  C:A574H         LINE#         825
  C:A57CH         LINE#         826
  -------         ENDPROC       READVINPUTSTD
  -------         PROC          GETVINPUTSTDINX
  -------         DO            
  D:0007H         SYMBOL        i
  D:0003H         SYMBOL        std
  -------         ENDDO         
  C:96AAH         LINE#         828
  C:96AAH         LINE#         829
  C:96AAH         LINE#         832
  C:96AFH         LINE#         834
  C:96C5H         LINE#         836
  C:96C5H         LINE#         837
  C:96C5H         LINE#         838
  C:96C5H         LINE#         839
  C:96CDH         LINE#         841
  C:96CDH         LINE#         842
  C:96CDH         LINE#         843
  C:96DCH         LINE#         844
  C:96E3H         LINE#         845
  C:96E3H         LINE#         847
  C:96E5H         LINE#         848
  C:96F9H         LINE#         849
  C:96FAH         LINE#         850
BL51 BANKED LINKER/LOCATER V6.22                                                      04/22/2015  16:23:43  PAGE 61


  C:96FDH         LINE#         851
  C:96FDH         LINE#         852
  C:9700H         LINE#         853
  C:9702H         LINE#         854
  -------         ENDPROC       GETVINPUTSTDINX
  -------         PROC          GETVINPUTSTD
  C:A96DH         LINE#         857
  C:A96DH         LINE#         858
  C:A96DH         LINE#         859
  C:A972H         LINE#         860
  -------         ENDPROC       GETVINPUTSTD
  -------         PROC          _SETVINPUTSTD
  D:0007H         SYMBOL        newd
  C:A02DH         LINE#         863
  C:A02DH         LINE#         864
  C:A02DH         LINE#         865
  C:A032H         LINE#         879
  C:A047H         LINE#         882
  C:A047H         LINE#         885
  C:A047H         LINE#         888
  C:A047H         LINE#         890
  C:A04FH         LINE#         893
  C:A04FH         LINE#         896
  C:A04FH         LINE#         899
  C:A05EH         LINE#         902
  C:A065H         LINE#         903
  C:A065H         LINE#         904
  -------         ENDPROC       _SETVINPUTSTD
  -------         PROC          GETINPUTSELECTION
  C:A973H         LINE#         906
  C:A973H         LINE#         907
  C:A973H         LINE#         908
  C:A978H         LINE#         909
  -------         ENDPROC       GETINPUTSELECTION
  -------         PROC          GETNEXTINPUTSELECTION
  -------         DO            
  D:0007H         SYMBOL        i
  -------         ENDDO         
  C:A5DDH         LINE#         911
  C:A5DDH         LINE#         912
  C:A5DDH         LINE#         916
  C:A5DFH         LINE#         917
  C:A5EFH         LINE#         918
  C:A5F0H         LINE#         919
  C:A5F7H         LINE#         921
  C:A5FBH         LINE#         930
  -------         ENDPROC       GETNEXTINPUTSELECTION
  -------         PROC          POWERDOWN_XTAL
  B:0023H.2       SYMBOL        flag
  C:A8E4H         LINE#         932
  C:A8E4H         LINE#         933
  C:A8E4H         LINE#         934
  C:A8EAH         LINE#         935
  C:A8ECH         LINE#         936
  -------         ENDPROC       POWERDOWN_XTAL
  C:84FEH         SYMBOL        L?0179
  -------         PROC          _CHANGEINPUT
BL51 BANKED LINKER/LOCATER V6.22                                                      04/22/2015  16:23:43  PAGE 62


  X:001AH         SYMBOL        newsel
  C:8457H         LINE#         959
  C:845CH         LINE#         960
  C:845CH         LINE#         970
  C:8466H         LINE#         982
  C:8469H         LINE#         987
  C:8471H         LINE#         995
  C:8479H         LINE#         997
  C:8488H         LINE#         998
  C:8488H         LINE#         1014
  C:8488H         LINE#         1015
  C:848BH         LINE#         1018
  C:848BH         LINE#         1019
  C:848EH         LINE#         1020
  C:8490H         LINE#         1021
  C:8492H         LINE#         1023
  C:8498H         LINE#         1024
  C:849AH         LINE#         1026
  C:849AH         LINE#         1028
  C:849DH         LINE#         1033
  C:849DH         LINE#         1034
  C:84A0H         LINE#         1040
  C:84A2H         LINE#         1041
  C:84A4H         LINE#         1043
  C:84AAH         LINE#         1044
  C:84ACH         LINE#         1046
  C:84ACH         LINE#         1056
  C:84AFH         LINE#         1062
  C:84B1H         LINE#         1063
  C:84B6H         LINE#         1068
  C:84B8H         LINE#         1069
  C:84BAH         LINE#         1072
  C:84CBH         LINE#         1073
  C:84CBH         LINE#         1087
  C:84CBH         LINE#         1088
  C:84CEH         LINE#         1089
  C:84D6H         LINE#         1123
  C:84D6H         LINE#         1134
  C:84D6H         LINE#         1135
  C:84DBH         LINE#         1136
  C:84DEH         LINE#         1137
  C:84DEH         LINE#         1147
  C:84DEH         LINE#         1160
  C:84E1H         LINE#         1161
  C:84E6H         LINE#         1162
  C:84EBH         LINE#         1164
  C:84F4H         LINE#         1165
  C:84FDH         LINE#         1166
  -------         ENDPROC       _CHANGEINPUT
  -------         PROC          POWEROFF
  C:A85DH         LINE#         1168
  C:A85DH         LINE#         1169
  C:A85DH         LINE#         1174
  C:A862H         LINE#         1176
  C:A865H         LINE#         1177
  -------         ENDPROC       POWEROFF
  -------         PROC          SETOSDLASTKEYINTIME
BL51 BANKED LINKER/LOCATER V6.22                                                      04/22/2015  16:23:43  PAGE 63


  C:A876H         LINE#         1180
  C:A876H         LINE#         1181
  C:A876H         LINE#         1182
  C:A881H         LINE#         1183
  -------         ENDPROC       SETOSDLASTKEYINTIME
  -------         PROC          GETOSDLASTKEYINTIME
  C:A8EDH         LINE#         1185
  C:A8EDH         LINE#         1186
  C:A8EDH         LINE#         1187
  C:A8F5H         LINE#         1188
  -------         ENDPROC       GETOSDLASTKEYINTIME
  -------         PROC          _ADJUSTAUTODAYNIGHT
  D:0007H         SYMBOL        val
  -------         DO            
  X:0003H         SYMBOL        page
  X:0004H         SYMBOL        PWMLevelTemp
  -------         ENDDO         
  C:7FC2H         LINE#         1205
  C:7FC2H         LINE#         1206
  C:7FC2H         LINE#         1210
  C:7FC7H         LINE#         1212
  C:7FD1H         LINE#         1213
  C:7FD8H         LINE#         1214
  C:7FE3H         LINE#         1215
  C:7FEBH         LINE#         1216
  C:7FF6H         LINE#         1217
  C:7FFEH         LINE#         1218
  C:8009H         LINE#         1219
  C:8011H         LINE#         1220
  C:801DH         LINE#         1221
  C:801DH         LINE#         1223
  C:8023H         LINE#         1227
  C:8023H         LINE#         1232
  C:8029H         LINE#         1236
  C:8029H         LINE#         1240
  C:8029H         LINE#         1241
  C:8034H         LINE#         1242
  C:8038H         LINE#         1243
  C:803EH         LINE#         1244
  C:8040H         LINE#         1246
  C:8045H         LINE#         1247
  C:8045H         LINE#         1248
  C:8047H         LINE#         1250
  C:8047H         LINE#         1251
  C:804DH         LINE#         1253
  C:804DH         LINE#         1256
  C:8059H         LINE#         1257
  C:805FH         LINE#         1258
  C:8073H         LINE#         1260
  C:8087H         LINE#         1261
  -------         ENDPROC       _ADJUSTAUTODAYNIGHT
  -------         PROC          HS_INITVARS
  C:A7F8H         LINE#         1264
  C:A7F8H         LINE#         1265
  C:A7F8H         LINE#         1269
  C:A7FDH         LINE#         1270
  C:A801H         LINE#         1271
BL51 BANKED LINKER/LOCATER V6.22                                                      04/22/2015  16:23:43  PAGE 64


  C:A807H         LINE#         1287
  -------         ENDPROC       HS_INITVARS
  C:72DEH         SYMBOL        L?0177
  -------         PROC          LOADEEPROM
  -------         DO            
  D:0006H         SYMBOL        val
  -------         ENDDO         
  C:71E1H         LINE#         1289
  C:71E1H         LINE#         1290
  C:71E1H         LINE#         1292
  C:71EDH         LINE#         1294
  C:71F9H         LINE#         1296
  C:7205H         LINE#         1298
  C:7211H         LINE#         1302
  C:721DH         LINE#         1303
  C:7229H         LINE#         1304
  C:7235H         LINE#         1305
  C:7241H         LINE#         1306
  C:724DH         LINE#         1307
  C:7259H         LINE#         1312
  C:7265H         LINE#         1335
  C:726AH         LINE#         1336
  C:7270H         LINE#         1337
  C:7276H         LINE#         1339
  C:727AH         LINE#         1341
  C:727FH         LINE#         1342
  C:7285H         LINE#         1343
  C:728BH         LINE#         1345
  C:728FH         LINE#         1347
  C:7298H         LINE#         1348
  C:729EH         LINE#         1349
  C:72A4H         LINE#         1351
  C:72A8H         LINE#         1353
  C:72B1H         LINE#         1354
  C:72B7H         LINE#         1355
  C:72BDH         LINE#         1357
  C:72C1H         LINE#         1360
  C:72C9H         LINE#         1361
  C:72D1H         LINE#         1362
  C:72DDH         LINE#         1366
  -------         ENDPROC       LOADEEPROM
  -------         PROC          MAIN_LOOP
  -------         DO            
  X:0002H         SYMBOL        val
  -------         ENDDO         
  C:6869H         LINE#         1499
  C:6869H         LINE#         1500
  C:6869H         LINE#         1504
  C:6872H         LINE#         1509
  C:6872H         LINE#         1535
  C:687FH         LINE#         1536
  C:687FH         LINE#         1537
  C:6882H         LINE#         1538
  C:6882H         LINE#         1539
  C:6885H         LINE#         1540
  C:6885H         LINE#         1541
  C:6887H         LINE#         1542
BL51 BANKED LINKER/LOCATER V6.22                                                      04/22/2015  16:23:43  PAGE 65


  C:688CH         LINE#         1543
  C:6895H         LINE#         1544
  C:689CH         LINE#         1546
  C:68A1H         LINE#         1547
  C:68A1H         LINE#         1548
  C:68A3H         LINE#         1550
  C:68A3H         LINE#         1551
  C:68A6H         LINE#         1552
  C:68A6H         LINE#         1553
  C:68A8H         LINE#         1554
  C:68B2H         LINE#         1555
  C:68B5H         LINE#         1556
  C:68B5H         LINE#         1557
  C:68B5H         LINE#         1558
  C:68B5H         LINE#         1567
  C:68B5H         LINE#         1568
  C:68BDH         LINE#         1569
  C:68C0H         LINE#         1570
  C:68C0H         LINE#         1572
  C:68C6H         LINE#         1573
  C:68C6H         LINE#         1574
  C:68CCH         LINE#         1575
  C:68CCH         LINE#         1576
  C:68D9H         LINE#         1577
  C:68D9H         LINE#         1578
  C:68DCH         LINE#         1579
  C:68E1H         LINE#         1580
  C:68E1H         LINE#         1581
  C:68E1H         LINE#         1582
  C:68E1H         LINE#         1587
  C:68E7H         LINE#         1588
  C:68E7H         LINE#         1589
  C:68F3H         LINE#         1590
  C:68F3H         LINE#         1591
  C:68F5H         LINE#         1593
  C:68F5H         LINE#         1594
  C:68FAH         LINE#         1595
  C:68FAH         LINE#         1619
  C:6903H         LINE#         1623
  C:691CH         LINE#         1624
  C:691CH         LINE#         1625
  C:6923H         LINE#         1626
  C:6923H         LINE#         1629
  C:6929H         LINE#         1630
  C:6929H         LINE#         1631
  C:692CH         LINE#         1632
  C:692EH         LINE#         1634
  C:692EH         LINE#         1636
  C:6935H         LINE#         1637
  C:693CH         LINE#         1638
  C:6943H         LINE#         1639
  C:694AH         LINE#         1641
  C:694DH         LINE#         1643
  C:6954H         LINE#         1644
  C:695BH         LINE#         1645
  C:6962H         LINE#         1646
  C:6969H         LINE#         1648
BL51 BANKED LINKER/LOCATER V6.22                                                      04/22/2015  16:23:43  PAGE 66


  C:6969H         LINE#         1650
  C:696EH         LINE#         1651
  C:696EH         LINE#         1652
  C:696EH         LINE#         1659
  C:6971H         LINE#         1662
  C:697CH         LINE#         1664
  C:697CH         LINE#         1665
  C:697CH         LINE#         1666
  C:697CH         LINE#         1669
  C:6983H         LINE#         1670
  C:6983H         LINE#         1673
  C:6986H         LINE#         1676
  C:6989H         LINE#         1677
  C:6989H         LINE#         1679
  C:698BH         LINE#         1680
  C:698BH         LINE#         1682
  C:698BH         LINE#         1684
  C:698BH         LINE#         1694
  C:698BH         LINE#         1698
  C:6998H         LINE#         1699
  C:6998H         LINE#         1700
  C:69A1H         LINE#         1701
  C:69A6H         LINE#         1702
  C:69ADH         LINE#         1703
  C:69B2H         LINE#         1704
  C:69BBH         LINE#         1705
  C:69BBH         LINE#         1715
  C:69BEH         LINE#         1716
  -------         ENDPROC       MAIN_LOOP
  -------         PROC          MAIN
  -------         DO            
  X:0000H         SYMBOL        TW2835Check
  -------         ENDDO         
  C:9703H         LINE#         1718
  C:9703H         LINE#         1719
  C:9703H         LINE#         1723
  C:970AH         LINE#         1724
  C:970CH         LINE#         1725
  C:9711H         LINE#         1743
  C:9718H         LINE#         1744
  C:971AH         LINE#         1747
  C:971DH         LINE#         1748
  C:9722H         LINE#         1750
  C:9725H         LINE#         1751
  C:9728H         LINE#         1752
  C:972BH         LINE#         1761
  C:972EH         LINE#         1763
  C:9735H         LINE#         1764
  C:9738H         LINE#         1779
  C:973DH         LINE#         1793
  C:973FH         LINE#         1796
  C:973FH         LINE#         1797
  C:9745H         LINE#         1798
  C:9748H         LINE#         1806
  C:974BH         LINE#         1808
  C:9750H         LINE#         1810
  C:975AH         LINE#         1812
BL51 BANKED LINKER/LOCATER V6.22                                                      04/22/2015  16:23:43  PAGE 67


  -------         ENDPROC       MAIN
  -------         PROC          WAITPOWERON
  -------         DO            
  X:0002H         SYMBOL        ikey
  X:0003H         SYMBOL        val
  X:0004H         SYMBOL        VGATrigger
  -------         ENDDO         
  C:90C9H         LINE#         1815
  C:90C9H         LINE#         1816
  C:90C9H         LINE#         1818
  C:90CEH         LINE#         1821
  C:90CEH         LINE#         1822
  C:90CEH         LINE#         1852
  C:90D6H         LINE#         1853
  C:90D8H         LINE#         1854
  C:90D8H         LINE#         1855
  C:90DDH         LINE#         1857
  C:90EAH         LINE#         1858
  C:90EAH         LINE#         1859
  C:90EFH         LINE#         1860
  C:90F1H         LINE#         1861
  C:90F1H         LINE#         1862
  C:90F3H         LINE#         1864
  C:90F3H         LINE#         1865
  C:90FBH         LINE#         1866
  C:90FEH         LINE#         1867
  C:9103H         LINE#         1869
  C:9103H         LINE#         1875
  C:910FH         LINE#         1877
  C:9119H         LINE#         1878
  C:9119H         LINE#         1879
  C:911EH         LINE#         1880
  C:9126H         LINE#         1881
  C:9126H         LINE#         1882
  C:9126H         LINE#         1884
  C:9126H         LINE#         1891
  C:9126H         LINE#         1902
  C:9129H         LINE#         1903
  C:912CH         LINE#         1905
  C:9136H         LINE#         1906
  C:913CH         LINE#         1909
  C:913EH         LINE#         1913
  -------         ENDPROC       WAITPOWERON
  -------         ENDMOD        MAIN

  -------         MODULE        MEASURE
  C:0000H         SYMBOL        _ICE_DUMMY_
  -------         ENDMOD        MEASURE

  -------         MODULE        OSDBASIC
  C:0000H         SYMBOL        _ICE_DUMMY_
  C:9C89H         PUBLIC        _ShowOSDWindow_TW88
  C:7126H         PUBLIC        Init_Osd_DisplayMuteInfo
  C:A2BEH         PUBLIC        _ClearDataCnt
  C:71CEH         PUBLIC        Init_Osd_BarWindow
  C:95F4H         PUBLIC        Change_OSDColorLookup
  C:7184H         PUBLIC        Init_Osd_DisplayInput_M
BL51 BANKED LINKER/LOCATER V6.22                                                      04/22/2015  16:23:43  PAGE 68


  C:A73BH         PUBLIC        _strlen
  C:7197H         PUBLIC        Init_Osd_MainMenu
  C:9F45H         PUBLIC        _ShowOSDWindowAll
  D:0010H         PUBLIC        OSDStrInfo
  C:70E8H         PUBLIC        FontTestWindow
  C:6C45H         PUBLIC        _utoa
  C:7139H         PUBLIC        Init_Osd_DisplayTVChannel
  C:A13BH         PUBLIC        _WriteStringToAddr
  C:7113H         PUBLIC        Init_Osd_DisplayVchipWindow
  C:A1D0H         PUBLIC        _DrawAttrCnt
  C:94DDH         PUBLIC        _DownloadFont
  C:A291H         PUBLIC        WaitEndofDisplayArea
  C:9B26H         PUBLIC        _GetOSDWindowX
  C:980CH         PUBLIC        _GetOSDWindowY
  C:9DD0H         PUBLIC        _SetOSDWindowX_TW88
  C:9CCDH         PUBLIC        _SetOSDWindowY_TW88
  C:715FH         PUBLIC        Init_Osd_DisplayInput
  C:7100H         PUBLIC        Init_Osd_DisplayLogo
  D:0018H         PUBLIC        ptrFont
  C:A066H         PUBLIC        DownloadUDFont
  C:8799H         PUBLIC        _InitOSDWindow
  C:714CH         PUBLIC        Init_Osd_DisplayPCInfo
  C:8CBBH         SYMBOL        Com0047
  C:8CBBH         SYMBOL        L?0072
  C:8CBEH         SYMBOL        L?0073
  C:8CBFH         SYMBOL        L?0074
  C:8CCAH         SYMBOL        L?0075
  C:8CCAH         SYMBOL        L?0076
  C:8CD3H         SYMBOL        L?0077
  C:8CD3H         SYMBOL        L?0078
  C:8CDBH         SYMBOL        L?0079
  C:8CEDH         SYMBOL        L?0080
  C:8CFCH         SYMBOL        L?0081
  C:8CFCH         SYMBOL        L?0082
  C:8D05H         SYMBOL        L?0083
  C:8D05H         SYMBOL        L?0084
  C:8D0CH         SYMBOL        L?0085
  C:8D19H         SYMBOL        L?0086
  C:8D19H         SYMBOL        L?0087
  C:8D21H         SYMBOL        L?0088
  C:8D2DH         SYMBOL        L?0091
  C:8D2EH         SYMBOL        L?0092
  C:8D35H         SYMBOL        L?0095
  C:8D35H         SYMBOL        L?0096
  C:8D3CH         SYMBOL        L?0097
  C:8D3CH         SYMBOL        L?0098
  -------         PROC          COM0047
  -------         ENDPROC       COM0047
  C:A2B3H         SYMBOL        L?0093
  -------         PROC          WAITENDOFDISPLAYAREA
  -------         DO            
  X:002AH         SYMBOL        ret
  X:002BH         SYMBOL        i
  -------         ENDDO         
  C:A291H         LINE#         41
  C:A291H         LINE#         42
  C:A291H         LINE#         45
BL51 BANKED LINKER/LOCATER V6.22                                                      04/22/2015  16:23:43  PAGE 69


  C:A298H         LINE#         47
  C:A29BH         LINE#         48
  C:A2A6H         LINE#         49
  C:A2B2H         LINE#         50
  -------         ENDPROC       WAITENDOFDISPLAYAREA
  C:9644H         SYMBOL        L?0094
  -------         PROC          CHANGE_OSDCOLORLOOKUP
  -------         DO            
  X:0004H         SYMBOL        i
  X:0005H         SYMBOL        j
  -------         ENDDO         
  C:95F4H         LINE#         55
  C:95F4H         LINE#         56
  C:95F4H         LINE#         58
  C:95F9H         LINE#         59
  C:9608H         LINE#         60
  C:9613H         LINE#         61
  C:9630H         LINE#         62
  C:9637H         LINE#         63
  C:9643H         LINE#         64
  -------         ENDPROC       CHANGE_OSDCOLORLOOKUP
  C:952BH         SYMBOL        L?0089
  C:9534H         SYMBOL        L?0099
  -------         PROC          _DOWNLOADFONT
  X:0005H         SYMBOL        cod
  X:0006H         SYMBOL        fontdata
  C:94DDH         LINE#         97
  C:94E6H         LINE#         98
  C:94E6H         LINE#         99
  C:94F0H         LINE#         100
  C:94F9H         LINE#         103
  C:950BH         LINE#         104
  C:951EH         LINE#         106
  C:952BH         LINE#         107
  -------         ENDPROC       _DOWNLOADFONT
  -------         PROC          DOWNLOADUDFONT
  -------         DO            
  X:0004H         SYMBOL        i
  -------         ENDDO         
  C:A066H         LINE#         109
  C:A066H         LINE#         110
  C:A066H         LINE#         113
  C:A06FH         LINE#         115
  C:A083H         LINE#         116
  C:A095H         LINE#         117
  C:A09DH         LINE#         118
  -------         ENDPROC       DOWNLOADUDFONT
  -------         PROC          _SETOSDWINDOWX_TW88
  D:0007H         SYMBOL        winno
  X:0013H         SYMBOL        x
  -------         DO            
  X:0014H         SYMBOL        tmp
  D:0005H         SYMBOL        dat
  -------         ENDDO         
  C:9DD0H         LINE#         176
  C:9DD3H         LINE#         177
  C:9DD3H         LINE#         181
BL51 BANKED LINKER/LOCATER V6.22                                                      04/22/2015  16:23:43  PAGE 70


  C:9DDEH         LINE#         182
  C:9DE4H         LINE#         184
  C:9DEAH         LINE#         186
  C:9DF4H         LINE#         187
  C:9DF9H         LINE#         189
  C:9E01H         LINE#         190
  C:9E0EH         LINE#         191
  -------         ENDPROC       _SETOSDWINDOWX_TW88
  -------         PROC          _SETOSDWINDOWY_TW88
  D:0007H         SYMBOL        winno
  X:0013H         SYMBOL        y
  -------         DO            
  X:0014H         SYMBOL        tmp
  D:0005H         SYMBOL        dat
  -------         ENDDO         
  C:9CCDH         LINE#         193
  C:9CD0H         LINE#         194
  C:9CD0H         LINE#         198
  C:9CDBH         LINE#         199
  C:9CE1H         LINE#         201
  C:9CE7H         LINE#         203
  C:9CF1H         LINE#         204
  C:9CF9H         LINE#         206
  C:9D01H         LINE#         207
  C:9D0EH         LINE#         208
  -------         ENDPROC       _SETOSDWINDOWY_TW88
  -------         PROC          _SHOWOSDWINDOWALL
  X:0020H         SYMBOL        on
  -------         DO            
  X:0021H         SYMBOL        rd
  -------         ENDDO         
  C:9F45H         LINE#         213
  C:9F4AH         LINE#         214
  C:9F4AH         LINE#         217
  C:9F57H         LINE#         218
  C:9F5AH         LINE#         219
  C:9F66H         LINE#         221
  C:9F6CH         LINE#         222
  C:9F72H         LINE#         224
  C:9F80H         LINE#         226
  -------         ENDPROC       _SHOWOSDWINDOWALL
  -------         PROC          _SHOWOSDWINDOW_TW88
  D:0007H         SYMBOL        winno
  X:0020H         SYMBOL        onoff
  -------         DO            
  X:0021H         SYMBOL        rd
  -------         ENDDO         
  C:9C89H         LINE#         227
  C:9C8CH         LINE#         228
  C:9C8CH         LINE#         231
  C:9C97H         LINE#         232
  C:9C9DH         LINE#         234
  C:9CA9H         LINE#         235
  C:9CB6H         LINE#         236
  C:9CBDH         LINE#         238
  C:9CC0H         LINE#         239
  C:9CCCH         LINE#         240
BL51 BANKED LINKER/LOCATER V6.22                                                      04/22/2015  16:23:43  PAGE 71


  -------         ENDPROC       _SHOWOSDWINDOW_TW88
  -------         PROC          _GETOSDWINDOWX
  D:0007H         SYMBOL        winno
  -------         DO            
  X:002AH         SYMBOL        x
  -------         ENDDO         
  C:9B26H         LINE#         243
  C:9B26H         LINE#         244
  C:9B26H         LINE#         247
  C:9B36H         LINE#         248
  C:9B3CH         LINE#         250
  C:9B4DH         LINE#         251
  C:9B5DH         LINE#         253
  C:9B70H         LINE#         254
  -------         ENDPROC       _GETOSDWINDOWX
  -------         PROC          _GETOSDWINDOWY
  D:0007H         SYMBOL        winno
  -------         DO            
  X:002AH         SYMBOL        y
  -------         ENDDO         
  C:980CH         LINE#         257
  C:980CH         LINE#         258
  C:980CH         LINE#         261
  C:981CH         LINE#         262
  C:9822H         LINE#         264
  C:983FH         LINE#         265
  C:984FH         LINE#         267
  C:9862H         LINE#         268
  -------         ENDPROC       _GETOSDWINDOWY
  -------         PROC          _WRITESTRINGTOADDR
  X:0051H         SYMBOL        addr
  X:0053H         SYMBOL        str
  X:0056H         SYMBOL        cnt
  C:A13BH         LINE#         908
  C:A144H         LINE#         909
  C:A144H         LINE#         911
  C:A14AH         LINE#         913
  C:A153H         LINE#         914
  C:A168H         LINE#         917
  -------         ENDPROC       _WRITESTRINGTOADDR
  -------         PROC          _DRAWATTRCNT
  X:0032H         SYMBOL        addr
  X:0034H         SYMBOL        color
  X:0035H         SYMBOL        cnt
  C:A1D0H         LINE#         932
  C:A1DAH         LINE#         933
  C:A1DAH         LINE#         934
  C:A1E0H         LINE#         935
  C:A1E9H         LINE#         936
  C:A1FBH         LINE#         938
  -------         ENDPROC       _DRAWATTRCNT
  -------         PROC          _CLEARDATACNT
  X:0032H         SYMBOL        addr
  X:0034H         SYMBOL        cnt
  C:A2BEH         LINE#         941
  C:A2C5H         LINE#         942
  C:A2C5H         LINE#         944
BL51 BANKED LINKER/LOCATER V6.22                                                      04/22/2015  16:23:43  PAGE 72


  C:A2CBH         LINE#         945
  C:A2D4H         LINE#         946
  C:A2E5H         LINE#         949
  -------         ENDPROC       _CLEARDATACNT
  -------         PROC          _UTOA
  X:0051H         SYMBOL        value
  X:0053H         SYMBOL        str
  X:0056H         SYMBOL        radix
  -------         DO            
  X:0057H         SYMBOL        cnt
  X:0058H         SYMBOL        str1
  X:005BH         SYMBOL        i
  X:005DH         SYMBOL        div
  -------         ENDDO         
  C:6C45H         LINE#         957
  C:6C4EH         LINE#         958
  C:6C4EH         LINE#         966
  C:6C54H         LINE#         967
  C:6C59H         LINE#         968
  C:6C61H         LINE#         969
  C:6C76H         LINE#         970
  C:6C79H         LINE#         971
  C:6C7EH         LINE#         972
  C:6C88H         LINE#         973
  C:6C8EH         LINE#         974
  C:6C90H         LINE#         975
  C:6C96H         LINE#         976
  C:6CA5H         LINE#         978
  C:6CB6H         LINE#         979
  C:6CCCH         LINE#         980
  C:6CD7H         LINE#         981
  C:6CD7H         LINE#         982
  C:6CDAH         LINE#         983
  C:6CE5H         LINE#         984
  C:6CF9H         LINE#         985
  C:6CFCH         LINE#         986
  C:6D01H         LINE#         987
  C:6D11H         LINE#         988
  C:6D16H         LINE#         990
  C:6D20H         LINE#         991
  C:6D29H         LINE#         992
  C:6D29H         LINE#         993
  C:6D3DH         LINE#         994
  C:6D48H         LINE#         995
  C:6D4DH         LINE#         997
  C:6D59H         LINE#         998
  C:6D63H         LINE#         999
  C:6D63H         LINE#         1000
  C:6D65H         LINE#         1001
  -------         ENDPROC       _UTOA
  -------         PROC          _STRLEN
  X:0051H         SYMBOL        str
  -------         DO            
  D:0007H         SYMBOL        i
  -------         ENDDO         
  C:A73BH         LINE#         1002
  C:A741H         LINE#         1003
BL51 BANKED LINKER/LOCATER V6.22                                                      04/22/2015  16:23:43  PAGE 73


  C:A741H         LINE#         1004
  C:A743H         LINE#         1006
  C:A755H         LINE#         1007
  C:A755H         LINE#         1008
  -------         ENDPROC       _STRLEN
  C:8828H         SYMBOL        L?0090
  C:8831H         SYMBOL        L?0100
  -------         PROC          _INITOSDWINDOW
  X:0020H         SYMBOL        ptr
  -------         DO            
  X:0023H         SYMBOL        i
  X:0024H         SYMBOL        page
  -------         ENDDO         
  C:8799H         LINE#         1014
  C:879FH         LINE#         1015
  C:879FH         LINE#         1018
  C:87ABH         LINE#         1019
  C:87B5H         LINE#         1021
  C:87C2H         LINE#         1023
  C:87C7H         LINE#         1024
  C:87CDH         LINE#         1025
  C:87E7H         LINE#         1026
  C:8802H         LINE#         1028
  C:880DH         LINE#         1029
  C:880FH         LINE#         1031
  C:881CH         LINE#         1032
  C:8828H         LINE#         1033
  -------         ENDPROC       _INITOSDWINDOW
  -------         ENDMOD        OSDBASIC

  -------         MODULE        OSDMENU
  C:0000H         SYMBOL        _ICE_DUMMY_
  C:0D07H         PUBLIC        Str_Secord
  C:0765H         PUBLIC        ReversModeString
  C:0294H         PUBLIC        Str_Sharpness_F
  X:00B4H         PUBLIC        MenuChild
  C:0250H         PUBLIC        Str_Saturation_S
  C:015FH         PUBLIC        Str_LCDVersion_E
  C:0D75H         PUBLIC        RECORDSDCARD_ICON
  X:00B6H         PUBLIC        PW_FirstNumber
  C:0E33H         PUBLIC        FWUpdateSelectMenu
  C:0BB7H         PUBLIC        Str_DVR_DISPLAY
  C:0520H         PUBLIC        Str_UpdateConfig_E
  C:002EH         PUBLIC        OSDHighMenu
  C:9357H         PUBLIC        ResetVideoValue
  C:0190H         PUBLIC        Str_OSDPosition_E
  C:A979H         PUBLIC        IsInputAnalogRGB
  C:0D69H         PUBLIC        VIDEO_ICON
  C:02ABH         PUBLIC        Str_Sharpness_K
  C:62A9H         PUBLIC        _OSDCursorMove
  D:00E8H         PUBLIC        P4
  C:14C9H         PUBLIC        PanelBrightnessRange
  C:11AFH         PUBLIC        RECORDSELECT
  C:0D37H         PUBLIC        Str_FourthNumber
  C:0CD7H         PUBLIC        Str_FPS
  X:00B7H         PUBLIC        MenuFormat
  C:0CDDH         PUBLIC        Str_RecordMode
BL51 BANKED LINKER/LOCATER V6.22                                                      04/22/2015  16:23:43  PAGE 74


  C:0A37H         PUBLIC        Str_Version
  C:0D34H         PUBLIC        Str_ThirdNumber
  C:0D1CH         PUBLIC        Str_RETURNAPPLY
  C:0AB5H         PUBLIC        Str_OSDLang
  C:0866H         PUBLIC        ResolutionChoiceString
  X:00B9H         PUBLIC        BarRange
  C:14D5H         PUBLIC        PanelHueRange
  C:0CDAH         PUBLIC        Str_Quality
  C:0CC2H         PUBLIC        Str_VER
  C:0CBFH         PUBLIC        Str_SPACE
  C:0363H         PUBLIC        Str_TIMEOUT_STEP_E
  C:01AAH         PUBLIC        Str_OSDPosition_K
  C:0CEFH         PUBLIC        Str_ManualRecordStop
  C:09C3H         PUBLIC        ONOFFChineseChoiceString
  C:03C2H         PUBLIC        Str_RecordLength_E
  C:113BH         PUBLIC        DMUtility
  C:0D52H         PUBLIC        Str_WideScreen
  C:0A91H         PUBLIC        CheckPCCableStr
  C:1521H         PUBLIC        PCColorTempRGB
  C:14F3H         PUBLIC        VideoBrightnessRange
  C:0C02H         PUBLIC        Str_CVBSA
  C:0506H         PUBLIC        Str_TriggerDelay_E
  C:02A3H         PUBLIC        Str_Sharpness_S
  C:0D28H         PUBLIC        Str_YES
  C:0C11H         PUBLIC        Str_CVBSB
  C:0BD5H         PUBLIC        Str_OSD_LOCK
  D:001AH         SYMBOL        MenuIndexStack
  C:0C20H         PUBLIC        Str_CVBSC
  C:04ADH         PUBLIC        Str_SecondNumber_E
  C:A7D6H         PUBLIC        GetOSDLang
  C:14FFH         PUBLIC        VideoHueRange
  C:0F5FH         PUBLIC        DateTimeSelectMenu
  C:0550H         PUBLIC        Str_DISTANCE_E
  C:8972H         PUBLIC        _DisplayVolumebar
  C:0DABH         PUBLIC        InputSelectMenu
  C:7D3BH         PUBLIC        _DisplayViewBar
  C:474CH         PUBLIC        _DisplayOSDMenuOneItem
  C:1137H         PUBLIC        UtilityMenu
  C:0D04H         PUBLIC        Str_Minute
  C:019DH         PUBLIC        Str_OSDPosition_S
  X:00BBH         PUBLIC        MenuStack
  C:14ABH         PUBLIC        UserRange
  C:0DA9H         PUBLIC        NumberOnly
  C:0BE4H         PUBLIC        Str_PASSWORD
  C:09B2H         PUBLIC        bpsChoiceString
  C:0220H         PUBLIC        Str_Contrast_D
  C:1579H         PUBLIC        WIDE_ADDRESS
  C:135FH         PUBLIC        TRIGGERSelectMenu
  C:0D2EH         PUBLIC        Str_FirstNumber
  C:0C3EH         PUBLIC        Str_Auto_Day_Night
  C:0441H         PUBLIC        Str_TimeBegines_E
  C:020DH         PUBLIC        Str_Contrast_E
  C:0188H         PUBLIC        Str_GETWAY_E
  X:00C3H         PUBLIC        DVR_DataChange
  C:A107H         PUBLIC        OpenOSDMenu
  C:1277H         PUBLIC        DMUserPicture
  C:08CDH         PUBLIC        RecordLengthChoiceString
BL51 BANKED LINKER/LOCATER V6.22                                                      04/22/2015  16:23:43  PAGE 75


  C:0216H         PUBLIC        Str_Contrast_F
  C:14DBH         PUBLIC        PanelSaturationRange
  C:0403H         PUBLIC        Str_Snapshot_E
  C:8ECFH         PUBLIC        _DoAction
  C:8DCAH         PUBLIC        InitOSDMenu
  C:0D49H         PUBLIC        Str_Informmation
  C:03ECH         PUBLIC        Str_ManualRecordStart_E
  C:047CH         PUBLIC        Str_AudioRecord_E
  C:016BH         PUBLIC        Str_DVRVersion_E
  C:1043H         PUBLIC        DMDVRRecallSELECT
  C:1013H         PUBLIC        DMMonitorRecallSELECT
  C:0233H         PUBLIC        Str_Contrast_K
  C:0133H         PUBLIC        AutoAdjustInfo
  C:0CE6H         PUBLIC        Str_PostAlarmLength
  C:0CE3H         PUBLIC        Str_PreAlarmLength
  C:A882H         PUBLIC        ClearValueWin
  C:0CCBH         PUBLIC        Str_GAUGE_RECALL
  C:0A94H         PUBLIC        OutOfRangeStr
  C:14F9H         PUBLIC        VideoSaturationRange
  C:0D65H         PUBLIC        INPUT_ICON
  C:0C2FH         PUBLIC        Str_CVBSR
  X:00C4H         PUBLIC        MenuTitle
  C:0CD1H         PUBLIC        Str_ReversMode
  C:0300H         PUBLIC        Str_MIRROR_E
  C:0E67H         PUBLIC        ChangePasswordSelectMenu
  C:0D1FH         PUBLIC        Str_FormatSD
  C:0DAFH         PUBLIC        InputSourceMenu
  C:0CCEH         PUBLIC        Str_PRIORITY
  C:0B0FH         PUBLIC        Str_Reset
  C:14CFH         PUBLIC        PanelSharpnessRange
  C:0D40H         PUBLIC        Str_TriggerSet
  C:0719H         PUBLIC        CaptionChoice
  C:0229H         PUBLIC        Str_Contrast_S
  C:0744H         PUBLIC        NMhoiceString
  C:032AH         PUBLIC        Str_RETURN_E
  C:017FH         PUBLIC        Str_WIFI_MAC_E
  C:0CFBH         PUBLIC        Str_Month
  C:0CE9H         PUBLIC        Str_Apply
  C:0CC8H         PUBLIC        Str_GAUGE_STEP
  C:0959H         PUBLIC        AudioRecordChoiceString
  C:042EH         PUBLIC        Str_Secord_E
  C:09D1H         PUBLIC        IMAGEChineseString
  C:10B3H         PUBLIC        InformationMenu
  C:0DA5H         PUBLIC        BookMark_ICON
  C:12FFH         PUBLIC        DMCAMSELECT
  C:0EDFH         PUBLIC        FORMATSDSELECT
  C:07F4H         PUBLIC        REARString
  C:0544H         PUBLIC        Str_DVR_DISPLAY_E
  C:1505H         PUBLIC        VideoSharpnessRange
  C:0D13H         PUBLIC        Str_Week
  C:0393H         PUBLIC        Str_ReverseMode_E
  C:04C8H         PUBLIC        Str_FourthNumber_E
  C:03AAH         PUBLIC        Str_FPS_E
  C:03B6H         PUBLIC        Str_RecordMode_E
  C:01C6H         PUBLIC        Str_OSDLang_D
  C:0157H         PUBLIC        Str_Version_E
  C:0FE3H         PUBLIC        DMRecallSELECT
BL51 BANKED LINKER/LOCATER V6.22                                                      04/22/2015  16:23:43  PAGE 76


  C:0D16H         PUBLIC        Str_Time
  C:04BBH         PUBLIC        Str_ThirdNumber_E
  C:0460H         PUBLIC        Str_RETURNAPPLY_E
  C:01B6H         PUBLIC        Str_OSDLang_E
  C:15DDH         PUBLIC        WIDEDATA_480i
  C:0CF5H         PUBLIC        Str_DateTime
  C:01BFH         PUBLIC        Str_OSDLang_F
  C:0CF8H         PUBLIC        Str_Year
  C:0C74H         PUBLIC        Str_CAMA
  C:093CH         PUBLIC        TimeBeginesWeekChoiceString
  C:03AEH         PUBLIC        Str_Quality_E
  C:0359H         PUBLIC        Str_VER_E
  C:0357H         PUBLIC        Str_SPACE_E
  C:85ACH         PUBLIC        OSDHighMenu_sub
  C:0D95H         PUBLIC        NoGsensor_ICON
  C:0D4FH         PUBLIC        Str_SDCARDCOVERDET
  C:0C83H         PUBLIC        Str_CAMB
  C:03F8H         PUBLIC        Str_ManualRecordStop_E
  C:0C92H         PUBLIC        Str_CAMC
  C:02E7H         PUBLIC        Str_WideScreen_E
  C:0100H         PUBLIC        CheckPCCableStr_E
  C:79ADH         PUBLIC        _SetVideoMode
  C:6426H         PUBLIC        DisplayInfo_OSD
  C:16CDH         PUBLIC        OSDInfoStr
  C:167DH         PUBLIC        WIDEDATA_720p
  C:143BH         PUBLIC        DMMainMenu
  C:0CB0H         PUBLIC        Str_CAMD
  C:057EH         PUBLIC        Str_CVBSA_E
  C:0585H         PUBLIC        Str_CVBSB_E
  C:055FH         PUBLIC        Str_OSD_LOCK_E
  C:0499H         PUBLIC        Str_YES_E
  C:01D5H         PUBLIC        Str_OSDLang_K
  C:1605H         PUBLIC        WIDEDATA_576i
  C:1203H         PUBLIC        SDCARD
  C:058CH         PUBLIC        Str_CVBSC_E
  C:162DH         PUBLIC        WIDEDATA_480p
  C:0D89H         PUBLIC        NoGPS_ICON
  C:0C5CH         PUBLIC        Str_DIR_IMAGE_CAMA
  C:0BA8H         PUBLIC        Str_DISPLAY
  C:0B3CH         PUBLIC        Str_SEQ_TIME_STEP
  X:00C6H         SYMBOL        cursor_item
  C:59CFH         PUBLIC        _GetItemValue
  C:0D61H         PUBLIC        TV_ICON
  C:0C5FH         PUBLIC        Str_DIR_IMAGE_CAMB
  C:0879H         PUBLIC        FPSChoiceString
  C:A231H         PUBLIC        _Get_cursor_item
  C:0C62H         PUBLIC        Str_DIR_IMAGE_CAMC
  C:08B8H         PUBLIC        RecordModeChoiceString
  C:042AH         PUBLIC        Str_Minute_E
  C:02F3H         PUBLIC        Str_WideScreen_K
  C:0AA3H         PUBLIC        StrVolume
  C:0568H         PUBLIC        Str_PASSWORD_E
  B:0023H.0       PUBLIC        displayOnValueWindow
  X:00C7H         SYMBOL        title_item
  C:14C3H         PUBLIC        PanelContrastRange
  C:0D2BH         PUBLIC        Str_NO
  C:9288H         PUBLIC        _SetVideoBacklight
BL51 BANKED LINKER/LOCATER V6.22                                                      04/22/2015  16:23:43  PAGE 77


  C:088DH         PUBLIC        QualityChoiceString
  C:0822H         PUBLIC        JUMPString
  C:059AH         PUBLIC        Str_Auto_Day_Night_E
  C:04A0H         PUBLIC        Str_FirstNumber_E
  C:1655H         PUBLIC        WIDEDATA_576p
  C:0D9DH         PUBLIC        NoWiFi_ICON
  C:0CFEH         PUBLIC        Str_Day
  C:0C65H         PUBLIC        Str_REAR_SETUP
  C:01CEH         PUBLIC        Str_OSDLang_S
  C:975CH         PUBLIC        CheckPanelImage
  C:0D01H         PUBLIC        Str_Hour
  C:0AC4H         PUBLIC        Str_Brightness
  D:001EH         SYMBOL        MenuSP
  C:0514H         PUBLIC        Str_Informmation_E
  C:13B7H         PUBLIC        DMCAMERA
  X:00C8H         SYMBOL        val_osdwin
  C:1511H         PUBLIC        Contast_Reg_Addr
  C:0D71H         PUBLIC        SDCARD_ICON
  C:0D3AH         PUBLIC        Str_ChangePassword
  C:0B8AH         PUBLIC        Str_DVRRECALL
  C:0B7BH         PUBLIC        Str_MonitorRECALL
  C:0AF1H         PUBLIC        Str_Hue
  C:14EDH         PUBLIC        TW2835VideoContrastRange
  C:14E7H         PUBLIC        VideoContrastRange
  C:0CA1H         PUBLIC        Str_CAMR
  C:06DDH         PUBLIC        WideScreenChoice
  C:1273H         PUBLIC        UserPictureMenuType
  C:0C4DH         PUBLIC        Str_DIR_IMAGE
  C:03DAH         PUBLIC        Str_PostAlarmLength_E
  C:03D0H         PUBLIC        Str_PreAlarmLength_E
  X:00C9H         SYMBOL        val_index
  C:2CCAH         PUBLIC        _SetItemValue
  C:88D9H         PUBLIC        _ChangeVideoData
  C:037DH         PUBLIC        Str_GAUGE_RECALL_E
  C:0110H         PUBLIC        OutOfRangeStr_E
  C:1573H         PUBLIC        Init_DTV_Data
  C:14BDH         PUBLIC        PCUserColorTempRange
  C:0593H         PUBLIC        Str_CVBSR_E
  C:7EF0H         PUBLIC        _DrawNum
  C:1770H         SYMBOL        _?ix1000
  C:13B3H         PUBLIC        CAMERAMenu
  C:0D0AH         PUBLIC        Str_DaylightSaving
  C:A395H         PUBLIC        SaveValue1
  C:17B4H         SYMBOL        _?ix1001
  C:8506H         PUBLIC        _SetPCColor
  X:00CAH         SYMBOL        cur_osdwin
  C:A8F6H         PUBLIC        _GetVideoDatawithOffset
  C:17C0H         SYMBOL        _?ix1002
  C:0D25H         PUBLIC        Str_FirmwareUpdate
  C:0A64H         PUBLIC        Str_WIFI_IP
  C:073BH         PUBLIC        ONOFFChoiceString
  C:046DH         PUBLIC        Str_FormatSD_E
  C:02C1H         PUBLIC        Str_Reset_D
  C:17CCH         SYMBOL        _?ix1003
  C:0B4BH         PUBLIC        Str_CAM_OUT
  C:038AH         PUBLIC        Str_PRIORITY_E
  C:02B4H         PUBLIC        Str_Reset_E
BL51 BANKED LINKER/LOCATER V6.22                                                      04/22/2015  16:23:43  PAGE 78


  C:0857H         PUBLIC        CAMOUTString
  C:04F0H         PUBLIC        Str_TriggerSet_E
  C:02BAH         PUBLIC        Str_Reset_F
  C:011DH         PUBLIC        OutOfRangeStr_K
  C:14B7H         PUBLIC        OSDMenuXRange
  C:0E37H         PUBLIC        FWUpdateSELECT
  C:953BH         PUBLIC        InitOSDMenuXY
  C:14B1H         PUBLIC        OSDMenuYRange
  C:041BH         PUBLIC        Str_Month_E
  C:03E6H         PUBLIC        Str_Apply_E
  C:0371H         PUBLIC        Str_GAUGE_STEP_E
  C:9A8FH         PUBLIC        _SetVideoBrightness
  C:1437H         PUBLIC        TVMainMenu
  C:0D6DH         PUBLIC        UTIL_ICON
  C:11FFH         PUBLIC        SDCARDMenu
  C:0D19H         PUBLIC        Str_TimeZone
  C:0912H         PUBLIC        PostAlarmLengthChoiceString
  C:08FAH         PUBLIC        PreAlarmLengthChoiceString
  C:6593H         PUBLIC        OSDSelect
  C:0AE2H         PUBLIC        Str_Saturation
  C:02E1H         PUBLIC        Str_Reset_K
  C:91B3H         PUBLIC        _SetVideoHue
  C:156DH         PUBLIC        Init_Video_Data
  C:0D81H         PUBLIC        SDCardOverWrite_ICON
  C:8093H         PUBLIC        _DrawStringByLang
  C:12FBH         PUBLIC        CAMSelectMenu
  C:0D79H         PUBLIC        PC_ADJ_ICON
  C:044CH         PUBLIC        Str_Week_E
  C:0B6CH         PUBLIC        Str_RECALL
  C:0D10H         PUBLIC        Str_Standard
  C:0B5AH         PUBLIC        Str_JumpAV
  C:0451H         PUBLIC        Str_Time_E
  C:1517H         PUBLIC        OSDPOSITIONMODE_TABLE
  C:040CH         PUBLIC        Str_DateTime_E
  C:822DH         PUBLIC        _Set4WideScreen
  C:0D43H         PUBLIC        Str_TriggerVGA
  C:0BF3H         PUBLIC        Str_SOURCE_TITLE
  C:05E2H         PUBLIC        Str_CAMA_E
  C:0416H         PUBLIC        Str_Year_E
  C:05EEH         PUBLIC        Str_CAMB_E
  C:052EH         PUBLIC        Str_SDCARDCOVERDET_E
  C:02D0H         PUBLIC        Str_Reset_S
  C:0F63H         PUBLIC        DateTimeSELECT
  C:05F4H         PUBLIC        Str_CAMC_E
  X:00CBH         PUBLIC        PW_SecondNumber
  C:0CD4H         PUBLIC        Str_Resolution
  C:0B99H         PUBLIC        Str_EXIT
  C:062AH         PUBLIC        ModeChoice
  C:05FAH         PUBLIC        Str_CAMD_E
  C:A675H         PUBLIC        _SetLanguage
  X:00CCH         SYMBOL        OSDMenuX
  C:9C00H         PUBLIC        _GetLowerMenuItem
  C:0B2DH         PUBLIC        Str_JUMP
  C:0B00H         PUBLIC        Str_Sharpness
  X:00CDH         SYMBOL        OSDMenuY
  C:05B3H         PUBLIC        Str_DIR_IMAGE_CAMA_E
  C:053CH         PUBLIC        Str_DISPLAY_E
BL51 BANKED LINKER/LOCATER V6.22                                                      04/22/2015  16:23:43  PAGE 79


  C:030CH         PUBLIC        Str_SEQ_TIME_STEP_E
  C:74E6H         PUBLIC        DisplayOSDMenu
  C:A2EBH         PUBLIC        pushMenu
  C:16A5H         PUBLIC        WIDEDATA_1080i
  C:0A46H         PUBLIC        Str_LCDVersion
  C:06F9H         PUBLIC        OsdPositionModeChoice
  C:05BFH         PUBLIC        Str_DIR_IMAGE_CAMB_E
  C:9143H         PUBLIC        _SetVideoSaturation
  C:A8FFH         PUBLIC        _GetUpperMenuItem
  C:05CBH         PUBLIC        Str_DIR_IMAGE_CAMC_E
  C:0D4CH         PUBLIC        Str_UpdateConfig
  C:012AH         PUBLIC        StrVolume_E
  C:7C5EH         PUBLIC        DisplayCursor
  C:10B7H         PUBLIC        DMINFORMATION
  C:0D7DH         PUBLIC        NoSDCard_ICON
  C:0AA6H         PUBLIC        Str_OSDPosition
  C:049DH         PUBLIC        Str_NO_E
  C:904EH         PUBLIC        _SetPCColorTemp
  C:92F1H         PUBLIC        _SetRGBContrast
  C:11ABH         PUBLIC        RecordSelectMenu
  C:09AAH         PUBLIC        PDChoiceString
  C:05D7H         PUBLIC        Str_REAR_SETUP_E
  C:0421H         PUBLIC        Str_Day_E
  C:01F3H         PUBLIC        Str_Brightness_D
  C:150BH         PUBLIC        DigitalVideoSaturationRange
  C:0EDBH         PUBLIC        FORMATSDSelectMenu
  C:0DAAH         PUBLIC        DefaultBar
  C:077AH         PUBLIC        IMAGEString
  C:0425H         PUBLIC        Str_Hour_E
  C:01DDH         PUBLIC        Str_Brightness_E
  C:148BH         PUBLIC        DefaultMenu
  C:0797H         PUBLIC        IMAGE_A_String
  C:01E8H         PUBLIC        Str_Brightness_F
  C:72E6H         PUBLIC        _OSDValueUpDn
  C:07B6H         PUBLIC        IMAGE_B_String
  C:0271H         PUBLIC        Str_Hue_D
  C:0D3DH         PUBLIC        Str_Str_OverWrite
  C:0CC5H         PUBLIC        Str_TIMEOUT_STEP
  C:07D5H         PUBLIC        IMAGE_C_String
  C:04D6H         PUBLIC        Str_ChangePassword_E
  C:0347H         PUBLIC        Str_DVRRECALL_E
  C:0338H         PUBLIC        Str_MonitorRECALL_E
  C:0264H         PUBLIC        Str_Hue_E
  B:0023H.1       PUBLIC        OnChangingValue
  C:0CE0H         PUBLIC        Str_RecordLength
  C:05E8H         PUBLIC        Str_CAMR_E
  C:0268H         PUBLIC        Str_Hue_F
  C:05A9H         PUBLIC        Str_DIR_IMAGE_E
  C:0E6BH         PUBLIC        ChangePasswordSELECT
  C:0D8DH         PUBLIC        NoGPS_ICON2
  C:0D46H         PUBLIC        Str_TriggerDelay
  C:06AEH         PUBLIC        VInputStdChoice
  C:0205H         PUBLIC        Str_Brightness_K
  C:883BH         PUBLIC        _SetVideoSharpness
  C:0600H         PUBLIC        OSDLangString
  C:5D91H         PUBLIC        _DrawMenulist
  C:A6AFH         PUBLIC        popMenu
BL51 BANKED LINKER/LOCATER V6.22                                                      04/22/2015  16:23:43  PAGE 80


  C:0D31H         PUBLIC        Str_SecondNumber
  C:0432H         PUBLIC        Str_DaylightSaving_E
  C:0BC6H         PUBLIC        Str_DISTANCE
  C:0281H         PUBLIC        Str_Hue_K
  C:0754H         PUBLIC        DayChoiceString
  C:0489H         PUBLIC        Str_FirmwareUpdate_E
  C:0177H         PUBLIC        Str_WIFI_IP_E
  C:0322H         PUBLIC        Str_CAM_OUT_E
  X:00CEH         SYMBOL        OSDLang
  C:995CH         PUBLIC        ClearCursor
  C:000EH         PUBLIC        GetOSDPositionMode
  C:1363H         PUBLIC        DMTRIGGERSELECT
  C:152DH         PUBLIC        VideoModeTable
  C:04E6H         PUBLIC        Str_OverWrite_E
  C:1073H         PUBLIC        RecallMenu
  C:0DA1H         PUBLIC        WiFiLittle_ICON
  C:0D0DH         PUBLIC        Str_TimeBegines
  C:0AD3H         PUBLIC        Str_Contrast
  C:0A82H         PUBLIC        Str_GETWAY
  C:01FEH         PUBLIC        Str_Brightness_S
  C:5BC6H         PUBLIC        ResetOSDValue
  C:A6CBH         PUBLIC        _GetNextCursorMenuItem
  C:0D91H         PUBLIC        Gsensor_ICON
  C:0CF2H         PUBLIC        Str_Snapshot
  C:0456H         PUBLIC        Str_TimeZone_E
  C:0246H         PUBLIC        Str_Saturation_D
  C:0277H         PUBLIC        Str_Hue_S
  C:023BH         PUBLIC        Str_Saturation_E
  X:00CFH         PUBLIC        PW_FourthNumber
  C:128BH         PUBLIC        DMPicture
  C:0CECH         PUBLIC        Str_ManualRecordStart
  C:14E1H         PUBLIC        PanelBacklightRange
  C:0D22H         PUBLIC        Str_AudioRecord
  C:0A55H         PUBLIC        Str_DVRVersion
  C:092AH         PUBLIC        DaylightSavingChoiceString
  X:00D0H         PUBLIC        PW_ThridNumber
  C:9D50H         PUBLIC        _GetTargetChild
  C:158DH         PUBLIC        WIDEDATA_N
  C:0D85H         PUBLIC        GPS_ICON
  C:0331H         PUBLIC        Str_RECALL_E
  C:15B5H         PUBLIC        WIDEDATA_P
  C:0770H         PUBLIC        ONOFFChoiceString1
  C:0448H         PUBLIC        Str_Standard_E
  C:031AH         PUBLIC        Str_JumpAV_E
  C:99A9H         PUBLIC        _CAMOutDSel
  C:025BH         PUBLIC        Str_Saturation_K
  C:6700H         PUBLIC        _SetOSDPositionMode
  C:1287H         PUBLIC        PictureMenu
  C:0DB3H         PUBLIC        DMINPUTSOURCE
  C:0B1EH         PUBLIC        Str_MIRROR
  C:0571H         PUBLIC        Str_SOURCE_TITLE_E
  C:04FAH         PUBLIC        Str_TriggerVGA_E
  C:9E8CH         PUBLIC        CloseOSDMenu
  C:014DH         PUBLIC        Str_Composite_E
  X:00D1H         SYMBOL        OSDItemValue
  X:00D3H         PUBLIC        OSDMenuLevel
  C:0D99H         PUBLIC        WiFi_ICON
BL51 BANKED LINKER/LOCATER V6.22                                                      04/22/2015  16:23:43  PAGE 81


  C:0963H         PUBLIC        TimeZoneChoiceString
  C:039FH         PUBLIC        Str_Resolution_E
  C:0352H         PUBLIC        Str_EXIT_E
  C:029BH         PUBLIC        Str_Sharpness_D
  C:9E0FH         PUBLIC        _SetVideoContrast
  C:0B5DH         PUBLIC        Str_RETURN
  C:0A73H         PUBLIC        Str_WIFI_MAC
  C:09F9H         PUBLIC        JUMPChineseString
  C:0307H         PUBLIC        Str_JUMP_E
  C:028AH         PUBLIC        Str_Sharpness_E
  C:4370H         SYMBOL        Com02E5
  C:4370H         SYMBOL        L?0742
  C:4370H         SYMBOL        L?0743
  C:4373H         SYMBOL        L?0744
  C:437CH         SYMBOL        L?0745
  C:4385H         SYMBOL        L?0746
  C:438EH         SYMBOL        L?0747
  C:4395H         SYMBOL        L?0748
  C:439BH         SYMBOL        L?0749
  C:43A4H         SYMBOL        L?0752
  C:43A4H         SYMBOL        L?0753
  C:43A5H         SYMBOL        L?0754
  C:43ADH         SYMBOL        L?0756
  C:43ADH         SYMBOL        L?0757
  C:43B4H         SYMBOL        L?0758
  C:43BBH         SYMBOL        L?0760
  C:43CFH         SYMBOL        L?0761
  C:43D5H         SYMBOL        L?0762
  C:43E2H         SYMBOL        L?0763
  C:43EBH         SYMBOL        L?0764
  C:43EBH         SYMBOL        L?0765
  C:43F1H         SYMBOL        L?0766
  C:43F8H         SYMBOL        L?0767
  C:43F9H         SYMBOL        L?0768
  C:43FFH         SYMBOL        L?0770
  C:4403H         SYMBOL        L?0771
  C:440EH         SYMBOL        L?0772
  C:440EH         SYMBOL        L?0773
  C:4411H         SYMBOL        L?0774
  C:4418H         SYMBOL        L?0778
  C:4418H         SYMBOL        L?0779
  C:442FH         SYMBOL        L?0780
  C:4435H         SYMBOL        L?0783
  C:4435H         SYMBOL        L?0784
  C:443CH         SYMBOL        L?0786
  C:443CH         SYMBOL        L?0787
  C:443FH         SYMBOL        L?0788
  C:4447H         SYMBOL        L?0791
  C:4447H         SYMBOL        L?0792
  C:444AH         SYMBOL        L?0793
  C:4454H         SYMBOL        L?0794
  C:4454H         SYMBOL        L?0795
  C:445DH         SYMBOL        L?0796
  C:445FH         SYMBOL        L?0797
  C:4466H         SYMBOL        L?0802
  C:4466H         SYMBOL        L?0803
  C:446BH         SYMBOL        L?0804
BL51 BANKED LINKER/LOCATER V6.22                                                      04/22/2015  16:23:43  PAGE 82


  C:4474H         SYMBOL        L?0805
  C:4474H         SYMBOL        L?0806
  C:447CH         SYMBOL        L?0807
  C:4485H         SYMBOL        L?0808
  C:448EH         SYMBOL        L?0811
  C:4493H         SYMBOL        L?0812
  C:4496H         SYMBOL        L?0813
  C:449FH         SYMBOL        L?0815
  C:44A6H         SYMBOL        L?0816
  C:44ADH         SYMBOL        L?0819
  C:44B4H         SYMBOL        L?0820
  C:44B6H         SYMBOL        L?0821
  C:44BDH         SYMBOL        L?0825
  C:44DAH         SYMBOL        L?0828
  C:44DCH         SYMBOL        L?0829
  C:44EAH         SYMBOL        L?0830
  C:4504H         SYMBOL        L?0831
  C:4504H         SYMBOL        L?0832
  C:4507H         SYMBOL        L?0833
  C:450FH         SYMBOL        L?0835
  C:451AH         SYMBOL        L?0836
  C:451AH         SYMBOL        L?0837
  C:4527H         SYMBOL        L?0839
  C:453DH         SYMBOL        L?0840
  C:4553H         SYMBOL        L?0841
  C:4553H         SYMBOL        L?0842
  C:4554H         SYMBOL        L?0843
  C:455BH         SYMBOL        L?0844
  C:455BH         SYMBOL        L?0845
  C:4562H         SYMBOL        L?0846
  C:4562H         SYMBOL        L?0847
  C:456FH         SYMBOL        L?0848
  C:456FH         SYMBOL        L?0849
  C:4575H         SYMBOL        L?0850
  C:4577H         SYMBOL        L?0851
  C:4580H         SYMBOL        L?0852
  C:4581H         SYMBOL        L?0853
  C:4588H         SYMBOL        L?0854
  C:459CH         SYMBOL        L?0855
  C:459FH         SYMBOL        L?0856
  C:45A7H         SYMBOL        L?0857
  C:45AAH         SYMBOL        L?0858
  C:45B1H         SYMBOL        L?0862
  C:45C2H         SYMBOL        L?0865
  C:45D2H         SYMBOL        L?0866
  C:45D4H         SYMBOL        L?0867
  C:45DCH         SYMBOL        L?0868
  C:45DCH         SYMBOL        L?0869
  C:45E5H         SYMBOL        L?0870
  C:45E5H         SYMBOL        L?0871
  C:45ECH         SYMBOL        L?0872
  C:45FCH         SYMBOL        L?0877
  C:460BH         SYMBOL        L?0878
  C:461AH         SYMBOL        L?0879
  C:4629H         SYMBOL        L?0880
  C:4638H         SYMBOL        L?0883
  C:4646H         SYMBOL        L?0884
BL51 BANKED LINKER/LOCATER V6.22                                                      04/22/2015  16:23:43  PAGE 83


  C:4654H         SYMBOL        L?0885
  C:4662H         SYMBOL        L?0886
  C:4664H         SYMBOL        L?0887
  C:466CH         SYMBOL        L?0889
  C:466CH         SYMBOL        L?0890
  C:4673H         SYMBOL        L?0891
  C:4680H         SYMBOL        L?0892
  C:4682H         SYMBOL        L?0893
  C:4689H         SYMBOL        L?0894
  C:4690H         SYMBOL        L?0895
  C:4690H         SYMBOL        L?0896
  C:4696H         SYMBOL        L?0898
  C:46A2H         SYMBOL        L?0899
  C:46ADH         SYMBOL        L?0900
  C:46ADH         SYMBOL        L?0901
  C:46B5H         SYMBOL        L?0902
  C:46B5H         SYMBOL        L?0903
  C:46BDH         SYMBOL        L?0905
  C:46C8H         SYMBOL        L?0906
  C:46D3H         SYMBOL        L?0907
  C:46DEH         SYMBOL        L?0908
  C:46DFH         SYMBOL        L?0909
  C:46E6H         SYMBOL        L?0910
  C:46EDH         SYMBOL        L?0911
  C:46F8H         SYMBOL        L?0914
  C:4702H         SYMBOL        L?0915
  C:4709H         SYMBOL        L?0916
  C:4709H         SYMBOL        L?0917
  C:4710H         SYMBOL        L?0918
  C:471AH         SYMBOL        L?0919
  C:4724H         SYMBOL        L?0920
  C:4724H         SYMBOL        L?0921
  C:472AH         SYMBOL        L?0922
  C:4734H         SYMBOL        L?0923
  C:473EH         SYMBOL        L?0924
  C:473EH         SYMBOL        L?0925
  C:4745H         SYMBOL        L?0926
  C:4745H         SYMBOL        L?0927
  -------         PROC          COM02E5
  -------         ENDPROC       COM02E5
  -------         PROC          GETOSDPOSITIONMODE
  -------         DO            
  D:0007H         SYMBOL        val
  -------         ENDDO         
  C:000EH         LINE#         96
  C:000EH         LINE#         97
  C:000EH         LINE#         99
  C:0011H         LINE#         102
  C:0011H         LINE#         103
  -------         ENDPROC       GETOSDPOSITIONMODE
  C:6860H         SYMBOL        L?0881
  -------         PROC          _SETOSDPOSITIONMODE
  X:0014H         SYMBOL        flag
  -------         DO            
  D:0004H         SYMBOL        val
  X:0015H         SYMBOL        addx
  X:0017H         SYMBOL        addy
BL51 BANKED LINKER/LOCATER V6.22                                                      04/22/2015  16:23:43  PAGE 84


  X:0019H         SYMBOL        i
  D:0007H         SYMBOL        inc
  X:001AH         SYMBOL        winno
  X:001BH         SYMBOL        OSDStart
  D:0002H         SYMBOL        tmp
  -------         ENDDO         
  C:6700H         LINE#         105
  C:6705H         LINE#         106
  C:6705H         LINE#         118
  C:670DH         LINE#         119
  C:671AH         LINE#         120
  C:671DH         LINE#         121
  C:6722H         LINE#         123
  C:672FH         LINE#         124
  C:6742H         LINE#         125
  C:6746H         LINE#         127
  C:6753H         LINE#         128
  C:6766H         LINE#         129
  C:676BH         LINE#         131
  C:677BH         LINE#         132
  C:6782H         LINE#         133
  C:6785H         LINE#         134
  C:6788H         LINE#         135
  C:679BH         LINE#         136
  C:67A1H         LINE#         138
  C:67AAH         LINE#         139
  C:67ADH         LINE#         140
  C:67B0H         LINE#         141
  C:67C2H         LINE#         142
  C:67DFH         LINE#         143
  C:67E8H         LINE#         145
  C:67EBH         LINE#         158
  C:67F8H         LINE#         159
  C:6808H         LINE#         160
  C:6812H         LINE#         161
  C:6831H         LINE#         162
  C:6839H         LINE#         164
  C:6846H         LINE#         165
  C:684EH         LINE#         167
  C:6851H         LINE#         168
  C:685AH         LINE#         171
  C:685FH         LINE#         172
  -------         ENDPROC       _SETOSDPOSITIONMODE
  C:5D3FH         SYMBOL        L?0798
  C:5D47H         SYMBOL        L?0800
  C:5D4EH         SYMBOL        L?0809
  C:5D56H         SYMBOL        L?0814
  C:5D5DH         SYMBOL        L?0817
  C:5D65H         SYMBOL        L?0822
  C:5D6CH         SYMBOL        L?0834
  C:5D73H         SYMBOL        L?0838
  C:5D7BH         SYMBOL        L?0859
  C:5D82H         SYMBOL        L?0873
  C:5D8AH         SYMBOL        L?0897
  -------         PROC          RESETOSDVALUE
  C:5BC6H         LINE#         254
  C:5BC6H         LINE#         255
BL51 BANKED LINKER/LOCATER V6.22                                                      04/22/2015  16:23:43  PAGE 85


  C:5BC6H         LINE#         256
  C:5BCFH         LINE#         257
  C:5BD8H         LINE#         259
  C:5BDDH         LINE#         262
  C:5BE2H         LINE#         264
  C:5BE7H         LINE#         268
  C:5BF3H         LINE#         269
  C:5BF8H         LINE#         270
  C:5BFDH         LINE#         271
  C:5C02H         LINE#         272
  C:5C07H         LINE#         273
  C:5C0CH         LINE#         274
  C:5C11H         LINE#         275
  C:5C16H         LINE#         276
  C:5C1BH         LINE#         277
  C:5C20H         LINE#         278
  C:5C25H         LINE#         279
  C:5C2AH         LINE#         280
  C:5C33H         LINE#         281
  C:5C39H         LINE#         282
  C:5C3EH         LINE#         283
  C:5C47H         LINE#         284
  C:5C50H         LINE#         286
  C:5C55H         LINE#         287
  C:5C5AH         LINE#         288
  C:5C5FH         LINE#         300
  C:5C65H         LINE#         301
  C:5C65H         LINE#         302
  C:5C6CH         LINE#         303
  C:5C72H         LINE#         304
  C:5C74H         LINE#         306
  C:5C74H         LINE#         307
  C:5C7DH         LINE#         308
  C:5C85H         LINE#         309
  C:5C85H         LINE#         311
  C:5C8AH         LINE#         315
  C:5C92H         LINE#         317
  C:5C97H         LINE#         318
  C:5C9CH         LINE#         319
  C:5CA5H         LINE#         320
  C:5CAEH         LINE#         322
  C:5CB3H         LINE#         323
  C:5CB8H         LINE#         324
  C:5CBDH         LINE#         325
  C:5CC2H         LINE#         326
  C:5CC7H         LINE#         327
  C:5CCAH         LINE#         328
  C:5CCFH         LINE#         330
  C:5CD8H         LINE#         331
  C:5CE4H         LINE#         336
  C:5CECH         LINE#         337
  C:5CF8H         LINE#         338
  C:5D01H         LINE#         339
  C:5D0DH         LINE#         340
  C:5D16H         LINE#         341
  C:5D22H         LINE#         342
  C:5D2AH         LINE#         343
BL51 BANKED LINKER/LOCATER V6.22                                                      04/22/2015  16:23:43  PAGE 86


  C:5D2FH         LINE#         345
  C:5D34H         LINE#         346
  C:5D3CH         LINE#         356
  C:5D3FH         LINE#         361
  -------         ENDPROC       RESETOSDVALUE
  -------         PROC          GETOSDLANG
  C:A7D6H         LINE#         396
  C:A7D6H         LINE#         397
  C:A7D6H         LINE#         398
  C:A7DEH         LINE#         399
  C:A7E6H         LINE#         400
  C:A7E6H         LINE#         401
  -------         ENDPROC       GETOSDLANG
  -------         PROC          _SETLANGUAGE
  D:0007H         SYMBOL        flag
  -------         DO            
  D:0007H         SYMBOL        inc
  -------         ENDDO         
  C:A675H         LINE#         403
  C:A675H         LINE#         404
  C:A675H         LINE#         406
  C:A67FH         LINE#         407
  C:A682H         LINE#         408
  C:A689H         LINE#         410
  C:A68CH         LINE#         412
  C:A691H         LINE#         413
  -------         ENDPROC       _SETLANGUAGE
  -------         PROC          _SETRGBCONTRAST
  D:0007H         SYMBOL        temp
  X:0016H         SYMBOL        val
  -------         DO            
  X:0017H         SYMBOL        index
  X:0019H         SYMBOL        i
  X:001AH         SYMBOL        newval
  X:001CH         SYMBOL        toValue
  -------         ENDDO         
  C:92F1H         LINE#         449
  C:92F6H         LINE#         450
  C:92F6H         LINE#         455
  C:9306H         LINE#         456
  C:9313H         LINE#         457
  C:9313H         LINE#         458
  C:9326H         LINE#         459
  C:9336H         LINE#         460
  C:934EH         LINE#         461
  C:9356H         LINE#         462
  -------         ENDPROC       _SETRGBCONTRAST
  -------         PROC          _SETPCCOLORTEMP
  D:0007H         SYMBOL        flag
  -------         DO            
  D:0007H         SYMBOL        val
  X:0014H         SYMBOL        regv
  D:0007H         SYMBOL        inc
  -------         ENDDO         
  C:904EH         LINE#         476
  C:904EH         LINE#         477
  C:904EH         LINE#         484
BL51 BANKED LINKER/LOCATER V6.22                                                      04/22/2015  16:23:43  PAGE 87


  C:9058H         LINE#         485
  C:9074H         LINE#         486
  C:907CH         LINE#         488
  C:9082H         LINE#         489
  C:9089H         LINE#         490
  C:909EH         LINE#         491
  C:90AAH         LINE#         493
  C:90B8H         LINE#         494
  C:90BCH         LINE#         496
  C:90C5H         LINE#         498
  C:90C8H         LINE#         499
  -------         ENDPROC       _SETPCCOLORTEMP
  -------         PROC          _SETPCCOLOR
  X:0014H         SYMBOL        color
  D:0005H         SYMBOL        flag
  -------         DO            
  X:0015H         SYMBOL        newval
  X:0017H         SYMBOL        toValue
  X:0019H         SYMBOL        regv
  -------         ENDDO         
  C:8506H         LINE#         509
  C:850BH         LINE#         510
  C:850BH         LINE#         514
  C:852EH         LINE#         515
  C:8548H         LINE#         516
  C:854BH         LINE#         518
  C:8551H         LINE#         519
  C:8560H         LINE#         520
  C:8571H         LINE#         522
  C:857BH         LINE#         523
  C:858FH         LINE#         525
  C:85A8H         LINE#         527
  C:85ABH         LINE#         528
  -------         ENDPROC       _SETPCCOLOR
  C:97AAH         SYMBOL        L?0823
  -------         PROC          CHECKPANELIMAGE
  C:975CH         LINE#         584
  C:975CH         LINE#         585
  C:975CH         LINE#         606
  C:975CH         LINE#         607
  C:976EH         LINE#         608
  C:9770H         LINE#         609
  C:977AH         LINE#         610
  C:977CH         LINE#         611
  C:9786H         LINE#         612
  C:978FH         LINE#         613
  C:9798H         LINE#         614
  C:97AAH         LINE#         615
  C:97AAH         LINE#         616
  -------         ENDPROC       CHECKPANELIMAGE
  -------         PROC          _SETVIDEOMODE
  X:0021H         SYMBOL        mode
  -------         DO            
  X:0022H         SYMBOL        i
  X:0024H         SYMBOL        regv
  -------         DO            
  X:0026H         SYMBOL        userv
BL51 BANKED LINKER/LOCATER V6.22                                                      04/22/2015  16:23:43  PAGE 88


  -------         ENDDO         
  -------         ENDDO         
  C:79ADH         LINE#         628
  C:79B3H         LINE#         629
  C:79B3H         LINE#         632
  C:79BAH         LINE#         634
  C:79C2H         LINE#         636
  C:79D9H         LINE#         637
  C:7A14H         LINE#         639
  C:7A2CH         LINE#         640
  C:7A2CH         LINE#         641
  C:7A2CH         LINE#         643
  C:7A2EH         LINE#         645
  C:7A2EH         LINE#         647
  C:7A2EH         LINE#         651
  C:7A36H         LINE#         652
  C:7A3EH         LINE#         653
  C:7A4AH         LINE#         654
  C:7A56H         LINE#         655
  C:7A5EH         LINE#         657
  C:7A68H         LINE#         658
  C:7A7CH         LINE#         659
  C:7A7CH         LINE#         660
  C:7A85H         LINE#         661
  C:7A95H         LINE#         666
  C:7A95H         LINE#         668
  -------         ENDPROC       _SETVIDEOMODE
  -------         PROC          ISINPUTANALOGRGB
  C:A979H         LINE#         670
  C:A979H         LINE#         671
  C:A979H         LINE#         678
  C:A97BH         LINE#         679
  -------         ENDPROC       ISINPUTANALOGRGB
  -------         PROC          _GETVIDEODATAWITHOFFSET
  D:0007H         SYMBOL        offset
  C:A8F6H         LINE#         681
  C:A8F6H         LINE#         682
  C:A8F6H         LINE#         683
  C:A8FEH         LINE#         685
  C:A8FEH         LINE#         686
  -------         ENDPROC       _GETVIDEODATAWITHOFFSET
  -------         PROC          _CHANGEVIDEODATA
  X:0014H         SYMBOL        offset
  D:0005H         SYMBOL        flag
  -------         DO            
  X:0015H         SYMBOL        newv
  D:0006H         SYMBOL        inc
  -------         ENDDO         
  C:88D9H         LINE#         688
  C:88DEH         LINE#         689
  C:88DEH         LINE#         692
  C:88ECH         LINE#         694
  C:88FCH         LINE#         695
  C:8917H         LINE#         696
  C:891AH         LINE#         697
  C:891AH         LINE#         699
  C:8932H         LINE#         700
BL51 BANKED LINKER/LOCATER V6.22                                                      04/22/2015  16:23:43  PAGE 89


  C:8932H         LINE#         701
  C:8937H         LINE#         702
  C:8939H         LINE#         703
  C:893FH         LINE#         704
  C:8941H         LINE#         705
  C:8941H         LINE#         706
  C:8941H         LINE#         707
  C:894FH         LINE#         708
  C:8951H         LINE#         709
  C:8957H         LINE#         710
  C:8959H         LINE#         711
  C:895FH         LINE#         712
  C:895FH         LINE#         713
  C:895FH         LINE#         715
  C:896BH         LINE#         717
  C:8971H         LINE#         718
  C:8971H         LINE#         720
  -------         ENDPROC       _CHANGEVIDEODATA
  -------         PROC          _SETVIDEOCONTRAST
  X:0028H         SYMBOL        newv
  -------         DO            
  X:0029H         SYMBOL        regv
  -------         ENDDO         
  C:9E0FH         LINE#         722
  C:9E14H         LINE#         723
  C:9E14H         LINE#         727
  C:9E1EH         LINE#         728
  C:9E2AH         LINE#         731
  C:9E3AH         LINE#         734
  -------         ENDPROC       _SETVIDEOCONTRAST
  -------         PROC          _SETVIDEOBRIGHTNESS
  X:0028H         SYMBOL        newv
  -------         DO            
  X:0029H         SYMBOL        regv
  -------         ENDDO         
  C:9A8FH         LINE#         738
  C:9A94H         LINE#         739
  C:9A94H         LINE#         744
  C:9A9CH         LINE#         745
  C:9AA9H         LINE#         746
  C:9AB1H         LINE#         747
  C:9AB3H         LINE#         750
  C:9AB3H         LINE#         751
  C:9AC0H         LINE#         753
  C:9AC9H         LINE#         754
  C:9AD0H         LINE#         756
  C:9ADAH         LINE#         757
  C:9ADAH         LINE#         758
  -------         ENDPROC       _SETVIDEOBRIGHTNESS
  C:92EAH         SYMBOL        L?0928
  -------         PROC          _SETVIDEOBACKLIGHT
  D:0007H         SYMBOL        newv
  -------         DO            
  X:0017H         SYMBOL        regv
  X:0019H         SYMBOL        page
  -------         ENDDO         
  C:9288H         LINE#         759
BL51 BANKED LINKER/LOCATER V6.22                                                      04/22/2015  16:23:43  PAGE 90


  C:9288H         LINE#         760
  C:9288H         LINE#         765
  C:929DH         LINE#         776
  C:92A9H         LINE#         777
  C:92AFH         LINE#         778
  C:92C0H         LINE#         779
  C:92DEH         LINE#         780
  C:92EAH         LINE#         782
  -------         ENDPROC       _SETVIDEOBACKLIGHT
  -------         PROC          _SETVIDEOHUE
  X:0028H         SYMBOL        newv
  -------         DO            
  X:0029H         SYMBOL        regv
  -------         ENDDO         
  C:91B3H         LINE#         784
  C:91B8H         LINE#         785
  C:91B8H         LINE#         789
  C:91C0H         LINE#         790
  C:91D4H         LINE#         791
  C:91E8H         LINE#         792
  C:91EAH         LINE#         793
  C:91EAH         LINE#         794
  C:9204H         LINE#         795
  C:920DH         LINE#         796
  C:9214H         LINE#         798
  C:921EH         LINE#         799
  C:921EH         LINE#         801
  -------         ENDPROC       _SETVIDEOHUE
  -------         PROC          _SETVIDEOSATURATION
  X:0028H         SYMBOL        svtype
  X:0029H         SYMBOL        newv
  -------         DO            
  X:002AH         SYMBOL        regv
  -------         ENDDO         
  C:9143H         LINE#         803
  C:914BH         LINE#         804
  C:914BH         LINE#         808
  C:9151H         LINE#         809
  C:9161H         LINE#         810
  C:917FH         LINE#         811
  C:9181H         LINE#         812
  C:9181H         LINE#         814
  C:9194H         LINE#         816
  C:919EH         LINE#         817
  C:91A1H         LINE#         818
  C:91A3H         LINE#         819
  C:91A3H         LINE#         820
  C:91B2H         LINE#         821
  C:91B2H         LINE#         822
  C:91B2H         LINE#         823
  -------         ENDPROC       _SETVIDEOSATURATION
  -------         PROC          _SETVIDEOSHARPNESS
  X:0014H         SYMBOL        flag
  -------         DO            
  D:0007H         SYMBOL        orgv
  D:0007H         SYMBOL        inc
  X:0015H         SYMBOL        newv
BL51 BANKED LINKER/LOCATER V6.22                                                      04/22/2015  16:23:43  PAGE 91


  X:0017H         SYMBOL        regv
  -------         ENDDO         
  C:883BH         LINE#         826
  C:8840H         LINE#         827
  C:8840H         LINE#         832
  C:884AH         LINE#         833
  C:8852H         LINE#         834
  C:885FH         LINE#         835
  C:886BH         LINE#         836
  C:888CH         LINE#         838
  C:8890H         LINE#         840
  C:88AEH         LINE#         842
  C:88B7H         LINE#         844
  C:88C7H         LINE#         847
  C:88D2H         LINE#         848
  C:88D8H         LINE#         850
  C:88D8H         LINE#         851
  -------         ENDPROC       _SETVIDEOSHARPNESS
  C:93ACH         SYMBOL        L?0863
  -------         PROC          RESETVIDEOVALUE
  -------         DO            
  X:000BH         SYMBOL        i
  X:000CH         SYMBOL        CurInput
  -------         ENDDO         
  C:9357H         LINE#         896
  C:9357H         LINE#         897
  C:9357H         LINE#         903
  C:935FH         LINE#         904
  C:936FH         LINE#         906
  C:9373H         LINE#         907
  C:9373H         LINE#         908
  C:9378H         LINE#         909
  C:937FH         LINE#         910
  C:9386H         LINE#         911
  C:9386H         LINE#         912
  C:9386H         LINE#         913
  C:938BH         LINE#         919
  C:9392H         LINE#         920
  C:9397H         LINE#         921
  C:9397H         LINE#         922
  C:939FH         LINE#         923
  C:93A7H         LINE#         924
  C:93ACH         LINE#         926
  -------         ENDPROC       RESETVIDEOVALUE
  -------         PROC          _SET4WIDESCREEN
  X:0021H         SYMBOL        id
  -------         DO            
  X:0022H         SYMBOL        i
  X:0024H         SYMBOL        WideData
  -------         ENDDO         
  C:822DH         LINE#         1045
  C:8232H         LINE#         1046
  C:8232H         LINE#         1048
  C:8237H         LINE#         1049
  C:823CH         LINE#         1050
  C:8242H         LINE#         1051
  C:8242H         LINE#         1054
BL51 BANKED LINKER/LOCATER V6.22                                                      04/22/2015  16:23:43  PAGE 92


  C:8249H         LINE#         1055
  C:824EH         LINE#         1058
  C:8256H         LINE#         1091
  C:8256H         LINE#         1092
  C:8256H         LINE#         1115
  C:827CH         LINE#         1122
  C:827CH         LINE#         1129
  C:828CH         LINE#         1132
  C:8292H         LINE#         1134
  C:8294H         LINE#         1135
  C:8294H         LINE#         1141
  C:82A4H         LINE#         1142
  C:82A4H         LINE#         1143
  C:82A4H         LINE#         1148
  C:82A7H         LINE#         1156
  C:82A7H         LINE#         1158
  C:82C0H         LINE#         1159
  C:82E1H         LINE#         1163
  C:82E7H         LINE#         1164
  C:82EFH         LINE#         1166
  C:82EFH         LINE#         1167
  C:82EFH         LINE#         1169
  -------         ENDPROC       _SET4WIDESCREEN
  -------         PROC          PUSHMENU
  C:A2EBH         LINE#         135
  C:A2EBH         LINE#         136
  C:A2EBH         LINE#         140
  C:A2F2H         LINE#         153
  C:A302H         LINE#         154
  C:A311H         LINE#         155
  C:A314H         LINE#         156
  C:A314H         LINE#         157
  C:A316H         LINE#         158
  -------         ENDPROC       PUSHMENU
  -------         PROC          POPMENU
  C:A6AFH         LINE#         160
  C:A6AFH         LINE#         161
  C:A6AFH         LINE#         165
  C:A6B3H         LINE#         166
  C:A6BBH         LINE#         167
  C:A6C5H         LINE#         181
  C:A6C8H         LINE#         182
  C:A6C8H         LINE#         183
  C:A6CAH         LINE#         184
  -------         ENDPROC       POPMENU
  -------         PROC          _GETLOWERMENUITEM
  X:001FH         SYMBOL        DMp
  X:0022H         SYMBOL        itemno
  C:9C00H         LINE#         186
  C:9C0BH         LINE#         187
  C:9C0BH         LINE#         188
  C:9C0EH         LINE#         189
  C:9C11H         LINE#         190
  C:9C17H         LINE#         191
  C:9C3CH         LINE#         192
  C:9C3FH         LINE#         193
  C:9C44H         LINE#         195
BL51 BANKED LINKER/LOCATER V6.22                                                      04/22/2015  16:23:43  PAGE 93


  -------         ENDPROC       _GETLOWERMENUITEM
  -------         PROC          _GETUPPERMENUITEM
  D:0007H         SYMBOL        itemno
  C:A8FFH         LINE#         197
  C:A8FFH         LINE#         198
  C:A8FFH         LINE#         200
  C:A903H         LINE#         201
  C:A906H         LINE#         202
  C:A907H         LINE#         203
  C:A907H         LINE#         204
  -------         ENDPROC       _GETUPPERMENUITEM
  -------         PROC          _GETTARGETCHILD
  D:0004H         SYMBOL        tid
  -------         DO            
  D:0006H         SYMBOL        i
  -------         ENDDO         
  C:9D50H         LINE#         206
  C:9D52H         LINE#         207
  C:9D52H         LINE#         211
  C:9D60H         LINE#         212
  C:9D62H         LINE#         219
  C:9D66H         LINE#         225
  C:9D7EH         LINE#         226
  C:9D81H         LINE#         227
  C:9D8CH         LINE#         228
  C:9D8EH         LINE#         230
  C:9D90H         LINE#         231
  -------         ENDPROC       _GETTARGETCHILD
  C:655DH         SYMBOL        L?0799
  C:657AH         SYMBOL        L?0888
  C:6588H         SYMBOL        L?0912
  -------         PROC          DISPLAYINFO_OSD
  -------         DO            
  X:000BH         SYMBOL        i
  X:000CH         SYMBOL        title
  X:000DH         SYMBOL        len
  D:0007H         SYMBOL        inputs
  X:000EH         SYMBOL        mstr
  -------         ENDDO         
  C:6426H         LINE#         277
  C:6426H         LINE#         278
  C:6426H         LINE#         279
  C:642CH         LINE#         282
  C:642FH         LINE#         283
  C:6437H         LINE#         284
  C:643DH         LINE#         286
  C:6443H         LINE#         288
  C:644AH         LINE#         289
  C:6450H         LINE#         291
  C:6455H         LINE#         293
  C:6460H         LINE#         294
  C:647AH         LINE#         295
  C:64B6H         LINE#         298
  C:64B9H         LINE#         299
  C:64BFH         LINE#         300
  C:64DAH         LINE#         301
  C:64DEH         LINE#         302
BL51 BANKED LINKER/LOCATER V6.22                                                      04/22/2015  16:23:43  PAGE 94


  C:64F8H         LINE#         313
  C:64F8H         LINE#         314
  C:64FBH         LINE#         315
  C:6515H         LINE#         316
  C:6515H         LINE#         330
  C:651AH         LINE#         331
  C:6520H         LINE#         332
  C:6524H         LINE#         333
  C:6529H         LINE#         334
  C:6534H         LINE#         335
  C:653BH         LINE#         336
  C:653EH         LINE#         344
  C:655DH         LINE#         347
  -------         ENDPROC       DISPLAYINFO_OSD
  -------         PROC          _DISPLAYVOLUMEBAR
  X:000AH         SYMBOL        val
  -------         DO            
  C:1769H         SYMBOL        BAR_ROM_TABLE
  D:0007H         SYMBOL        i
  X:000BH         SYMBOL        Bar_str
  D:0006H         SYMBOL        addr
  -------         ENDDO         
  C:8972H         LINE#         355
  C:8977H         LINE#         356
  C:8977H         LINE#         366
  C:898AH         LINE#         373
  C:8993H         LINE#         374
  C:8993H         LINE#         375
  C:89ABH         LINE#         376
  C:89B4H         LINE#         377
  C:89C3H         LINE#         378
  C:89C3H         LINE#         380
  C:89CAH         LINE#         381
  C:89CDH         LINE#         384
  C:89D9H         LINE#         385
  C:89E2H         LINE#         386
  C:89E9H         LINE#         388
  C:89ECH         LINE#         389
  C:89EFH         LINE#         391
  C:89F3H         LINE#         393
  -------         ENDPROC       _DISPLAYVOLUMEBAR
  -------         PROC          _GET_CURSOR_ITEM
  D:0007H         SYMBOL        id
  -------         DO            
  X:000AH         SYMBOL        i
  X:000BH         SYMBOL        tid
  -------         ENDDO         
  C:A231H         LINE#         396
  C:A231H         LINE#         397
  C:A231H         LINE#         398
  C:A237H         LINE#         405
  C:A23CH         LINE#         406
  C:A244H         LINE#         407
  C:A246H         LINE#         409
  C:A249H         LINE#         410
  C:A249H         LINE#         412
  C:A256H         LINE#         414
BL51 BANKED LINKER/LOCATER V6.22                                                      04/22/2015  16:23:43  PAGE 95


  C:A259H         LINE#         416
  C:A25BH         LINE#         417
  C:A25BH         LINE#         423
  C:A260H         LINE#         424
  -------         ENDPROC       _GET_CURSOR_ITEM
  C:49DBH         SYMBOL        L?0734
  C:4A0AH         SYMBOL        L?0736
  C:4A49H         SYMBOL        L?0738
  C:4A88H         SYMBOL        L?0776
  C:4AA4H         SYMBOL        L?0801
  C:4AB5H         SYMBOL        L?0864
  C:4AC2H         SYMBOL        L?0874
  C:4ACAH         SYMBOL        L?0882
  -------         PROC          _DISPLAYOSDMENUONEITEM
  X:001FH         SYMBOL        winno
  X:0021H         SYMBOL        DMp
  X:0024H         SYMBOL        x
  X:0025H         SYMBOL        y
  X:0026H         SYMBOL        NOTViewflag
  -------         DO            
  D:0007H         SYMBOL        i
  X:0027H         SYMBOL        j
  X:0028H         SYMBOL        k
  X:0029H         SYMBOL        IconColor
  X:002AH         SYMBOL        addr
  X:002CH         SYMBOL        Str
  C:1788H         SYMBOL        RightSign_str
  C:1794H         SYMBOL        SpaceStr
  C:17A0H         SYMBOL        Dot
  C:17A2H         SYMBOL        Colon
  -------         DO            
  X:002FH         SYMBOL        ptr
  X:002FH         SYMBOL        ptr
  X:002FH         SYMBOL        ptr
  -------         ENDDO         
  -------         DO            
  X:002FH         SYMBOL        ptr
  X:002FH         SYMBOL        ptr
  -------         ENDDO         
  -------         DO            
  X:002FH         SYMBOL        ptr
  -------         ENDDO         
  -------         ENDDO         
  C:474CH         LINE#         430
  C:4752H         LINE#         431
  C:4752H         LINE#         451
  C:4762H         LINE#         452
  C:4768H         LINE#         462
  C:478EH         LINE#         469
  C:479BH         LINE#         472
  C:47A3H         LINE#         474
  C:47ABH         LINE#         475
  C:47AFH         LINE#         479
  C:47B5H         LINE#         482
  C:47BCH         LINE#         483
  C:47BCH         LINE#         489
  C:47C7H         LINE#         493
BL51 BANKED LINKER/LOCATER V6.22                                                      04/22/2015  16:23:43  PAGE 96


  C:47D3H         LINE#         495
  C:47D9H         LINE#         496
  C:47DCH         LINE#         498
  C:47EAH         LINE#         499
  C:4809H         LINE#         505
  C:480FH         LINE#         507
  C:481FH         LINE#         508
  C:4839H         LINE#         510
  C:4843H         LINE#         512
  C:4843H         LINE#         514
  C:484CH         LINE#         515
  C:4857H         LINE#         525
  C:4882H         LINE#         526
  C:4882H         LINE#         527
  C:4891H         LINE#         528
  C:4891H         LINE#         530
  C:4891H         LINE#         531
  C:4891H         LINE#         533
  C:4891H         LINE#         534
  C:4898H         LINE#         540
  C:4898H         LINE#         541
  C:48A9H         LINE#         542
  C:48ACH         LINE#         543
  C:48ACH         LINE#         544
  C:48ACH         LINE#         545
  C:48ACH         LINE#         547
  C:48ACH         LINE#         548
  C:48ACH         LINE#         550
  C:48ACH         LINE#         551
  C:48C3H         LINE#         552
  C:48C3H         LINE#         553
  C:48C3H         LINE#         554
  C:48C9H         LINE#         555
  C:48C9H         LINE#         556
  C:48D4H         LINE#         557
  C:48D4H         LINE#         558
  C:48DAH         LINE#         559
  C:48DAH         LINE#         560
  C:48E3H         LINE#         561
  C:48E6H         LINE#         563
  C:48E6H         LINE#         564
  C:48EFH         LINE#         565
  C:48F4H         LINE#         566
  C:4902H         LINE#         567
  C:4907H         LINE#         568
  C:4918H         LINE#         569
  C:4928H         LINE#         570
  C:493AH         LINE#         571
  C:494CH         LINE#         572
  C:4961H         LINE#         573
  C:496DH         LINE#         574
  C:497FH         LINE#         575
  C:4982H         LINE#         577
  C:4982H         LINE#         578
  C:4988H         LINE#         579
  C:4988H         LINE#         580
  C:4993H         LINE#         581
BL51 BANKED LINKER/LOCATER V6.22                                                      04/22/2015  16:23:43  PAGE 97


  C:4993H         LINE#         582
  C:4999H         LINE#         583
  C:4999H         LINE#         584
  C:49A5H         LINE#         585
  C:49A5H         LINE#         586
  C:49A5H         LINE#         587
  C:49A5H         LINE#         588
  C:49A5H         LINE#         590
  C:49A5H         LINE#         591
  C:49A5H         LINE#         594
  C:49A5H         LINE#         595
  C:49C0H         LINE#         597
  C:49C0H         LINE#         598
  C:49C0H         LINE#         600
  C:49C0H         LINE#         601
  C:49C0H         LINE#         602
  C:49C0H         LINE#         603
  C:49C0H         LINE#         604
  C:49C9H         LINE#         605
  C:49CBH         LINE#         613
  C:49CBH         LINE#         614
  C:49DAH         LINE#         615
  C:49DAH         LINE#         617
  C:49DAH         LINE#         619
  -------         ENDPROC       _DISPLAYOSDMENUONEITEM
  -------         PROC          CLEARCURSOR
  -------         DO            
  D:0007H         SYMBOL        cursor_y
  X:000CH         SYMBOL        addr
  -------         ENDDO         
  C:995CH         LINE#         621
  C:995CH         LINE#         622
  C:995CH         LINE#         627
  C:9964H         LINE#         631
  C:9976H         LINE#         632
  C:9986H         LINE#         633
  C:998CH         LINE#         635
  C:999BH         LINE#         636
  C:99A8H         LINE#         640
  -------         ENDPROC       CLEARCURSOR
  -------         PROC          DISPLAYCURSOR
  -------         DO            
  X:000CH         SYMBOL        cursor_y
  X:000DH         SYMBOL        i
  X:000EH         SYMBOL        addr
  -------         ENDDO         
  C:7C5EH         LINE#         642
  C:7C5EH         LINE#         643
  C:7C5EH         LINE#         644
  C:7C63H         LINE#         650
  C:7C6DH         LINE#         653
  C:7C7CH         LINE#         654
  C:7C7CH         LINE#         655
  C:7C81H         LINE#         656
  C:7C84H         LINE#         657
  C:7C92H         LINE#         658
  C:7C9FH         LINE#         659
BL51 BANKED LINKER/LOCATER V6.22                                                      04/22/2015  16:23:43  PAGE 98


  C:7CA7H         LINE#         662
  C:7CC8H         LINE#         668
  C:7CD9H         LINE#         669
  C:7CDCH         LINE#         671
  C:7CE8H         LINE#         673
  C:7CECH         LINE#         674
  C:7CFAH         LINE#         676
  C:7CFAH         LINE#         677
  C:7CFDH         LINE#         678
  C:7CFDH         LINE#         679
  C:7D16H         LINE#         680
  C:7D1AH         LINE#         681
  C:7D1CH         LINE#         683
  C:7D1CH         LINE#         684
  C:7D25H         LINE#         685
  C:7D3AH         LINE#         686
  C:7D3AH         LINE#         687
  C:7D3AH         LINE#         711
  -------         ENDPROC       DISPLAYCURSOR
  C:5B58H         SYMBOL        L?0751
  C:5B62H         SYMBOL        L?0755
  C:5B6CH         SYMBOL        L?0759
  C:5B76H         SYMBOL        L?0769
  C:5B80H         SYMBOL        L?0775
  C:5B8AH         SYMBOL        L?0782
  C:5B94H         SYMBOL        L?0785
  C:5B9EH         SYMBOL        L?0790
  C:5BA8H         SYMBOL        L?0810
  C:5BB2H         SYMBOL        L?0827
  C:5BBCH         SYMBOL        L?0875
  -------         PROC          _GETITEMVALUE
  X:0032H         SYMBOL        id
  -------         DO            
  X:0033H         SYMBOL        val
  -------         ENDDO         
  C:59CFH         LINE#         719
  C:59D4H         LINE#         720
  C:59D4H         LINE#         721
  C:59D9H         LINE#         727
  C:5A4AH         LINE#         745
  C:5A4FH         LINE#         750
  C:5A58H         LINE#         768
  C:5A61H         LINE#         770
  C:5A61H         LINE#         771
  C:5A61H         LINE#         772
  C:5A61H         LINE#         773
  C:5A61H         LINE#         774
  C:5A61H         LINE#         775
  C:5A61H         LINE#         776
  C:5A6DH         LINE#         777
  C:5A6DH         LINE#         779
  C:5A70H         LINE#         780
  C:5A75H         LINE#         782
  C:5A7AH         LINE#         783
  C:5A7CH         LINE#         794
  C:5A8AH         LINE#         795
  C:5A8DH         LINE#         798
BL51 BANKED LINKER/LOCATER V6.22                                                      04/22/2015  16:23:43  PAGE 99


  C:5A8DH         LINE#         799
  C:5A99H         LINE#         801
  C:5A99H         LINE#         802
  C:5A9EH         LINE#         804
  C:5AA1H         LINE#         805
  C:5AA1H         LINE#         806
  C:5AA6H         LINE#         807
  C:5AA9H         LINE#         808
  C:5AA9H         LINE#         809
  C:5AAEH         LINE#         810
  C:5AB1H         LINE#         811
  C:5AB1H         LINE#         812
  C:5AB6H         LINE#         813
  C:5AB9H         LINE#         814
  C:5AB9H         LINE#         815
  C:5ABEH         LINE#         816
  C:5AC1H         LINE#         817
  C:5AC1H         LINE#         818
  C:5AC6H         LINE#         819
  C:5AC9H         LINE#         820
  C:5AC9H         LINE#         821
  C:5ACEH         LINE#         822
  C:5AD1H         LINE#         824
  C:5AD1H         LINE#         825
  C:5AD6H         LINE#         826
  C:5AD9H         LINE#         827
  C:5AD9H         LINE#         828
  C:5ADEH         LINE#         829
  C:5AE1H         LINE#         830
  C:5AE1H         LINE#         831
  C:5AE6H         LINE#         832
  C:5AE9H         LINE#         833
  C:5AE9H         LINE#         834
  C:5AEEH         LINE#         835
  C:5AF1H         LINE#         836
  C:5AF1H         LINE#         837
  C:5AF6H         LINE#         838
  C:5AF9H         LINE#         839
  C:5AF9H         LINE#         840
  C:5AFEH         LINE#         841
  C:5B01H         LINE#         842
  C:5B01H         LINE#         843
  C:5B06H         LINE#         844
  C:5B08H         LINE#         845
  C:5B08H         LINE#         846
  C:5B0DH         LINE#         847
  C:5B0FH         LINE#         848
  C:5B0FH         LINE#         849
  C:5B14H         LINE#         850
  C:5B16H         LINE#         851
  C:5B16H         LINE#         852
  C:5B1BH         LINE#         853
  C:5B1DH         LINE#         875
  C:5B1DH         LINE#         876
  C:5B22H         LINE#         877
  C:5B24H         LINE#         878
  C:5B24H         LINE#         879
BL51 BANKED LINKER/LOCATER V6.22                                                      04/22/2015  16:23:43  PAGE 100


  C:5B29H         LINE#         880
  C:5B2BH         LINE#         881
  C:5B2BH         LINE#         882
  C:5B30H         LINE#         884
  C:5B32H         LINE#         990
  C:5B32H         LINE#         991
  C:5B37H         LINE#         992
  C:5B39H         LINE#         993
  C:5B39H         LINE#         994
  C:5B3EH         LINE#         995
  C:5B40H         LINE#         997
  C:5B40H         LINE#         998
  C:5B4FH         LINE#         1001
  C:5B4FH         LINE#         1003
  C:5B57H         LINE#         1004
  -------         ENDPROC       _GETITEMVALUE
  C:3525H         SYMBOL        L?0730
  C:3537H         SYMBOL        L?0731
  C:3549H         SYMBOL        L?0732
  C:355BH         SYMBOL        L?0733
  C:3569H         SYMBOL        L?0735
  C:3577H         SYMBOL        L?0737
  C:3585H         SYMBOL        L?0739
  C:3593H         SYMBOL        L?0740
  C:35A1H         SYMBOL        L?0750
  C:35AFH         SYMBOL        L?0777
  C:35BEH         SYMBOL        L?0781
  C:35CAH         SYMBOL        L?0789
  C:35D6H         SYMBOL        L?0826
  C:35DFH         SYMBOL        L?0860
  C:35E8H         SYMBOL        L?0861
  C:35F6H         SYMBOL        L?0913
  -------         PROC          _SETITEMVALUE
  X:0010H         SYMBOL        id
  X:0011H         SYMBOL        flag
  -------         DO            
  X:0012H         SYMBOL        val
  -------         ENDDO         
  C:2CCAH         LINE#         1009
  C:2CD4H         LINE#         1010
  C:2CD4H         LINE#         1011
  C:2CD7H         LINE#         1014
  C:2CE7H         LINE#         1015
  C:2D67H         LINE#         1053
  C:2D72H         LINE#         1059
  C:2D7DH         LINE#         1073
  C:2D88H         LINE#         1075
  C:2D95H         LINE#         1076
  C:2DA2H         LINE#         1077
  C:2DAFH         LINE#         1079
  C:2DB1H         LINE#         1080
  C:2DBCH         LINE#         1081
  C:2DBFH         LINE#         1082
  C:2DC2H         LINE#         1083
  C:2DC5H         LINE#         1085
  C:2DD3H         LINE#         1089
  C:2DD7H         LINE#         1095
BL51 BANKED LINKER/LOCATER V6.22                                                      04/22/2015  16:23:43  PAGE 101


  C:2DE0H         LINE#         1097
  C:2DE3H         LINE#         1099
  C:2DE3H         LINE#         1100
  C:2DE3H         LINE#         1101
  C:2DE3H         LINE#         1102
  C:2DE8H         LINE#         1103
  C:2DEFH         LINE#         1104
  C:2DFCH         LINE#         1105
  C:2DFFH         LINE#         1107
  C:2E09H         LINE#         1108
  C:2E09H         LINE#         1111
  C:2E21H         LINE#         1121
  C:2E27H         LINE#         1122
  C:2E32H         LINE#         1123
  C:2E35H         LINE#         1124
  C:2E38H         LINE#         1125
  C:2E3BH         LINE#         1126
  C:2E3EH         LINE#         1128
  C:2E3EH         LINE#         1129
  C:2E40H         LINE#         1134
  C:2E46H         LINE#         1135
  C:2E59H         LINE#         1137
  C:2E6EH         LINE#         1168
  C:2E75H         LINE#         1169
  C:2E77H         LINE#         1174
  C:2E7AH         LINE#         1176
  C:2E7AH         LINE#         1177
  C:2E7CH         LINE#         1178
  C:2E82H         LINE#         1179
  C:2E95H         LINE#         1181
  C:2EAAH         LINE#         1182
  C:2EAFH         LINE#         1205
  C:2EB2H         LINE#         1207
  C:2EB2H         LINE#         1208
  C:2EB4H         LINE#         1209
  C:2EBAH         LINE#         1210
  C:2ECDH         LINE#         1212
  C:2EE2H         LINE#         1213
  C:2EE7H         LINE#         1214
  C:2EEAH         LINE#         1216
  C:2EEAH         LINE#         1217
  C:2EECH         LINE#         1218
  C:2EF2H         LINE#         1219
  C:2F05H         LINE#         1221
  C:2F1AH         LINE#         1222
  C:2F1FH         LINE#         1223
  C:2F22H         LINE#         1225
  C:2F22H         LINE#         1226
  C:2F24H         LINE#         1227
  C:2F2AH         LINE#         1228
  C:2F3DH         LINE#         1230
  C:2F52H         LINE#         1231
  C:2F57H         LINE#         1232
  C:2F5AH         LINE#         1234
  C:2F5AH         LINE#         1235
  C:2F5FH         LINE#         1236
  C:2F66H         LINE#         1237
BL51 BANKED LINKER/LOCATER V6.22                                                      04/22/2015  16:23:43  PAGE 102


  C:2F79H         LINE#         1239
  C:2F8EH         LINE#         1241
  C:2F97H         LINE#         1242
  C:2F99H         LINE#         1243
  C:2F99H         LINE#         1244
  C:2FA0H         LINE#         1245
  C:2FA4H         LINE#         1246
  C:2FA6H         LINE#         1248
  C:2FA6H         LINE#         1249
  C:2FAFH         LINE#         1250
  C:2FB7H         LINE#         1252
  C:2FC0H         LINE#         1253
  C:2FC0H         LINE#         1254
  C:2FC3H         LINE#         1255
  C:2FC6H         LINE#         1256
  C:2FD2H         LINE#         1257
  C:2FD2H         LINE#         1258
  C:2FD2H         LINE#         1260
  C:2FD7H         LINE#         1261
  C:2FDAH         LINE#         1263
  C:2FDAH         LINE#         1264
  C:2FDFH         LINE#         1265
  C:2FE6H         LINE#         1266
  C:2FF9H         LINE#         1268
  C:300EH         LINE#         1269
  C:3010H         LINE#         1270
  C:3019H         LINE#         1271
  C:301CH         LINE#         1273
  C:301CH         LINE#         1274
  C:3021H         LINE#         1275
  C:3028H         LINE#         1276
  C:303BH         LINE#         1278
  C:3050H         LINE#         1279
  C:3052H         LINE#         1281
  C:305FH         LINE#         1282
  C:3065H         LINE#         1284
  C:3069H         LINE#         1286
  C:306FH         LINE#         1287
  C:3072H         LINE#         1289
  C:3072H         LINE#         1291
  C:3075H         LINE#         1293
  C:3075H         LINE#         1294
  C:307AH         LINE#         1295
  C:3081H         LINE#         1296
  C:3094H         LINE#         1298
  C:30A9H         LINE#         1299
  C:30AEH         LINE#         1301
  C:30BBH         LINE#         1302
  C:30C1H         LINE#         1304
  C:30C5H         LINE#         1306
  C:30CBH         LINE#         1307
  C:30CEH         LINE#         1309
  C:30CEH         LINE#         1311
  C:30D1H         LINE#         1313
  C:30D1H         LINE#         1314
  C:30D6H         LINE#         1315
  C:30DDH         LINE#         1316
BL51 BANKED LINKER/LOCATER V6.22                                                      04/22/2015  16:23:43  PAGE 103


  C:30F0H         LINE#         1318
  C:3105H         LINE#         1319
  C:310AH         LINE#         1321
  C:3117H         LINE#         1322
  C:311DH         LINE#         1324
  C:3121H         LINE#         1326
  C:3127H         LINE#         1327
  C:3129H         LINE#         1329
  C:3129H         LINE#         1331
  C:312BH         LINE#         1333
  C:312BH         LINE#         1334
  C:3130H         LINE#         1335
  C:3137H         LINE#         1336
  C:314AH         LINE#         1338
  C:315FH         LINE#         1339
  C:3164H         LINE#         1341
  C:3171H         LINE#         1342
  C:3177H         LINE#         1344
  C:317BH         LINE#         1346
  C:3181H         LINE#         1347
  C:3187H         LINE#         1349
  C:31A6H         LINE#         1351
  C:31A9H         LINE#         1354
  C:31A9H         LINE#         1355
  C:31AEH         LINE#         1356
  C:31B5H         LINE#         1357
  C:31B5H         LINE#         1358
  C:31C7H         LINE#         1359
  C:31CAH         LINE#         1360
  C:31CCH         LINE#         1362
  C:31CCH         LINE#         1363
  C:31DAH         LINE#         1364
  C:31E0H         LINE#         1365
  C:31E0H         LINE#         1366
  C:31E5H         LINE#         1367
  C:31E8H         LINE#         1369
  C:31E8H         LINE#         1370
  C:31EDH         LINE#         1371
  C:31F4H         LINE#         1372
  C:31F4H         LINE#         1373
  C:3202H         LINE#         1374
  C:3205H         LINE#         1375
  C:3207H         LINE#         1377
  C:3207H         LINE#         1378
  C:3215H         LINE#         1379
  C:321BH         LINE#         1380
  C:321BH         LINE#         1381
  C:3220H         LINE#         1382
  C:3223H         LINE#         1384
  C:3223H         LINE#         1385
  C:3228H         LINE#         1386
  C:322FH         LINE#         1387
  C:322FH         LINE#         1388
  C:323DH         LINE#         1389
  C:3240H         LINE#         1390
  C:3242H         LINE#         1392
  C:3242H         LINE#         1393
BL51 BANKED LINKER/LOCATER V6.22                                                      04/22/2015  16:23:43  PAGE 104


  C:3250H         LINE#         1394
  C:3256H         LINE#         1395
  C:3256H         LINE#         1396
  C:325BH         LINE#         1397
  C:325EH         LINE#         1399
  C:325EH         LINE#         1400
  C:3263H         LINE#         1401
  C:326AH         LINE#         1402
  C:326AH         LINE#         1403
  C:3278H         LINE#         1404
  C:327BH         LINE#         1405
  C:327DH         LINE#         1407
  C:327DH         LINE#         1408
  C:328BH         LINE#         1409
  C:3291H         LINE#         1410
  C:3291H         LINE#         1411
  C:3296H         LINE#         1412
  C:3299H         LINE#         1414
  C:3299H         LINE#         1415
  C:329EH         LINE#         1416
  C:32A5H         LINE#         1417
  C:32A5H         LINE#         1418
  C:32B7H         LINE#         1419
  C:32BAH         LINE#         1420
  C:32BCH         LINE#         1422
  C:32BCH         LINE#         1423
  C:32CAH         LINE#         1424
  C:32D0H         LINE#         1425
  C:32D0H         LINE#         1426
  C:32D5H         LINE#         1427
  C:32D8H         LINE#         1428
  C:32D8H         LINE#         1429
  C:32DDH         LINE#         1430
  C:32E4H         LINE#         1431
  C:32F7H         LINE#         1433
  C:330CH         LINE#         1434
  C:3311H         LINE#         1436
  C:3314H         LINE#         1517
  C:3314H         LINE#         1518
  C:3319H         LINE#         1519
  C:331FH         LINE#         1520
  C:331FH         LINE#         1524
  C:3331H         LINE#         1526
  C:3334H         LINE#         1527
  C:3336H         LINE#         1529
  C:3336H         LINE#         1530
  C:3344H         LINE#         1534
  C:334AH         LINE#         1536
  C:334AH         LINE#         1538
  C:334FH         LINE#         1539
  C:3369H         LINE#         1540
  C:3369H         LINE#         1541
  C:336DH         LINE#         1542
  C:3370H         LINE#         1543
  C:3376H         LINE#         1544
  C:337BH         LINE#         1545
  C:337BH         LINE#         1546
BL51 BANKED LINKER/LOCATER V6.22                                                      04/22/2015  16:23:43  PAGE 105


  C:337EH         LINE#         1574
  C:337EH         LINE#         1575
  C:338AH         LINE#         1576
  C:338DH         LINE#         1577
  C:3394H         LINE#         1578
  C:3394H         LINE#         1579
  C:33A6H         LINE#         1580
  C:33A9H         LINE#         1581
  C:33ABH         LINE#         1583
  C:33ABH         LINE#         1584
  C:33B9H         LINE#         1585
  C:33BFH         LINE#         1586
  C:33BFH         LINE#         1587
  C:33C4H         LINE#         1588
  C:33CBH         LINE#         1589
  C:33CEH         LINE#         1590
  C:33CEH         LINE#         1591
  C:33D3H         LINE#         1592
  C:33D9H         LINE#         1593
  C:33D9H         LINE#         1594
  C:33E9H         LINE#         1595
  C:33EBH         LINE#         1597
  C:33EBH         LINE#         1598
  C:33FBH         LINE#         1599
  C:33FBH         LINE#         1600
  C:3400H         LINE#         1601
  C:3407H         LINE#         1602
  C:340AH         LINE#         2032
  C:340AH         LINE#         2033
  C:340FH         LINE#         2034
  C:3415H         LINE#         2035
  C:3415H         LINE#         2036
  C:3427H         LINE#         2037
  C:342AH         LINE#         2038
  C:342CH         LINE#         2040
  C:342CH         LINE#         2041
  C:343AH         LINE#         2042
  C:3440H         LINE#         2043
  C:3440H         LINE#         2044
  C:3447H         LINE#         2045
  C:3449H         LINE#         2046
  C:344CH         LINE#         2048
  C:344CH         LINE#         2049
  C:3451H         LINE#         2050
  C:3457H         LINE#         2051
  C:346AH         LINE#         2053
  C:347FH         LINE#         2054
  C:3486H         LINE#         2055
  C:3488H         LINE#         2056
  C:348AH         LINE#         2058
  C:348AH         LINE#         2059
  C:3494H         LINE#         2060
  C:349AH         LINE#         2061
  C:349AH         LINE#         2062
  C:34A8H         LINE#         2063
  C:34ABH         LINE#         2064
  C:34ADH         LINE#         2066
BL51 BANKED LINKER/LOCATER V6.22                                                      04/22/2015  16:23:43  PAGE 106


  C:34ADH         LINE#         2067
  C:34BBH         LINE#         2068
  C:34C1H         LINE#         2069
  C:34C1H         LINE#         2070
  C:34C8H         LINE#         2071
  C:34CFH         LINE#         2072
  C:34D1H         LINE#         2074
  C:34D1H         LINE#         2075
  C:34D7H         LINE#         2076
  C:34DDH         LINE#         2077
  C:34DDH         LINE#         2078
  C:34EBH         LINE#         2079
  C:34F0H         LINE#         2080
  C:34F2H         LINE#         2082
  C:34F2H         LINE#         2083
  C:3507H         LINE#         2084
  C:350DH         LINE#         2085
  C:350DH         LINE#         2086
  C:3516H         LINE#         2087
  C:351CH         LINE#         2088
  C:351CH         LINE#         2091
  C:351CH         LINE#         2093
  C:3524H         LINE#         2094
  -------         ENDPROC       _SETITEMVALUE
  -------         PROC          _DISPLAYVIEWBAR
  X:0032H         SYMBOL        addr
  X:0034H         SYMBOL        val
  -------         DO            
  C:17A4H         SYMBOL        BAR_ROM_TABLE
  X:0035H         SYMBOL        i
  X:0036H         SYMBOL        Bar_str
  -------         ENDDO         
  C:7D3BH         LINE#         2097
  C:7D46H         LINE#         2098
  C:7D46H         LINE#         2107
  C:7D49H         LINE#         2108
  C:7D5BH         LINE#         2111
  C:7D5BH         LINE#         2112
  C:7D64H         LINE#         2113
  C:7D64H         LINE#         2114
  C:7D7EH         LINE#         2115
  C:7D8EH         LINE#         2116
  C:7DA4H         LINE#         2117
  C:7DA4H         LINE#         2119
  C:7DAEH         LINE#         2120
  C:7DAEH         LINE#         2123
  C:7DC4H         LINE#         2124
  C:7DD5H         LINE#         2125
  C:7DDDH         LINE#         2126
  C:7DEAH         LINE#         2128
  C:7DF4H         LINE#         2129
  C:7E09H         LINE#         2131
  -------         ENDPROC       _DISPLAYVIEWBAR
  -------         PROC          _DRAWNUM
  X:0032H         SYMBOL        addr
  X:0034H         SYMBOL        nptr
  X:0037H         SYMBOL        val
BL51 BANKED LINKER/LOCATER V6.22                                                      04/22/2015  16:23:43  PAGE 107


  -------         DO            
  X:0039H         SYMBOL        x
  X:003AH         SYMBOL        i
  X:003BH         SYMBOL        j
  X:003CH         SYMBOL        k
  D:0007H         SYMBOL        len
  X:003DH         SYMBOL        mstr
  X:0042H         SYMBOL        Num_str
  X:004EH         SYMBOL        str
  -------         ENDDO         
  C:7EF0H         LINE#         2135
  C:7EF6H         LINE#         2136
  C:7EF6H         LINE#         2138
  C:7F01H         LINE#         2141
  C:7F07H         LINE#         2142
  C:7F16H         LINE#         2143
  C:7F1BH         LINE#         2144
  C:7F24H         LINE#         2147
  C:7F27H         LINE#         2148
  C:7F3AH         LINE#         2149
  C:7F4AH         LINE#         2151
  C:7F5EH         LINE#         2152
  C:7F64H         LINE#         2153
  C:7F6DH         LINE#         2154
  C:7F7BH         LINE#         2155
  C:7F8DH         LINE#         2158
  C:7F93H         LINE#         2159
  C:7FA2H         LINE#         2160
  C:7FB5H         LINE#         2161
  -------         ENDPROC       _DRAWNUM
  C:8145H         SYMBOL        L?0824
  -------         PROC          _DRAWSTRINGBYLANG
  X:0032H         SYMBOL        addr
  X:0034H         SYMBOL        yptr
  X:0037H         SYMBOL        val
  -------         DO            
  X:0039H         SYMBOL        j
  D:0005H         SYMBOL        l
  X:003AH         SYMBOL        Size_val
  X:003BH         SYMBOL        Buf
  X:0047H         SYMBOL        Str
  -------         ENDDO         
  C:8093H         LINE#         2165
  C:8099H         LINE#         2166
  C:8099H         LINE#         2169
  C:80A4H         LINE#         2172
  C:80AEH         LINE#         2173
  C:80B7H         LINE#         2175
  C:80C5H         LINE#         2176
  C:80C5H         LINE#         2177
  C:80E4H         LINE#         2178
  C:80E9H         LINE#         2179
  C:80E9H         LINE#         2181
  C:80F3H         LINE#         2182
  C:810BH         LINE#         2183
  C:8110H         LINE#         2184
  C:8110H         LINE#         2186
BL51 BANKED LINKER/LOCATER V6.22                                                      04/22/2015  16:23:43  PAGE 108


  C:8124H         LINE#         2188
  C:812FH         LINE#         2190
  C:8145H         LINE#         2192
  -------         ENDPROC       _DRAWSTRINGBYLANG
  -------         PROC          _DRAWMENULIST
  X:0013H         SYMBOL        NOTViewflag
  -------         DO            
  X:0014H         SYMBOL        i
  X:0015H         SYMBOL        j
  X:0016H         SYMBOL        k
  X:0017H         SYMBOL        x
  X:0018H         SYMBOL        y
  D:0001H         SYMBOL        DMp
  X:0019H         SYMBOL        Desc
  X:001CH         SYMBOL        Max_y
  X:001DH         SYMBOL        addr
  -------         ENDDO         
  C:5D91H         LINE#         2220
  C:5D96H         LINE#         2221
  C:5D96H         LINE#         2222
  C:5D9DH         LINE#         2232
  C:5DACH         LINE#         2238
  C:5DBFH         LINE#         2239
  C:5DC8H         LINE#         2240
  C:5DD0H         LINE#         2242
  C:5DE7H         LINE#         2243
  C:5E0BH         LINE#         2249
  C:5E1FH         LINE#         2250
  C:5E34H         LINE#         2257
  C:5E4FH         LINE#         2260
  C:5E55H         LINE#         2261
  C:5E55H         LINE#         2263
  C:5E66H         LINE#         2264
  C:5E6CH         LINE#         2271
  C:5E7FH         LINE#         2273
  C:5E93H         LINE#         2274
  C:5EAAH         LINE#         2276
  C:5EB0H         LINE#         2277
  C:5EB2H         LINE#         2278
  C:5EBBH         LINE#         2279
  C:5EBBH         LINE#         2281
  C:5EC8H         LINE#         2283
  C:5ED0H         LINE#         2284
  C:5F02H         LINE#         2285
  C:5F12H         LINE#         2286
  C:5F14H         LINE#         2287
  C:5F14H         LINE#         2291
  C:5F20H         LINE#         2293
  C:5F20H         LINE#         2294
  C:5F32H         LINE#         2296
  C:5F3BH         LINE#         2298
  C:5F41H         LINE#         2299
  C:5F43H         LINE#         2300
  C:5F4BH         LINE#         2301
  C:5F4BH         LINE#         2311
  -------         ENDPROC       _DRAWMENULIST
  C:75D9H         SYMBOL        L?0904
BL51 BANKED LINKER/LOCATER V6.22                                                      04/22/2015  16:23:43  PAGE 109


  -------         PROC          DISPLAYOSDMENU
  C:74E6H         LINE#         2316
  C:74E6H         LINE#         2317
  C:74E6H         LINE#         2335
  C:74F0H         LINE#         2336
  C:74F7H         LINE#         2338
  C:7514H         LINE#         2339
  C:751AH         LINE#         2341
  C:751AH         LINE#         2342
  C:755AH         LINE#         2344
  C:755AH         LINE#         2345
  C:7561H         LINE#         2346
  C:7567H         LINE#         2347
  C:7569H         LINE#         2349
  C:7574H         LINE#         2351
  C:7574H         LINE#         2353
  C:757FH         LINE#         2355
  C:7584H         LINE#         2358
  C:7589H         LINE#         2359
  C:7589H         LINE#         2360
  C:758CH         LINE#         2361
  C:7592H         LINE#         2362
  C:7596H         LINE#         2364
  C:75A9H         LINE#         2365
  C:75ACH         LINE#         2366
  C:75B2H         LINE#         2368
  C:75B7H         LINE#         2370
  C:75BAH         LINE#         2371
  C:75CDH         LINE#         2372
  C:75D0H         LINE#         2373
  C:75D6H         LINE#         2374
  C:75D6H         LINE#         2380
  C:75D9H         LINE#         2381
  -------         ENDPROC       DISPLAYOSDMENU
  -------         PROC          OSDHIGHMENU_SUB
  -------         DO            
  X:000BH         SYMBOL        temp_cursor
  -------         ENDDO         
  C:85ACH         LINE#         2383
  C:85ACH         LINE#         2384
  C:85ACH         LINE#         2390
  C:85B4H         LINE#         2391
  C:85BEH         LINE#         2392
  C:85C6H         LINE#         2394
  C:85CCH         LINE#         2395
  C:85CFH         LINE#         2397
  C:85CFH         LINE#         2398
  C:85D5H         LINE#         2399
  C:85DCH         LINE#         2400
  C:85E4H         LINE#         2408
  C:85E4H         LINE#         2411
  C:85FAH         LINE#         2414
  C:861EH         LINE#         2416
  C:8624H         LINE#         2418
  C:8628H         LINE#         2419
  C:862EH         LINE#         2420
  C:8631H         LINE#         2421
BL51 BANKED LINKER/LOCATER V6.22                                                      04/22/2015  16:23:43  PAGE 110


  C:8633H         LINE#         2423
  C:8633H         LINE#         2424
  C:8638H         LINE#         2425
  C:863BH         LINE#         2426
  C:863BH         LINE#         2429
  C:8642H         LINE#         2430
  C:8648H         LINE#         2431
  C:8651H         LINE#         2432
  C:8651H         LINE#         2435
  -------         ENDPROC       OSDHIGHMENU_SUB
  C:8F41H         SYMBOL        L?0876
  -------         PROC          _DOACTION
  D:0007H         SYMBOL        id
  -------         DO            
  X:000AH         SYMBOL        ret
  -------         ENDDO         
  C:8ECFH         LINE#         2438
  C:8ECFH         LINE#         2439
  C:8ECFH         LINE#         2440
  C:8ED5H         LINE#         2445
  C:8EF5H         LINE#         2447
  C:8EF5H         LINE#         2448
  C:8EF5H         LINE#         2449
  C:8EF5H         LINE#         2460
  C:8EFCH         LINE#         2461
  C:8EFEH         LINE#         2497
  C:8EFEH         LINE#         2501
  C:8EFEH         LINE#         2502
  C:8EFEH         LINE#         2504
  C:8EFEH         LINE#         2508
  C:8F01H         LINE#         2509
  C:8F03H         LINE#         2521
  C:8F03H         LINE#         2522
  C:8F03H         LINE#         2524
  C:8F03H         LINE#         2525
  C:8F03H         LINE#         2527
  C:8F03H         LINE#         2529
  C:8F06H         LINE#         2530
  C:8F14H         LINE#         2531
  C:8F16H         LINE#         2555
  C:8F19H         LINE#         2556
  C:8F1BH         LINE#         2576
  C:8F1BH         LINE#         2577
  C:8F1EH         LINE#         2578
  C:8F20H         LINE#         2579
  C:8F22H         LINE#         2581
  C:8F25H         LINE#         2582
  C:8F28H         LINE#         2584
  C:8F2AH         LINE#         2587
  C:8F2FH         LINE#         2588
  C:8F33H         LINE#         2589
  C:8F37H         LINE#         2590
  C:8F3BH         LINE#         2595
  C:8F3BH         LINE#         2856
  C:8F3BH         LINE#         2857
  C:8F40H         LINE#         2858
  -------         ENDPROC       _DOACTION
BL51 BANKED LINKER/LOCATER V6.22                                                      04/22/2015  16:23:43  PAGE 111


  -------         PROC          _GETNEXTCURSORMENUITEM
  D:0001H         SYMBOL        DMp
  D:0005H         SYMBOL        itemno
  X:0010H         SYMBOL        flag
  -------         DO            
  D:0006H         SYMBOL        new_cursor
  -------         ENDDO         
  C:A6CBH         LINE#         2861
  C:A6CBH         LINE#         2862
  C:A6CBH         LINE#         2865
  C:A6D6H         LINE#         2866
  C:A6DFH         LINE#         2867
  C:A6E4H         LINE#         2868
  C:A6E4H         LINE#         2869
  C:A6E6H         LINE#         2870
  -------         ENDPROC       _GETNEXTCURSORMENUITEM
  -------         PROC          SAVEVALUE1
  C:A395H         LINE#         2875
  C:A395H         LINE#         2876
  C:A395H         LINE#         2879
  C:A3AFH         LINE#         2881
  C:A3AFH         LINE#         2882
  C:A3BAH         LINE#         2886
  C:A3BAH         LINE#         2888
  C:A3BAH         LINE#         2890
  C:A3BAH         LINE#         2891
  C:A3BAH         LINE#         2893
  C:A3BCH         LINE#         2894
  -------         ENDPROC       SAVEVALUE1
  -------         PROC          CLEARVALUEWIN
  C:A882H         LINE#         2896
  C:A882H         LINE#         2897
  C:A882H         LINE#         2898
  C:A885H         LINE#         2900
  C:A88BH         LINE#         2901
  C:A88DH         LINE#         2902
  -------         ENDPROC       CLEARVALUEWIN
  -------         PROC          _OSDCURSORMOVE
  X:0008H         SYMBOL        flag
  -------         DO            
  X:0009H         SYMBOL        new_cursor
  X:000AH         SYMBOL        old_cursor
  D:0002H         SYMBOL        dat
  B:0023H.2       SYMBOL        OSDLANG_Changing
  -------         DO            
  X:000BH         SYMBOL        i
  -------         ENDDO         
  -------         ENDDO         
  C:62A9H         LINE#         2904
  C:62AEH         LINE#         2905
  C:62AEH         LINE#         2912
  C:62B0H         LINE#         2918
  C:62B6H         LINE#         2920
  C:62DAH         LINE#         2923
  C:62FEH         LINE#         2925
  C:6316H         LINE#         2927
  C:6319H         LINE#         2929
BL51 BANKED LINKER/LOCATER V6.22                                                      04/22/2015  16:23:43  PAGE 112


  C:6321H         LINE#         2930
  C:632EH         LINE#         2931
  C:6334H         LINE#         2932
  C:6344H         LINE#         2937
  C:6349H         LINE#         2938
  C:6349H         LINE#         2940
  C:634CH         LINE#         2941
  C:634FH         LINE#         2942
  C:634FH         LINE#         2943
  C:6354H         LINE#         2944
  C:6357H         LINE#         3018
  C:6382H         LINE#         3020
  C:6382H         LINE#         3021
  C:6385H         LINE#         3022
  C:6385H         LINE#         3024
  C:63ADH         LINE#         3026
  C:63ADH         LINE#         3027
  C:63AFH         LINE#         3028
  C:63AFH         LINE#         3045
  C:63B7H         LINE#         3046
  C:63BFH         LINE#         3047
  C:63C4H         LINE#         3048
  C:63C4H         LINE#         3049
  C:63C7H         LINE#         3055
  C:63D0H         LINE#         3056
  C:63EAH         LINE#         3057
  C:63F1H         LINE#         3060
  C:63F7H         LINE#         3064
  C:6405H         LINE#         3066
  C:6408H         LINE#         3067
  C:6408H         LINE#         3069
  C:6408H         LINE#         3070
  C:641DH         LINE#         3071
  C:6422H         LINE#         3072
  C:6425H         LINE#         3073
  C:6425H         LINE#         3081
  -------         ENDPROC       _OSDCURSORMOVE
  C:73CFH         SYMBOL        L?0818
  -------         PROC          _OSDVALUEUPDN
  X:0008H         SYMBOL        flag
  -------         DO            
  X:0009H         SYMBOL        ptr
  X:000CH         SYMBOL        val
  X:000EH         SYMBOL        addr
  -------         ENDDO         
  C:72E6H         LINE#         3083
  C:72EBH         LINE#         3084
  C:72EBH         LINE#         3090
  C:72F1H         LINE#         3091
  C:731DH         LINE#         3093
  C:7339H         LINE#         3095
  C:7339H         LINE#         3096
  C:735DH         LINE#         3097
  C:7366H         LINE#         3098
  C:7366H         LINE#         3109
  C:7366H         LINE#         3110
  C:7375H         LINE#         3111
BL51 BANKED LINKER/LOCATER V6.22                                                      04/22/2015  16:23:43  PAGE 113


  C:7388H         LINE#         3118
  C:7388H         LINE#         3119
  C:7388H         LINE#         3120
  C:7398H         LINE#         3121
  C:7398H         LINE#         3122
  C:7398H         LINE#         3124
  C:7398H         LINE#         3146
  C:7398H         LINE#         3147
  C:73A7H         LINE#         3148
  C:73BAH         LINE#         3149
  C:73CEH         LINE#         3150
  C:73CEH         LINE#         3152
  C:73CEH         LINE#         3153
  C:73CEH         LINE#         3154
  -------         ENDPROC       _OSDVALUEUPDN
  -------         PROC          CLOSEOSDMENU
  -------         DO            
  X:0010H         SYMBOL        i
  -------         ENDDO         
  C:9E8CH         LINE#         3156
  C:9E8CH         LINE#         3157
  C:9E8CH         LINE#         3161
  C:9E91H         LINE#         3164
  C:9E94H         LINE#         3165
  C:9EA4H         LINE#         3166
  C:9EA4H         LINE#         3167
  C:9EAEH         LINE#         3168
  C:9EB7H         LINE#         3169
  C:9EBFH         LINE#         3171
  C:9EC4H         LINE#         3180
  C:9EC7H         LINE#         3194
  C:9EC9H         LINE#         3195
  -------         ENDPROC       CLOSEOSDMENU
  -------         PROC          INITOSDMENUXY
  -------         DO            
  X:000CH         SYMBOL        val
  X:000EH         SYMBOL        addx
  X:0010H         SYMBOL        addy
  X:0012H         SYMBOL        winno
  -------         ENDDO         
  C:953BH         LINE#         3197
  C:953BH         LINE#         3198
  C:953BH         LINE#         3202
  C:954CH         LINE#         3203
  C:955DH         LINE#         3213
  C:956BH         LINE#         3215
  C:956EH         LINE#         3216
  C:957BH         LINE#         3218
  C:9583H         LINE#         3219
  C:9590H         LINE#         3220
  C:9598H         LINE#         3221
  -------         ENDPROC       INITOSDMENUXY
  -------         PROC          OPENOSDMENU
  -------         DO            
  X:0008H         SYMBOL        i
  -------         ENDDO         
  C:A107H         LINE#         3227
BL51 BANKED LINKER/LOCATER V6.22                                                      04/22/2015  16:23:43  PAGE 114


  C:A107H         LINE#         3229
  C:A107H         LINE#         3234
  C:A10AH         LINE#         3235
  C:A10AH         LINE#         3239
  C:A10DH         LINE#         3241
  C:A10DH         LINE#         3248
  C:A11DH         LINE#         3250
  C:A122H         LINE#         3251
  C:A12AH         LINE#         3255
  C:A131H         LINE#         3256
  C:A136H         LINE#         3257
  -------         ENDPROC       OPENOSDMENU
  -------         PROC          INITOSDMENU
  -------         DO            
  X:000BH         SYMBOL        i
  -------         ENDDO         
  C:8DCAH         LINE#         3320
  C:8DCAH         LINE#         3322
  C:8DCAH         LINE#         3324
  C:8DCFH         LINE#         3327
  C:8DD7H         LINE#         3329
  C:8DDAH         LINE#         3347
  C:8DDAH         LINE#         3367
  C:8DE4H         LINE#         3369
  C:8DE4H         LINE#         3370
  C:8DE4H         LINE#         3372
  C:8DE7H         LINE#         3373
  C:8DEBH         LINE#         3374
  C:8E04H         LINE#         3376
  C:8E0AH         LINE#         3377
  C:8E0FH         LINE#         3379
  C:8E12H         LINE#         3380
  C:8E17H         LINE#         3382
  C:8E1DH         LINE#         3383
  C:8E20H         LINE#         3384
  C:8E22H         LINE#         3392
  C:8E2BH         LINE#         3393
  C:8E33H         LINE#         3397
  C:8E3AH         LINE#         3399
  C:8E40H         LINE#         3400
  C:8E47H         LINE#         3402
  C:8E4AH         LINE#         3406
  -------         ENDPROC       INITOSDMENU
  -------         PROC          OSDHIGHMENU
  C:002EH         LINE#         3410
  C:002EH         LINE#         3411
  C:002EH         LINE#         3417
  C:0031H         LINE#         3418
  C:0031H         LINE#         3420
  C:0034H         LINE#         3422
  C:0039H         LINE#         3423
  C:003CH         LINE#         3426
  C:003CH         LINE#         3428
  C:003EH         LINE#         3429
  C:0057H         LINE#         3431
  C:005FH         LINE#         3432
  C:0062H         LINE#         3442
BL51 BANKED LINKER/LOCATER V6.22                                                      04/22/2015  16:23:43  PAGE 115


  -------         ENDPROC       OSDHIGHMENU
  -------         PROC          OSDSELECT
  -------         DO            
  D:0007H         SYMBOL        ret
  X:0008H         SYMBOL        addr
  -------         ENDDO         
  C:6593H         LINE#         3445
  C:6593H         LINE#         3446
  C:6593H         LINE#         3450
  C:659EH         LINE#         3451
  C:65B9H         LINE#         3453
  C:65E1H         LINE#         3457
  C:65FAH         LINE#         3458
  C:6600H         LINE#         3460
  C:6632H         LINE#         3461
  C:6632H         LINE#         3462
  C:6641H         LINE#         3466
  C:6641H         LINE#         3467
  C:6644H         LINE#         3468
  C:6647H         LINE#         3469
  C:6647H         LINE#         3471
  C:6647H         LINE#         3472
  C:6647H         LINE#         3473
  C:6649H         LINE#         3474
  C:664CH         LINE#         3475
  C:6662H         LINE#         3509
  C:6662H         LINE#         3510
  C:6664H         LINE#         3512
  C:6677H         LINE#         3513
  C:6677H         LINE#         3514
  C:6677H         LINE#         3517
  C:667AH         LINE#         3518
  C:667AH         LINE#         3521
  C:667AH         LINE#         3522
  C:667AH         LINE#         3523
  C:667FH         LINE#         3524
  C:6699H         LINE#         3527
  C:669FH         LINE#         3528
  C:66A8H         LINE#         3529
  C:66A8H         LINE#         3531
  C:66AEH         LINE#         3533
  C:66B1H         LINE#         3534
  C:66B1H         LINE#         3535
  C:66B8H         LINE#         3537
  C:66CFH         LINE#         3538
  C:66D7H         LINE#         3539
  C:66EDH         LINE#         3541
  C:66F4H         LINE#         3542
  C:66F9H         LINE#         3544
  C:66FCH         LINE#         3546
  C:66FFH         LINE#         3547
  C:66FFH         LINE#         3548
  C:66FFH         LINE#         3551
  -------         ENDPROC       OSDSELECT
  -------         PROC          _CAMOUTDSEL
  X:0014H         SYMBOL        val
  C:99A9H         LINE#         3569
BL51 BANKED LINKER/LOCATER V6.22                                                      04/22/2015  16:23:43  PAGE 116


  C:99AEH         LINE#         3570
  C:99AEH         LINE#         3571
  C:99B0H         LINE#         3572
  C:99B8H         LINE#         3573
  C:99BFH         LINE#         3574
  C:99C7H         LINE#         3575
  C:99CEH         LINE#         3576
  C:99D6H         LINE#         3577
  C:99DDH         LINE#         3578
  C:99E5H         LINE#         3579
  C:99ECH         LINE#         3580
  C:99F5H         LINE#         3581
  -------         ENDPROC       _CAMOUTDSEL
  -------         ENDMOD        OSDMENU

  -------         MODULE        PC_EEP
  C:0000H         SYMBOL        _ICE_DUMMY_
  -------         ENDMOD        PC_EEP

  -------         MODULE        PRINTF
  C:0000H         SYMBOL        _ICE_DUMMY_
  D:00E8H         PUBLIC        P4
  C:A7E7H         PUBLIC        Hex
  C:A756H         PUBLIC        _Puts
  D:0099H         PUBLIC        SBUF
  C:4AD9H         PUBLIC        _DoPrint
  C:A40BH         PUBLIC        _Printf
  C:964FH         SYMBOL        Com005C
  C:964FH         SYMBOL        L?0093
  C:964FH         SYMBOL        L?0094
  C:9652H         SYMBOL        L?0095
  C:9653H         SYMBOL        L?0096
  C:965CH         SYMBOL        L?0097
  C:965CH         SYMBOL        L?0098
  C:965FH         SYMBOL        L?0099
  C:966DH         SYMBOL        L?0100
  C:966DH         SYMBOL        L?0101
  C:9673H         SYMBOL        L?0102
  C:9679H         SYMBOL        L?0103
  C:9688H         SYMBOL        L?0104
  C:968EH         SYMBOL        L?0105
  C:968EH         SYMBOL        L?0106
  C:9694H         SYMBOL        L?0107
  C:9694H         SYMBOL        L?0108
  C:969AH         SYMBOL        L?0109
  C:969DH         SYMBOL        L?0110
  C:96A4H         SYMBOL        L?0111
  C:96A4H         SYMBOL        L?0112
  -------         PROC          COM005C
  -------         ENDPROC       COM005C
  -------         PROC          _DOPRINT
  X:0057H         SYMBOL        fmt
  X:005AH         SYMBOL        ap
  -------         DO            
  X:005DH         SYMBOL        ch
  X:005EH         SYMBOL        i
  X:005FH         SYMBOL        value
BL51 BANKED LINKER/LOCATER V6.22                                                      04/22/2015  16:23:43  PAGE 117


  B:0023H.2       SYMBOL        fl_zero
  B:0023H.3       SYMBOL        fl_num
  X:0063H         SYMBOL        fl_len
  X:0064H         SYMBOL        cnt
  X:0065H         SYMBOL        mask
  X:0069H         SYMBOL        ptr
  -------         ENDDO         
  C:4AD9H         LINE#         17
  C:4ADFH         LINE#         18
  C:4ADFH         LINE#         26
  C:4AE9H         LINE#         32
  C:4AE9H         LINE#         36
  C:4AF9H         LINE#         37
  C:4AF9H         LINE#         38
  C:4B02H         LINE#         39
  C:4B0CH         LINE#         40
  C:4B19H         LINE#         41
  C:4B19H         LINE#         42
  C:4B19H         LINE#         46
  C:4B1BH         LINE#         47
  C:4B1DH         LINE#         48
  C:4B22H         LINE#         50
  C:4B2CH         LINE#         52
  C:4B31H         LINE#         53
  C:4B33H         LINE#         54
  C:4B3AH         LINE#         55
  C:4B3BH         LINE#         56
  C:4B3BH         LINE#         57
  C:4B3DH         LINE#         58
  C:4B51H         LINE#         59
  C:4B58H         LINE#         60
  C:4B5FH         LINE#         61
  C:4B5FH         LINE#         65
  C:4B65H         LINE#         67
  C:4B79H         LINE#         68
  C:4B79H         LINE#         69
  C:4B88H         LINE#         70
  C:4B88H         LINE#         71
  C:4B95H         LINE#         72
  C:4B95H         LINE#         76
  C:4BC1H         LINE#         78
  C:4BC1H         LINE#         79
  C:4BC1H         LINE#         81
  C:4BD1H         LINE#         82
  C:4BD1H         LINE#         83
  C:4BE4H         LINE#         84
  C:4BECH         LINE#         85
  C:4BEEH         LINE#         87
  C:4BEEH         LINE#         88
  C:4C03H         LINE#         89
  C:4C09H         LINE#         90
  C:4C0BH         LINE#         92
  C:4C0BH         LINE#         93
  C:4C0FH         LINE#         94
  C:4C18H         LINE#         95
  C:4C18H         LINE#         96
  C:4C18H         LINE#         98
BL51 BANKED LINKER/LOCATER V6.22                                                      04/22/2015  16:23:43  PAGE 118


  C:4C1FH         LINE#         99
  C:4C27H         LINE#         100
  C:4C36H         LINE#         101
  C:4C36H         LINE#         103
  C:4C3CH         LINE#         104
  C:4C50H         LINE#         106
  C:4C5DH         LINE#         107
  C:4C6EH         LINE#         108
  C:4C71H         LINE#         109
  C:4C7BH         LINE#         110
  C:4C7BH         LINE#         112
  C:4CABH         LINE#         114
  C:4CABH         LINE#         115
  C:4CB9H         LINE#         116
  C:4CD6H         LINE#         117
  C:4CD8H         LINE#         118
  C:4CE3H         LINE#         120
  C:4CF4H         LINE#         121
  C:4D06H         LINE#         123
  C:4D14H         LINE#         124
  C:4D17H         LINE#         126
  C:4D17H         LINE#         128
  C:4D17H         LINE#         129
  C:4D17H         LINE#         131
  C:4D27H         LINE#         132
  C:4D34H         LINE#         133
  C:4D3CH         LINE#         134
  C:4D45H         LINE#         135
  C:4D45H         LINE#         137
  C:4D53H         LINE#         139
  C:4D73H         LINE#         140
  C:4DA3H         LINE#         141
  C:4DABH         LINE#         142
  C:4DABH         LINE#         144
  C:4DABH         LINE#         155
  C:4DBAH         LINE#         156
  C:4DC5H         LINE#         157
  C:4DD4H         LINE#         158
  C:4DD4H         LINE#         163
  C:4DD4H         LINE#         164
  C:4DE0H         LINE#         165
  C:4DEDH         LINE#         166
  C:4DEDH         LINE#         168
  C:4DEDH         LINE#         169
  C:4DF6H         LINE#         170
  C:4DF9H         LINE#         171
  C:4DF9H         LINE#         172
  C:4DF9H         LINE#         173
  -------         ENDPROC       _DOPRINT
  -------         PROC          _PRINTF
  X:0029H         SYMBOL        fmt
  -------         DO            
  X:002CH         SYMBOL        ellipsis_40
  X:0054H         SYMBOL        ap
  -------         ENDDO         
  C:A40BH         LINE#         180
  C:A411H         LINE#         181
BL51 BANKED LINKER/LOCATER V6.22                                                      04/22/2015  16:23:43  PAGE 119


  C:A411H         LINE#         184
  C:A41DH         LINE#         185
  -------         ENDPROC       _PRINTF
  -------         PROC          _PUTS
  X:0021H         SYMBOL        ptr
  C:A756H         LINE#         189
  C:A75CH         LINE#         190
  C:A75CH         LINE#         191
  C:A764H         LINE#         192
  C:A770H         LINE#         193
  -------         ENDPROC       _PUTS
  -------         ENDMOD        PRINTF

  -------         MODULE        TABLE
  C:0000H         SYMBOL        _ICE_DUMMY_
  C:50A7H         PUBLIC        NTSC_Regs
  C:51F7H         PUBLIC        PAL_Regs
  -------         ENDMOD        TABLE

  -------         MODULE        TW88
  C:0000H         SYMBOL        _ICE_DUMMY_
  C:A703H         PUBLIC        COMPOSITE3Input
  C:A71FH         PUBLIC        COMPOSITE4Input
  C:8652H         PUBLIC        _Mapping1
  C:8A02H         PUBLIC        _LCDPowerON
  D:00E8H         PUBLIC        P4
  C:A826H         PUBLIC        GetLCDPowerState
  C:A692H         PUBLIC        _ClearAutoDetectStd
  B:00B0H.5       PUBLIC        P3_5
  C:9863H         PUBLIC        DetectDecoderInput
  C:0029H         PUBLIC        ON_LVDS
  C:9F81H         PUBLIC        LCDPowerOFF
  C:A343H         PUBLIC        SetAutoDetectStd
  X:0107H         SYMBOL        m_cStandard
  C:002AH         PUBLIC        OFF_LVDS
  C:A6E7H         PUBLIC        COMPOSITE1Input
  C:941EH         SYMBOL        Com001C
  C:941EH         SYMBOL        L?0029
  C:9425H         SYMBOL        L?0030
  C:9428H         SYMBOL        L?0031
  C:942BH         SYMBOL        L?0032
  C:9431H         SYMBOL        L?0033
  C:9454H         SYMBOL        L?0034
  C:9464H         SYMBOL        L?0035
  C:9464H         SYMBOL        L?0036
  C:946DH         SYMBOL        L?0040
  C:946DH         SYMBOL        L?0041
  C:9474H         SYMBOL        L?0042
  -------         PROC          COM001C
  -------         ENDPROC       COM001C
  -------         PROC          SETAUTODETECTSTD
  -------         DO            
  D:0007H         SYMBOL        val
  -------         ENDDO         
  C:A343H         LINE#         30
  C:A343H         LINE#         31
  C:A343H         LINE#         36
BL51 BANKED LINKER/LOCATER V6.22                                                      04/22/2015  16:23:43  PAGE 120


  C:A34CH         LINE#         37
  C:A352H         LINE#         38
  C:A35AH         LINE#         39
  C:A361H         LINE#         40
  -------         ENDPROC       SETAUTODETECTSTD
  -------         PROC          _CLEARAUTODETECTSTD
  X:0021H         SYMBOL        std
  -------         DO            
  D:0007H         SYMBOL        val
  -------         ENDDO         
  C:A692H         LINE#         43
  C:A697H         LINE#         44
  C:A697H         LINE#         51
  C:A69EH         LINE#         52
  C:A6A7H         LINE#         53
  -------         ENDPROC       _CLEARAUTODETECTSTD
  C:98AEH         SYMBOL        L?0039
  -------         PROC          DETECTDECODERINPUT
  -------         DO            
  X:0020H         SYMBOL        std
  X:0021H         SYMBOL        val
  -------         ENDDO         
  C:9863H         LINE#         87
  C:9863H         LINE#         88
  C:9863H         LINE#         93
  C:9868H         LINE#         94
  C:986EH         LINE#         95
  C:9873H         LINE#         96
  C:9875H         LINE#         97
  C:9875H         LINE#         99
  C:987AH         LINE#         100
  C:987FH         LINE#         104
  C:9882H         LINE#         105
  C:9887H         LINE#         106
  C:9889H         LINE#         107
  C:9889H         LINE#         108
  C:9892H         LINE#         109
  C:9898H         LINE#         110
  C:989FH         LINE#         111
  C:989FH         LINE#         112
  C:98ABH         LINE#         125
  C:98ADH         LINE#         126
  -------         ENDPROC       DETECTDECODERINPUT
  -------         PROC          COMPOSITE1INPUT
  C:A6E7H         LINE#         133
  C:A6E7H         LINE#         134
  C:A6E7H         LINE#         135
  C:A6F0H         LINE#         136
  C:A6F6H         LINE#         137
  -------         ENDPROC       COMPOSITE1INPUT
  -------         PROC          COMPOSITE3INPUT
  C:A703H         LINE#         149
  C:A703H         LINE#         150
  C:A703H         LINE#         151
  C:A70CH         LINE#         152
  C:A712H         LINE#         153
  -------         ENDPROC       COMPOSITE3INPUT
BL51 BANKED LINKER/LOCATER V6.22                                                      04/22/2015  16:23:43  PAGE 121


  -------         PROC          COMPOSITE4INPUT
  C:A71FH         LINE#         156
  C:A71FH         LINE#         157
  C:A71FH         LINE#         158
  C:A728H         LINE#         159
  C:A72EH         LINE#         160
  -------         ENDPROC       COMPOSITE4INPUT
  -------         PROC          GETLCDPOWERSTATE
  -------         DO            
  D:0007H         SYMBOL        val
  -------         ENDDO         
  C:A826H         LINE#         235
  C:A826H         LINE#         236
  C:A826H         LINE#         239
  C:A82DH         LINE#         240
  C:A830H         LINE#         241
  C:A834H         LINE#         242
  C:A834H         LINE#         243
  -------         ENDPROC       GETLCDPOWERSTATE
  -------         PROC          ON_LVDS
  C:0029H         LINE#         324
  C:0029H         LINE#         325
  C:0029H         LINE#         335
  -------         ENDPROC       ON_LVDS
  -------         PROC          OFF_LVDS
  C:002AH         LINE#         337
  C:002AH         LINE#         338
  C:002AH         LINE#         349
  -------         ENDPROC       OFF_LVDS
  C:8A8AH         SYMBOL        L?0038
  -------         PROC          _LCDPOWERON
  X:0000H         SYMBOL        mute
  C:8A02H         LINE#         351
  C:8A02H         LINE#         352
  C:8A02H         LINE#         353
  C:8A02H         LINE#         354
  C:8A14H         LINE#         356
  C:8A19H         LINE#         357
  C:8A2DH         LINE#         359
  C:8A33H         LINE#         360
  C:8A33H         LINE#         362
  C:8A36H         LINE#         364
  C:8A39H         LINE#         366
  C:8A3FH         LINE#         367
  C:8A41H         LINE#         371
  C:8A46H         LINE#         372
  C:8A4BH         LINE#         374
  C:8A50H         LINE#         379
  C:8A55H         LINE#         380
  C:8A58H         LINE#         383
  C:8A61H         LINE#         411
  C:8A66H         LINE#         413
  C:8A6DH         LINE#         414
  C:8A70H         LINE#         415
  C:8A79H         LINE#         416
  C:8A80H         LINE#         417
  C:8A89H         LINE#         418
BL51 BANKED LINKER/LOCATER V6.22                                                      04/22/2015  16:23:43  PAGE 122


  C:8A89H         LINE#         421
  -------         ENDPROC       _LCDPOWERON
  C:9FAEH         SYMBOL        L?0037
  -------         PROC          LCDPOWEROFF
  C:9F81H         LINE#         437
  C:9F81H         LINE#         438
  C:9F81H         LINE#         445
  C:9F83H         LINE#         446
  C:9F86H         LINE#         447
  C:9F88H         LINE#         448
  C:9F8BH         LINE#         449
  C:9F94H         LINE#         451
  C:9F97H         LINE#         464
  C:9F9AH         LINE#         465
  C:9FA1H         LINE#         466
  C:9FA3H         LINE#         467
  C:9FAAH         LINE#         468
  C:9FADH         LINE#         471
  -------         ENDPROC       LCDPOWEROFF
  -------         PROC          _MAPPING1
  X:002CH         SYMBOL        fromValue
  X:002EH         SYMBOL        fromRange
  X:0031H         SYMBOL        toValue
  X:0034H         SYMBOL        toRange
  -------         DO            
  X:0037H         SYMBOL        a
  X:0039H         SYMBOL        b
  -------         ENDDO         
  C:8652H         LINE#         1715
  C:865EH         LINE#         1716
  C:865EH         LINE#         1723
  C:8670H         LINE#         1724
  C:8684H         LINE#         1725
  C:8696H         LINE#         1727
  C:869DH         LINE#         1729
  C:86ADH         LINE#         1730
  C:86B0H         LINE#         1731
  C:86B0H         LINE#         1732
  C:86B9H         LINE#         1733
  C:86BFH         LINE#         1735
  C:86C6H         LINE#         1737
  C:86F4H         LINE#         1738
  C:86F4H         LINE#         1745
  C:86F6H         LINE#         1747
  -------         ENDPROC       _MAPPING1
  -------         ENDMOD        TW88

  -------         MODULE        UDFONT
  C:0000H         SYMBOL        _ICE_DUMMY_
  C:17D8H         PUBLIC        OSD_Color_LookUp_Data_Table
  C:17E8H         PUBLIC        RAMFONTDATA
  -------         ENDMOD        UDFONT

  -------         MODULE        HS_KEYREMO
  C:0000H         SYMBOL        _ICE_DUMMY_
  D:00E8H         PUBLIC        P4
  C:6274H         PUBLIC        JumpTable
BL51 BANKED LINKER/LOCATER V6.22                                                      04/22/2015  16:23:43  PAGE 123


  B:0022H.5       PUBLIC        ParkFlag
  B:0080H.0       PUBLIC        P0_0
  B:0080H.1       PUBLIC        P0_1
  B:0080H.2       PUBLIC        P0_2
  B:0080H.3       PUBLIC        P0_3
  B:0022H.6       PUBLIC        AVFlag
  X:00E7H         PUBLIC        SelectBoxMode
  C:82F7H         PUBLIC        SetSelectMode
  C:5F4CH         PUBLIC        _TriggerHandler
  C:A261H         PUBLIC        SetRightSource
  C:9ECAH         PUBLIC        _SetSourceMode
  C:83A7H         PUBLIC        SetRearSource
  X:00E8H         PUBLIC        TimeStep
  C:A432H         PUBLIC        SetLeftSource
  C:8BA9H         PUBLIC        CheckTrigger
  C:62A5H         PUBLIC        JumpTable_S
  X:00E9H         PUBLIC        Attr_A
  X:00EAH         PUBLIC        Attr_B
  C:A5FCH         PUBLIC        SetTriggerCSource
  X:00EBH         PUBLIC        Attr_C
  X:00ECH         PUBLIC        NowModeState
  X:00EDH         PUBLIC        Attr_R
  C:97B4H         PUBLIC        SetJumpMode
  B:0022H.7       PUBLIC        VGAAudio
  C:62A1H         PUBLIC        SEQTable
  X:00EEH         PUBLIC        TriggerFlag
  X:00EFH         PUBLIC        SelectBoxADC
  X:00F0H         PUBLIC        TriggerMode
  X:00F1H         PUBLIC        SEQIndex
  X:00F2H         PUBLIC        SEQFlag
  C:629AH         PUBLIC        TriggerC_Table
  C:99F6H         PUBLIC        SetNowMode
  C:6293H         PUBLIC        RightTable
  C:A4CBH         PUBLIC        SEQMode
  C:6282H         PUBLIC        RearTable
  C:628CH         PUBLIC        LeftTable
  C:6253H         PUBLIC        ParkTable
  C:947EH         SYMBOL        Com0077
  C:947EH         SYMBOL        L?0120
  C:9482H         SYMBOL        L?0121
  C:948DH         SYMBOL        L?0122
  C:9496H         SYMBOL        L?0124
  C:949EH         SYMBOL        L?0125
  C:94ABH         SYMBOL        L?0127
  C:94AEH         SYMBOL        L?0128
  C:94AFH         SYMBOL        L?0129
  C:94B6H         SYMBOL        L?0130
  C:94B6H         SYMBOL        L?0131
  C:94BFH         SYMBOL        L?0132
  C:94CCH         SYMBOL        L?0133
  C:94D6H         SYMBOL        L?0134
  C:94D6H         SYMBOL        L?0135
  -------         PROC          COM0077
  -------         ENDPROC       COM0077
  -------         PROC          _SETSOURCEMODE
  D:0007H         SYMBOL        Index
  D:0005H         SYMBOL        attr0
BL51 BANKED LINKER/LOCATER V6.22                                                      04/22/2015  16:23:43  PAGE 124


  D:0003H         SYMBOL        attr1
  X:0018H         SYMBOL        attr2
  X:0019H         SYMBOL        attr3
  C:9ECAH         LINE#         184
  C:9ECAH         LINE#         185
  C:9ECAH         LINE#         186
  C:9ED5H         LINE#         187
  C:9ED5H         LINE#         188
  C:9ED5H         LINE#         189
  C:9ED5H         LINE#         190
  C:9ED5H         LINE#         191
  C:9ED5H         LINE#         192
  C:9ED5H         LINE#         193
  C:9ED5H         LINE#         194
  C:9ED5H         LINE#         195
  C:9ED5H         LINE#         196
  C:9ED5H         LINE#         197
  C:9ED5H         LINE#         198
  C:9ED5H         LINE#         199
  C:9ED5H         LINE#         205
  C:9ED5H         LINE#         206
  C:9ED5H         LINE#         207
  C:9ED5H         LINE#         208
  C:9ED5H         LINE#         209
  C:9ED5H         LINE#         210
  C:9ED5H         LINE#         211
  C:9ED5H         LINE#         212
  C:9ED5H         LINE#         213
  C:9ED5H         LINE#         214
  C:9ED5H         LINE#         215
  C:9ED5H         LINE#         216
  C:9ED5H         LINE#         217
  C:9ED5H         LINE#         218
  C:9ED5H         LINE#         219
  C:9ED5H         LINE#         220
  C:9ED5H         LINE#         221
  C:9ED5H         LINE#         222
  C:9ED5H         LINE#         223
  C:9ED5H         LINE#         224
  C:9ED5H         LINE#         226
  C:9EEEH         LINE#         227
  C:9EF0H         LINE#         264
  C:9EF2H         LINE#         284
  C:9EF2H         LINE#         285
  C:9EF7H         LINE#         289
  C:9EF7H         LINE#         291
  C:9EF7H         LINE#         292
  C:9EFCH         LINE#         293
  C:9EFFH         LINE#         294
  C:9F07H         LINE#         295
  C:9F07H         LINE#         296
  C:9F07H         LINE#         297
  -------         ENDPROC       _SETSOURCEMODE
  -------         PROC          SETSELECTMODE
  -------         DO            
  X:0006H         SYMBOL        Maxsource
  -------         ENDDO         
BL51 BANKED LINKER/LOCATER V6.22                                                      04/22/2015  16:23:43  PAGE 125


  C:82F7H         LINE#         300
  C:82F7H         LINE#         301
  C:82F7H         LINE#         304
  C:8300H         LINE#         305
  C:8305H         LINE#         307
  C:8305H         LINE#         311
  C:8308H         LINE#         313
  C:8308H         LINE#         314
  C:830DH         LINE#         315
  C:830DH         LINE#         316
  C:8313H         LINE#         338
  C:8316H         LINE#         339
  C:8316H         LINE#         340
  C:8319H         LINE#         341
  C:8319H         LINE#         342
  C:831EH         LINE#         343
  C:8320H         LINE#         344
  C:8322H         LINE#         346
  C:8322H         LINE#         347
  C:8327H         LINE#         348
  C:832BH         LINE#         349
  C:8331H         LINE#         350
  C:8331H         LINE#         354
  C:8333H         LINE#         356
  C:8335H         LINE#         373
  C:8335H         LINE#         374
  C:833AH         LINE#         375
  C:833AH         LINE#         384
  C:8340H         LINE#         385
  C:8347H         LINE#         397
  C:8347H         LINE#         399
  C:834DH         LINE#         400
  C:834DH         LINE#         401
  C:8350H         LINE#         402
  C:8350H         LINE#         403
  C:8356H         LINE#         405
  C:8358H         LINE#         407
  C:835AH         LINE#         408
  C:835EH         LINE#         409
  C:8365H         LINE#         411
  C:8368H         LINE#         412
  C:836AH         LINE#         423
  C:836AH         LINE#         425
  C:836DH         LINE#         426
  C:836DH         LINE#         427
  C:836FH         LINE#         428
  C:836FH         LINE#         430
  C:8375H         LINE#         431
  C:8375H         LINE#         432
  C:8375H         LINE#         433
  C:8375H         LINE#         441
  C:837FH         LINE#         443
  C:838CH         LINE#         444
  C:838CH         LINE#         445
  C:8393H         LINE#         446
  C:8393H         LINE#         447
  C:8399H         LINE#         450
BL51 BANKED LINKER/LOCATER V6.22                                                      04/22/2015  16:23:43  PAGE 126


  C:83A3H         LINE#         451
  C:83A6H         LINE#         462
  -------         ENDPROC       SETSELECTMODE
  -------         PROC          SEQMODE
  C:A4CBH         LINE#         598
  C:A4CBH         LINE#         599
  C:A4CBH         LINE#         605
  C:A4DDH         LINE#         622
  C:A4E6H         LINE#         625
  C:A4EAH         LINE#         628
  C:A4EFH         LINE#         632
  -------         ENDPROC       SEQMODE
  -------         PROC          SETJUMPMODE
  -------         DO            
  X:0006H         SYMBOL        val
  -------         ENDDO         
  C:97B4H         LINE#         634
  C:97B4H         LINE#         635
  C:97B4H         LINE#         638
  C:97BCH         LINE#         639
  C:97BCH         LINE#         640
  C:97C7H         LINE#         642
  C:97CCH         LINE#         643
  C:97D2H         LINE#         645
  C:97D9H         LINE#         646
  C:97E1H         LINE#         654
  C:97E3H         LINE#         656
  C:97E3H         LINE#         658
  C:97E4H         LINE#         660
  C:97EAH         LINE#         661
  C:97F8H         LINE#         666
  C:97F8H         LINE#         667
  C:97FEH         LINE#         670
  C:9808H         LINE#         671
  C:980BH         LINE#         673
  -------         ENDPROC       SETJUMPMODE
  -------         PROC          SETNOWMODE
  -------         DO            
  X:0014H         SYMBOL        val
  -------         ENDDO         
  C:99F6H         LINE#         763
  C:99F6H         LINE#         764
  C:99F6H         LINE#         767
  C:99FCH         LINE#         768
  C:99FCH         LINE#         770
  C:9A02H         LINE#         771
  C:9A0CH         LINE#         775
  C:9A11H         LINE#         776
  C:9A12H         LINE#         778
  C:9A12H         LINE#         779
  C:9A1EH         LINE#         781
  C:9A23H         LINE#         782
  C:9A29H         LINE#         784
  C:9A30H         LINE#         786
  C:9A42H         LINE#         790
  C:9A42H         LINE#         791
  -------         ENDPROC       SETNOWMODE
BL51 BANKED LINKER/LOCATER V6.22                                                      04/22/2015  16:23:43  PAGE 127


  -------         PROC          SETREARSOURCE
  -------         DO            
  X:000DH         SYMBOL        rev
  -------         ENDDO         
  C:83A7H         LINE#         793
  C:83A7H         LINE#         794
  C:83A7H         LINE#         797
  C:83B3H         LINE#         798
  C:83D0H         LINE#         803
  C:83EDH         LINE#         806
  C:8401H         LINE#         810
  C:8401H         LINE#         812
  C:840AH         LINE#         813
  C:8413H         LINE#         814
  C:841CH         LINE#         815
  C:8440H         LINE#         821
  C:8440H         LINE#         823
  C:8453H         LINE#         824
  C:8456H         LINE#         826
  -------         ENDPROC       SETREARSOURCE
  -------         PROC          SETLEFTSOURCE
  -------         DO            
  D:0007H         SYMBOL        rev
  -------         ENDDO         
  C:A432H         LINE#         828
  C:A432H         LINE#         829
  C:A432H         LINE#         834
  C:A439H         LINE#         838
  -------         ENDPROC       SETLEFTSOURCE
  -------         PROC          SETRIGHTSOURCE
  -------         DO            
  D:0007H         SYMBOL        rev
  -------         ENDDO         
  C:A261H         LINE#         844
  C:A261H         LINE#         845
  C:A261H         LINE#         849
  C:A268H         LINE#         853
  -------         ENDPROC       SETRIGHTSOURCE
  -------         PROC          SETTRIGGERCSOURCE
  -------         DO            
  D:0007H         SYMBOL        rev
  -------         ENDDO         
  C:A5FCH         LINE#         859
  C:A5FCH         LINE#         860
  C:A5FCH         LINE#         862
  C:A603H         LINE#         867
  -------         ENDPROC       SETTRIGGERCSOURCE
  -------         PROC          CHECKTRIGGER
  -------         DO            
  X:001BH         SYMBOL        TriggerFlagtemp
  -------         ENDDO         
  C:8BA9H         LINE#         889
  C:8BA9H         LINE#         890
  C:8BA9H         LINE#         893
  C:8BB1H         LINE#         894
  C:8BB6H         LINE#         896
  C:8BB8H         LINE#         897
BL51 BANKED LINKER/LOCATER V6.22                                                      04/22/2015  16:23:43  PAGE 128


  C:8BBBH         LINE#         898
  C:8BBBH         LINE#         900
  C:8BC1H         LINE#         901
  C:8BC4H         LINE#         902
  C:8BCBH         LINE#         903
  C:8BCBH         LINE#         905
  C:8BCDH         LINE#         906
  C:8BD0H         LINE#         907
  C:8BD0H         LINE#         908
  C:8BD7H         LINE#         909
  C:8BDAH         LINE#         910
  C:8BE1H         LINE#         911
  C:8BE1H         LINE#         913
  C:8BE3H         LINE#         914
  C:8BE6H         LINE#         915
  C:8BE6H         LINE#         916
  C:8BEDH         LINE#         917
  C:8BF0H         LINE#         918
  C:8BF7H         LINE#         919
  C:8BF7H         LINE#         954
  C:8BF9H         LINE#         955
  C:8BFCH         LINE#         956
  C:8BFCH         LINE#         957
  C:8C03H         LINE#         958
  C:8C06H         LINE#         959
  C:8C0DH         LINE#         960
  C:8C0DH         LINE#         963
  C:8C1AH         LINE#         964
  C:8C2DH         LINE#         966
  C:8C32H         LINE#         967
  -------         ENDPROC       CHECKTRIGGER
  C:60E3H         SYMBOL        L?0123
  C:60EEH         SYMBOL        L?0126
  -------         PROC          _TRIGGERHANDLER
  X:0005H         SYMBOL        T_Flag
  -------         DO            
  X:0006H         SYMBOL        i
  X:0007H         SYMBOL        ReverseMask
  X:0008H         SYMBOL        LeftMask
  X:0009H         SYMBOL        RightMask
  X:000AH         SYMBOL        CamCMask
  X:000BH         SYMBOL        CamDMask
  X:000CH         SYMBOL        VGAMask
  -------         ENDDO         
  C:5F4CH         LINE#         970
  C:5F51H         LINE#         971
  C:5F51H         LINE#         978
  C:5F5AH         LINE#         979
  C:5F5AH         LINE#         980
  C:5F5BH         LINE#         981
  C:5F5FH         LINE#         982
  C:5F63H         LINE#         983
  C:5F67H         LINE#         984
  C:5F6BH         LINE#         985
  C:5F6FH         LINE#         986
  C:5F71H         LINE#         988
  C:5F71H         LINE#         989
BL51 BANKED LINKER/LOCATER V6.22                                                      04/22/2015  16:23:43  PAGE 129


  C:5F74H         LINE#         990
  C:5F78H         LINE#         991
  C:5F7CH         LINE#         992
  C:5F80H         LINE#         993
  C:5F84H         LINE#         994
  C:5F88H         LINE#         995
  C:5F88H         LINE#         1072
  C:5F99H         LINE#         1073
  C:5F99H         LINE#         1074
  C:5FA4H         LINE#         1075
  C:5FA4H         LINE#         1076
  C:5FABH         LINE#         1077
  C:5FB1H         LINE#         1078
  C:5FB4H         LINE#         1079
  C:5FBAH         LINE#         1081
  C:5FBBH         LINE#         1083
  C:5FBBH         LINE#         1085
  C:5FCCH         LINE#         1086
  C:5FCCH         LINE#         1087
  C:5FD7H         LINE#         1088
  C:5FD7H         LINE#         1089
  C:5FDEH         LINE#         1090
  C:5FE1H         LINE#         1091
  C:5FE7H         LINE#         1092
  C:5FEAH         LINE#         1093
  C:5FF0H         LINE#         1095
  C:5FF1H         LINE#         1097
  C:5FF1H         LINE#         1099
  C:6002H         LINE#         1100
  C:6002H         LINE#         1101
  C:600DH         LINE#         1102
  C:600DH         LINE#         1103
  C:6011H         LINE#         1104
  C:6011H         LINE#         1105
  C:6017H         LINE#         1106
  C:601AH         LINE#         1107
  C:6020H         LINE#         1109
  C:6021H         LINE#         1111
  C:6021H         LINE#         1113
  C:6032H         LINE#         1114
  C:6032H         LINE#         1115
  C:603DH         LINE#         1116
  C:603DH         LINE#         1117
  C:6041H         LINE#         1118
  C:6041H         LINE#         1119
  C:6046H         LINE#         1120
  C:604CH         LINE#         1121
  C:604FH         LINE#         1123
  C:6055H         LINE#         1125
  C:6056H         LINE#         1127
  C:6056H         LINE#         1162
  C:6061H         LINE#         1163
  C:6061H         LINE#         1164
  C:606FH         LINE#         1166
  C:606FH         LINE#         1168
  C:6074H         LINE#         1169
  C:6074H         LINE#         1170
BL51 BANKED LINKER/LOCATER V6.22                                                      04/22/2015  16:23:43  PAGE 130


  C:6077H         LINE#         1171
  C:607DH         LINE#         1174
  C:6084H         LINE#         1175
  C:6090H         LINE#         1219
  C:6090H         LINE#         1220
  C:6096H         LINE#         1221
  C:6099H         LINE#         1232
  C:609FH         LINE#         1234
  C:609FH         LINE#         1235
  C:60A2H         LINE#         1240
  C:60A5H         LINE#         1243
  C:60AFH         LINE#         1244
  C:60B2H         LINE#         1246
  C:60B2H         LINE#         1249
  C:60BEH         LINE#         1250
  C:60BEH         LINE#         1251
  C:60C7H         LINE#         1252
  C:60D0H         LINE#         1253
  C:60D9H         LINE#         1254
  C:60E2H         LINE#         1255
  C:60E2H         LINE#         1265
  C:60E2H         LINE#         1283
  -------         ENDPROC       _TRIGGERHANDLER
  -------         ENDMOD        HS_KEYREMO

  -------         MODULE        HS_DISPLAYOSD
  C:0000H         SYMBOL        _ICE_DUMMY_
  C:A59EH         PUBLIC        ClearGAUGEINFO
  C:6BCFH         PUBLIC        GaugeString1
  C:6BD3H         PUBLIC        GaugeString2
  C:6BD7H         PUBLIC        GaugeString3
  C:6BDBH         PUBLIC        GaugeString4
  C:6BDFH         PUBLIC        GaugeString5
  C:6BF8H         PUBLIC        GaugeString6
  C:6C15H         PUBLIC        GaugeString7
  C:77CEH         PUBLIC        DisplayGaugeOSD
  C:6C32H         PUBLIC        Init_Osd_DisplayGAUGEWindow
  C:98B9H         PUBLIC        DisplayFWVersion
  B:0023H.5       PUBLIC        Init_DisplayInput
  C:6BB8H         PUBLIC        GaugeString
  C:7A96H         PUBLIC        _DisplayInformation
  C:A36CH         SYMBOL        Com0017
  C:A36CH         SYMBOL        L?0024
  C:A370H         SYMBOL        L?0025
  C:A372H         SYMBOL        L?0026
  C:A379H         SYMBOL        L?0029
  C:A380H         SYMBOL        L?0030
  C:A387H         SYMBOL        L?0031
  C:A387H         SYMBOL        L?0032
  C:A38EH         SYMBOL        L?0033
  C:A38EH         SYMBOL        L?0034
  -------         PROC          COM0017
  -------         ENDPROC       COM0017
  -------         PROC          DISPLAYGAUGEOSD
  -------         DO            
  X:000EH         SYMBOL        i
  -------         ENDDO         
BL51 BANKED LINKER/LOCATER V6.22                                                      04/22/2015  16:23:43  PAGE 131


  C:77CEH         LINE#         84
  C:77CEH         LINE#         118
  C:77CEH         LINE#         121
  C:77D1H         LINE#         122
  C:77D7H         LINE#         123
  C:77DFH         LINE#         124
  C:77E8H         LINE#         126
  C:77EEH         LINE#         132
  C:7813H         LINE#         134
  C:781DH         LINE#         135
  C:782DH         LINE#         136
  C:7840H         LINE#         138
  C:784BH         LINE#         139
  C:7855H         LINE#         140
  C:7863H         LINE#         142
  C:786BH         LINE#         143
  C:7871H         LINE#         145
  C:7882H         LINE#         147
  C:788DH         LINE#         148
  C:7897H         LINE#         149
  C:78A7H         LINE#         151
  C:78ACH         LINE#         153
  C:78B3H         LINE#         154
  C:78B8H         LINE#         155
  -------         ENDPROC       DISPLAYGAUGEOSD
  -------         PROC          CLEARGAUGEINFO
  C:A59EH         LINE#         158
  C:A59EH         LINE#         159
  C:A59EH         LINE#         161
  C:A5AFH         LINE#         164
  C:A5B6H         LINE#         165
  C:A5BDH         LINE#         166
  -------         ENDPROC       CLEARGAUGEINFO
  C:7B61H         SYMBOL        L?0027
  C:7B6EH         SYMBOL        L?0028
  -------         PROC          _DISPLAYINFORMATION
  X:0006H         SYMBOL        info
  C:7A96H         LINE#         240
  C:7A9BH         LINE#         241
  C:7A9BH         LINE#         248
  C:7AB4H         LINE#         251
  C:7ABAH         LINE#         258
  C:7ABDH         LINE#         260
  C:7AC5H         LINE#         262
  C:7ADDH         LINE#         263
  C:7ADDH         LINE#         264
  C:7ADDH         LINE#         277
  C:7AE7H         LINE#         278
  C:7AEDH         LINE#         280
  C:7AEFH         LINE#         282
  C:7AEFH         LINE#         295
  C:7AEFH         LINE#         296
  C:7AFEH         LINE#         298
  C:7B00H         LINE#         372
  C:7B00H         LINE#         373
  C:7B00H         LINE#         374
  C:7B0FH         LINE#         375
BL51 BANKED LINKER/LOCATER V6.22                                                      04/22/2015  16:23:43  PAGE 132


  C:7B11H         LINE#         377
  C:7B11H         LINE#         378
  C:7B11H         LINE#         379
  C:7B1DH         LINE#         380
  C:7B1FH         LINE#         382
  C:7B1FH         LINE#         383
  C:7B1FH         LINE#         384
  C:7B2EH         LINE#         385
  C:7B30H         LINE#         388
  C:7B30H         LINE#         389
  C:7B3AH         LINE#         390
  C:7B4AH         LINE#         391
  C:7B4AH         LINE#         393
  C:7B4AH         LINE#         395
  C:7B4FH         LINE#         396
  C:7B56H         LINE#         397
  C:7B5BH         LINE#         398
  C:7B61H         LINE#         399
  -------         ENDPROC       _DISPLAYINFORMATION
  -------         PROC          DISPLAYFWVERSION
  C:98B9H         LINE#         401
  C:98B9H         LINE#         402
  C:98B9H         LINE#         415
  C:98BCH         LINE#         416
  C:98C2H         LINE#         417
  C:98CAH         LINE#         418
  C:98D4H         LINE#         419
  C:98E3H         LINE#         424
  C:98F6H         LINE#         437
  C:98FBH         LINE#         438
  C:9902H         LINE#         439
  C:9907H         LINE#         440
  -------         ENDPROC       DISPLAYFWVERSION
  -------         ENDMOD        HS_DISPLAYOSD

  -------         MODULE        AUDIO
  C:0000H         SYMBOL        _ICE_DUMMY_
  D:00E8H         PUBLIC        P4
  C:A908H         PUBLIC        AudioMute
  B:0090H.7       PUBLIC        P1_7
  X:0105H         PUBLIC        AudioVol
  X:0106H         PUBLIC        PCAudioVol
  C:6D66H         PUBLIC        _ChangeVol
  -------         PROC          AUDIOMUTE
  B:0023H.2       SYMBOL        mute
  C:A908H         LINE#         288
  C:A908H         LINE#         289
  C:A908H         LINE#         305
  C:A90BH         LINE#         306
  C:A90EH         LINE#         308
  C:A910H         LINE#         317
  -------         ENDPROC       AUDIOMUTE
  C:6E6FH         SYMBOL        L?0028
  C:6E7FH         SYMBOL        L?0029
  -------         PROC          _CHANGEVOL
  D:0007H         SYMBOL        amount
  -------         DO            
BL51 BANKED LINKER/LOCATER V6.22                                                      04/22/2015  16:23:43  PAGE 133


  D:0006H         SYMBOL        chg
  X:001BH         SYMBOL        VCOM
  X:001CH         SYMBOL        AudioTemp
  -------         ENDDO         
  C:6D66H         LINE#         319
  C:6D66H         LINE#         320
  C:6D66H         LINE#         322
  C:6D68H         LINE#         327
  C:6D6BH         LINE#         328
  C:6D6BH         LINE#         329
  C:6D6EH         LINE#         330
  C:6D70H         LINE#         332
  C:6D70H         LINE#         333
  C:6D78H         LINE#         334
  C:6D78H         LINE#         336
  C:6D84H         LINE#         337
  C:6D88H         LINE#         339
  C:6D8DH         LINE#         341
  C:6D95H         LINE#         342
  C:6D95H         LINE#         343
  C:6DB7H         LINE#         344
  C:6DB9H         LINE#         345
  C:6DBBH         LINE#         347
  C:6DBBH         LINE#         348
  C:6DD2H         LINE#         349
  C:6DD4H         LINE#         350
  C:6DD4H         LINE#         352
  C:6DD7H         LINE#         353
  C:6DD7H         LINE#         354
  C:6DDDH         LINE#         356
  C:6DEEH         LINE#         357
  C:6DF6H         LINE#         359
  C:6E09H         LINE#         361
  C:6E0EH         LINE#         363
  C:6E1AH         LINE#         365
  C:6E1FH         LINE#         372
  C:6E29H         LINE#         373
  C:6E29H         LINE#         389
  C:6E33H         LINE#         391
  C:6E3FH         LINE#         392
  C:6E43H         LINE#         394
  C:6E48H         LINE#         396
  C:6E50H         LINE#         397
  C:6E50H         LINE#         398
  C:6E54H         LINE#         399
  C:6E57H         LINE#         400
  C:6E59H         LINE#         402
  C:6E59H         LINE#         403
  C:6E5DH         LINE#         404
  C:6E60H         LINE#         405
  C:6E60H         LINE#         407
  C:6E63H         LINE#         408
  C:6E69H         LINE#         410
  C:6E6EH         LINE#         412
  -------         ENDPROC       _CHANGEVOL
  -------         ENDMOD        AUDIO

BL51 BANKED LINKER/LOCATER V6.22                                                      04/22/2015  16:23:43  PAGE 134


  -------         MODULE        DEBUG
  C:0000H         SYMBOL        _ICE_DUMMY_
  D:00E8H         PUBLIC        P4
  -------         ENDMOD        DEBUG

  -------         MODULE        HS_DVRPROTOCOL
  C:0000H         SYMBOL        _ICE_DUMMY_
  X:006CH         PUBLIC        PresetMode
  B:0022H.0       PUBLIC        FormatStart
  X:006DH         PUBLIC        second
  X:006EH         PUBLIC        UpdateOK
  B:0022H.1       PUBLIC        SpeedDomeMode
  D:00E8H         PUBLIC        P4
  X:006FH         PUBLIC        DVR_Resolution
  X:0070H         PUBLIC        DVR_timebeginesmonth
  X:0071H         PUBLIC        Information
  X:007FH         PUBLIC        DVR_timebeginesweek
  X:0080H         PUBLIC        minute
  X:0081H         PUBLIC        DVR_RecordLength
  B:0022H.2       PUBLIC        DoorState
  X:0082H         PUBLIC        CommandBuffer
  X:0084H         PUBLIC        month
  X:0085H         PUBLIC        InformationLen
  B:0022H.3       PUBLIC        GetDVRStatusflag
  X:0086H         PUBLIC        DVR_daylightsaving
  X:0087H         PUBLIC        DVR_FPS
  X:0088H         PUBLIC        DVR_RecordMode
  X:0089H         PUBLIC        DVR_RecordStatus
  X:008AH         PUBLIC        DVR_Quality
  X:008BH         PUBLIC        day
  X:008CH         PUBLIC        hour
  B:0022H.4       PUBLIC        DVR_Ready
  X:008DH         PUBLIC        DVR_standardtimebeginesWeek
  X:008EH         PUBLIC        DVR_standardtimebeginesTime
  C:8FD2H         PUBLIC        Send_PelcoD_Command
  X:008FH         PUBLIC        DVR_PostAlarmLength
  X:0090H         PUBLIC        DVR_PreAlarmLength
  D:008DH         PUBLIC        TH1
  X:0091H         PUBLIC        DVR_sandardtimebeginesMonth
  C:57C3H         PUBLIC        _CAM_TxCommand_toRS485
  X:0092H         PUBLIC        SerialNumber
  X:0093H         PUBLIC        DVR_System
  C:8F51H         PUBLIC        Send_PelcoP_Command
  X:0094H         PUBLIC        DVRVersion
  X:00A5H         PUBLIC        TriggerStatus
  X:00A6H         PUBLIC        PresetNumber
  X:00A7H         PUBLIC        year1
  X:00A8H         PUBLIC        year2
  X:00A9H         PUBLIC        DVR_SDCardAvailable
  D:00BAH         PUBLIC        S2BRT
  X:00AAH         PUBLIC        GPSState
  X:00ABH         PUBLIC        DVR_Busy
  X:00ACH         PUBLIC        DVR_timebeginesTime
  X:00ADH         PUBLIC        FormatStatus
  X:00AEH         PUBLIC        DVRVersionLen
  X:00AFH         PUBLIC        gb_P_Com
  X:00B1H         PUBLIC        DVR_OverWrite
BL51 BANKED LINKER/LOCATER V6.22                                                      04/22/2015  16:23:43  PAGE 135


  X:00B2H         PUBLIC        gb_PTZ_Speed
  X:00B3H         PUBLIC        DVR_TimeZone
  C:A09EH         SYMBOL        Com005D
  C:A09EH         SYMBOL        L?0094
  C:A09EH         SYMBOL        L?0095
  C:A0A5H         SYMBOL        L?0096
  C:A0A5H         SYMBOL        L?0097
  C:A0A8H         SYMBOL        L?0098
  C:A0B0H         SYMBOL        L?0099
  C:A0B0H         SYMBOL        L?0100
  C:A0B9H         SYMBOL        L?0101
  C:A0B9H         SYMBOL        L?0102
  C:A0C2H         SYMBOL        L?0103
  C:A0C2H         SYMBOL        L?0104
  C:A0C9H         SYMBOL        L?0105
  -------         PROC          COM005D
  -------         ENDPROC       COM005D
  -------         PROC          _CAM_TXCOMMAND_TORS485
  X:0006H         SYMBOL        Com_ID
  -------         DO            
  X:0007H         SYMBOL        j
  -------         ENDDO         
  C:57C3H         LINE#         994
  C:57C8H         LINE#         995
  C:57C8H         LINE#         1001
  C:57D8H         LINE#         1002
  C:57D8H         LINE#         1003
  C:57D8H         LINE#         1005
  C:57E7H         LINE#         1006
  C:57F4H         LINE#         1007
  C:57FAH         LINE#         1009
  C:5803H         LINE#         1010
  C:5809H         LINE#         1012
  C:5835H         LINE#         1013
  C:5835H         LINE#         1026
  C:5835H         LINE#         1027
  C:5835H         LINE#         1028
  C:583AH         LINE#         1029
  C:583AH         LINE#         1030
  C:583AH         LINE#         1031
  C:583AH         LINE#         1032
  C:583CH         LINE#         1040
  C:583CH         LINE#         1041
  C:5841H         LINE#         1042
  C:5841H         LINE#         1043
  C:5841H         LINE#         1044
  C:5841H         LINE#         1045
  C:5841H         LINE#         1046
  C:5844H         LINE#         1048
  C:5844H         LINE#         1049
  C:5844H         LINE#         1050
  C:584AH         LINE#         1051
  C:584BH         LINE#         1052
  C:584BH         LINE#         1053
  C:584BH         LINE#         1054
  C:584EH         LINE#         1112
  C:584EH         LINE#         1113
BL51 BANKED LINKER/LOCATER V6.22                                                      04/22/2015  16:23:43  PAGE 136


  C:584EH         LINE#         1114
  C:5853H         LINE#         1115
  C:5853H         LINE#         1119
  C:5853H         LINE#         1120
  C:5853H         LINE#         1121
  C:5855H         LINE#         1122
  C:5855H         LINE#         1123
  C:5855H         LINE#         1124
  C:585AH         LINE#         1125
  C:585AH         LINE#         1129
  C:585DH         LINE#         1130
  C:585DH         LINE#         1131
  C:585FH         LINE#         1132
  C:585FH         LINE#         1133
  C:585FH         LINE#         1134
  C:5865H         LINE#         1135
  C:5868H         LINE#         1136
  C:586EH         LINE#         1138
  C:5871H         LINE#         1139
  C:5872H         LINE#         1140
  C:5872H         LINE#         1141
  C:5874H         LINE#         1142
  C:5874H         LINE#         1143
  C:5874H         LINE#         1144
  C:587AH         LINE#         1145
  C:587DH         LINE#         1146
  C:5883H         LINE#         1148
  C:5886H         LINE#         1149
  C:588AH         LINE#         1150
  C:588AH         LINE#         1151
  C:588CH         LINE#         1152
  C:588CH         LINE#         1153
  C:588CH         LINE#         1154
  C:5892H         LINE#         1155
  C:5895H         LINE#         1156
  C:5898H         LINE#         1157
  C:589EH         LINE#         1159
  C:58A1H         LINE#         1160
  C:58A1H         LINE#         1161
  C:58A3H         LINE#         1162
  C:58A3H         LINE#         1163
  C:58A3H         LINE#         1164
  C:58A9H         LINE#         1165
  C:58ACH         LINE#         1166
  C:58AFH         LINE#         1167
  C:58B5H         LINE#         1169
  C:58B8H         LINE#         1170
  C:58B8H         LINE#         1171
  C:58BAH         LINE#         1172
  C:58BAH         LINE#         1173
  C:58BAH         LINE#         1174
  C:58BDH         LINE#         1175
  C:58BDH         LINE#         1176
  C:58C1H         LINE#         1177
  C:58C1H         LINE#         1178
  C:58C3H         LINE#         1179
  C:58C3H         LINE#         1180
BL51 BANKED LINKER/LOCATER V6.22                                                      04/22/2015  16:23:43  PAGE 137


  C:58C9H         LINE#         1181
  C:58CCH         LINE#         1182
  C:58CEH         LINE#         1183
  C:58D0H         LINE#         1184
  C:58D3H         LINE#         1185
  C:58D3H         LINE#         1216
  C:58D3H         LINE#         1217
  C:58D3H         LINE#         1218
  C:58D3H         LINE#         1220
  C:58E2H         LINE#         1221
  C:58EFH         LINE#         1222
  C:58F5H         LINE#         1224
  C:58FDH         LINE#         1226
  C:5929H         LINE#         1227
  C:5929H         LINE#         1240
  C:5929H         LINE#         1241
  C:5929H         LINE#         1242
  C:592EH         LINE#         1243
  C:592EH         LINE#         1244
  C:592EH         LINE#         1245
  C:592EH         LINE#         1246
  C:5930H         LINE#         1254
  C:5930H         LINE#         1255
  C:5935H         LINE#         1256
  C:5935H         LINE#         1257
  C:5935H         LINE#         1258
  C:5935H         LINE#         1259
  C:5935H         LINE#         1260
  C:5938H         LINE#         1262
  C:5938H         LINE#         1263
  C:5938H         LINE#         1264
  C:593EH         LINE#         1265
  C:593FH         LINE#         1266
  C:593FH         LINE#         1267
  C:593FH         LINE#         1268
  C:5942H         LINE#         1320
  C:5942H         LINE#         1321
  C:5942H         LINE#         1322
  C:5948H         LINE#         1323
  C:594BH         LINE#         1324
  C:5951H         LINE#         1326
  C:5954H         LINE#         1327
  C:5954H         LINE#         1328
  C:5954H         LINE#         1329
  C:5956H         LINE#         1330
  C:5956H         LINE#         1331
  C:5956H         LINE#         1332
  C:595CH         LINE#         1333
  C:595FH         LINE#         1334
  C:5965H         LINE#         1336
  C:5968H         LINE#         1337
  C:5969H         LINE#         1338
  C:5969H         LINE#         1339
  C:596BH         LINE#         1340
  C:596BH         LINE#         1341
  C:596BH         LINE#         1342
  C:5971H         LINE#         1343
BL51 BANKED LINKER/LOCATER V6.22                                                      04/22/2015  16:23:43  PAGE 138


  C:5974H         LINE#         1344
  C:5977H         LINE#         1345
  C:597DH         LINE#         1347
  C:5980H         LINE#         1348
  C:5980H         LINE#         1349
  C:5982H         LINE#         1350
  C:5982H         LINE#         1351
  C:5982H         LINE#         1352
  C:5988H         LINE#         1353
  C:598BH         LINE#         1354
  C:598EH         LINE#         1355
  C:5994H         LINE#         1357
  C:5997H         LINE#         1358
  C:5997H         LINE#         1359
  C:5999H         LINE#         1360
  C:5999H         LINE#         1361
  C:5999H         LINE#         1362
  C:599EH         LINE#         1363
  C:599EH         LINE#         1367
  C:59A5H         LINE#         1368
  C:59A5H         LINE#         1369
  C:59A7H         LINE#         1370
  C:59A7H         LINE#         1371
  C:59A7H         LINE#         1372
  C:59ACH         LINE#         1373
  C:59ACH         LINE#         1377
  C:59B3H         LINE#         1378
  C:59B3H         LINE#         1379
  C:59B5H         LINE#         1380
  C:59B5H         LINE#         1381
  C:59B5H         LINE#         1382
  C:59B8H         LINE#         1383
  C:59B8H         LINE#         1384
  C:59BCH         LINE#         1385
  C:59BCH         LINE#         1386
  C:59BEH         LINE#         1387
  C:59BEH         LINE#         1388
  C:59C4H         LINE#         1389
  C:59C7H         LINE#         1390
  C:59C9H         LINE#         1391
  C:59CBH         LINE#         1392
  C:59CEH         LINE#         1393
  C:59CEH         LINE#         1424
  C:59CEH         LINE#         1425
  C:59CEH         LINE#         1498
  C:59CEH         LINE#         1500
  -------         ENDPROC       _CAM_TXCOMMAND_TORS485
  -------         PROC          SEND_PELCOP_COMMAND
  -------         DO            
  X:0008H         SYMBOL        ii
  D:0004H         SYMBOL        j
  -------         ENDDO         
  C:8F51H         LINE#         1508
  C:8F51H         LINE#         1509
  C:8F51H         LINE#         1513
  C:8F59H         LINE#         1514
  C:8F5BH         LINE#         1515
BL51 BANKED LINKER/LOCATER V6.22                                                      04/22/2015  16:23:43  PAGE 139


  C:8F73H         LINE#         1521
  C:8F81H         LINE#         1522
  C:8F81H         LINE#         1523
  C:8F81H         LINE#         1524
  C:8F84H         LINE#         1525
  C:8F86H         LINE#         1526
  C:8F86H         LINE#         1527
  C:8F89H         LINE#         1528
  C:8F8BH         LINE#         1529
  C:8F8BH         LINE#         1530
  C:8F8EH         LINE#         1531
  C:8F8EH         LINE#         1532
  C:8F8EH         LINE#         1534
  C:8FA1H         LINE#         1535
  C:8FA8H         LINE#         1536
  C:8FB7H         LINE#         1537
  C:8FB7H         LINE#         1538
  C:8FBFH         LINE#         1539
  C:8FC7H         LINE#         1540
  C:8FCEH         LINE#         1541
  C:8FD1H         LINE#         1546
  -------         ENDPROC       SEND_PELCOP_COMMAND
  -------         PROC          SEND_PELCOD_COMMAND
  -------         DO            
  X:0008H         SYMBOL        ii
  D:0007H         SYMBOL        j
  -------         ENDDO         
  C:8FD2H         LINE#         1554
  C:8FD2H         LINE#         1555
  C:8FD2H         LINE#         1559
  C:8FDAH         LINE#         1560
  C:8FDCH         LINE#         1561
  C:8FECH         LINE#         1563
  C:8FFAH         LINE#         1564
  C:8FFAH         LINE#         1565
  C:8FFAH         LINE#         1566
  C:8FFDH         LINE#         1567
  C:8FFFH         LINE#         1568
  C:8FFFH         LINE#         1569
  C:9002H         LINE#         1570
  C:9004H         LINE#         1571
  C:9004H         LINE#         1572
  C:9007H         LINE#         1573
  C:9007H         LINE#         1574
  C:9007H         LINE#         1576
  C:901DH         LINE#         1577
  C:9024H         LINE#         1580
  C:9033H         LINE#         1581
  C:9033H         LINE#         1582
  C:903BH         LINE#         1583
  C:9043H         LINE#         1585
  C:904AH         LINE#         1586
  C:904DH         LINE#         1589
  -------         ENDPROC       SEND_PELCOD_COMMAND
  -------         ENDMOD        HS_DVRPROTOCOL

  -------         MODULE        ?C?COPY
BL51 BANKED LINKER/LOCATER V6.22                                                      04/22/2015  16:23:43  PAGE 140


  C:3F15H         PUBLIC        ?C?COPY
  -------         ENDMOD        ?C?COPY

  -------         MODULE        ?C?CLDPTR
  C:3F3BH         PUBLIC        ?C?CLDPTR
  -------         ENDMOD        ?C?CLDPTR

  -------         MODULE        ?C?CLDOPTR
  C:3F54H         PUBLIC        ?C?CLDOPTR
  -------         ENDMOD        ?C?CLDOPTR

  -------         MODULE        ?C?CSTPTR
  C:3F81H         PUBLIC        ?C?CSTPTR
  -------         ENDMOD        ?C?CSTPTR

  -------         MODULE        ?C?IMUL
  C:3F93H         PUBLIC        ?C?IMUL
  -------         ENDMOD        ?C?IMUL

  -------         MODULE        ?C?UIDIV
  C:3FA5H         PUBLIC        ?C?UIDIV
  -------         ENDMOD        ?C?UIDIV

  -------         MODULE        ?C?SIDIV
  C:3FFAH         PUBLIC        ?C?SIDIV
  -------         ENDMOD        ?C?SIDIV

  -------         MODULE        ?C?IILDX
  C:4030H         PUBLIC        ?C?IILDX
  -------         ENDMOD        ?C?IILDX

  -------         MODULE        ?C?ILDPTR
  C:4046H         PUBLIC        ?C?ILDPTR
  -------         ENDMOD        ?C?ILDPTR

  -------         MODULE        ?C?ILDOPTR
  C:4071H         PUBLIC        ?C?ILDOPTR
  -------         ENDMOD        ?C?ILDOPTR

  -------         MODULE        ?C?ISTPTR
  C:40A9H         PUBLIC        ?C?ISTPTR
  -------         ENDMOD        ?C?ISTPTR

  -------         MODULE        ?C?LMUL
  C:40C8H         PUBLIC        ?C?LMUL
  -------         ENDMOD        ?C?LMUL

  -------         MODULE        ?C?ULDIV
  C:4153H         PUBLIC        ?C?ULDIV
  -------         ENDMOD        ?C?ULDIV

  -------         MODULE        ?C?ULCMP
  C:41E5H         PUBLIC        ?C?ULCMP
  -------         ENDMOD        ?C?ULCMP

  -------         MODULE        ?C?SLSHR
  C:41F6H         PUBLIC        ?C?SLSHR
BL51 BANKED LINKER/LOCATER V6.22                                                      04/22/2015  16:23:43  PAGE 141


  -------         ENDMOD        ?C?SLSHR

  -------         MODULE        ?C?LLDPTR
  C:420AH         PUBLIC        ?C?LLDPTR
  -------         ENDMOD        ?C?LLDPTR

  -------         MODULE        ?C?LLDXDATA
  C:422AH         PUBLIC        ?C?LLDXDATA
  -------         ENDMOD        ?C?LLDXDATA

  -------         MODULE        ?C?LLDXDATA0
  C:4236H         PUBLIC        ?C?LLDXDATA0
  -------         ENDMOD        ?C?LLDXDATA0

  -------         MODULE        ?C?LSTXDATA
  C:4242H         PUBLIC        ?C?LSTXDATA
  -------         ENDMOD        ?C?LSTXDATA

  -------         MODULE        ?C?LSTKXDATA
  C:424EH         PUBLIC        ?C?LSTKXDATA
  -------         ENDMOD        ?C?LSTKXDATA

  -------         MODULE        ?C?OFFXADD
  C:427FH         PUBLIC        ?C?OFFXADD
  -------         ENDMOD        ?C?OFFXADD

  -------         MODULE        ?C?PLDXDATA
  C:428BH         PUBLIC        ?C?PLDXDATA
  -------         ENDMOD        ?C?PLDXDATA

  -------         MODULE        ?C?PLDIXDATA
  C:4294H         PUBLIC        ?C?PLDIXDATA
  -------         ENDMOD        ?C?PLDIXDATA

  -------         MODULE        ?C?PSTXDATA
  C:42ABH         PUBLIC        ?C?PSTXDATA
  -------         ENDMOD        ?C?PSTXDATA

  -------         MODULE        ?C?PLDCODE
  C:42B4H         PUBLIC        ?C?PLDCODE
  -------         ENDMOD        ?C?PLDCODE

  -------         MODULE        ?C?PLDPTR
  C:42C0H         PUBLIC        ?C?PLDPTR
  -------         ENDMOD        ?C?PLDPTR

  -------         MODULE        ?C?PLDOPTR
  C:42E0H         PUBLIC        ?C?PLDOPTR
  -------         ENDMOD        ?C?PLDOPTR

  -------         MODULE        ?C?CCASE
  C:4310H         PUBLIC        ?C?CCASE
  -------         ENDMOD        ?C?CCASE

  -------         MODULE        ABS
  C:A88EH         PUBLIC        _ABS
  -------         ENDMOD        ABS
BL51 BANKED LINKER/LOCATER V6.22                                                      04/22/2015  16:23:43  PAGE 142



  -------         MODULE        ?C?LLDIDATA
  C:4336H         PUBLIC        ?C?LLDIDATA
  -------         ENDMOD        ?C?LLDIDATA

  -------         MODULE        ?C?LLDPDATA
  C:4342H         PUBLIC        ?C?LLDPDATA
  -------         ENDMOD        ?C?LLDPDATA

  -------         MODULE        ?C?LLDCODE
  C:434EH         PUBLIC        ?C?LLDCODE
  -------         ENDMOD        ?C?LLDCODE

  -------         MODULE        ?C?PLDIDATA
  C:435EH         PUBLIC        ?C?PLDIDATA
  -------         ENDMOD        ?C?PLDIDATA

  -------         MODULE        ?C?PLDPDATA
  C:4367H         PUBLIC        ?C?PLDPDATA
  -------         ENDMOD        ?C?PLDPDATA

*** WARNING L13: RECURSIVE CALL TO SEGMENT
    SEGMENT: ?PR?CLEAROSDINFO?DISPINFO
    CALLER:  ?PR?DISPLAYINPUT?DISPINFO

*** WARNING L16: UNCALLED SEGMENT, IGNORED FOR OVERLAY PROCESS
    SEGMENT: ?PR?COMPOSITE4INPUT?TW88

*** WARNING L1: UNRESOLVED EXTERNAL SYMBOL
    SYMBOL:  COMPOSITE2INPUT
    MODULE:  .\Output\Main.obj (MAIN)

*** WARNING L2: REFERENCE MADE TO UNRESOLVED EXTERNAL
    SYMBOL:  COMPOSITE2INPUT
    MODULE:  .\Output\Main.obj (MAIN)
    ADDRESS: 84ADH

Program Size: data=107.6 xdata=264 code=43388
LINK/LOCATE RUN COMPLETE.  4 WARNING(S),  0 ERROR(S)
