BL51 BANKED LINKER/LOCATER V6.22                                                        12/15/2017  13:23:50  PAGE 1


BL51 BANKED LINKER/LOCATER V6.22, INVOKED BY:
C:\KEIL\C51\BIN\BL51.EXE .\Output\adc.obj, .\Output\cpu.obj, .\Output\dispinfo.obj, .\Output\etc_eep.obj, .\Output\I2c.o
>> bj, .\Output\keyremo.obj, .\Output\Main.obj, .\Output\Measure.obj, .\Output\Osdbasic.obj, .\Output\osdmenu.obj, .\Out
>> put\pc_eep.obj, .\Output\Printf.obj, .\Output\table.obj, .\Output\TW88.obj, .\Output\udfont.obj, .\Output\HS_keyremo.
>> obj, .\Output\HS_DisplayOSD.obj, .\Output\audio.obj, .\Output\Debug.obj, .\Output\HS_DVRProtocol.obj, .\Output\monito
>> r.obj TO .\Output\AWT-ML072S PRINT (.\Source\AWT-ML072S.m51) RAMSIZE (256)


MEMORY MODEL: LARGE


INPUT MODULES INCLUDED:
  .\Output\adc.obj (ADC)
  .\Output\cpu.obj (CPU)
  .\Output\dispinfo.obj (DISPINFO)
  .\Output\etc_eep.obj (ETC_EEP)
  .\Output\I2c.obj (I2C)
  .\Output\keyremo.obj (KEYREMO)
  .\Output\Main.obj (MAIN)
  .\Output\Measure.obj (MEASURE)
  .\Output\Osdbasic.obj (OSDBASIC)
  .\Output\osdmenu.obj (OSDMENU)
  .\Output\pc_eep.obj (PC_EEP)
  .\Output\Printf.obj (PRINTF)
  .\Output\table.obj (TABLE)
  .\Output\TW88.obj (TW88)
  .\Output\udfont.obj (UDFONT)
  .\Output\HS_keyremo.obj (HS_KEYREMO)
  .\Output\HS_DisplayOSD.obj (HS_DISPLAYOSD)
  .\Output\audio.obj (AUDIO)
  .\Output\Debug.obj (DEBUG)
  .\Output\HS_DVRProtocol.obj (HS_DVRPROTOCOL)
  .\Output\monitor.obj (MONITOR)
  C:\KEIL\C51\LIB\C51L.LIB (?C_STARTUP)
  C:\KEIL\C51\LIB\C51L.LIB (?C?COPY)
  C:\KEIL\C51\LIB\C51L.LIB (?C?CLDPTR)
  C:\KEIL\C51\LIB\C51L.LIB (?C?CLDOPTR)
  C:\KEIL\C51\LIB\C51L.LIB (?C?CSTPTR)
  C:\KEIL\C51\LIB\C51L.LIB (?C?IMUL)
  C:\KEIL\C51\LIB\C51L.LIB (?C?UIDIV)
  C:\KEIL\C51\LIB\C51L.LIB (?C?SIDIV)
  C:\KEIL\C51\LIB\C51L.LIB (?C?IILDX)
  C:\KEIL\C51\LIB\C51L.LIB (?C?ILDPTR)
  C:\KEIL\C51\LIB\C51L.LIB (?C?ILDOPTR)
  C:\KEIL\C51\LIB\C51L.LIB (?C?ISTPTR)
  C:\KEIL\C51\LIB\C51L.LIB (?C?LADD)
  C:\KEIL\C51\LIB\C51L.LIB (?C?LMUL)
  C:\KEIL\C51\LIB\C51L.LIB (?C?ULDIV)
  C:\KEIL\C51\LIB\C51L.LIB (?C?ULCMP)
  C:\KEIL\C51\LIB\C51L.LIB (?C?SLSHR)
  C:\KEIL\C51\LIB\C51L.LIB (?C?LLDPTR)
  C:\KEIL\C51\LIB\C51L.LIB (?C?LLDXDATA)
  C:\KEIL\C51\LIB\C51L.LIB (?C?LLDXDATA0)
  C:\KEIL\C51\LIB\C51L.LIB (?C?LSTXDATA)
  C:\KEIL\C51\LIB\C51L.LIB (?C?LSTKXDATA)
  C:\KEIL\C51\LIB\C51L.LIB (?C?OFFXADD)
  C:\KEIL\C51\LIB\C51L.LIB (?C?PLDXDATA)
  C:\KEIL\C51\LIB\C51L.LIB (?C?PLDIXDATA)
BL51 BANKED LINKER/LOCATER V6.22                                                      12/15/2017  13:23:50  PAGE 2


  C:\KEIL\C51\LIB\C51L.LIB (?C?PSTXDATA)
  C:\KEIL\C51\LIB\C51L.LIB (?C?PLDCODE)
  C:\KEIL\C51\LIB\C51L.LIB (?C?PLDPTR)
  C:\KEIL\C51\LIB\C51L.LIB (?C?PLDOPTR)
  C:\KEIL\C51\LIB\C51L.LIB (?C?CCASE)
  C:\KEIL\C51\LIB\C51L.LIB (ABS)
  C:\KEIL\C51\LIB\C51L.LIB (?C_INIT)
  C:\KEIL\C51\LIB\C51L.LIB (?C?LLDIDATA)
  C:\KEIL\C51\LIB\C51L.LIB (?C?LLDPDATA)
  C:\KEIL\C51\LIB\C51L.LIB (?C?LLDCODE)
  C:\KEIL\C51\LIB\C51L.LIB (?C?PLDIDATA)
  C:\KEIL\C51\LIB\C51L.LIB (?C?PLDPDATA)


LINK MAP OF MODULE:  .\Output\AWT-ML072S (ADC)


            TYPE    BASE      LENGTH    RELOCATION   SEGMENT NAME
            -----------------------------------------------------

            * * * * * * *   D A T A   M E M O R Y   * * * * * * *
            REG     0000H     0008H     ABSOLUTE     "REG BANK 0"
            REG     0008H     0008H     ABSOLUTE     "REG BANK 1"
            DATA    0010H     0010H     UNIT         ?DT?MAIN
            BIT     0020H.0   0001H.4   UNIT         ?BI?MAIN
            BIT     0021H.4   0000H.5   UNIT         ?BI?CPU
            BIT     0022H.1   0000H.5   UNIT         ?BI?HS_DVRPROTOCOL
            BIT     0022H.6   0000H.3   UNIT         ?BI?KEYREMO
            BIT     0023H.1   0000H.3   UNIT         ?BI?HS_KEYREMO
            BIT     0023H.4   0000H.3   UNIT         ?BI?MONITOR
            BIT     0023H.7   0000H.2   UNIT         ?BI?OSDMENU
            BIT     0024H.1   0000H.2   UNIT         _BIT_GROUP_
            BIT     0024H.3   0000H.1   UNIT         ?BI?HS_DISPLAYOSD
                    0024H.4   0000H.4                *** GAP ***
            DATA    0025H     0041H     UNIT         ?DT?CPU
            DATA    0066H     000AH     UNIT         ?DT?OSDBASIC
            DATA    0070H     0005H     UNIT         ?DT?KEYREMO
            DATA    0075H     0005H     UNIT         ?DT?OSDMENU
            DATA    007AH     0002H     UNIT         ?DT?DISPINFO
            DATA    007CH     0001H     UNIT         ?DT?MONITOR
            IDATA   007DH     0001H     UNIT         ?STACK

            * * * * * * *  X D A T A   M E M O R Y  * * * * * * *
            XDATA   0000H     0061H     UNIT         _XDATA_GROUP_
            XDATA   0061H     0048H     UNIT         ?XD?HS_DVRPROTOCOL
            XDATA   00A9H     003AH     UNIT         ?XD?MONITOR
            XDATA   00E3H     0020H     UNIT         ?XD?OSDMENU
            XDATA   0103H     0019H     UNIT         ?XD?MAIN
            XDATA   011CH     0017H     UNIT         ?XD?HS_KEYREMO
            XDATA   0133H     000DH     UNIT         ?XD?_TW2835COMMAND?CPU
            XDATA   0140H     000AH     UNIT         ?XD?KEYREMO
            XDATA   014AH     0009H     UNIT         ?XD?CPU
            XDATA   0153H     0005H     UNIT         ?XD?_SETSOURCEMODE?HS_KEYREMO
            XDATA   0158H     0004H     UNIT         ?XD?DISPINFO
            XDATA   015CH     0003H     UNIT         ?XD?TW88
            XDATA   015FH     0002H     UNIT         ?XD?DISPLAYHANDLER?DISPINFO
            XDATA   0161H     0002H     UNIT         ?XD?AUDIO
BL51 BANKED LINKER/LOCATER V6.22                                                      12/15/2017  13:23:50  PAGE 3



            * * * * * * *   C O D E   M E M O R Y   * * * * * * *
            CODE    0000H     0003H     ABSOLUTE     
            CODE    0003H     0008H     UNIT         ?PR?_RS_TX?CPU
            CODE    000BH     0003H     ABSOLUTE     
            CODE    000EH     0005H     UNIT         ?PR?SETLEFTSOURCE?HS_KEYREMO
            CODE    0013H     0003H     ABSOLUTE     
            CODE    0016H     000DH     UNIT         ?PR?I2CSTOP?I2C
            CODE    0023H     0003H     ABSOLUTE     
            CODE    0026H     0005H     UNIT         ?PR?SETRIGHTSOURCE?HS_KEYREMO
            CODE    002BH     0003H     ABSOLUTE     
            CODE    002EH     0035H     UNIT         ?PR?OSDHIGHMENU?OSDMENU
            CODE    0063H     0003H     ABSOLUTE     
            CODE    0066H     1821H     UNIT         ?CO?OSDMENU
            CODE    1887H     14F2H     UNIT         ?CO?UDFONT
            CODE    2D79H     09B2H     UNIT         ?PR?_SETITEMVALUE?OSDMENU
            CODE    372BH     0844H     UNIT         ?CO?CPU
            CODE    3F6FH     059FH     UNIT         ?CO?MONITOR
            CODE    450EH     0538H     UNIT         ?C?LIB_CODE
            CODE    4A46H     04F5H     UNIT         ?PR?CHECKKEYIN?KEYREMO
            CODE    4F3BH     040BH     UNIT         ?PR?MONITOR?MONITOR
            CODE    5346H     03CEH     UNIT         ?PR?OSDMENU
            CODE    5714H     03B1H     UNIT         ?PR?_DISPLAYOSDMENUONEITEM?OSDMENU
            CODE    5AC5H     0359H     UNIT         ?PR?DISPLAYINPUT?DISPINFO
            CODE    5E1EH     0321H     UNIT         ?PR?_DOPRINT?PRINTF
            CODE    613FH     02A0H     UNIT         ?CO?TABLE
            CODE    63DFH     0285H     UNIT         ?PR?_TRIGGERHANDLER?HS_KEYREMO
            CODE    6664H     0279H     UNIT         ?PR?_TW2835COMMAND?CPU
            CODE    68DDH     0250H     UNIT         ?PR?_GETITEMVALUE?OSDMENU
            CODE    6B2DH     0248H     UNIT         ?CO?KEYREMO
            CODE    6D75H     020CH     UNIT         ?PR?_CAM_TXCOMMAND_TORS485?HS_DVRPROTOCOL
            CODE    6F81H     01E3H     UNIT         ?PR?RESETOSDVALUE?OSDMENU
            CODE    7164H     01DAH     UNIT         ?CO?MAIN
            CODE    733EH     01C5H     UNIT         ?PR?_OSDCURSORMOVE?OSDMENU
            CODE    7503H     01BBH     UNIT         ?PR?_DRAWMENULIST?OSDMENU
            CODE    76BEH     01AFH     UNIT         ?PR?MONGETCOMMAND?MONITOR
            CODE    786DH     01ABH     UNIT         ?PR?DISPLAYHANDLER?DISPINFO
            CODE    7A18H     0184H     UNIT         ?CO?HS_KEYREMO
            CODE    7B9CH     0172H     UNIT         ?C_INITSEG
            CODE    7D0EH     0170H     UNIT         ?PR?OSDSELECT?OSDMENU
            CODE    7E7EH     0169H     UNIT         ?PR?_SETOSDPOSITIONMODE?OSDMENU
            CODE    7FE7H     0167H     UNIT         ?PR?DISPLAYINFO_OSD?OSDMENU
            CODE    814EH     015CH     UNIT         ?PR?TIMER0_INT?CPU
            CODE    82AAH     0150H     UNIT         ?PR?MONITOR
            CODE    83FAH     014CH     UNIT         ?CO?OSDBASIC
            CODE    8546H     0127H     UNIT         ?PR?_DISPLAYRAMFONT?OSDBASIC
            CODE    866DH     0127H     UNIT         ?PR?_OSDVALUEUPDN?OSDMENU
            CODE    8794H     0121H     UNIT         ?PR?_UTOA?OSDBASIC
            CODE    88B5H     0121H     UNIT         ?PR?_CHANGEVOL?AUDIO
            CODE    89D6H     011DH     UNIT         ?PR?MAIN_INIT?CPU
            CODE    8AF3H     0119H     UNIT         ?PR?LOADEEPROM?MAIN
            CODE    8C0CH     0110H     UNIT         ?CO?DISPINFO
            CODE    8D1CH     010CH     UNIT         ?PR?_DISPLAYINFORMATION?HS_DISPLAYOSD
            CODE    8E28H     0103H     UNIT         ?PR?MAIN_LOOP?MAIN
            CODE    8F2BH     0103H     UNIT         ?PR?_DISPLAYROMFONT?OSDBASIC
            CODE    902EH     00F2H     UNIT         ?PR?MONWRITEBIT?MONITOR
            CODE    9120H     00EDH     UNIT         ?PR?_SETVIDEOMODE?OSDMENU
BL51 BANKED LINKER/LOCATER V6.22                                                      12/15/2017  13:23:50  PAGE 4


            CODE    920DH     00E6H     UNIT         ?PR?DISPLAYGAUGEOSD?HS_DISPLAYOSD
            CODE    92F3H     00E2H     UNIT         ?PR?DISPLAYOSDMENU?OSDMENU
            CODE    93D5H     00E0H     UNIT         ?CO?HS_DISPLAYOSD
            CODE    94B5H     00DFH     UNIT         ?PR?_ADJUSTAUTODAYNIGHT?MAIN
            CODE    9594H     00DDH     UNIT         ?PR?DISPLAYCURSOR?OSDMENU
            CODE    9671H     00DDH     UNIT         ?PR?_DRAWNUM?OSDMENU
            CODE    974EH     00DDH     UNIT         ?PR?MONDUMPI2C?MONITOR
            CODE    982BH     00DAH     UNIT         ?PR?_ACTIONREMO?KEYREMO
            CODE    9905H     00D2H     UNIT         ?PR?_SET4WIDESCREEN?OSDMENU
            CODE    99D7H     00CFH     UNIT         ?PR?_DRAWSTRINGBYLANG?OSDMENU
            CODE    9AA6H     00CDH     UNIT         ?PR?DISPLAYVOL?DISPINFO
            CODE    9B73H     00C5H     UNIT         ?PR?CHECKDECODERINPUT?MAIN
            CODE    9C38H     00BEH     UNIT         ?PR?_CHANGEINPUT?MAIN
            CODE    9CF6H     00BCH     UNIT         ?PR?MONNEWDUMPI2C?MONITOR
            CODE    9DB2H     00BAH     UNIT         ?PR?_INITVIDEODATA?MAIN
            CODE    9E6CH     00B6H     UNIT         ?PR?CHECKMIRROR?HS_KEYREMO
            CODE    9F22H     00B1H     UNIT         ?PR?_LCDPOWERON?TW88
            CODE    9FD3H     00ADH     UNIT         ?PR?_SETPCCOLOR?OSDMENU
            CODE    A080H     00A9H     UNIT         ?PR?OSDBASIC
            CODE    A129H     00A9H     UNIT         ?PR?OSDHIGHMENU_SUB?OSDMENU
            CODE    A1D2H     00A7H     UNIT         ?PR?VLOSSHANDLER?DISPINFO
            CODE    A279H     00A5H     UNIT         ?PR?_MAPPING1?TW88
            CODE    A31EH     00A3H     UNIT         ?PR?_SETVIDEOSHARPNESS?OSDMENU
            CODE    A3C1H     00A3H     UNIT         ?PR?_DISPLAYVIEWBAR?OSDMENU
            CODE    A464H     00A2H     UNIT         ?PR?_INITOSDWINDOW?OSDBASIC
            CODE    A506H     00A2H     UNIT         ?PR?MONHELP?MONITOR
            CODE    A5A8H     009EH     UNIT         ?PR?_CHANGEVIDEODATA?OSDMENU
            CODE    A646H     009CH     UNIT         ?PR?CHECKANDCLEAROSD?DISPINFO
            CODE    A6E2H     009BH     UNIT         ?PR?_DISPLAYVOLUMEBAR?OSDMENU
            CODE    A77DH     0094H     UNIT         ?PR?_DOACTION?OSDMENU
            CODE    A811H     0090H     UNIT         ?PR?MAIN?MAIN
            CODE    A8A1H     0090H     UNIT         ?PR?SETSELECTMODE?HS_KEYREMO
            CODE    A931H     008CH     UNIT         ?C_C51STARTUP
            CODE    A9BDH     008BH     UNIT         ?PR?INITTECHWELL?CPU
            CODE    AA48H     0088H     UNIT         ?PR?SETPOSSIBLEAUTODETECTSTDEE?ETC_EEP
            CODE    AAD0H     0086H     UNIT         ?PR?_AWT_DISPLAYVIEWBAR?OSDMENU
            CODE    AB56H     0083H     UNIT         ?PR?INITOSDMENU?OSDMENU
            CODE    ABD9H     0081H     UNIT         ?PR?SEND_PELCOP_COMMAND?HS_DVRPROTOCOL
            CODE    AC5AH     007DH     UNIT         ?PR?_HS_DISPLAY2835CLKTUNEVAL?KEYREMO
            CODE    ACD7H     007DH     UNIT         ?PR?MONWRITEI2C?MONITOR
            CODE    AD54H     007CH     UNIT         ?PR?SEND_PELCOD_COMMAND?HS_DVRPROTOCOL
            CODE    ADD0H     007CH     UNIT         ?PR?_MONINCDECI2C?MONITOR
            CODE    AE4CH     007BH     UNIT         ?PR?_SETPCCOLORTEMP?OSDMENU
            CODE    AEC7H     007BH     UNIT         ?PR?CHECKTRIGGER?HS_KEYREMO
            CODE    AF42H     0078H     UNIT         ?PR?_SETVIDEOSATURATION?OSDMENU
            CODE    AFBAH     0072H     UNIT         ?PR?_A2I?MONITOR
            CODE    B02CH     006DH     UNIT         ?PR?WAITPOWERON?MAIN
            CODE    B099H     0069H     UNIT         ?PR?_I2CWRITEDATA?I2C
            CODE    B102H     0069H     UNIT         ?PR?_SETVIDEOBACKLIGHT?OSDMENU
            CODE    B16BH     0068H     UNIT         ?PR?_SETRGBCONTRAST?OSDMENU
            CODE    B1D3H     0066H     UNIT         ?PR?RESETVIDEOVALUE?OSDMENU
            CODE    B239H     0064H     UNIT         ?PR?_CHECKSOURCEMODE?HS_KEYREMO
            CODE    B29DH     0061H     UNIT         ?PR?GETFWREVEE?ETC_EEP
            CODE    B2FEH     0060H     UNIT         ?PR?TW88
            CODE    B35EH     005FH     UNIT         ?PR?CLEAROSDINFO?DISPINFO
            CODE    B3BDH     005EH     UNIT         ?PR?_DOWNLOADFONT?OSDBASIC
            CODE    B41BH     005EH     UNIT         ?PR?INITOSDMENUXY?OSDMENU
BL51 BANKED LINKER/LOCATER V6.22                                                      12/15/2017  13:23:50  PAGE 5


            CODE    B479H     005BH     UNIT         ?PR?CHANGE_OSDCOLORLOOKUP?OSDBASIC
            CODE    B4D4H     005BH     UNIT         ?PR?PRINTF
            CODE    B52FH     0059H     UNIT         ?PR?GETVINPUTSTDINX?MAIN
            CODE    B588H     0058H     UNIT         ?PR?_GETKEY?KEYREMO
            CODE    B5E0H     0058H     UNIT         ?PR?CHECKPANELIMAGE?OSDMENU
            CODE    B638H     0058H     UNIT         ?PR?_SETVIDEOHUE?OSDMENU
            CODE    B690H     0058H     UNIT         ?CO?TW88
            CODE    B6E8H     0057H     UNIT         ?PR?_GETOSDWINDOWY?OSDBASIC
            CODE    B73FH     0056H     UNIT         ?PR?DETECTDECODERINPUT?TW88
            CODE    B795H     0055H     UNIT         ?PR?MONNEWWRITEI2C?MONITOR
            CODE    B7EAH     0053H     UNIT         ?PR?_SETSOURCEMODE?HS_KEYREMO
            CODE    B83DH     0052H     UNIT         ?PR?DISPINFO
            CODE    B88FH     0051H     UNIT         ?PR?SETJUMPMODE?HS_KEYREMO
            CODE    B8E0H     0050H     UNIT         ?PR?CPU
            CODE    B930H     004FH     UNIT         ?PR?INITCPU?CPU
            CODE    B97FH     004FH     UNIT         ?PR?_I2CDEVICEINITIALIZE?MAIN
            CODE    B9CEH     004EH     UNIT         ?PR?MONREADI2C?MONITOR
            CODE    BA1CH     004DH     UNIT         ?PR?CLEARCURSOR?OSDMENU
            CODE    BA69H     004DH     UNIT         ?PR?_CAMOUTDSEL?OSDMENU
            CODE    BAB6H     004BH     UNIT         ?PR?_GETOSDWINDOWX?OSDBASIC
            CODE    BB01H     004BH     UNIT         ?PR?MONNEWREADI2C?MONITOR
            CODE    BB4CH     0048H     UNIT         ?PR?_WAIT_MS?CPU
            CODE    BB94H     0047H     UNIT         ?PR?_WRITEEEP?I2C
            CODE    BBDBH     0045H     UNIT         ?PR?_GETLOWERMENUITEM?OSDMENU
            CODE    BC20H     0044H     UNIT         ?PR?_SAVEFWREVEE?ETC_EEP
            CODE    BC64H     0044H     UNIT         ?PR?_SHOWOSDWINDOW_TW88?OSDBASIC
            CODE    BCA8H     0042H     UNIT         ?PR?_SETOSDWINDOWY_TW88?OSDBASIC
            CODE    BCEAH     0041H     UNIT         ?PR?_WRITEI2CN?I2C
            CODE    BD2BH     0041H     UNIT         ?PR?_GETTARGETCHILD?OSDMENU
            CODE    BD6CH     003FH     UNIT         ?PR?_SETOSDWINDOWX_TW88?OSDBASIC
            CODE    BDABH     003EH     UNIT         ?PR?_WRITEI2CND?I2C
            CODE    BDE9H     003EH     UNIT         ?PR?CLOSEOSDMENU?OSDMENU
            CODE    BE27H     003EH     UNIT         ?PR?SETREARSOURCE?HS_KEYREMO
            CODE    BE65H     003DH     UNIT         ?PR?GETTIME_MS?CPU
            CODE    BEA2H     003DH     UNIT         ?PR?MONTXDUMP?MONITOR
            CODE    BEDFH     003CH     UNIT         ?PR?HS_KEYREMO
            CODE    BF1BH     003CH     UNIT         ?PR?_STRICMP?MONITOR
            CODE    BF57H     003AH     UNIT         ?PR?HS_DISPLAYOSD
            CODE    BF91H     0039H     UNIT         ?PR?_READI2C?I2C
            CODE    BFCAH     0039H     UNIT         ?PR?_WRITEI2CN_?I2C
            CODE    C003H     0039H     UNIT         ?PR?_SETVINPUTSTD?MAIN
            CODE    C03CH     0039H     UNIT         ?PR?_ASC2BIN?MONITOR
            CODE    C075H     0038H     UNIT         ?PR?DOWNLOADUDFONT?OSDBASIC
            CODE    C0ADH     0038H     UNIT         ?PR?LCDPOWER?TW88
            CODE    C0E5H     0035H     UNIT         ?PR?HS_DVRPROTOCOL
            CODE    C11AH     0034H     UNIT         ?PR?SERIAL_INT?CPU
            CODE    C14EH     0034H     UNIT         ?PR?OPENOSDMENU?OSDMENU
            CODE    C182H     0034H     UNIT         ?PR?SEQMODE?HS_KEYREMO
            CODE    C1B6H     0034H     UNIT         ?PR?SETNOWMODE?HS_KEYREMO
            CODE    C1EAH     0034H     UNIT         ?PR?_ASC1BIN?MONITOR
            CODE    C21EH     0033H     UNIT         ?PR?REMOMENU_MENUKEY?KEYREMO
            CODE    C251H     0033H     UNIT         ?PR?MAIN
            CODE    C284H     0033H     UNIT         ?PR?_WRITESTRINGTOADDR?OSDBASIC
            CODE    C2B7H     0031H     UNIT         ?PR?SERIAL2_INT?CPU
            CODE    C2E8H     0031H     UNIT         ?PR?_DRAWATTRCNT?OSDBASIC
            CODE    C319H     0030H     UNIT         ?PR?I2CREADDATA?I2C
            CODE    C349H     0030H     UNIT         ?PR?_SETVIDEOBRIGHTNESS?OSDMENU
BL51 BANKED LINKER/LOCATER V6.22                                                      12/15/2017  13:23:50  PAGE 6


            CODE    C379H     0030H     UNIT         ?PR?_GET_CURSOR_ITEM?OSDMENU
            CODE    C3A9H     002FH     UNIT         ?PR?_SHOWOSDWINDOWALL?OSDBASIC
            CODE    C3D8H     002EH     UNIT         ?PR?CLEARTVINFO?DISPINFO
            CODE    C406H     002DH     UNIT         ?PR?WAITENDOFDISPLAYAREA?OSDBASIC
            CODE    C433H     002DH     UNIT         ?PR?_CLEARDATACNT?OSDBASIC
            CODE    C460H     002CH     UNIT         ?PR?PUSHMENU?OSDMENU
            CODE    C48CH     002CH     UNIT         ?CO?HS_DVRPROTOCOL
            CODE    C4B8H     0029H     UNIT         ?PR?_SETVIDEOCONTRAST?OSDMENU
            CODE    C4E1H     0028H     UNIT         ?PR?SAVEVALUE1?OSDMENU
            CODE    C509H     0027H     UNIT         ?PR?CLEARBASICEE?ETC_EEP
            CODE    C530H     0027H     UNIT         ?PR?_PRINTF?PRINTF
            CODE    C557H     0026H     UNIT         ?PR?_READEEP?I2C
            CODE    C57DH     0026H     UNIT         ?PR?_WRITEI2C?I2C
            CODE    C5A3H     0023H     UNIT         ?PR?READVINPUTSTD?MAIN
            CODE    C5C6H     0020H     UNIT         ?PR?SETAUTODETECTSTD?TW88
            CODE    C5E6H     001FH     UNIT         ?PR?_DIFFTIME_MS?CPU
            CODE    C605H     001FH     UNIT         ?PR?GETNEXTINPUTSELECTION?MAIN
            CODE    C624H     001FH     UNIT         ?PR?PROMPT?MONITOR
            CODE    C643H     001EH     UNIT         ?PR?INITVARS?CPU
            CODE    C661H     001EH     UNIT         ?PR?_POWERLED?CPU
            CODE    C67FH     001EH     UNIT         ?PR?I2C
            CODE    C69DH     001DH     UNIT         ?PR?_SETLANGUAGE?OSDMENU
            CODE    C6BAH     001DH     UNIT         ?PR?_CLEARAUTODETECTSTD?TW88
            CODE    C6D7H     001CH     UNIT         ?PR?POPMENU?OSDMENU
            CODE    C6F3H     001CH     UNIT         ?PR?_GETNEXTCURSORMENUITEM?OSDMENU
            CODE    C70FH     001CH     UNIT         ?PR?COMPOSITE1INPUT?TW88
            CODE    C72BH     001CH     UNIT         ?PR?COMPOSITE2INPUT?TW88
            CODE    C747H     001CH     UNIT         ?PR?COMPOSITE3INPUT?TW88
            CODE    C763H     001CH     UNIT         ?PR?_TOUPPER?MONITOR
            CODE    C77FH     001BH     UNIT         ?PR?REMOVOLUP_RIGHTKEY?KEYREMO
            CODE    C79AH     001BH     UNIT         ?PR?REMOVOLDN_LEFTKEY?KEYREMO
            CODE    C7B5H     001BH     UNIT         ?PR?_STRLEN?OSDBASIC
            CODE    C7D0H     001BH     UNIT         ?PR?_PUTS?PRINTF
            CODE    C7EBH     0019H     UNIT         ?CO?AUDIO
            CODE    C804H     0018H     UNIT         ?PR?RS_RX?CPU
            CODE    C81CH     0018H     UNIT         ?PR?_DELAY?CPU
            CODE    C834H     0016H     UNIT         ?PR?CLEARINPUT?DISPINFO
            CODE    C84AH     0012H     UNIT         ?PR?I2CSTART?I2C
            CODE    C85CH     0011H     UNIT         ?PR?KEYREMO
            CODE    C86DH     0011H     UNIT         ?PR?ISNOINPUT?MAIN
            CODE    C87EH     0011H     UNIT         ?PR?GETOSDLANG?OSDMENU
            CODE    C88FH     0011H     UNIT         ?CO?PRINTF
            CODE    C8A0H     0010H     UNIT         ?PR?HS_INITVARS?MAIN
            CODE    C8B0H     000FH     UNIT         ?PR?TIMER2_INT?CPU
            CODE    C8BFH     000FH     UNIT         ?PR?CLEARVLOSSOSD?DISPINFO
            CODE    C8CEH     000FH     UNIT         ?PR?CLEARMUTEINFO?DISPINFO
            CODE    C8DDH     000FH     UNIT         ?PR?POWEROFF?MAIN
            CODE    C8ECH     000FH     UNIT         ?PR?CLEARGAUGEINFO?HS_DISPLAYOSD
            CODE    C8FBH     000DH     UNIT         ?PR?REMOCHNUP_UPKEY?KEYREMO
            CODE    C908H     000DH     UNIT         ?PR?REMOCHNDN_DNKEY?KEYREMO
            CODE    C915H     000CH     UNIT         ?PR?_CLEARDISPLAYEDOSD?DISPINFO
            CODE    C921H     000CH     UNIT         ?PR?SETOSDLASTKEYINTIME?MAIN
            CODE    C92DH     000CH     UNIT         ?PR?CLEARVALUEWIN?OSDMENU
            CODE    C939H     000CH     UNIT         ?PR?_ABS?ABS
            CODE    C945H     000BH     UNIT         ?PR?RS_READY?CPU
            CODE    C950H     000BH     UNIT         ?PR?_GETVIDEODATAFROMEE?ETC_EEP
            CODE    C95BH     000AH     UNIT         ?PR?CLEARINPUT2S?DISPINFO
BL51 BANKED LINKER/LOCATER V6.22                                                      12/15/2017  13:23:50  PAGE 7


            CODE    C965H     0009H     UNIT         ?PR?_SAVEDEBUGLEVELEE?ETC_EEP
            CODE    C96EH     0009H     UNIT         ?PR?_SAVEWIDEMODEEE?ETC_EEP
            CODE    C977H     0009H     UNIT         ?PR?_SAVEOSDPOSITIONMODEEE?ETC_EEP
            CODE    C980H     0009H     UNIT         ?PR?_SAVEVIDEODATATOEE?ETC_EEP
            CODE    C989H     0009H     UNIT         ?PR?_SAVEINPUTSELECTIONEE?ETC_EEP
            CODE    C992H     0009H     UNIT         ?PR?_SAVEOSDLANGEE?ETC_EEP
            CODE    C99BH     0009H     UNIT         ?PR?_SETAUDIOVOLEE?ETC_EEP
            CODE    C9A4H     0009H     UNIT         ?PR?_SETPCAUDIOVOLEE?ETC_EEP
            CODE    C9ADH     0009H     UNIT         ?PR?POWERDOWN_XTAL?MAIN
            CODE    C9B6H     0009H     UNIT         ?PR?GETOSDLASTKEYINTIME?MAIN
            CODE    C9BFH     0009H     UNIT         ?PR?_GETUPPERMENUITEM?OSDMENU
            CODE    C9C8H     0009H     UNIT         ?PR?AUDIOMUTE?AUDIO
            CODE    C9D1H     0008H     UNIT         ?PR?_RS2_TX?CPU
            CODE    C9D9H     0008H     UNIT         ?PR?GETDEBUGLEVELEE?ETC_EEP
            CODE    C9E1H     0008H     UNIT         ?PR?GETWIDEMODEEE?ETC_EEP
            CODE    C9E9H     0008H     UNIT         ?PR?GETPOSSIBLEAUTODETECTSTDEE?ETC_EEP
            CODE    C9F1H     0008H     UNIT         ?PR?GETOSDPOSITIONMODEEE?ETC_EEP
            CODE    C9F9H     0008H     UNIT         ?PR?GETOSDLANGEE?ETC_EEP
            CODE    CA01H     0008H     UNIT         ?PR?GETAUDIOVOLEE?ETC_EEP
            CODE    CA09H     0008H     UNIT         ?PR?GETPCAUDIOVOLEE?ETC_EEP
            CODE    CA11H     0007H     UNIT         ?PR?_SETDISPLAYEDOSD?DISPINFO
            CODE    CA18H     0007H     UNIT         ?PR?_GETVIDEODATAWITHOFFSET?OSDMENU
            CODE    CA1FH     0006H     UNIT         ?PR?GETDISPLAYEDOSD?DISPINFO
            CODE    CA25H     0006H     UNIT         ?PR?GETVINPUTSTD?MAIN
            CODE    CA2BH     0006H     UNIT         ?PR?GETINPUTSELECTION?MAIN
            CODE    CA31H     0004H     UNIT         ?PR?GETOSDPOSITIONMODE?OSDMENU
            CODE    CA35H     0003H     UNIT         ?PR?EXT1_INT?CPU
            CODE    CA38H     0003H     UNIT         ?PR?ISINPUTANALOGRGB?OSDMENU
            CODE    CA3BH     0003H     UNIT         ?PR?_MON_TX?MONITOR
            CODE    CA3EH     0003H     UNIT         ?PR?_SETMONADDRESS?MONITOR
            CODE    CA41H     0001H     UNIT         ?PR?DD?I2C
            CODE    CA42H     0001H     UNIT         ?PR?ON_LVDS?TW88
            CODE    CA43H     0001H     UNIT         ?PR?OFF_LVDS?TW88



OVERLAY MAP OF MODULE:   .\Output\AWT-ML072S (ADC)


SEGMENT                                             BIT_GROUP          XDATA_GROUP
  +--> CALLED SEGMENT                            START    LENGTH     START    LENGTH
------------------------------------------------------------------------------------
?C_C51STARTUP                                    -----    -----      -----    -----
  +--> ?PR?MAIN?MAIN
  +--> ?C_INITSEG

?PR?MAIN?MAIN                                    -----    -----      -----    -----
  +--> ?PR?AUDIOMUTE?AUDIO
  +--> ?PR?_WAIT_MS?CPU
  +--> ?PR?INITCPU?CPU
  +--> ?PR?_POWERLED?CPU
  +--> ?PR?INITVARS?CPU
  +--> ?PR?HS_INITVARS?MAIN
  +--> ?PR?INITTECHWELL?CPU
  +--> ?PR?_SETMONADDRESS?MONITOR
  +--> ?PR?MAIN_INIT?CPU
  +--> ?PR?LOADEEPROM?MAIN
BL51 BANKED LINKER/LOCATER V6.22                                                      12/15/2017  13:23:50  PAGE 8


  +--> ?PR?_READEEP?I2C
  +--> ?PR?_CAMOUTDSEL?OSDMENU
  +--> ?CO?MAIN
  +--> ?PR?_PRINTF?PRINTF
  +--> ?PR?_LCDPOWERON?TW88
  +--> ?PR?_SET4WIDESCREEN?OSDMENU
  +--> ?PR?_DELAY?CPU
  +--> ?PR?_WRITEI2C?I2C
  +--> ?PR?MAIN_LOOP?MAIN
  +--> ?PR?WAITPOWERON?MAIN

?PR?AUDIOMUTE?AUDIO                              0024H.1  0000H.1    -----    -----

?PR?_WAIT_MS?CPU                                 -----    -----      0018H    0004H

?PR?INITVARS?CPU                                 -----    -----      -----    -----
  +--> ?PR?_DELAY?CPU
  +--> ?PR?POWERDOWN_XTAL?MAIN

?PR?POWERDOWN_XTAL?MAIN                          0024H.1  0000H.1    -----    -----

?PR?INITTECHWELL?CPU                             -----    -----      -----    -----
  +--> ?PR?_READI2C?I2C
  +--> ?CO?CPU
  +--> ?PR?_PUTS?PRINTF
  +--> ?PR?_PRINTF?PRINTF
  +--> ?PR?RS_READY?CPU
  +--> ?PR?_DELAY?CPU
  +--> ?PR?CPU

?PR?_READI2C?I2C                                 -----    -----      0034H    0003H
  +--> ?PR?I2CSTART?I2C
  +--> ?PR?_I2CWRITEDATA?I2C
  +--> ?PR?I2CREADDATA?I2C
  +--> ?PR?I2CSTOP?I2C

?PR?I2CSTART?I2C                                 -----    -----      -----    -----
  +--> ?PR?DD?I2C

?PR?_I2CWRITEDATA?I2C                            -----    -----      -----    -----
  +--> ?PR?I2C

?PR?I2C                                          -----    -----      -----    -----
  +--> ?PR?DD?I2C

?PR?I2CREADDATA?I2C                              -----    -----      -----    -----
  +--> ?PR?DD?I2C

?PR?I2CSTOP?I2C                                  -----    -----      -----    -----
  +--> ?PR?DD?I2C

?PR?_PUTS?PRINTF                                 -----    -----      0013H    0003H
  +--> ?PR?PRINTF
  +--> ?PR?_RS_TX?CPU

?PR?_PRINTF?PRINTF                               -----    -----      001EH    002EH
  +--> ?PR?_DOPRINT?PRINTF
BL51 BANKED LINKER/LOCATER V6.22                                                      12/15/2017  13:23:50  PAGE 9



?PR?_DOPRINT?PRINTF                              0024H.1  0000H.2    004CH    0015H
  +--> ?PR?PRINTF
  +--> ?CO?PRINTF

?PR?MAIN_INIT?CPU                                -----    -----      0000H    0002H
  +--> ?PR?_WRITEI2C?I2C
  +--> ?PR?GETFWREVEE?ETC_EEP
  +--> ?PR?CPU
  +--> ?CO?CPU
  +--> ?PR?_PRINTF?PRINTF
  +--> ?PR?_SAVEFWREVEE?ETC_EEP
  +--> ?PR?_SAVEDEBUGLEVELEE?ETC_EEP
  +--> ?PR?_SAVEINPUTSELECTIONEE?ETC_EEP
  +--> ?PR?CLEARBASICEE?ETC_EEP
  +--> ?PR?GETDEBUGLEVELEE?ETC_EEP
  +--> ?PR?_SETVINPUTSTD?MAIN
  +--> ?PR?_LCDPOWERON?TW88
  +--> ?PR?_READEEP?I2C
  +--> ?PR?SETPOSSIBLEAUTODETECTSTDEE?ETC_EEP
  +--> ?PR?CHANGE_OSDCOLORLOOKUP?OSDBASIC
  +--> ?PR?DOWNLOADUDFONT?OSDBASIC
  +--> ?PR?_DISPLAYINFORMATION?HS_DISPLAYOSD
  +--> ?PR?_DELAY?CPU
  +--> ?PR?CLEARGAUGEINFO?HS_DISPLAYOSD
  +--> ?PR?PROMPT?MONITOR

?PR?_WRITEI2C?I2C                                -----    -----      0055H    0003H
  +--> ?PR?I2C
  +--> ?PR?I2CSTART?I2C
  +--> ?PR?_I2CWRITEDATA?I2C
  +--> ?PR?I2CSTOP?I2C

?PR?GETFWREVEE?ETC_EEP                           -----    -----      0002H    0002H
  +--> ?PR?_READEEP?I2C

?PR?_READEEP?I2C                                 -----    -----      0033H    0001H
  +--> ?PR?_READI2C?I2C
  +--> ?PR?_DELAY?CPU

?PR?_SAVEFWREVEE?ETC_EEP                         -----    -----      0002H    0002H
  +--> ?PR?_WRITEEEP?I2C

?PR?_WRITEEEP?I2C                                -----    -----      0028H    0004H
  +--> ?PR?I2CSTART?I2C
  +--> ?PR?_I2CWRITEDATA?I2C
  +--> ?PR?I2CSTOP?I2C
  +--> ?PR?_DELAY?CPU

?PR?_SAVEDEBUGLEVELEE?ETC_EEP                    -----    -----      -----    -----
  +--> ?PR?_WRITEEEP?I2C

?PR?_SAVEINPUTSELECTIONEE?ETC_EEP                -----    -----      -----    -----
  +--> ?PR?_WRITEEEP?I2C

?PR?CLEARBASICEE?ETC_EEP                         -----    -----      -----    -----
  +--> ?PR?_WRITEEEP?I2C
BL51 BANKED LINKER/LOCATER V6.22                                                      12/15/2017  13:23:50  PAGE 10


  +--> ?PR?RESETOSDVALUE?OSDMENU
  +--> ?PR?RESETVIDEOVALUE?OSDMENU
  +--> ?PR?_SET4WIDESCREEN?OSDMENU

?PR?RESETOSDVALUE?OSDMENU                        -----    -----      -----    -----
  +--> ?CO?OSDMENU
  +--> ?PR?_SAVEOSDPOSITIONMODEEE?ETC_EEP
  +--> ?PR?_READEEP?I2C
  +--> ?PR?_WRITEEEP?I2C
  +--> ?PR?_CHANGEVOL?AUDIO
  +--> ?PR?_CAMOUTDSEL?OSDMENU
  +--> ?PR?_PUTS?PRINTF
  +--> ?PR?_CLEARDATACNT?OSDBASIC
  +--> ?PR?LOADEEPROM?MAIN
  +--> ?PR?_SAVEOSDLANGEE?ETC_EEP
  +--> ?PR?INITOSDMENU?OSDMENU
  +--> ?PR?CHECKMIRROR?HS_KEYREMO

?PR?_SAVEOSDPOSITIONMODEEE?ETC_EEP               -----    -----      -----    -----
  +--> ?PR?_WRITEEEP?I2C

?PR?_CHANGEVOL?AUDIO                             -----    -----      0012H    0002H
  +--> ?PR?AUDIOMUTE?AUDIO
  +--> ?CO?OSDMENU
  +--> ?PR?_WRITEI2C?I2C
  +--> ?CO?AUDIO
  +--> ?PR?_SETPCAUDIOVOLEE?ETC_EEP
  +--> ?PR?_SETAUDIOVOLEE?ETC_EEP
  +--> ?PR?_PRINTF?PRINTF

?PR?_SETPCAUDIOVOLEE?ETC_EEP                     -----    -----      -----    -----
  +--> ?PR?_WRITEEEP?I2C

?PR?_SETAUDIOVOLEE?ETC_EEP                       -----    -----      -----    -----
  +--> ?PR?_WRITEEEP?I2C

?PR?_CAMOUTDSEL?OSDMENU                          -----    -----      0009H    0001H
  +--> ?CO?OSDMENU
  +--> ?PR?_PUTS?PRINTF

?PR?_CLEARDATACNT?OSDBASIC                       -----    -----      0030H    0003H
  +--> ?PR?OSDBASIC
  +--> ?PR?_WRITEI2C?I2C
  +--> ?PR?_WRITEI2CND?I2C

?PR?OSDBASIC                                     -----    -----      -----    -----
  +--> ?CO?OSDBASIC

?PR?_WRITEI2CND?I2C                              -----    -----      0034H    0005H
  +--> ?PR?I2C
  +--> ?PR?I2CSTART?I2C
  +--> ?PR?_I2CWRITEDATA?I2C
  +--> ?PR?I2CSTOP?I2C

?PR?LOADEEPROM?MAIN                              -----    -----      -----    -----
  +--> ?PR?_READEEP?I2C
  +--> ?PR?GETAUDIOVOLEE?ETC_EEP
BL51 BANKED LINKER/LOCATER V6.22                                                      12/15/2017  13:23:50  PAGE 11


  +--> ?PR?GETPCAUDIOVOLEE?ETC_EEP

?PR?GETAUDIOVOLEE?ETC_EEP                        -----    -----      -----    -----
  +--> ?PR?_READEEP?I2C

?PR?GETPCAUDIOVOLEE?ETC_EEP                      -----    -----      -----    -----
  +--> ?PR?_READEEP?I2C

?PR?_SAVEOSDLANGEE?ETC_EEP                       -----    -----      -----    -----
  +--> ?PR?_WRITEEEP?I2C

?PR?INITOSDMENU?OSDMENU                          -----    -----      000CH    0001H
  +--> ?PR?GETOSDLANGEE?ETC_EEP
  +--> ?PR?GETINPUTSELECTION?MAIN
  +--> ?CO?OSDMENU
  +--> ?PR?OSDMENU
  +--> ?CO?OSDBASIC
  +--> ?PR?_INITOSDWINDOW?OSDBASIC
  +--> ?PR?_CLEARDATACNT?OSDBASIC
  +--> ?PR?GETOSDPOSITIONMODEEE?ETC_EEP
  +--> ?PR?INITOSDMENUXY?OSDMENU
  +--> ?PR?DISPLAYOSDMENU?OSDMENU

?PR?GETOSDLANGEE?ETC_EEP                         -----    -----      -----    -----
  +--> ?PR?_READEEP?I2C

?PR?OSDMENU                                      -----    -----      -----    -----
  +--> ?CO?OSDMENU
  +--> ?CO?MAIN

?PR?_INITOSDWINDOW?OSDBASIC                      -----    -----      0015H    0005H
  +--> ?PR?_READI2C?I2C
  +--> ?PR?_WRITEI2C?I2C
  +--> ?PR?OSDBASIC
  +--> ?PR?_WRITEI2CN_?I2C

?PR?_WRITEI2CN_?I2C                              -----    -----      001AH    0006H
  +--> ?PR?I2CSTART?I2C
  +--> ?PR?_I2CWRITEDATA?I2C
  +--> ?PR?I2C
  +--> ?PR?I2CSTOP?I2C

?PR?GETOSDPOSITIONMODEEE?ETC_EEP                 -----    -----      -----    -----
  +--> ?PR?_READEEP?I2C

?PR?INITOSDMENUXY?OSDMENU                        -----    -----      000DH    0007H
  +--> ?CO?OSDMENU
  +--> ?PR?OSDMENU
  +--> ?PR?_GETOSDWINDOWX?OSDBASIC
  +--> ?PR?_SETOSDWINDOWX_TW88?OSDBASIC
  +--> ?PR?_GETOSDWINDOWY?OSDBASIC
  +--> ?PR?_SETOSDWINDOWY_TW88?OSDBASIC

?PR?_GETOSDWINDOWX?OSDBASIC                      -----    -----      0028H    0002H
  +--> ?PR?OSDBASIC
  +--> ?PR?_WRITEI2C?I2C
  +--> ?PR?_READI2C?I2C
BL51 BANKED LINKER/LOCATER V6.22                                                      12/15/2017  13:23:50  PAGE 12



?PR?_SETOSDWINDOWX_TW88?OSDBASIC                 -----    -----      0014H    0003H
  +--> ?PR?OSDBASIC
  +--> ?PR?_WRITEI2C?I2C
  +--> ?PR?_READI2C?I2C

?PR?_GETOSDWINDOWY?OSDBASIC                      -----    -----      0028H    0002H
  +--> ?PR?OSDBASIC
  +--> ?PR?_WRITEI2C?I2C
  +--> ?PR?_READI2C?I2C

?PR?_SETOSDWINDOWY_TW88?OSDBASIC                 -----    -----      0014H    0003H
  +--> ?PR?OSDBASIC
  +--> ?PR?_WRITEI2C?I2C
  +--> ?PR?_READI2C?I2C

?PR?DISPLAYOSDMENU?OSDMENU                       -----    -----      -----    -----
  +--> ?PR?_DRAWATTRCNT?OSDBASIC
  +--> ?PR?OSDMENU
  +--> ?PR?GETINPUTSELECTION?MAIN
  +--> ?PR?_READEEP?I2C
  +--> ?PR?_DRAWMENULIST?OSDMENU
  +--> ?PR?PUSHMENU?OSDMENU
  +--> ?PR?POPMENU?OSDMENU
  +--> ?PR?DISPLAYCURSOR?OSDMENU

?PR?_DRAWATTRCNT?OSDBASIC                        -----    -----      0030H    0004H
  +--> ?PR?OSDBASIC
  +--> ?PR?_WRITEI2C?I2C
  +--> ?PR?_WRITEI2CND?I2C

?PR?_DRAWMENULIST?OSDMENU                        -----    -----      0011H    000CH
  +--> ?PR?OSDMENU
  +--> ?PR?_STRLEN?OSDBASIC
  +--> ?PR?_DRAWATTRCNT?OSDBASIC
  +--> ?PR?_WRITESTRINGTOADDR?OSDBASIC
  +--> ?PR?_CLEARDATACNT?OSDBASIC
  +--> ?PR?_WRITEI2C?I2C
  +--> ?PR?_DISPLAYOSDMENUONEITEM?OSDMENU
  +--> ?PR?_GETLOWERMENUITEM?OSDMENU

?PR?_STRLEN?OSDBASIC                             -----    -----      004FH    0003H

?PR?_WRITESTRINGTOADDR?OSDBASIC                  -----    -----      004FH    0006H
  +--> ?PR?OSDBASIC
  +--> ?PR?_WRITEI2C?I2C
  +--> ?PR?_WRITEI2CN?I2C

?PR?_WRITEI2CN?I2C                               -----    -----      0055H    0007H
  +--> ?PR?I2C
  +--> ?PR?I2CSTART?I2C
  +--> ?PR?_I2CWRITEDATA?I2C
  +--> ?PR?I2CSTOP?I2C

?PR?_DISPLAYOSDMENUONEITEM?OSDMENU               -----    -----      001DH    0013H
  +--> ?PR?OSDMENU
  +--> ?PR?_DRAWATTRCNT?OSDBASIC
BL51 BANKED LINKER/LOCATER V6.22                                                      12/15/2017  13:23:50  PAGE 13


  +--> ?PR?_CLEARDATACNT?OSDBASIC
  +--> ?PR?_GETITEMVALUE?OSDMENU
  +--> ?PR?_AWT_DISPLAYVIEWBAR?OSDMENU
  +--> ?PR?_DISPLAYVIEWBAR?OSDMENU
  +--> ?PR?_DRAWNUM?OSDMENU
  +--> ?CO?OSDMENU
  +--> ?PR?_WRITESTRINGTOADDR?OSDBASIC
  +--> ?PR?_DRAWSTRINGBYLANG?OSDMENU
  +--> ?PR?_STRLEN?OSDBASIC

?PR?_GETITEMVALUE?OSDMENU                        -----    -----      0030H    0003H
  +--> ?PR?GETOSDPOSITIONMODE?OSDMENU
  +--> ?PR?_READEEP?I2C
  +--> ?PR?_GETVIDEODATAWITHOFFSET?OSDMENU
  +--> ?PR?OSDMENU

?PR?GETOSDPOSITIONMODE?OSDMENU                   -----    -----      -----    -----
  +--> ?PR?GETOSDPOSITIONMODEEE?ETC_EEP

?PR?_GETVIDEODATAWITHOFFSET?OSDMENU              -----    -----      -----    -----
  +--> ?PR?_GETVIDEODATAFROMEE?ETC_EEP
  +--> ?PR?OSDMENU

?PR?_GETVIDEODATAFROMEE?ETC_EEP                  -----    -----      -----    -----
  +--> ?PR?_READEEP?I2C

?PR?_AWT_DISPLAYVIEWBAR?OSDMENU                  -----    -----      0030H    000EH
  +--> ?PR?OSDMENU
  +--> ?CO?OSDMENU
  +--> ?PR?_WRITESTRINGTOADDR?OSDBASIC

?PR?_DISPLAYVIEWBAR?OSDMENU                      -----    -----      0030H    000EH
  +--> ?PR?OSDMENU
  +--> ?CO?OSDMENU
  +--> ?PR?_WRITESTRINGTOADDR?OSDBASIC

?PR?_DRAWNUM?OSDMENU                             -----    -----      0030H    001FH
  +--> ?PR?OSDMENU
  +--> ?CO?OSDMENU
  +--> ?PR?_UTOA?OSDBASIC
  +--> ?PR?_STRLEN?OSDBASIC
  +--> ?PR?_WRITESTRINGTOADDR?OSDBASIC

?PR?_UTOA?OSDBASIC                               -----    -----      004FH    000EH
  +--> ?PR?OSDBASIC

?PR?_DRAWSTRINGBYLANG?OSDMENU                    -----    -----      0030H    0018H
  +--> ?PR?OSDMENU
  +--> ?CO?OSDMENU
  +--> ?PR?_WRITESTRINGTOADDR?OSDBASIC
  +--> ?PR?_STRLEN?OSDBASIC

?PR?_GETLOWERMENUITEM?OSDMENU                    -----    -----      001DH    0004H

?PR?PUSHMENU?OSDMENU                             -----    -----      -----    -----
  +--> ?PR?OSDMENU

BL51 BANKED LINKER/LOCATER V6.22                                                      12/15/2017  13:23:50  PAGE 14


?PR?POPMENU?OSDMENU                              -----    -----      -----    -----
  +--> ?PR?OSDMENU

?PR?DISPLAYCURSOR?OSDMENU                        -----    -----      000DH    0004H
  +--> ?PR?OSDMENU
  +--> ?PR?_DRAWATTRCNT?OSDBASIC
  +--> ?PR?_GETITEMVALUE?OSDMENU

?PR?CHECKMIRROR?HS_KEYREMO                       -----    -----      0017H    0001H
  +--> ?PR?_READEEP?I2C
  +--> ?PR?_WRITEI2C?I2C
  +--> ?PR?_WAIT_MS?CPU

?PR?RESETVIDEOVALUE?OSDMENU                      -----    -----      0009H    0002H
  +--> ?CO?OSDMENU
  +--> ?PR?_SETVIDEOMODE?OSDMENU
  +--> ?PR?_SAVEVIDEODATATOEE?ETC_EEP

?PR?_SETVIDEOMODE?OSDMENU                        -----    -----      0018H    0007H
  +--> ?PR?_WRITEEEP?I2C
  +--> ?CO?OSDMENU
  +--> ?PR?_WRITEI2C?I2C
  +--> ?PR?OSDMENU
  +--> ?PR?_GETVIDEODATAWITHOFFSET?OSDMENU
  +--> ?PR?_SETVIDEOCONTRAST?OSDMENU
  +--> ?PR?_SETVIDEOBRIGHTNESS?OSDMENU
  +--> ?PR?_SETVIDEOSATURATION?OSDMENU
  +--> ?PR?_SETVIDEOHUE?OSDMENU
  +--> ?PR?_MAPPING1?TW88
  +--> ?PR?_READI2C?I2C

?PR?_SETVIDEOCONTRAST?OSDMENU                    -----    -----      001FH    0002H
  +--> ?PR?OSDMENU
  +--> ?CO?OSDMENU
  +--> ?PR?_MAPPING1?TW88
  +--> ?PR?_WRITEI2C?I2C

?PR?_MAPPING1?TW88                               -----    -----      0023H    000FH
  +--> ?PR?TW88

?PR?_SETVIDEOBRIGHTNESS?OSDMENU                  -----    -----      001FH    0002H
  +--> ?PR?OSDMENU
  +--> ?CO?OSDMENU
  +--> ?PR?_MAPPING1?TW88
  +--> ?PR?ISINPUTANALOGRGB?OSDMENU
  +--> ?PR?_WRITEI2C?I2C

?PR?_SETVIDEOSATURATION?OSDMENU                  -----    -----      001FH    0004H
  +--> ?PR?ISINPUTANALOGRGB?OSDMENU
  +--> ?PR?OSDMENU
  +--> ?CO?OSDMENU
  +--> ?PR?_MAPPING1?TW88
  +--> ?PR?_READI2C?I2C
  +--> ?PR?_WRITEI2C?I2C

?PR?_SETVIDEOHUE?OSDMENU                         -----    -----      001FH    0003H
  +--> ?PR?OSDMENU
BL51 BANKED LINKER/LOCATER V6.22                                                      12/15/2017  13:23:50  PAGE 15


  +--> ?CO?OSDMENU
  +--> ?PR?_MAPPING1?TW88
  +--> ?PR?_READI2C?I2C
  +--> ?PR?ISINPUTANALOGRGB?OSDMENU
  +--> ?PR?_WRITEI2C?I2C

?PR?_SAVEVIDEODATATOEE?ETC_EEP                   -----    -----      -----    -----
  +--> ?PR?_WRITEEEP?I2C

?PR?_SET4WIDESCREEN?OSDMENU                      -----    -----      0018H    0006H
  +--> ?CO?OSDMENU
  +--> ?PR?_PRINTF?PRINTF
  +--> ?PR?GETVINPUTSTD?MAIN
  +--> ?PR?WAITENDOFDISPLAYAREA?OSDBASIC
  +--> ?PR?OSDMENU
  +--> ?PR?_WRITEI2C?I2C
  +--> ?PR?_SAVEWIDEMODEEE?ETC_EEP

?PR?WAITENDOFDISPLAYAREA?OSDBASIC                -----    -----      0028H    0002H
  +--> ?PR?_READI2C?I2C

?PR?_SAVEWIDEMODEEE?ETC_EEP                      -----    -----      -----    -----
  +--> ?PR?_WRITEEEP?I2C

?PR?GETDEBUGLEVELEE?ETC_EEP                      -----    -----      -----    -----
  +--> ?PR?_READEEP?I2C

?PR?_SETVINPUTSTD?MAIN                           -----    -----      -----    -----
  +--> ?PR?MAIN

?PR?MAIN                                         -----    -----      -----    -----
  +--> ?CO?MAIN

?PR?_LCDPOWERON?TW88                             -----    -----      0012H    0001H
  +--> ?PR?CHECKTRIGGER?HS_KEYREMO
  +--> ?PR?_POWERLED?CPU
  +--> ?PR?OFF_LVDS?TW88
  +--> ?PR?_DELAY?CPU
  +--> ?PR?ON_LVDS?TW88
  +--> ?PR?_WRITEI2C?I2C
  +--> ?CO?TW88
  +--> ?PR?_PUTS?PRINTF
  +--> ?PR?_WAIT_MS?CPU
  +--> ?PR?_PRINTF?PRINTF

?PR?CHECKTRIGGER?HS_KEYREMO                      -----    -----      0013H    0002H
  +--> ?PR?_WAIT_MS?CPU

?PR?SETPOSSIBLEAUTODETECTSTDEE?ETC_EEP           -----    -----      0002H    0002H
  +--> ?CO?MAIN
  +--> ?PR?_WRITEEEP?I2C

?PR?CHANGE_OSDCOLORLOOKUP?OSDBASIC               -----    -----      000CH    0002H
  +--> ?CO?UDFONT
  +--> ?PR?_WRITEI2C?I2C

?PR?DOWNLOADUDFONT?OSDBASIC                      -----    -----      0005H    0001H
BL51 BANKED LINKER/LOCATER V6.22                                                      12/15/2017  13:23:50  PAGE 16


  +--> ?PR?_WRITEI2C?I2C
  +--> ?CO?UDFONT
  +--> ?PR?_DOWNLOADFONT?OSDBASIC

?PR?_DOWNLOADFONT?OSDBASIC                       -----    -----      0006H    0004H
  +--> ?PR?_READI2C?I2C
  +--> ?PR?_WRITEI2C?I2C
  +--> ?PR?_WRITEI2CN?I2C

?PR?_DISPLAYINFORMATION?HS_DISPLAYOSD            -----    -----      0004H    0001H
  +--> ?PR?_CLEARDATACNT?OSDBASIC
  +--> ?CO?HS_DISPLAYOSD
  +--> ?PR?_INITOSDWINDOW?OSDBASIC
  +--> ?PR?HS_DISPLAYOSD
  +--> ?PR?_DRAWATTRCNT?OSDBASIC
  +--> ?PR?_SHOWOSDWINDOW_TW88?OSDBASIC
  +--> ?PR?WAITENDOFDISPLAYAREA?OSDBASIC
  +--> ?PR?_WRITESTRINGTOADDR?OSDBASIC
  +--> ?PR?_SETDISPLAYEDOSD?DISPINFO
  +--> ?PR?_SHOWOSDWINDOWALL?OSDBASIC
  +--> ?PR?_WRITEI2C?I2C

?PR?HS_DISPLAYOSD                                -----    -----      -----    -----
  +--> ?CO?HS_DISPLAYOSD

?PR?_SHOWOSDWINDOW_TW88?OSDBASIC                 -----    -----      0017H    0002H
  +--> ?PR?OSDBASIC
  +--> ?PR?_WRITEI2C?I2C
  +--> ?PR?_READI2C?I2C
  +--> ?PR?WAITENDOFDISPLAYAREA?OSDBASIC

?PR?_SHOWOSDWINDOWALL?OSDBASIC                   -----    -----      0017H    0002H
  +--> ?PR?WAITENDOFDISPLAYAREA?OSDBASIC
  +--> ?PR?_READI2C?I2C
  +--> ?PR?_WRITEI2C?I2C

?PR?CLEARGAUGEINFO?HS_DISPLAYOSD                 -----    -----      -----    -----
  +--> ?PR?_SHOWOSDWINDOW_TW88?OSDBASIC

?PR?PROMPT?MONITOR                               -----    -----      -----    -----
  +--> ?CO?MONITOR
  +--> ?PR?MONITOR
  +--> ?PR?_PRINTF?PRINTF

?PR?MONITOR                                      -----    -----      -----    -----
  +--> ?CO?MONITOR
  +--> ?PR?_ASC2BIN?MONITOR

?PR?_ASC2BIN?MONITOR                             -----    -----      -----    -----
  +--> ?PR?_ASC1BIN?MONITOR

?PR?MAIN_LOOP?MAIN                               -----    -----      0000H    0001H
  +--> ?CO?MAIN
  +--> ?PR?_PUTS?PRINTF
  +--> ?PR?RS_READY?CPU
  +--> ?PR?MONITOR?MONITOR
  +--> ?PR?CHECKTRIGGER?HS_KEYREMO
BL51 BANKED LINKER/LOCATER V6.22                                                      12/15/2017  13:23:50  PAGE 17


  +--> ?PR?_TRIGGERHANDLER?HS_KEYREMO
  +--> ?PR?SEQMODE?HS_KEYREMO
  +--> ?PR?_READI2C?I2C
  +--> ?PR?_ADJUSTAUTODAYNIGHT?MAIN
  +--> ?PR?CHECKKEYIN?KEYREMO
  +--> ?PR?GETDISPLAYEDOSD?DISPINFO
  +--> ?PR?_SETDISPLAYEDOSD?DISPINFO
  +--> ?PR?DISPLAYINPUT?DISPINFO
  +--> ?PR?_READEEP?I2C
  +--> ?PR?DISPLAYGAUGEOSD?HS_DISPLAYOSD
  +--> ?PR?CLEARINPUT2S?DISPINFO
  +--> ?PR?VLOSSHANDLER?DISPINFO
  +--> ?PR?CHECKANDCLEAROSD?DISPINFO
  +--> ?PR?GETINPUTSELECTION?MAIN
  +--> ?PR?CHECKDECODERINPUT?MAIN
  +--> ?PR?_WRITEI2C?I2C
  +--> ?PR?_POWERLED?CPU
  +--> ?PR?_WAIT_MS?CPU

?PR?MONITOR?MONITOR                              -----    -----      0001H    0001H
  +--> ?PR?MONGETCOMMAND?MONITOR
  +--> ?CO?MONITOR
  +--> ?PR?MONWRITEI2C?MONITOR
  +--> ?PR?MONNEWWRITEI2C?MONITOR
  +--> ?PR?MONREADI2C?MONITOR
  +--> ?PR?MONNEWREADI2C?MONITOR
  +--> ?PR?_PUTS?PRINTF
  +--> ?PR?MONDUMPI2C?MONITOR
  +--> ?PR?MONNEWDUMPI2C?MONITOR
  +--> ?PR?MONWRITEBIT?MONITOR
  +--> ?PR?_ASC2BIN?MONITOR
  +--> ?PR?MONHELP?MONITOR
  +--> ?PR?_PRINTF?PRINTF
  +--> ?PR?LCDPOWER?TW88
  +--> ?PR?_SAVEDEBUGLEVELEE?ETC_EEP
  +--> ?PR?MONITOR
  +--> ?PR?RS_READY?CPU
  +--> ?PR?_READI2C?I2C
  +--> ?PR?DISPLAYINPUT?DISPINFO
  +--> ?PR?_SHOWOSDWINDOWALL?OSDBASIC
  +--> ?PR?MONTXDUMP?MONITOR
  +--> ?PR?_STRICMP?MONITOR
  +--> ?PR?_DISPLAYRAMFONT?OSDBASIC
  +--> ?PR?_DISPLAYROMFONT?OSDBASIC
  +--> ?PR?PROMPT?MONITOR

?PR?MONGETCOMMAND?MONITOR                        -----    -----      0002H    0003H
  +--> ?PR?RS_READY?CPU
  +--> ?PR?RS_RX?CPU
  +--> ?PR?_MON_TX?MONITOR
  +--> ?PR?PROMPT?MONITOR
  +--> ?PR?MONITOR
  +--> ?PR?_MONINCDECI2C?MONITOR

?PR?_MON_TX?MONITOR                              -----    -----      -----    -----
  +--> ?PR?_RS_TX?CPU

BL51 BANKED LINKER/LOCATER V6.22                                                      12/15/2017  13:23:50  PAGE 18


?PR?_MONINCDECI2C?MONITOR                        -----    -----      -----    -----
  +--> ?PR?MONITOR
  +--> ?PR?_WRITEI2C?I2C
  +--> ?PR?_READI2C?I2C
  +--> ?CO?MONITOR
  +--> ?PR?_PRINTF?PRINTF
  +--> ?PR?PROMPT?MONITOR

?PR?MONWRITEI2C?MONITOR                          -----    -----      -----    -----
  +--> ?PR?MONITOR
  +--> ?PR?_ASC2BIN?MONITOR
  +--> ?CO?MONITOR
  +--> ?PR?_PRINTF?PRINTF
  +--> ?PR?_WRITEI2C?I2C
  +--> ?PR?_READI2C?I2C

?PR?MONNEWWRITEI2C?MONITOR                       -----    -----      0002H    0001H
  +--> ?PR?MONITOR
  +--> ?PR?_ASC2BIN?MONITOR
  +--> ?PR?_WRITEI2C?I2C
  +--> ?PR?_READI2C?I2C
  +--> ?PR?_PRINTF?PRINTF

?PR?MONREADI2C?MONITOR                           -----    -----      -----    -----
  +--> ?PR?MONITOR
  +--> ?PR?_ASC2BIN?MONITOR
  +--> ?PR?_PRINTF?PRINTF
  +--> ?PR?_READI2C?I2C
  +--> ?CO?MONITOR

?PR?MONNEWREADI2C?MONITOR                        -----    -----      0002H    0001H
  +--> ?PR?MONITOR
  +--> ?PR?_PRINTF?PRINTF
  +--> ?PR?_ASC2BIN?MONITOR
  +--> ?PR?_READI2C?I2C

?PR?MONDUMPI2C?MONITOR                           -----    -----      0002H    0003H
  +--> ?PR?MONITOR
  +--> ?PR?_ASC2BIN?MONITOR
  +--> ?PR?_READI2C?I2C
  +--> ?CO?MONITOR
  +--> ?PR?_PRINTF?PRINTF

?PR?MONNEWDUMPI2C?MONITOR                        -----    -----      0002H    0004H
  +--> ?PR?MONITOR
  +--> ?PR?_ASC2BIN?MONITOR
  +--> ?PR?_READI2C?I2C
  +--> ?CO?MONITOR
  +--> ?PR?_PRINTF?PRINTF

?PR?MONWRITEBIT?MONITOR                          -----    -----      0002H    0005H
  +--> ?PR?MONITOR
  +--> ?PR?_ASC2BIN?MONITOR
  +--> ?CO?MONITOR
  +--> ?PR?_WRITEI2C?I2C
  +--> ?PR?_READI2C?I2C
  +--> ?PR?_PRINTF?PRINTF
BL51 BANKED LINKER/LOCATER V6.22                                                      12/15/2017  13:23:50  PAGE 19



?PR?MONHELP?MONITOR                              -----    -----      -----    -----
  +--> ?CO?MONITOR
  +--> ?PR?_PRINTF?PRINTF

?PR?LCDPOWER?TW88                                -----    -----      -----    -----
  +--> ?PR?POWERDOWN_XTAL?MAIN
  +--> ?CO?TW88
  +--> ?PR?_DELAY?CPU
  +--> ?PR?_LCDPOWERON?TW88
  +--> ?PR?_PRINTF?PRINTF

?PR?DISPLAYINPUT?DISPINFO                        -----    -----      0012H    0003H
  +--> ?PR?CLEAROSDINFO?DISPINFO
  +--> ?CO?OSDBASIC
  +--> ?PR?_INITOSDWINDOW?OSDBASIC
  +--> ?PR?_CLEARDATACNT?OSDBASIC
  +--> ?CO?DISPINFO
  +--> ?PR?DISPINFO
  +--> ?PR?_WRITESTRINGTOADDR?OSDBASIC
  +--> ?PR?GETINPUTSELECTION?MAIN
  +--> ?CO?MAIN
  +--> ?PR?_STRLEN?OSDBASIC
  +--> ?PR?_READEEP?I2C
  +--> ?PR?_DRAWATTRCNT?OSDBASIC
  +--> ?PR?_SHOWOSDWINDOW_TW88?OSDBASIC
  +--> ?PR?_SHOWOSDWINDOWALL?OSDBASIC
  +--> ?PR?VLOSSHANDLER?DISPINFO
  +--> ?PR?GETTIME_MS?CPU

?PR?CLEAROSDINFO?DISPINFO                        -----    -----      0015H    0001H
  +--> ?PR?GETDISPLAYEDOSD?DISPINFO
  +--> ?CO?DISPINFO
  +--> ?PR?_PRINTF?PRINTF
  +--> ?PR?CLEARTVINFO?DISPINFO
  +--> ?PR?CLEARMUTEINFO?DISPINFO
  +--> ?PR?CLEARINPUT?DISPINFO
  +--> ?PR?CLOSEOSDMENU?OSDMENU
  +--> ?PR?CLEARGAUGEINFO?HS_DISPLAYOSD
  +--> ?PR?CLEARVLOSSOSD?DISPINFO

?PR?CLEARTVINFO?DISPINFO                         -----    -----      -----    -----
  +--> ?PR?_SHOWOSDWINDOWALL?OSDBASIC
  +--> ?PR?CHECKMIRROR?HS_KEYREMO
  +--> ?PR?_SHOWOSDWINDOW_TW88?OSDBASIC

?PR?CLEARMUTEINFO?DISPINFO                       -----    -----      -----    -----
  +--> ?PR?_SHOWOSDWINDOW_TW88?OSDBASIC

?PR?CLEARINPUT?DISPINFO                          -----    -----      -----    -----
  +--> ?PR?_SHOWOSDWINDOWALL?OSDBASIC
  +--> ?PR?_SHOWOSDWINDOW_TW88?OSDBASIC

?PR?CLOSEOSDMENU?OSDMENU                         -----    -----      0016H    0001H
  +--> ?PR?_SHOWOSDWINDOWALL?OSDBASIC
  +--> ?PR?WAITENDOFDISPLAYAREA?OSDBASIC
  +--> ?PR?_WRITEI2C?I2C
BL51 BANKED LINKER/LOCATER V6.22                                                      12/15/2017  13:23:50  PAGE 20


  +--> ?PR?_CLEARDISPLAYEDOSD?DISPINFO
  +--> ?PR?CHECKMIRROR?HS_KEYREMO

?PR?CLEARVLOSSOSD?DISPINFO                       -----    -----      -----    -----
  +--> ?PR?_SHOWOSDWINDOW_TW88?OSDBASIC
  +--> ?PR?_CLEARDISPLAYEDOSD?DISPINFO

?PR?DISPINFO                                     -----    -----      -----    -----
  +--> ?CO?DISPINFO

?PR?VLOSSHANDLER?DISPINFO                        -----    -----      -----    -----
  +--> ?PR?_READI2C?I2C
  +--> ?PR?GETDISPLAYEDOSD?DISPINFO
  +--> ?PR?_DRAWATTRCNT?OSDBASIC
  +--> ?CO?DISPINFO
  +--> ?PR?DISPINFO
  +--> ?PR?_WRITESTRINGTOADDR?OSDBASIC
  +--> ?PR?_SETDISPLAYEDOSD?DISPINFO
  +--> ?PR?_SHOWOSDWINDOWALL?OSDBASIC
  +--> ?PR?_SHOWOSDWINDOW_TW88?OSDBASIC
  +--> ?PR?_CLEARDISPLAYEDOSD?DISPINFO
  +--> ?PR?_CLEARDATACNT?OSDBASIC
  +--> ?PR?_PRINTF?PRINTF

?PR?GETTIME_MS?CPU                               -----    -----      0015H    0002H

?PR?MONTXDUMP?MONITOR                            -----    -----      0002H    0002H
  +--> ?PR?MONITOR
  +--> ?CO?MONITOR
  +--> ?PR?_PUTS?PRINTF
  +--> ?PR?_A2I?MONITOR
  +--> ?PR?_RS_TX?CPU

?PR?_A2I?MONITOR                                 -----    -----      0004H    0008H
  +--> ?PR?MONITOR

?PR?_STRICMP?MONITOR                             -----    -----      0002H    0008H
  +--> ?PR?MONITOR
  +--> ?PR?_TOUPPER?MONITOR

?PR?_DISPLAYRAMFONT?OSDBASIC                     -----    -----      0002H    0003H
  +--> ?PR?_WRITEI2C?I2C
  +--> ?PR?OSDBASIC
  +--> ?CO?OSDBASIC
  +--> ?PR?_PUTS?PRINTF
  +--> ?PR?RS_READY?CPU
  +--> ?PR?DOWNLOADUDFONT?OSDBASIC
  +--> ?PR?_PRINTF?PRINTF

?PR?_DISPLAYROMFONT?OSDBASIC                     -----    -----      0002H    0002H
  +--> ?PR?OSDBASIC
  +--> ?PR?_WRITEI2C?I2C
  +--> ?CO?OSDBASIC
  +--> ?PR?_PUTS?PRINTF
  +--> ?PR?RS_READY?CPU

?PR?_TRIGGERHANDLER?HS_KEYREMO                   -----    -----      0002H    000AH
BL51 BANKED LINKER/LOCATER V6.22                                                      12/15/2017  13:23:50  PAGE 21


  +--> ?PR?HS_KEYREMO
  +--> ?PR?GETDISPLAYEDOSD?DISPINFO
  +--> ?CO?HS_KEYREMO
  +--> ?PR?SETREARSOURCE?HS_KEYREMO
  +--> ?PR?CLEARGAUGEINFO?HS_DISPLAYOSD
  +--> ?PR?SETLEFTSOURCE?HS_KEYREMO
  +--> ?PR?_READI2C?I2C
  +--> ?PR?CLEAROSDINFO?DISPINFO
  +--> ?PR?INITOSDMENU?OSDMENU
  +--> ?PR?CHANGE_OSDCOLORLOOKUP?OSDBASIC
  +--> ?PR?SETRIGHTSOURCE?HS_KEYREMO
  +--> ?PR?_WRITEI2C?I2C
  +--> ?PR?CHECKTRIGGER?HS_KEYREMO
  +--> ?PR?_PRINTF?PRINTF
  +--> ?PR?SETNOWMODE?HS_KEYREMO
  +--> ?PR?_READEEP?I2C
  +--> ?PR?_WAIT_MS?CPU

?PR?SETREARSOURCE?HS_KEYREMO                     -----    -----      -----    -----
  +--> ?PR?_CHANGEINPUT?MAIN
  +--> ?PR?_WRITEI2C?I2C
  +--> ?PR?_READEEP?I2C
  +--> ?PR?DISPLAYGAUGEOSD?HS_DISPLAYOSD

?PR?_CHANGEINPUT?MAIN                            -----    -----      -----    -----
  +--> ?PR?_INITVIDEODATA?MAIN
  +--> ?PR?COMPOSITE1INPUT?TW88
  +--> ?PR?_READI2C?I2C
  +--> ?CO?MAIN
  +--> ?PR?COMPOSITE2INPUT?TW88
  +--> ?PR?COMPOSITE3INPUT?TW88
  +--> ?PR?_CHANGEVOL?AUDIO
  +--> ?PR?MAIN
  +--> ?PR?_PRINTF?PRINTF
  +--> ?PR?CHECKPANELIMAGE?OSDMENU
  +--> ?PR?_SAVEINPUTSELECTIONEE?ETC_EEP
  +--> ?PR?_DELAY?CPU
  +--> ?PR?CHECKDECODERINPUT?MAIN
  +--> ?PR?CHECKMIRROR?HS_KEYREMO
  +--> ?PR?DISPLAYINPUT?DISPINFO
  +--> ?PR?_LCDPOWERON?TW88
  +--> ?PR?_WRITEI2C?I2C

?PR?_INITVIDEODATA?MAIN                          -----    -----      0017H    0001H
  +--> ?CO?TABLE
  +--> ?PR?_I2CDEVICEINITIALIZE?MAIN
  +--> ?PR?MAIN
  +--> ?PR?_WRITEI2C?I2C
  +--> ?PR?_CLEARAUTODETECTSTD?TW88
  +--> ?PR?SETAUTODETECTSTD?TW88
  +--> ?PR?_READEEP?I2C
  +--> ?PR?_SETVIDEOMODE?OSDMENU
  +--> ?PR?GETWIDEMODEEE?ETC_EEP
  +--> ?PR?_SET4WIDESCREEN?OSDMENU
  +--> ?CO?MAIN
  +--> ?PR?_PRINTF?PRINTF

BL51 BANKED LINKER/LOCATER V6.22                                                      12/15/2017  13:23:50  PAGE 22


?PR?_I2CDEVICEINITIALIZE?MAIN                    -----    -----      0018H    0006H
  +--> ?PR?MAIN
  +--> ?PR?_WRITEI2C?I2C

?PR?_CLEARAUTODETECTSTD?TW88                     -----    -----      0018H    0001H
  +--> ?PR?_READI2C?I2C
  +--> ?PR?_WRITEI2C?I2C

?PR?SETAUTODETECTSTD?TW88                        -----    -----      -----    -----
  +--> ?PR?GETPOSSIBLEAUTODETECTSTDEE?ETC_EEP
  +--> ?PR?_WRITEI2C?I2C
  +--> ?PR?_READI2C?I2C

?PR?GETPOSSIBLEAUTODETECTSTDEE?ETC_EEP           -----    -----      -----    -----
  +--> ?PR?_READEEP?I2C

?PR?GETWIDEMODEEE?ETC_EEP                        -----    -----      -----    -----
  +--> ?PR?_READEEP?I2C

?PR?COMPOSITE1INPUT?TW88                         -----    -----      -----    -----
  +--> ?PR?_WRITEI2C?I2C
  +--> ?PR?TW88
  +--> ?PR?_READI2C?I2C

?PR?COMPOSITE2INPUT?TW88                         -----    -----      -----    -----
  +--> ?PR?_WRITEI2C?I2C
  +--> ?PR?TW88
  +--> ?PR?_READI2C?I2C

?PR?COMPOSITE3INPUT?TW88                         -----    -----      -----    -----
  +--> ?PR?_WRITEI2C?I2C
  +--> ?PR?TW88
  +--> ?PR?_READI2C?I2C

?PR?CHECKPANELIMAGE?OSDMENU                      -----    -----      -----    -----
  +--> ?PR?_READI2C?I2C
  +--> ?PR?_WRITEI2C?I2C

?PR?CHECKDECODERINPUT?MAIN                       -----    -----      0012H    0005H
  +--> ?PR?DETECTDECODERINPUT?TW88
  +--> ?PR?_SETVINPUTSTD?MAIN
  +--> ?PR?CLEARGAUGEINFO?HS_DISPLAYOSD
  +--> ?PR?_DELAY?CPU
  +--> ?PR?_INITVIDEODATA?MAIN

?PR?DETECTDECODERINPUT?TW88                      -----    -----      0017H    0002H
  +--> ?PR?_DELAY?CPU
  +--> ?PR?_READI2C?I2C

?PR?DISPLAYGAUGEOSD?HS_DISPLAYOSD                -----    -----      000CH    0001H
  +--> ?CO?HS_DISPLAYOSD
  +--> ?PR?_INITOSDWINDOW?OSDBASIC
  +--> ?PR?HS_DISPLAYOSD
  +--> ?PR?_WRITESTRINGTOADDR?OSDBASIC
  +--> ?PR?_DRAWATTRCNT?OSDBASIC
  +--> ?PR?_SETDISPLAYEDOSD?DISPINFO
  +--> ?PR?_CLEARDISPLAYEDOSD?DISPINFO
BL51 BANKED LINKER/LOCATER V6.22                                                      12/15/2017  13:23:50  PAGE 23


  +--> ?PR?VLOSSHANDLER?DISPINFO
  +--> ?PR?_SHOWOSDWINDOW_TW88?OSDBASIC
  +--> ?PR?_SHOWOSDWINDOWALL?OSDBASIC
  +--> ?PR?_WRITEI2C?I2C

?PR?SETLEFTSOURCE?HS_KEYREMO                     -----    -----      -----    -----
  +--> ?PR?_CHANGEINPUT?MAIN

?PR?SETRIGHTSOURCE?HS_KEYREMO                    -----    -----      -----    -----
  +--> ?PR?_CHANGEINPUT?MAIN

?PR?SETNOWMODE?HS_KEYREMO                        -----    -----      -----    -----
  +--> ?CO?HS_KEYREMO
  +--> ?PR?HS_KEYREMO
  +--> ?PR?_PRINTF?PRINTF
  +--> ?PR?_CHECKSOURCEMODE?HS_KEYREMO
  +--> ?PR?_READEEP?I2C

?PR?_CHECKSOURCEMODE?HS_KEYREMO                  -----    -----      -----    -----
  +--> ?CO?HS_KEYREMO
  +--> ?PR?_PRINTF?PRINTF
  +--> ?PR?_CHANGEINPUT?MAIN
  +--> ?PR?HS_KEYREMO
  +--> ?PR?DISPLAYINPUT?DISPINFO
  +--> ?PR?_WRITEEEP?I2C

?PR?SEQMODE?HS_KEYREMO                           -----    -----      0001H    0001H
  +--> ?PR?_CHECKSOURCEMODE?HS_KEYREMO

?PR?_ADJUSTAUTODAYNIGHT?MAIN                     -----    -----      0001H    0002H
  +--> ?PR?_READI2C?I2C
  +--> ?PR?MAIN
  +--> ?PR?_WRITEI2C?I2C

?PR?CHECKKEYIN?KEYREMO                           -----    -----      0001H    0003H
  +--> ?PR?_GETKEY?KEYREMO
  +--> ?CO?KEYREMO
  +--> ?PR?_PRINTF?PRINTF
  +--> ?PR?KEYREMO
  +--> ?PR?_WRITEEEP?I2C
  +--> ?PR?_DISPLAYINFORMATION?HS_DISPLAYOSD
  +--> ?PR?DISPLAYGAUGEOSD?HS_DISPLAYOSD
  +--> ?PR?CLEARGAUGEINFO?HS_DISPLAYOSD
  +--> ?PR?DISPLAYINPUT?DISPINFO
  +--> ?PR?_WAIT_MS?CPU
  +--> ?PR?_POWERLED?CPU
  +--> ?PR?CLEAROSDINFO?DISPINFO
  +--> ?PR?SETOSDLASTKEYINTIME?MAIN
  +--> ?PR?_PUTS?PRINTF
  +--> ?PR?_ACTIONREMO?KEYREMO
  +--> ?PR?_HS_DISPLAY2835CLKTUNEVAL?KEYREMO
  +--> ?PR?GETDISPLAYEDOSD?DISPINFO
  +--> ?PR?OSDSELECT?OSDMENU
  +--> ?PR?_OSDVALUEUPDN?OSDMENU
  +--> ?PR?_OSDCURSORMOVE?OSDMENU
  +--> ?PR?CLOSEOSDMENU?OSDMENU
  +--> ?PR?CLEARINPUT?DISPINFO
BL51 BANKED LINKER/LOCATER V6.22                                                      12/15/2017  13:23:50  PAGE 24


  +--> ?PR?SETSELECTMODE?HS_KEYREMO
  +--> ?PR?_READEEP?I2C
  +--> ?PR?SETJUMPMODE?HS_KEYREMO
  +--> ?PR?_CAM_TXCOMMAND_TORS485?HS_DVRPROT...
  +--> ?PR?_CLEARDATACNT?OSDBASIC
  +--> ?PR?_DELAY?CPU

?PR?_GETKEY?KEYREMO                              0024H.1  0000H.1    -----    -----

?PR?SETOSDLASTKEYINTIME?MAIN                     -----    -----      -----    -----
  +--> ?PR?GETTIME_MS?CPU

?PR?_ACTIONREMO?KEYREMO                          -----    -----      0004H    0002H
  +--> ?PR?SETOSDLASTKEYINTIME?MAIN
  +--> ?PR?GETNEXTINPUTSELECTION?MAIN
  +--> ?PR?_CHANGEINPUT?MAIN
  +--> ?PR?GETDISPLAYEDOSD?DISPINFO
  +--> ?PR?CLEARINPUT?DISPINFO
  +--> ?PR?DISPLAYINPUT?DISPINFO
  +--> ?PR?REMOCHNUP_UPKEY?KEYREMO
  +--> ?PR?REMOCHNDN_DNKEY?KEYREMO
  +--> ?PR?OSDSELECT?OSDMENU
  +--> ?PR?REMOVOLUP_RIGHTKEY?KEYREMO
  +--> ?PR?REMOVOLDN_LEFTKEY?KEYREMO
  +--> ?PR?REMOMENU_MENUKEY?KEYREMO
  +--> ?PR?_DOACTION?OSDMENU
  +--> ?PR?_SETITEMVALUE?OSDMENU

?PR?GETNEXTINPUTSELECTION?MAIN                   -----    -----      -----    -----
  +--> ?PR?MAIN

?PR?REMOCHNUP_UPKEY?KEYREMO                      -----    -----      -----    -----
  +--> ?PR?GETDISPLAYEDOSD?DISPINFO
  +--> ?PR?_OSDCURSORMOVE?OSDMENU

?PR?_OSDCURSORMOVE?OSDMENU                       0024H.1  0000H.1    0006H    0004H
  +--> ?PR?OSDMENU
  +--> ?PR?_READEEP?I2C
  +--> ?PR?_GETNEXTCURSORMENUITEM?OSDMENU
  +--> ?PR?_GETLOWERMENUITEM?OSDMENU
  +--> ?PR?CLEARVALUEWIN?OSDMENU
  +--> ?PR?CLEARCURSOR?OSDMENU
  +--> ?PR?WAITENDOFDISPLAYAREA?OSDBASIC
  +--> ?PR?_WRITEI2C?I2C
  +--> ?PR?_SHOWOSDWINDOW_TW88?OSDBASIC
  +--> ?PR?_GETOSDWINDOWY?OSDBASIC
  +--> ?PR?_SETOSDWINDOWY_TW88?OSDBASIC
  +--> ?PR?DISPLAYOSDMENU?OSDMENU
  +--> ?PR?_DRAWMENULIST?OSDMENU
  +--> ?PR?DISPLAYCURSOR?OSDMENU

?PR?_GETNEXTCURSORMENUITEM?OSDMENU               -----    -----      000AH    0005H
  +--> ?PR?_GETUPPERMENUITEM?OSDMENU
  +--> ?PR?_GETLOWERMENUITEM?OSDMENU

?PR?CLEARVALUEWIN?OSDMENU                        -----    -----      -----    -----
  +--> ?PR?SAVEVALUE1?OSDMENU
BL51 BANKED LINKER/LOCATER V6.22                                                      12/15/2017  13:23:50  PAGE 25



?PR?SAVEVALUE1?OSDMENU                           -----    -----      -----    -----
  +--> ?PR?OSDMENU

?PR?CLEARCURSOR?OSDMENU                          -----    -----      000AH    0002H
  +--> ?PR?OSDMENU
  +--> ?PR?_DRAWATTRCNT?OSDBASIC

?PR?REMOCHNDN_DNKEY?KEYREMO                      -----    -----      -----    -----
  +--> ?PR?GETDISPLAYEDOSD?DISPINFO
  +--> ?PR?_OSDCURSORMOVE?OSDMENU

?PR?OSDSELECT?OSDMENU                            -----    -----      0006H    0002H
  +--> ?PR?OSDMENU
  +--> ?PR?GETINPUTSELECTION?MAIN
  +--> ?PR?READVINPUTSTD?MAIN
  +--> ?PR?_DOACTION?OSDMENU
  +--> ?PR?CLEARCURSOR?OSDMENU
  +--> ?PR?CLOSEOSDMENU?OSDMENU
  +--> ?PR?DISPLAYCURSOR?OSDMENU
  +--> ?PR?_GETITEMVALUE?OSDMENU
  +--> ?PR?_WRITEI2C?I2C
  +--> ?PR?PUSHMENU?OSDMENU
  +--> ?PR?_GET_CURSOR_ITEM?OSDMENU
  +--> ?PR?DISPLAYOSDMENU?OSDMENU

?PR?READVINPUTSTD?MAIN                           -----    -----      -----    -----
  +--> ?PR?ISNOINPUT?MAIN
  +--> ?PR?_READI2C?I2C

?PR?ISNOINPUT?MAIN                               -----    -----      -----    -----
  +--> ?PR?_READI2C?I2C

?PR?_DOACTION?OSDMENU                            -----    -----      0008H    0001H
  +--> ?PR?_CHANGEINPUT?MAIN
  +--> ?PR?DISPLAYINPUT?DISPINFO
  +--> ?CO?OSDMENU
  +--> ?PR?_PRINTF?PRINTF
  +--> ?PR?OSDHIGHMENU_SUB?OSDMENU
  +--> ?PR?DISPLAYINFO_OSD?OSDMENU
  +--> ?PR?CLOSEOSDMENU?OSDMENU
  +--> ?PR?_READEEP?I2C
  +--> ?PR?CLEAROSDINFO?DISPINFO
  +--> ?PR?RESETVIDEOVALUE?OSDMENU
  +--> ?PR?RESETOSDVALUE?OSDMENU
  +--> ?PR?SETNOWMODE?HS_KEYREMO

?PR?OSDHIGHMENU_SUB?OSDMENU                      -----    -----      0009H    0001H
  +--> ?PR?OSDMENU
  +--> ?PR?POPMENU?OSDMENU
  +--> ?PR?CLOSEOSDMENU?OSDMENU
  +--> ?CO?OSDMENU
  +--> ?PR?_PRINTF?PRINTF
  +--> ?PR?DISPLAYOSDMENU?OSDMENU
  +--> ?PR?_DRAWMENULIST?OSDMENU
  +--> ?PR?DISPLAYCURSOR?OSDMENU
  +--> ?PR?_WRITEI2C?I2C
BL51 BANKED LINKER/LOCATER V6.22                                                      12/15/2017  13:23:50  PAGE 26



?PR?DISPLAYINFO_OSD?OSDMENU                      -----    -----      0009H    0008H
  +--> ?PR?PUSHMENU?OSDMENU
  +--> ?PR?OSDMENU
  +--> ?PR?_DRAWMENULIST?OSDMENU
  +--> ?PR?_DRAWATTRCNT?OSDBASIC
  +--> ?CO?OSDMENU
  +--> ?PR?_WRITESTRINGTOADDR?OSDBASIC
  +--> ?PR?GETINPUTSELECTION?MAIN
  +--> ?CO?MAIN
  +--> ?PR?_STRLEN?OSDBASIC
  +--> ?PR?GETVINPUTSTDINX?MAIN
  +--> ?PR?_READEEP?I2C

?PR?GETVINPUTSTDINX?MAIN                         -----    -----      -----    -----
  +--> ?PR?READVINPUTSTD?MAIN
  +--> ?PR?MAIN
  +--> ?CO?MAIN

?PR?_GET_CURSOR_ITEM?OSDMENU                     -----    -----      0008H    0002H
  +--> ?PR?GETINPUTSELECTION?MAIN
  +--> ?PR?_GETTARGETCHILD?OSDMENU

?PR?_GETTARGETCHILD?OSDMENU                      -----    -----      -----    -----
  +--> ?PR?OSDMENU
  +--> ?PR?_GETLOWERMENUITEM?OSDMENU

?PR?REMOVOLUP_RIGHTKEY?KEYREMO                   -----    -----      -----    -----
  +--> ?PR?GETDISPLAYEDOSD?DISPINFO
  +--> ?PR?_OSDVALUEUPDN?OSDMENU
  +--> ?PR?OSDSELECT?OSDMENU
  +--> ?PR?_CHANGEVOL?AUDIO
  +--> ?PR?DISPLAYVOL?DISPINFO

?PR?_OSDVALUEUPDN?OSDMENU                        -----    -----      0006H    0008H
  +--> ?PR?OSDMENU
  +--> ?PR?_SETITEMVALUE?OSDMENU
  +--> ?PR?_AWT_DISPLAYVIEWBAR?OSDMENU
  +--> ?PR?_DISPLAYVIEWBAR?OSDMENU
  +--> ?PR?_DRAWNUM?OSDMENU
  +--> ?PR?_DRAWSTRINGBYLANG?OSDMENU

?PR?_SETITEMVALUE?OSDMENU                        -----    -----      000EH    0004H
  +--> ?PR?OSDMENU
  +--> ?CO?OSDMENU
  +--> ?PR?_PRINTF?PRINTF
  +--> ?PR?_SETOSDPOSITIONMODE?OSDMENU
  +--> ?PR?_SETLANGUAGE?OSDMENU
  +--> ?PR?_SETPCCOLORTEMP?OSDMENU
  +--> ?PR?_SETPCCOLOR?OSDMENU
  +--> ?PR?_SETVIDEOMODE?OSDMENU
  +--> ?PR?_READEEP?I2C
  +--> ?PR?_DRAWATTRCNT?OSDBASIC
  +--> ?PR?_CHANGEVIDEODATA?OSDMENU
  +--> ?PR?_SETVIDEOSHARPNESS?OSDMENU
  +--> ?PR?_CHANGEVOL?AUDIO
  +--> ?PR?_SET4WIDESCREEN?OSDMENU
BL51 BANKED LINKER/LOCATER V6.22                                                      12/15/2017  13:23:50  PAGE 27


  +--> ?PR?_WRITEEEP?I2C
  +--> ?PR?SETNOWMODE?HS_KEYREMO

?PR?_SETOSDPOSITIONMODE?OSDMENU                  -----    -----      0012H    0016H
  +--> ?PR?GETOSDPOSITIONMODE?OSDMENU
  +--> ?PR?OSDMENU
  +--> ?PR?_GETOSDWINDOWX?OSDBASIC
  +--> ?PR?_GETOSDWINDOWY?OSDBASIC
  +--> ?PR?WAITENDOFDISPLAYAREA?OSDBASIC
  +--> ?PR?_READI2C?I2C
  +--> ?PR?_WRITEI2C?I2C
  +--> ?PR?_WRITEI2CN?I2C
  +--> ?PR?_SAVEOSDPOSITIONMODEEE?ETC_EEP

?PR?_SETLANGUAGE?OSDMENU                         -----    -----      -----    -----
  +--> ?PR?OSDMENU
  +--> ?PR?_SAVEOSDLANGEE?ETC_EEP

?PR?_SETPCCOLORTEMP?OSDMENU                      -----    -----      0012H    0002H
  +--> ?PR?OSDMENU
  +--> ?PR?_WRITEEEP?I2C
  +--> ?PR?_READEEP?I2C
  +--> ?CO?OSDMENU
  +--> ?PR?_MAPPING1?TW88
  +--> ?PR?_SETRGBCONTRAST?OSDMENU
  +--> ?PR?_DRAWATTRCNT?OSDBASIC

?PR?_SETRGBCONTRAST?OSDMENU                      -----    -----      0014H    0008H
  +--> ?PR?_READEEP?I2C
  +--> ?PR?OSDMENU
  +--> ?PR?_MAPPING1?TW88
  +--> ?PR?_WRITEI2C?I2C

?PR?_SETPCCOLOR?OSDMENU                          -----    -----      0012H    0007H
  +--> ?PR?OSDMENU
  +--> ?PR?_MAPPING1?TW88
  +--> ?PR?_WRITEEEP?I2C
  +--> ?PR?_READEEP?I2C
  +--> ?CO?OSDMENU
  +--> ?PR?_WRITEI2C?I2C

?PR?_CHANGEVIDEODATA?OSDMENU                     -----    -----      0012H    0003H
  +--> ?PR?OSDMENU
  +--> ?PR?_SETVIDEOCONTRAST?OSDMENU
  +--> ?PR?_SETVIDEOBRIGHTNESS?OSDMENU
  +--> ?PR?_SETVIDEOSATURATION?OSDMENU
  +--> ?PR?_SETVIDEOHUE?OSDMENU
  +--> ?PR?_SETVIDEOBACKLIGHT?OSDMENU
  +--> ?PR?_SAVEVIDEODATATOEE?ETC_EEP

?PR?_SETVIDEOBACKLIGHT?OSDMENU                   -----    -----      0015H    0003H
  +--> ?PR?OSDMENU
  +--> ?CO?OSDMENU
  +--> ?PR?_MAPPING1?TW88
  +--> ?PR?_READI2C?I2C
  +--> ?PR?_WRITEI2C?I2C

BL51 BANKED LINKER/LOCATER V6.22                                                      12/15/2017  13:23:50  PAGE 28


?PR?_SETVIDEOSHARPNESS?OSDMENU                   -----    -----      0012H    0005H
  +--> ?PR?_READI2C?I2C
  +--> ?PR?OSDMENU
  +--> ?CO?OSDMENU
  +--> ?PR?_MAPPING1?TW88
  +--> ?PR?_WRITEI2C?I2C
  +--> ?PR?_SAVEVIDEODATATOEE?ETC_EEP

?PR?DISPLAYVOL?DISPINFO                          -----    -----      0006H    0002H
  +--> ?CO?DISPINFO
  +--> ?PR?_PRINTF?PRINTF
  +--> ?PR?_WRITEI2C?I2C
  +--> ?PR?CLEAROSDINFO?DISPINFO
  +--> ?PR?_DELAY?CPU
  +--> ?CO?OSDBASIC
  +--> ?PR?_INITOSDWINDOW?OSDBASIC
  +--> ?PR?_CLEARDATACNT?OSDBASIC
  +--> ?PR?_DRAWATTRCNT?OSDBASIC
  +--> ?PR?GETOSDLANG?OSDMENU
  +--> ?CO?OSDMENU
  +--> ?PR?_STRLEN?OSDBASIC
  +--> ?PR?_WRITESTRINGTOADDR?OSDBASIC
  +--> ?PR?_SHOWOSDWINDOW_TW88?OSDBASIC
  +--> ?PR?_SHOWOSDWINDOWALL?OSDBASIC
  +--> ?PR?_DISPLAYVOLUMEBAR?OSDMENU
  +--> ?PR?GETTIME_MS?CPU
  +--> ?PR?_WAIT_MS?CPU

?PR?GETOSDLANG?OSDMENU                           -----    -----      -----    -----
  +--> ?PR?GETOSDLANGEE?ETC_EEP

?PR?_DISPLAYVOLUMEBAR?OSDMENU                    -----    -----      0008H    0016H
  +--> ?CO?OSDMENU
  +--> ?PR?OSDMENU
  +--> ?PR?_WRITESTRINGTOADDR?OSDBASIC

?PR?REMOVOLDN_LEFTKEY?KEYREMO                    -----    -----      -----    -----
  +--> ?PR?GETDISPLAYEDOSD?DISPINFO
  +--> ?PR?_OSDVALUEUPDN?OSDMENU
  +--> ?PR?OSDHIGHMENU?OSDMENU
  +--> ?PR?_CHANGEVOL?AUDIO
  +--> ?PR?DISPLAYVOL?DISPINFO

?PR?OSDHIGHMENU?OSDMENU                          -----    -----      -----    -----
  +--> ?PR?CLEARVALUEWIN?OSDMENU
  +--> ?PR?_DRAWMENULIST?OSDMENU
  +--> ?PR?DISPLAYCURSOR?OSDMENU
  +--> ?PR?OSDMENU
  +--> ?PR?_DOACTION?OSDMENU
  +--> ?PR?CLEARCURSOR?OSDMENU
  +--> ?PR?OSDHIGHMENU_SUB?OSDMENU

?PR?REMOMENU_MENUKEY?KEYREMO                     -----    -----      -----    -----
  +--> ?PR?GETDISPLAYEDOSD?DISPINFO
  +--> ?PR?OSDHIGHMENU?OSDMENU
  +--> ?PR?CLEAROSDINFO?DISPINFO
  +--> ?PR?_WRITEI2C?I2C
BL51 BANKED LINKER/LOCATER V6.22                                                      12/15/2017  13:23:50  PAGE 29


  +--> ?PR?OPENOSDMENU?OSDMENU
  +--> ?PR?_WAIT_MS?CPU

?PR?OPENOSDMENU?OSDMENU                          -----    -----      0006H    0001H
  +--> ?PR?CLEAROSDINFO?DISPINFO
  +--> ?PR?INITOSDMENU?OSDMENU
  +--> ?PR?_SHOWOSDWINDOW_TW88?OSDBASIC
  +--> ?PR?_SHOWOSDWINDOWALL?OSDBASIC
  +--> ?PR?_SETDISPLAYEDOSD?DISPINFO

?PR?_HS_DISPLAY2835CLKTUNEVAL?KEYREMO            -----    -----      0004H    0004H
  +--> ?CO?KEYREMO
  +--> ?PR?KEYREMO
  +--> ?CO?OSDBASIC
  +--> ?PR?_INITOSDWINDOW?OSDBASIC
  +--> ?PR?_SETDISPLAYEDOSD?DISPINFO
  +--> ?PR?_CLEARDATACNT?OSDBASIC
  +--> ?PR?_DRAWATTRCNT?OSDBASIC
  +--> ?PR?_WRITESTRINGTOADDR?OSDBASIC
  +--> ?PR?_SHOWOSDWINDOW_TW88?OSDBASIC
  +--> ?PR?_SHOWOSDWINDOWALL?OSDBASIC

?PR?SETSELECTMODE?HS_KEYREMO                     -----    -----      -----    -----
  +--> ?PR?_CHECKSOURCEMODE?HS_KEYREMO
  +--> ?CO?HS_KEYREMO
  +--> ?PR?_PRINTF?PRINTF
  +--> ?PR?_WRITEEEP?I2C
  +--> ?PR?HS_KEYREMO

?PR?SETJUMPMODE?HS_KEYREMO                       -----    -----      0004H    0001H
  +--> ?PR?_READEEP?I2C
  +--> ?PR?_CHECKSOURCEMODE?HS_KEYREMO
  +--> ?CO?HS_KEYREMO
  +--> ?PR?_WRITESTRINGTOADDR?OSDBASIC
  +--> ?PR?HS_KEYREMO
  +--> ?PR?_WRITEEEP?I2C

?PR?_CAM_TXCOMMAND_TORS485?HS_DVRPROT...         -----    -----      0004H    0002H
  +--> ?PR?HS_DVRPROTOCOL
  +--> ?PR?SEND_PELCOP_COMMAND?HS_DVRPROTOCOL
  +--> ?PR?SEND_PELCOD_COMMAND?HS_DVRPROTOCOL

?PR?SEND_PELCOP_COMMAND?HS_DVRPROTOCOL           -----    -----      0006H    0001H
  +--> ?PR?HS_DVRPROTOCOL
  +--> ?CO?HS_DVRPROTOCOL
  +--> ?PR?_PRINTF?PRINTF
  +--> ?PR?_WAIT_MS?CPU
  +--> ?PR?_RS2_TX?CPU

?PR?SEND_PELCOD_COMMAND?HS_DVRPROTOCOL           -----    -----      0006H    0001H
  +--> ?PR?HS_DVRPROTOCOL
  +--> ?CO?HS_DVRPROTOCOL
  +--> ?PR?_PRINTF?PRINTF
  +--> ?PR?_WAIT_MS?CPU
  +--> ?PR?_RS2_TX?CPU

?PR?CLEARINPUT2S?DISPINFO                        -----    -----      -----    -----
BL51 BANKED LINKER/LOCATER V6.22                                                      12/15/2017  13:23:50  PAGE 30


  +--> ?PR?_SHOWOSDWINDOW_TW88?OSDBASIC

?PR?CHECKANDCLEAROSD?DISPINFO                    -----    -----      0001H    0006H
  +--> ?PR?GETDISPLAYEDOSD?DISPINFO
  +--> ?PR?GETOSDLASTKEYINTIME?MAIN
  +--> ?PR?GETTIME_MS?CPU
  +--> ?PR?_DIFFTIME_MS?CPU
  +--> ?PR?CLEARTVINFO?DISPINFO
  +--> ?PR?DISPLAYINPUT?DISPINFO
  +--> ?PR?CLOSEOSDMENU?OSDMENU
  +--> ?PR?_READEEP?I2C

?PR?WAITPOWERON?MAIN                             -----    -----      0000H    0002H
  +--> ?PR?CHECKTRIGGER?HS_KEYREMO
  +--> ?PR?_TRIGGERHANDLER?HS_KEYREMO
  +--> ?PR?POWEROFF?MAIN
  +--> ?PR?AUDIOMUTE?AUDIO
  +--> ?PR?_GETKEY?KEYREMO
  +--> ?PR?_WRITEEEP?I2C
  +--> ?PR?VLOSSHANDLER?DISPINFO
  +--> ?PR?DISPLAYINPUT?DISPINFO
  +--> ?PR?SETNOWMODE?HS_KEYREMO
  +--> ?PR?_READEEP?I2C
  +--> ?PR?_LCDPOWERON?TW88

?PR?POWEROFF?MAIN                                -----    -----      -----    -----
  +--> ?PR?AUDIOMUTE?AUDIO
  +--> ?PR?_POWERLED?CPU



UNRESOLVED EXTERNAL SYMBOLS:
   LCDPOWEROFF



SYMBOL TABLE OF MODULE:  .\Output\AWT-ML072S (ADC)

  VALUE           TYPE          NAME
  ----------------------------------

  -------         MODULE        ADC
  C:0000H         SYMBOL        _ICE_DUMMY_
  -------         ENDMOD        ADC

  -------         MODULE        CPU
  C:0000H         SYMBOL        _ICE_DUMMY_
  C:B930H         PUBLIC        InitCPU
  D:00B1H         PUBLIC        P3M0
  C:814EH         PUBLIC        timer0_int
  X:014AH         PUBLIC        FormatSDCard
  D:00B2H         PUBLIC        P3M1
  D:00A0H         PUBLIC        P2
  C:C8B0H         PUBLIC        timer2_int
  D:00E8H         PUBLIC        P4
  X:014BH         PUBLIC        FormatWait
  D:0025H         PUBLIC        DVR_buf
BL51 BANKED LINKER/LOCATER V6.22                                                      12/15/2017  13:23:50  PAGE 31


  D:002DH         PUBLIC        keytic
  D:00A8H         PUBLIC        IE
  D:002EH         PUBLIC        RS2_in
  B:0021H.4       PUBLIC        RepeatKey
  C:C81CH         PUBLIC        _delay
  B:00B0H.4       PUBLIC        P3_4
  B:00A8H.4       PUBLIC        ES
  D:00B8H         PUBLIC        IP
  D:00DEH         PUBLIC        CCAPM4
  B:0098H.0       PUBLIC        RI
  B:0098H.1       PUBLIC        TI
  C:C945H         PUBLIC        RS_ready
  D:002FH         PUBLIC        tic01
  B:0021H.5       PUBLIC        KeyReady
  B:0021H.6       PUBLIC        RS_Xbusy
  D:00D8H         PUBLIC        CCON
  C:C9D1H         PUBLIC        _RS2_tx
  X:014CH         PUBLIC        Time5ms
  X:014DH         PUBLIC        keyticSec
  D:0030H         PUBLIC        Key
  C:C11AH         PUBLIC        serial_int
  C:CA35H         PUBLIC        ext1_int
  D:0099H         PUBLIC        SBUF
  D:0087H         PUBLIC        PCON
  D:0098H         PUBLIC        SCON
  C:C643H         PUBLIC        InitVars
  D:0089H         PUBLIC        TMOD
  D:0088H         PUBLIC        TCON
  C:3F40H         PUBLIC        PanelInfoStr
  D:00BFH         PUBLIC        CHPCON
  C:89D6H         PUBLIC        main_init
  D:00F6H         PUBLIC        CHPENR
  X:014EH         PUBLIC        PowerDownWait
  D:0031H         PUBLIC        tm01
  D:0033H         PUBLIC        stopWatch
  C:6664H         PUBLIC        _TW2835Command
  D:0035H         SYMBOL        RS_buf
  B:00A8H.5       PUBLIC        ET2
  B:00C8H.7       PUBLIC        TF2
  D:008CH         PUBLIC        TH0
  D:008DH         PUBLIC        TH1
  C:C5E6H         PUBLIC        _DiffTime_ms
  B:00A8H.2       PUBLIC        EX1
  D:008AH         PUBLIC        TL0
  C:A9BDH         PUBLIC        InitTechwell
  B:0021H.7       PUBLIC        RS2_Xbusy
  C:BB4CH         PUBLIC        _Wait_ms
  B:00C8H.2       PUBLIC        TR2
  X:014FH         PUBLIC        updn_reg
  D:0049H         PUBLIC        RS_in
  D:004AH         PUBLIC        RS_out
  C:C2B7H         PUBLIC        serial2_int
  D:009AH         PUBLIC        S2BUF
  C:C661H         PUBLIC        _PowerLED
  D:00AAH         PUBLIC        S2CON
  D:00C8H         PUBLIC        T2CON
  D:00BAH         PUBLIC        S2BRT
BL51 BANKED LINKER/LOCATER V6.22                                                      12/15/2017  13:23:50  PAGE 32


  C:C804H         PUBLIC        RS_rx
  C:0003H         PUBLIC        _RS_tx
  D:004BH         PUBLIC        tm001
  D:00A6H         PUBLIC        AUXR2
  B:0022H.0       PUBLIC        ChangeKey
  C:BE65H         PUBLIC        GetTime_ms
  D:004CH         PUBLIC        tic_pc
  D:004EH         PUBLIC        RS_buf2
  D:0062H         PUBLIC        SystemClock
  C:3EDAH         PUBLIC        CommTable
  D:00ADH         PUBLIC        AUXIE
  C:B8E0H         SYMBOL        Com00AB
  C:B8E0H         SYMBOL        L?0172
  C:B8E1H         SYMBOL        L?0173
  C:B8E4H         SYMBOL        L?0174
  C:B8EDH         SYMBOL        L?0175
  C:B8EDH         SYMBOL        L?0176
  C:B8F6H         SYMBOL        L?0177
  C:B8F7H         SYMBOL        L?0178
  C:B8F8H         SYMBOL        L?0179
  C:B901H         SYMBOL        L?0181
  C:B912H         SYMBOL        L?0182
  C:B912H         SYMBOL        L?0183
  C:B91AH         SYMBOL        L?0184
  C:B91EH         SYMBOL        L?0185
  C:B926H         SYMBOL        L?0186
  C:B929H         SYMBOL        L?0187
  -------         PROC          COM00AB
  -------         ENDPROC       COM00AB
  C:8AEBH         SYMBOL        L?0188
  -------         PROC          MAIN_INIT
  -------         DO            
  X:0000H         SYMBOL        rev
  -------         ENDDO         
  C:89D6H         LINE#         288
  C:89D6H         LINE#         289
  C:89D6H         LINE#         295
  C:89DFH         LINE#         307
  C:89E6H         LINE#         308
  C:89F8H         LINE#         310
  C:8A05H         LINE#         311
  C:8A05H         LINE#         312
  C:8A18H         LINE#         313
  C:8A1FH         LINE#         314
  C:8A2DH         LINE#         315
  C:8A2DH         LINE#         319
  C:8A3AH         LINE#         320
  C:8A3AH         LINE#         321
  C:8A48H         LINE#         322
  C:8A48H         LINE#         323
  C:8A50H         LINE#         326
  C:8A55H         LINE#         327
  C:8A58H         LINE#         328
  C:8A61H         LINE#         333
  C:8A63H         LINE#         335
  C:8A63H         LINE#         337
  C:8A6BH         LINE#         339
BL51 BANKED LINKER/LOCATER V6.22                                                      12/15/2017  13:23:50  PAGE 33


  C:8A6BH         LINE#         340
  C:8A6DH         LINE#         342
  C:8A6DH         LINE#         343
  C:8A76H         LINE#         344
  C:8A7FH         LINE#         345
  C:8A85H         LINE#         346
  C:8A8AH         LINE#         351
  C:8A8FH         LINE#         353
  C:8A8FH         LINE#         360
  C:8A9BH         LINE#         361
  C:8A9DH         LINE#         362
  C:8AA1H         LINE#         364
  C:8AA6H         LINE#         366
  C:8AA9H         LINE#         369
  C:8AAFH         LINE#         374
  C:8AB2H         LINE#         375
  C:8AB5H         LINE#         378
  C:8ABAH         LINE#         379
  C:8ABFH         LINE#         380
  C:8AC2H         LINE#         391
  C:8AC5H         LINE#         395
  C:8ACAH         LINE#         396
  C:8ACFH         LINE#         398
  C:8AD8H         LINE#         402
  C:8AE1H         LINE#         403
  C:8AEAH         LINE#         404
  -------         ENDPROC       MAIN_INIT
  -------         PROC          INITCPU
  C:B930H         LINE#         409
  C:B930H         LINE#         410
  C:B930H         LINE#         411
  C:B933H         LINE#         412
  C:B936H         LINE#         413
  C:B939H         LINE#         414
  C:B93CH         LINE#         418
  C:B93FH         LINE#         425
  C:B942H         LINE#         427
  C:B945H         LINE#         429
  C:B948H         LINE#         433
  C:B94EH         LINE#         435
  C:B951H         LINE#         436
  C:B954H         LINE#         440
  C:B957H         LINE#         443
  C:B959H         LINE#         444
  C:B95BH         LINE#         450
  C:B95DH         LINE#         451
  C:B95FH         LINE#         452
  C:B961H         LINE#         458
  C:B964H         LINE#         459
  C:B967H         LINE#         462
  C:B96AH         LINE#         465
  C:B96DH         LINE#         467
  C:B96FH         LINE#         470
  C:B972H         LINE#         471
  C:B975H         LINE#         478
  C:B977H         LINE#         479
  C:B97AH         LINE#         483
BL51 BANKED LINKER/LOCATER V6.22                                                      12/15/2017  13:23:50  PAGE 34


  C:B97EH         LINE#         485
  -------         ENDPROC       INITCPU
  -------         PROC          TIMER0_INT
  -------         DO            
  D:000FH         SYMBOL        TempKey
  -------         ENDDO         
  C:814EH         LINE#         503
  C:8159H         LINE#         507
  C:815BH         LINE#         510
  C:8161H         LINE#         511
  C:8163H         LINE#         512
  C:8169H         LINE#         513
  C:8169H         LINE#         517
  C:8172H         LINE#         519
  C:8179H         LINE#         520
  C:8179H         LINE#         521
  C:8181H         LINE#         522
  C:8189H         LINE#         523
  C:8191H         LINE#         524
  C:8194H         LINE#         525
  C:8196H         LINE#         529
  C:819CH         LINE#         532
  C:819CH         LINE#         533
  C:819CH         LINE#         541
  C:81A6H         LINE#         544
  C:81AEH         LINE#         545
  C:81B1H         LINE#         546
  C:81B3H         LINE#         548
  C:81BCH         LINE#         549
  C:81BCH         LINE#         550
  C:81C7H         LINE#         551
  C:81DFH         LINE#         552
  C:81E2H         LINE#         556
  C:81EBH         LINE#         557
  C:81EEH         LINE#         559
  C:81F7H         LINE#         560
  C:81FAH         LINE#         563
  C:8200H         LINE#         565
  C:8209H         LINE#         566
  C:820CH         LINE#         568
  C:820FH         LINE#         569
  C:8215H         LINE#         570
  C:8218H         LINE#         571
  C:821EH         LINE#         572
  C:8225H         LINE#         573
  C:8225H         LINE#         574
  C:8227H         LINE#         575
  C:822DH         LINE#         576
  C:822DH         LINE#         578
  C:8234H         LINE#         579
  C:8234H         LINE#         580
  C:8236H         LINE#         581
  C:823CH         LINE#         582
  C:823CH         LINE#         584
  C:8243H         LINE#         585
  C:8243H         LINE#         586
  C:8245H         LINE#         587
BL51 BANKED LINKER/LOCATER V6.22                                                      12/15/2017  13:23:50  PAGE 35


  C:824BH         LINE#         588
  C:824BH         LINE#         590
  C:8252H         LINE#         591
  C:8257H         LINE#         593
  C:8259H         LINE#         600
  C:8259H         LINE#         603
  C:8263H         LINE#         604
  C:826BH         LINE#         607
  C:8272H         LINE#         608
  C:8277H         LINE#         609
  C:827EH         LINE#         610
  C:8280H         LINE#         611
  C:8282H         LINE#         612
  C:8284H         LINE#         613
  C:8289H         LINE#         614
  C:8290H         LINE#         615
  C:8292H         LINE#         616
  C:8294H         LINE#         617
  C:8297H         LINE#         618
  C:8297H         LINE#         619
  C:8299H         LINE#         620
  C:829BH         LINE#         622
  C:829BH         LINE#         623
  C:829EH         LINE#         624
  C:82A1H         LINE#         625
  C:82A1H         LINE#         627
  C:82A1H         LINE#         628
  -------         ENDPROC       TIMER0_INT
  -------         PROC          INITVARS
  C:C643H         LINE#         633
  C:C643H         LINE#         634
  C:C643H         LINE#         635
  C:C64CH         LINE#         644
  C:C650H         LINE#         649
  C:C655H         LINE#         650
  C:C65AH         LINE#         652
  C:C65CH         LINE#         653
  -------         ENDPROC       INITVARS
  C:AA29H         SYMBOL        L?0170
  C:AA3BH         SYMBOL        L?0180
  -------         PROC          INITTECHWELL
  C:A9BDH         LINE#         659
  C:A9BDH         LINE#         660
  C:A9BDH         LINE#         677
  C:A9D1H         LINE#         678
  C:A9D9H         LINE#         679
  C:A9E1H         LINE#         680
  C:A9EAH         LINE#         681
  C:A9F4H         LINE#         682
  C:A9F4H         LINE#         684
  C:A9FAH         LINE#         687
  C:AA04H         LINE#         688
  C:AA04H         LINE#         689
  C:AA0AH         LINE#         690
  C:AA15H         LINE#         691
  C:AA15H         LINE#         692
  C:AA15H         LINE#         694
BL51 BANKED LINKER/LOCATER V6.22                                                      12/15/2017  13:23:50  PAGE 36


  C:AA1AH         LINE#         695
  C:AA1AH         LINE#         696
  C:AA28H         LINE#         697
  C:AA28H         LINE#         698
  C:AA28H         LINE#         704
  -------         ENDPROC       INITTECHWELL
  -------         PROC          _POWERLED
  D:0007H         SYMBOL        flag
  C:C661H         LINE#         710
  C:C661H         LINE#         711
  C:C661H         LINE#         715
  C:C665H         LINE#         717
  C:C668H         LINE#         718
  C:C668H         LINE#         720
  C:C66AH         LINE#         721
  C:C66DH         LINE#         722
  C:C66DH         LINE#         724
  C:C670H         LINE#         725
  C:C673H         LINE#         727
  C:C674H         LINE#         728
  C:C678H         LINE#         729
  C:C678H         LINE#         731
  C:C67BH         LINE#         732
  C:C67EH         LINE#         734
  C:C67EH         LINE#         735
  -------         ENDPROC       _POWERLED
  -------         PROC          EXT1_INT
  C:CA35H         LINE#         744
  C:CA35H         LINE#         746
  C:CA37H         LINE#         747
  -------         ENDPROC       EXT1_INT
  -------         PROC          SERIAL_INT
  C:C11AH         LINE#         862
  C:C121H         LINE#         868
  C:C124H         LINE#         869
  C:C126H         LINE#         870
  C:C136H         LINE#         872
  C:C138H         LINE#         873
  C:C142H         LINE#         874
  C:C142H         LINE#         876
  C:C145H         LINE#         877
  C:C147H         LINE#         878
  C:C149H         LINE#         879
  C:C149H         LINE#         880
  -------         ENDPROC       SERIAL_INT
  -------         PROC          SERIAL2_INT
  C:C2B7H         LINE#         884
  C:C2BEH         LINE#         889
  C:C2C3H         LINE#         890
  C:C2C3H         LINE#         892
  C:C2C6H         LINE#         893
  C:C2CDH         LINE#         895
  C:C2CFH         LINE#         896
  C:C2D9H         LINE#         897
  C:C2D9H         LINE#         899
  C:C2DEH         LINE#         900
  C:C2DEH         LINE#         901
BL51 BANKED LINKER/LOCATER V6.22                                                      12/15/2017  13:23:50  PAGE 37


  C:C2E1H         LINE#         902
  C:C2E3H         LINE#         903
  C:C2E3H         LINE#         904
  -------         ENDPROC       SERIAL2_INT
  -------         PROC          RS_READY
  C:C945H         LINE#         911
  C:C945H         LINE#         912
  C:C945H         LINE#         913
  C:C94DH         LINE#         914
  C:C94FH         LINE#         915
  -------         ENDPROC       RS_READY
  -------         PROC          RS_RX
  -------         DO            
  D:0007H         SYMBOL        ret
  -------         ENDDO         
  C:C804H         LINE#         923
  C:C804H         LINE#         924
  C:C804H         LINE#         927
  C:C806H         LINE#         928
  C:C80DH         LINE#         929
  C:C80FH         LINE#         930
  C:C816H         LINE#         931
  C:C819H         LINE#         932
  C:C81BH         LINE#         934
  C:C81BH         LINE#         935
  -------         ENDPROC       RS_RX
  -------         PROC          _RS_TX
  D:0007H         SYMBOL        tx_buf
  C:0003H         LINE#         941
  C:0003H         LINE#         942
  C:0003H         LINE#         943
  C:0006H         LINE#         944
  C:0008H         LINE#         945
  C:000AH         LINE#         946
  -------         ENDPROC       _RS_TX
  -------         PROC          _RS2_TX
  D:0007H         SYMBOL        tx_buf
  C:C9D1H         LINE#         951
  C:C9D1H         LINE#         952
  C:C9D1H         LINE#         961
  C:C9D4H         LINE#         962
  C:C9D6H         LINE#         963
  C:C9D8H         LINE#         964
  -------         ENDPROC       _RS2_TX
  -------         PROC          TIMER2_INT
  C:C8B0H         LINE#         1002
  C:C8B2H         LINE#         1004
  C:C8B4H         LINE#         1006
  C:C8BCH         LINE#         1137
  -------         ENDPROC       TIMER2_INT
  -------         PROC          _DELAY
  D:0007H         SYMBOL        cnt
  -------         DO            
  D:0004H         SYMBOL        ttic01
  -------         ENDDO         
  C:C81CH         LINE#         1140
  C:C81CH         LINE#         1141
BL51 BANKED LINKER/LOCATER V6.22                                                      12/15/2017  13:23:50  PAGE 38


  C:C81CH         LINE#         1144
  C:C82AH         LINE#         1145
  C:C82AH         LINE#         1147
  C:C833H         LINE#         1148
  -------         ENDPROC       _DELAY
  -------         PROC          GETTIME_MS
  -------         DO            
  X:0015H         SYMBOL        tms
  -------         ENDDO         
  C:BE65H         LINE#         1155
  C:BE65H         LINE#         1156
  C:BE65H         LINE#         1159
  C:BE6EH         LINE#         1160
  C:BE99H         LINE#         1161
  C:BEA1H         LINE#         1162
  -------         ENDPROC       GETTIME_MS
  -------         PROC          _DIFFTIME_MS
  D:0006H         SYMBOL        stime
  D:0004H         SYMBOL        etime
  C:C5E6H         LINE#         1211
  C:C5E6H         LINE#         1212
  C:C5E6H         LINE#         1216
  C:C5EDH         LINE#         1217
  C:C5FDH         LINE#         1218
  C:C5FDH         LINE#         1219
  C:C5FDH         LINE#         1220
  C:C604H         LINE#         1221
  C:C604H         LINE#         1222
  -------         ENDPROC       _DIFFTIME_MS
  -------         PROC          _WAIT_MS
  X:0018H         SYMBOL        Tms
  -------         DO            
  X:001AH         SYMBOL        count
  -------         ENDDO         
  C:BB4CH         LINE#         1224
  C:BB54H         LINE#         1225
  C:BB54H         LINE#         1231
  C:BB5EH         LINE#         1232
  C:BB5EH         LINE#         1233
  C:BB87H         LINE#         1234
  C:BB91H         LINE#         1235
  C:BB93H         LINE#         1236
  -------         ENDPROC       _WAIT_MS
  C:689AH         SYMBOL        L?0169
  -------         PROC          _TW2835COMMAND
  X:0133H         SYMBOL        _commid
  D:0005H         SYMBOL        _attr0
  D:0003H         SYMBOL        _attr1
  X:0136H         SYMBOL        _attr2
  X:0137H         SYMBOL        _attr3
  -------         DO            
  X:0138H         SYMBOL        AttrBuf
  X:013CH         SYMBOL        i
  X:013DH         SYMBOL        j
  X:013EH         SYMBOL        WaitCnt
  -------         ENDDO         
  C:6664H         LINE#         1238
BL51 BANKED LINKER/LOCATER V6.22                                                      12/15/2017  13:23:50  PAGE 39


  C:6669H         LINE#         1239
  C:6669H         LINE#         1245
  C:666DH         LINE#         1246
  C:6671H         LINE#         1248
  C:6681H         LINE#         1250
  C:6688H         LINE#         1251
  C:668FH         LINE#         1255
  C:6700H         LINE#         1256
  C:6700H         LINE#         1258
  C:6700H         LINE#         1259
  C:6700H         LINE#         1260
  C:6700H         LINE#         1261
  C:6700H         LINE#         1262
  C:6700H         LINE#         1263
  C:6700H         LINE#         1264
  C:6702H         LINE#         1267
  C:6702H         LINE#         1268
  C:6702H         LINE#         1269
  C:6702H         LINE#         1270
  C:6707H         LINE#         1271
  C:6709H         LINE#         1272
  C:6709H         LINE#         1273
  C:6709H         LINE#         1274
  C:670BH         LINE#         1277
  C:670BH         LINE#         1278
  C:670BH         LINE#         1279
  C:670BH         LINE#         1280
  C:670EH         LINE#         1281
  C:6710H         LINE#         1282
  C:6710H         LINE#         1283
  C:6710H         LINE#         1284
  C:6712H         LINE#         1287
  C:6712H         LINE#         1288
  C:6712H         LINE#         1289
  C:6712H         LINE#         1290
  C:6712H         LINE#         1291
  C:6716H         LINE#         1292
  C:6716H         LINE#         1293
  C:6716H         LINE#         1294
  C:6718H         LINE#         1297
  C:6718H         LINE#         1298
  C:6718H         LINE#         1299
  C:671DH         LINE#         1300
  C:6720H         LINE#         1301
  C:6727H         LINE#         1302
  C:6727H         LINE#         1303
  C:6729H         LINE#         1306
  C:6729H         LINE#         1307
  C:6729H         LINE#         1308
  C:6729H         LINE#         1309
  C:6729H         LINE#         1310
  C:6729H         LINE#         1311
  C:672CH         LINE#         1314
  C:672CH         LINE#         1315
  C:672DH         LINE#         1316
  C:6731H         LINE#         1317
  C:6733H         LINE#         1318
BL51 BANKED LINKER/LOCATER V6.22                                                      12/15/2017  13:23:50  PAGE 40


  C:6733H         LINE#         1319
  C:6735H         LINE#         1322
  C:6735H         LINE#         1323
  C:6735H         LINE#         1324
  C:673AH         LINE#         1325
  C:673CH         LINE#         1326
  C:673CH         LINE#         1327
  C:673EH         LINE#         1331
  C:673EH         LINE#         1332
  C:673EH         LINE#         1333
  C:6742H         LINE#         1334
  C:6744H         LINE#         1335
  C:6744H         LINE#         1336
  C:6746H         LINE#         1339
  C:6746H         LINE#         1340
  C:6749H         LINE#         1341
  C:674CH         LINE#         1342
  C:674FH         LINE#         1343
  C:6752H         LINE#         1344
  C:6755H         LINE#         1350
  C:6755H         LINE#         1351
  C:6755H         LINE#         1352
  C:675AH         LINE#         1353
  C:675AH         LINE#         1354
  C:675EH         LINE#         1355
  C:6761H         LINE#         1356
  C:6764H         LINE#         1362
  C:6764H         LINE#         1366
  C:6769H         LINE#         1367
  C:676DH         LINE#         1368
  C:676FH         LINE#         1369
  C:676FH         LINE#         1370
  C:6772H         LINE#         1373
  C:6772H         LINE#         1374
  C:6772H         LINE#         1375
  C:6772H         LINE#         1376
  C:6777H         LINE#         1377
  C:677AH         LINE#         1378
  C:677AH         LINE#         1379
  C:677DH         LINE#         1382
  C:677DH         LINE#         1383
  C:677DH         LINE#         1384
  C:677DH         LINE#         1385
  C:6782H         LINE#         1386
  C:6789H         LINE#         1387
  C:6789H         LINE#         1388
  C:678BH         LINE#         1391
  C:678BH         LINE#         1392
  C:678BH         LINE#         1393
  C:678FH         LINE#         1394
  C:6792H         LINE#         1395
  C:6792H         LINE#         1396
  C:6795H         LINE#         1399
  C:6795H         LINE#         1400
  C:6795H         LINE#         1401
  C:6796H         LINE#         1402
  C:6799H         LINE#         1403
BL51 BANKED LINKER/LOCATER V6.22                                                      12/15/2017  13:23:50  PAGE 41


  C:679CH         LINE#         1404
  C:679CH         LINE#         1405
  C:679EH         LINE#         1408
  C:679EH         LINE#         1409
  C:679FH         LINE#         1410
  C:67A3H         LINE#         1411
  C:67A6H         LINE#         1412
  C:67A9H         LINE#         1413
  C:67ABH         LINE#         1416
  C:67ABH         LINE#         1417
  C:67B0H         LINE#         1418
  C:67B1H         LINE#         1419
  C:67B5H         LINE#         1420
  C:67BDH         LINE#         1421
  C:67BFH         LINE#         1424
  C:67BFH         LINE#         1425
  C:67BFH         LINE#         1426
  C:67C2H         LINE#         1427
  C:67C2H         LINE#         1428
  C:67C6H         LINE#         1429
  C:67C9H         LINE#         1430
  C:67CBH         LINE#         1433
  C:67CEH         LINE#         1435
  C:67D2H         LINE#         1436
  C:67D4H         LINE#         1437
  C:67D4H         LINE#         1438
  C:67D6H         LINE#         1441
  C:67D6H         LINE#         1442
  C:67D9H         LINE#         1443
  C:67DCH         LINE#         1444
  C:67E4H         LINE#         1445
  C:67E7H         LINE#         1446
  C:67E7H         LINE#         1447
  C:67E7H         LINE#         1449
  C:6807H         LINE#         1454
  C:6815H         LINE#         1455
  C:6815H         LINE#         1456
  C:6818H         LINE#         1457
  C:681BH         LINE#         1459
  C:681BH         LINE#         1461
  C:6820H         LINE#         1462
  C:6820H         LINE#         1464
  C:6823H         LINE#         1465
  C:682EH         LINE#         1466
  C:684CH         LINE#         1467
  C:684CH         LINE#         1469
  C:685BH         LINE#         1470
  C:685BH         LINE#         1471
  C:6864H         LINE#         1472
  C:6864H         LINE#         1475
  C:6879H         LINE#         1476
  C:687CH         LINE#         1478
  C:687CH         LINE#         1480
  C:6884H         LINE#         1482
  C:6884H         LINE#         1483
  C:688BH         LINE#         1485
  C:6897H         LINE#         1486
BL51 BANKED LINKER/LOCATER V6.22                                                      12/15/2017  13:23:50  PAGE 42


  C:6897H         LINE#         1512
  C:6899H         LINE#         1514
  -------         ENDPROC       _TW2835COMMAND
  -------         ENDMOD        CPU

  -------         MODULE        DISPINFO
  C:0000H         SYMBOL        _ICE_DUMMY_
  C:8C6AH         PUBLIC        TW8806String
  X:0158H         PUBLIC        DisplayedOSD
  C:9AA6H         PUBLIC        DisplayVol
  C:C8CEH         PUBLIC        ClearMuteInfo
  X:0159H         PUBLIC        mirror_flag
  C:786DH         PUBLIC        DisplayHandler
  D:007AH         SYMBOL        OSDDisplayedTime
  C:C3D8H         PUBLIC        ClearTVInfo
  C:C95BH         PUBLIC        ClearInput2s
  C:C8BFH         PUBLIC        ClearVlossOsd
  C:CA1FH         PUBLIC        GetDisplayedOSD
  X:015AH         PUBLIC        vloss_flag
  C:8C77H         PUBLIC        TechwellString
  C:CA11H         PUBLIC        _SetDisplayedOSD
  C:A646H         PUBLIC        CheckAndClearOSD
  X:015BH         PUBLIC        vloss_buf
  C:A1D2H         PUBLIC        VlossHandler
  C:B35EH         PUBLIC        ClearOSDInfo
  C:5AC5H         PUBLIC        DisplayInput
  C:C915H         PUBLIC        _ClearDisplayedOSD
  C:C834H         PUBLIC        ClearInput
  C:B83DH         SYMBOL        Com008B
  C:B83DH         SYMBOL        L?0140
  C:B83DH         SYMBOL        L?0141
  C:B841H         SYMBOL        L?0142
  C:B843H         SYMBOL        L?0143
  C:B84AH         SYMBOL        L?0145
  C:B84AH         SYMBOL        L?0146
  C:B84EH         SYMBOL        L?0147
  C:B850H         SYMBOL        L?0148
  C:B857H         SYMBOL        L?0151
  C:B859H         SYMBOL        L?0152
  C:B860H         SYMBOL        L?0157
  C:B860H         SYMBOL        L?0158
  C:B868H         SYMBOL        L?0159
  C:B868H         SYMBOL        L?0160
  C:B871H         SYMBOL        L?0165
  C:B871H         SYMBOL        L?0166
  C:B878H         SYMBOL        L?0170
  C:B884H         SYMBOL        L?0172
  -------         PROC          COM008B
  -------         ENDPROC       COM008B
  -------         PROC          _CLEARDISPLAYEDOSD
  D:0007H         SYMBOL        newd
  C:C915H         LINE#         136
  C:C915H         LINE#         137
  C:C915H         LINE#         138
  C:C920H         LINE#         139
  -------         ENDPROC       _CLEARDISPLAYEDOSD
  -------         PROC          _SETDISPLAYEDOSD
BL51 BANKED LINKER/LOCATER V6.22                                                      12/15/2017  13:23:50  PAGE 43


  D:0007H         SYMBOL        newd
  C:CA11H         LINE#         141
  C:CA11H         LINE#         142
  C:CA11H         LINE#         143
  C:CA17H         LINE#         144
  -------         ENDPROC       _SETDISPLAYEDOSD
  -------         PROC          GETDISPLAYEDOSD
  C:CA1FH         LINE#         146
  C:CA1FH         LINE#         147
  C:CA1FH         LINE#         148
  C:CA24H         LINE#         149
  -------         ENDPROC       GETDISPLAYEDOSD
  -------         PROC          CLEAROSDINFO
  -------         DO            
  X:0015H         SYMBOL        dt
  -------         ENDDO         
  C:B35EH         LINE#         151
  C:B35EH         LINE#         152
  C:B35EH         LINE#         158
  C:B366H         LINE#         160
  C:B37AH         LINE#         166
  C:B385H         LINE#         167
  C:B385H         LINE#         169
  C:B388H         LINE#         171
  C:B38AH         LINE#         173
  C:B38AH         LINE#         174
  C:B394H         LINE#         175
  C:B39EH         LINE#         176
  C:B3A8H         LINE#         177
  C:B3B2H         LINE#         178
  C:B3BCH         LINE#         179
  -------         ENDPROC       CLEAROSDINFO
  -------         PROC          VLOSSHANDLER
  -------         DO            
  C:8C84H         SYMBOL        Str_VLOSS
  C:8C8AH         SYMBOL        Str_VLOSS_M
  -------         ENDDO         
  C:A1D2H         LINE#         187
  C:A1D2H         LINE#         188
  C:A1D2H         LINE#         192
  C:A1DEH         LINE#         194
  C:A1E8H         LINE#         195
  C:A1E8H         LINE#         196
  C:A1EEH         LINE#         197
  C:A1FAH         LINE#         198
  C:A1FAH         LINE#         199
  C:A200H         LINE#         200
  C:A20EH         LINE#         201
  C:A20EH         LINE#         202
  C:A20EH         LINE#         203
  C:A20EH         LINE#         204
  C:A210H         LINE#         206
  C:A210H         LINE#         207
  C:A217H         LINE#         208
  C:A225H         LINE#         209
  C:A22AH         LINE#         210
  C:A22FH         LINE#         211
BL51 BANKED LINKER/LOCATER V6.22                                                      12/15/2017  13:23:50  PAGE 44


  C:A236H         LINE#         212
  C:A236H         LINE#         219
  C:A23CH         LINE#         223
  C:A23EH         LINE#         224
  C:A24CH         LINE#         225
  C:A24CH         LINE#         227
  C:A251H         LINE#         228
  C:A256H         LINE#         230
  C:A25BH         LINE#         232
  C:A264H         LINE#         233
  C:A268H         LINE#         235
  C:A26FH         LINE#         238
  C:A278H         LINE#         240
  C:A278H         LINE#         241
  -------         ENDPROC       VLOSSHANDLER
  C:5D9FH         SYMBOL        L?0149
  C:5DB0H         SYMBOL        L?0150
  C:5DC1H         SYMBOL        L?0153
  C:5DCAH         SYMBOL        L?0154
  C:5DDBH         SYMBOL        L?0156
  C:5DE6H         SYMBOL        L?0161
  C:5DF2H         SYMBOL        L?0162
  C:5DFBH         SYMBOL        L?0163
  C:5E07H         SYMBOL        L?0164
  C:5E15H         SYMBOL        L?0167
  -------         PROC          DISPLAYINPUT
  -------         DO            
  D:0007H         SYMBOL        inputs
  X:0012H         SYMBOL        len1
  X:0013H         SYMBOL        i
  X:0014H         SYMBOL        SystemAddr
  C:8C94H         SYMBOL        Str_CAM_A
  C:8C9DH         SYMBOL        Str_CAM_B
  C:8CA7H         SYMBOL        Str_CAM_R
  C:8CB1H         SYMBOL        Str_AV
  C:8CBBH         SYMBOL        Str_CAM_Mirror_A
  C:8CC8H         SYMBOL        Str_CAM_Mirror_B
  C:8CD7H         SYMBOL        Str_CAM_Mirror_R
  C:8CE7H         SYMBOL        Str_Mirror_J
  C:8CEBH         SYMBOL        Str_Mirror_S
  C:8CEEH         SYMBOL        Str_S
  -------         ENDDO         
  C:5AC5H         LINE#         244
  C:5AC5H         LINE#         245
  C:5AC5H         LINE#         276
  C:5ACBH         LINE#         278
  C:5ACEH         LINE#         280
  C:5AD7H         LINE#         281
  C:5ADFH         LINE#         282
  C:5AE4H         LINE#         283
  C:5B07H         LINE#         284
  C:5B0EH         LINE#         286
  C:5B11H         LINE#         320
  C:5B17H         LINE#         321
  C:5B2BH         LINE#         323
  C:5B42H         LINE#         325
  C:5B5EH         LINE#         326
BL51 BANKED LINKER/LOCATER V6.22                                                      12/15/2017  13:23:50  PAGE 45


  C:5B5EH         LINE#         327
  C:5B5EH         LINE#         328
  C:5B65H         LINE#         330
  C:5B6AH         LINE#         331
  C:5B6AH         LINE#         333
  C:5B74H         LINE#         337
  C:5B76H         LINE#         338
  C:5B83H         LINE#         340
  C:5B88H         LINE#         342
  C:5B8BH         LINE#         347
  C:5B93H         LINE#         348
  C:5B93H         LINE#         349
  C:5B98H         LINE#         350
  C:5B98H         LINE#         351
  C:5B9FH         LINE#         353
  C:5BA4H         LINE#         357
  C:5BA7H         LINE#         359
  C:5BA7H         LINE#         360
  C:5BA7H         LINE#         361
  C:5BAFH         LINE#         362
  C:5BAFH         LINE#         363
  C:5BAFH         LINE#         364
  C:5BB2H         LINE#         366
  C:5BB2H         LINE#         369
  C:5BB7H         LINE#         371
  C:5BB9H         LINE#         372
  C:5BCDH         LINE#         373
  C:5BD3H         LINE#         374
  C:5BD3H         LINE#         375
  C:5BD6H         LINE#         376
  C:5BD8H         LINE#         377
  C:5BDDH         LINE#         378
  C:5BDDH         LINE#         379
  C:5BE3H         LINE#         380
  C:5BE3H         LINE#         382
  C:5BEEH         LINE#         383
  C:5BF0H         LINE#         385
  C:5BF0H         LINE#         386
  C:5BF2H         LINE#         387
  C:5C05H         LINE#         388
  C:5C05H         LINE#         389
  C:5C05H         LINE#         390
  C:5C12H         LINE#         391
  C:5C12H         LINE#         394
  C:5C12H         LINE#         395
  C:5C12H         LINE#         396
  C:5C15H         LINE#         398
  C:5C15H         LINE#         399
  C:5C1CH         LINE#         400
  C:5C21H         LINE#         401
  C:5C21H         LINE#         403
  C:5C24H         LINE#         404
  C:5C27H         LINE#         405
  C:5C34H         LINE#         406
  C:5C3AH         LINE#         407
  C:5C42H         LINE#         408
  C:5C4AH         LINE#         409
BL51 BANKED LINKER/LOCATER V6.22                                                      12/15/2017  13:23:50  PAGE 46


  C:5C4AH         LINE#         410
  C:5C53H         LINE#         411
  C:5C53H         LINE#         412
  C:5C56H         LINE#         413
  C:5C5CH         LINE#         414
  C:5C5EH         LINE#         416
  C:5C5EH         LINE#         417
  C:5C61H         LINE#         418
  C:5C6CH         LINE#         419
  C:5C6CH         LINE#         420
  C:5C6CH         LINE#         422
  C:5C6FH         LINE#         424
  C:5C6FH         LINE#         425
  C:5C74H         LINE#         426
  C:5C78H         LINE#         427
  C:5C7BH         LINE#         428
  C:5C81H         LINE#         429
  C:5C86H         LINE#         430
  C:5C89H         LINE#         431
  C:5C91H         LINE#         432
  C:5C91H         LINE#         433
  C:5C96H         LINE#         434
  C:5C96H         LINE#         435
  C:5C96H         LINE#         436
  C:5C9DH         LINE#         437
  C:5CA0H         LINE#         439
  C:5CA0H         LINE#         440
  C:5CA0H         LINE#         441
  C:5CA7H         LINE#         442
  C:5CA7H         LINE#         443
  C:5CA7H         LINE#         444
  C:5CA7H         LINE#         445
  C:5CAAH         LINE#         448
  C:5CAAH         LINE#         449
  C:5CB1H         LINE#         451
  C:5CB6H         LINE#         452
  C:5CB6H         LINE#         453
  C:5CBAH         LINE#         454
  C:5CBDH         LINE#         455
  C:5CC6H         LINE#         457
  C:5CCBH         LINE#         458
  C:5CCBH         LINE#         460
  C:5CD0H         LINE#         464
  C:5CD3H         LINE#         465
  C:5CDBH         LINE#         466
  C:5CDBH         LINE#         467
  C:5CE0H         LINE#         468
  C:5CE0H         LINE#         469
  C:5CE7H         LINE#         470
  C:5CECH         LINE#         471
  C:5CEEH         LINE#         473
  C:5CEEH         LINE#         474
  C:5CEEH         LINE#         475
  C:5CF6H         LINE#         476
  C:5CF6H         LINE#         477
  C:5CF6H         LINE#         478
  C:5CF9H         LINE#         480
BL51 BANKED LINKER/LOCATER V6.22                                                      12/15/2017  13:23:50  PAGE 47


  C:5CF9H         LINE#         483
  C:5CFDH         LINE#         485
  C:5D00H         LINE#         486
  C:5D06H         LINE#         488
  C:5D0BH         LINE#         489
  C:5D10H         LINE#         490
  C:5D15H         LINE#         491
  C:5D15H         LINE#         492
  C:5D1AH         LINE#         493
  C:5D1AH         LINE#         494
  C:5D20H         LINE#         496
  C:5D2BH         LINE#         500
  C:5D2DH         LINE#         502
  C:5D2DH         LINE#         503
  C:5D33H         LINE#         504
  C:5D42H         LINE#         505
  C:5D42H         LINE#         506
  C:5D42H         LINE#         507
  C:5D42H         LINE#         508
  C:5D44H         LINE#         510
  C:5D44H         LINE#         511
  C:5D4AH         LINE#         513
  C:5D4FH         LINE#         514
  C:5D51H         LINE#         516
  C:5D62H         LINE#         521
  C:5D6EH         LINE#         522
  C:5D6EH         LINE#         526
  C:5D78H         LINE#         527
  C:5D82H         LINE#         529
  C:5D82H         LINE#         530
  C:5D82H         LINE#         532
  C:5D82H         LINE#         534
  C:5D88H         LINE#         552
  C:5D8FH         LINE#         563
  C:5D94H         LINE#         565
  C:5D97H         LINE#         568
  C:5D9EH         LINE#         569
  -------         ENDPROC       DISPLAYINPUT
  C:79C9H         SYMBOL        L?0144
  C:79E7H         SYMBOL        L?0155
  C:7A05H         SYMBOL        L?0168
  C:7A10H         SYMBOL        L?0171
  -------         PROC          DISPLAYHANDLER
  -------         DO            
  X:015FH         SYMBOL        i
  X:0160H         SYMBOL        len1
  D:0007H         SYMBOL        inputs
  C:8CF1H         SYMBOL        Str_CAM_A
  C:8CFBH         SYMBOL        Str_CAM_B
  C:8D05H         SYMBOL        Str_CAM_R
  C:8D0FH         SYMBOL        Str_AV
  C:8D19H         SYMBOL        Str_reverse
  -------         ENDDO         
  C:786DH         LINE#         578
  C:786DH         LINE#         579
  C:786DH         LINE#         592
  C:7872H         LINE#         596
BL51 BANKED LINKER/LOCATER V6.22                                                      12/15/2017  13:23:50  PAGE 48


  C:787AH         LINE#         598
  C:7883H         LINE#         600
  C:78A8H         LINE#         601
  C:78ABH         LINE#         602
  C:78B1H         LINE#         603
  C:78B1H         LINE#         604
  C:78BDH         LINE#         605
  C:78BDH         LINE#         606
  C:78C5H         LINE#         608
  C:78CBH         LINE#         611
  C:78E0H         LINE#         612
  C:78E0H         LINE#         613
  C:78E0H         LINE#         614
  C:78E7H         LINE#         616
  C:78EFH         LINE#         617
  C:78EFH         LINE#         619
  C:78EFH         LINE#         620
  C:78EFH         LINE#         621
  C:78F2H         LINE#         622
  C:78FBH         LINE#         623
  C:7900H         LINE#         624
  C:7906H         LINE#         625
  C:7918H         LINE#         626
  C:7918H         LINE#         627
  C:7918H         LINE#         628
  C:7918H         LINE#         629
  C:7918H         LINE#         630
  C:791BH         LINE#         632
  C:791BH         LINE#         648
  C:791BH         LINE#         664
  C:791BH         LINE#         666
  C:791BH         LINE#         667
  C:7922H         LINE#         669
  C:792AH         LINE#         670
  C:792AH         LINE#         671
  C:792AH         LINE#         673
  C:792AH         LINE#         674
  C:792DH         LINE#         675
  C:7936H         LINE#         676
  C:793BH         LINE#         677
  C:7941H         LINE#         678
  C:794DH         LINE#         679
  C:794DH         LINE#         680
  C:794DH         LINE#         681
  C:794DH         LINE#         682
  C:794DH         LINE#         684
  C:7950H         LINE#         686
  C:7950H         LINE#         702
  C:7950H         LINE#         718
  C:7950H         LINE#         720
  C:7950H         LINE#         721
  C:7956H         LINE#         722
  C:7956H         LINE#         723
  C:7956H         LINE#         724
  C:7959H         LINE#         725
  C:7965H         LINE#         741
  C:7968H         LINE#         743
BL51 BANKED LINKER/LOCATER V6.22                                                      12/15/2017  13:23:50  PAGE 49


  C:7968H         LINE#         744
  C:796FH         LINE#         746
  C:7974H         LINE#         747
  C:7974H         LINE#         748
  C:7974H         LINE#         750
  C:7974H         LINE#         751
  C:7977H         LINE#         752
  C:7986H         LINE#         753
  C:798CH         LINE#         754
  C:7996H         LINE#         755
  C:79A2H         LINE#         756
  C:79A2H         LINE#         757
  C:79ADH         LINE#         758
  C:79BDH         LINE#         759
  C:79BDH         LINE#         761
  C:79BDH         LINE#         763
  C:79BDH         LINE#         779
  C:79BDH         LINE#         796
  C:79BDH         LINE#         797
  C:79BDH         LINE#         827
  C:79C4H         LINE#         828
  C:79C9H         LINE#         833
  -------         ENDPROC       DISPLAYHANDLER
  -------         PROC          CLEARINPUT
  C:C834H         LINE#         836
  C:C834H         LINE#         837
  C:C834H         LINE#         838
  C:C839H         LINE#         839
  C:C840H         LINE#         842
  C:C847H         LINE#         847
  C:C849H         LINE#         849
  -------         ENDPROC       CLEARINPUT
  -------         PROC          CLEARINPUT2S
  C:C95BH         LINE#         851
  C:C95BH         LINE#         852
  C:C95BH         LINE#         854
  C:C962H         LINE#         862
  C:C964H         LINE#         863
  -------         ENDPROC       CLEARINPUT2S
  -------         PROC          CLEARVLOSSOSD
  C:C8BFH         LINE#         865
  C:C8BFH         LINE#         866
  C:C8BFH         LINE#         868
  C:C8C6H         LINE#         870
  C:C8CBH         LINE#         875
  C:C8CDH         LINE#         876
  -------         ENDPROC       CLEARVLOSSOSD
  C:9B64H         SYMBOL        L?0169
  -------         PROC          DISPLAYVOL
  -------         DO            
  X:0006H         SYMBOL        Str
  D:0007H         SYMBOL        len
  -------         ENDDO         
  C:9AA6H         LINE#         877
  C:9AA6H         LINE#         878
  C:9AA6H         LINE#         883
  C:9AAFH         LINE#         886
BL51 BANKED LINKER/LOCATER V6.22                                                      12/15/2017  13:23:50  PAGE 50


  C:9AB1H         LINE#         887
  C:9AB4H         LINE#         889
  C:9AB6H         LINE#         890
  C:9AB9H         LINE#         891
  C:9AC2H         LINE#         893
  C:9AC9H         LINE#         894
  C:9AC9H         LINE#         895
  C:9ACCH         LINE#         899
  C:9AD1H         LINE#         901
  C:9ADAH         LINE#         903
  C:9AE3H         LINE#         904
  C:9AEEH         LINE#         906
  C:9AF9H         LINE#         913
  C:9B15H         LINE#         915
  C:9B1AH         LINE#         916
  C:9B32H         LINE#         918
  C:9B39H         LINE#         919
  C:9B40H         LINE#         920
  C:9B45H         LINE#         921
  C:9B45H         LINE#         923
  C:9B48H         LINE#         924
  C:9B4DH         LINE#         926
  C:9B55H         LINE#         928
  C:9B5CH         LINE#         929
  C:9B63H         LINE#         930
  -------         ENDPROC       DISPLAYVOL
  -------         PROC          CLEARMUTEINFO
  C:C8CEH         LINE#         1001
  C:C8CEH         LINE#         1002
  C:C8CEH         LINE#         1003
  C:C8D5H         LINE#         1004
  C:C8DCH         LINE#         1005
  -------         ENDPROC       CLEARMUTEINFO
  -------         PROC          CHECKANDCLEAROSD
  -------         DO            
  D:0004H         SYMBOL        ctime
  X:0001H         SYMBOL        stime
  X:0003H         SYMBOL        diff
  X:0005H         SYMBOL        dt
  X:0006H         SYMBOL        Result
  -------         ENDDO         
  C:A646H         LINE#         1007
  C:A646H         LINE#         1008
  C:A646H         LINE#         1011
  C:A64BH         LINE#         1013
  C:A653H         LINE#         1014
  C:A65AH         LINE#         1016
  C:A65EH         LINE#         1017
  C:A669H         LINE#         1018
  C:A671H         LINE#         1019
  C:A673H         LINE#         1020
  C:A673H         LINE#         1021
  C:A67DH         LINE#         1022
  C:A684H         LINE#         1023
  C:A684H         LINE#         1025
  C:A68BH         LINE#         1027
  C:A6A3H         LINE#         1029
BL51 BANKED LINKER/LOCATER V6.22                                                      12/15/2017  13:23:50  PAGE 51


  C:A6ABH         LINE#         1030
  C:A6ABH         LINE#         1034
  C:A6B3H         LINE#         1035
  C:A6B6H         LINE#         1038
  C:A6B8H         LINE#         1041
  C:A6B8H         LINE#         1043
  C:A6BFH         LINE#         1044
  C:A6BFH         LINE#         1048
  C:A6C7H         LINE#         1050
  C:A6D1H         LINE#         1051
  C:A6D7H         LINE#         1053
  C:A6DAH         LINE#         1055
  C:A6DCH         LINE#         1057
  C:A6DCH         LINE#         1068
  C:A6DFH         LINE#         1069
  C:A6DFH         LINE#         1070
  C:A6DFH         LINE#         1072
  C:A6E1H         LINE#         1073
  -------         ENDPROC       CHECKANDCLEAROSD
  C:C3FCH         SYMBOL        L?0173
  -------         PROC          CLEARTVINFO
  C:C3D8H         LINE#         1163
  C:C3D8H         LINE#         1164
  C:C3D8H         LINE#         1166
  C:C3DFH         LINE#         1167
  C:C3DFH         LINE#         1169
  C:C3E4H         LINE#         1171
  C:C3E6H         LINE#         1172
  C:C3ECH         LINE#         1175
  C:C3EEH         LINE#         1177
  C:C3EEH         LINE#         1178
  C:C3F0H         LINE#         1179
  C:C3F6H         LINE#         1180
  C:C3F6H         LINE#         1182
  C:C3F9H         LINE#         1184
  C:C3FBH         LINE#         1185
  -------         ENDPROC       CLEARTVINFO
  -------         ENDMOD        DISPINFO

  -------         MODULE        ETC_EEP
  C:0000H         SYMBOL        _ICE_DUMMY_
  C:C965H         PUBLIC        _SaveDebugLevelEE
  C:C992H         PUBLIC        _SaveOSDLangEE
  C:C9D9H         PUBLIC        GetDebugLevelEE
  C:C9F9H         PUBLIC        GetOSDLangEE
  C:C9E9H         PUBLIC        GetPossibleAutoDetectStdEE
  C:AA48H         PUBLIC        SetPossibleAutoDetectStdEE
  C:C96EH         PUBLIC        _SaveWideModeEE
  C:C9E1H         PUBLIC        GetWideModeEE
  C:CA01H         PUBLIC        GetAudioVolEE
  C:C509H         PUBLIC        ClearBasicEE
  C:C950H         PUBLIC        _GetVideoDatafromEE
  C:C989H         PUBLIC        _SaveInputSelectionEE
  C:C99BH         PUBLIC        _SetAudioVolEE
  C:C977H         PUBLIC        _SaveOSDPositionModeEE
  C:CA09H         PUBLIC        GetPCAudioVolEE
  C:BC20H         PUBLIC        _SaveFWRevEE
BL51 BANKED LINKER/LOCATER V6.22                                                      12/15/2017  13:23:50  PAGE 52


  C:C9A4H         PUBLIC        _SetPCAudioVolEE
  C:C9F1H         PUBLIC        GetOSDPositionModeEE
  C:C980H         PUBLIC        _SaveVideoDatatoEE
  C:B29DH         PUBLIC        GetFWRevEE
  -------         PROC          GETFWREVEE
  -------         DO            
  X:0002H         SYMBOL        rev
  -------         ENDDO         
  C:B29DH         LINE#         23
  C:B29DH         LINE#         24
  C:B29DH         LINE#         27
  C:B2AAH         LINE#         28
  C:B2B8H         LINE#         29
  C:B2C6H         LINE#         30
  C:B2D6H         LINE#         32
  C:B2E5H         LINE#         33
  C:B2FDH         LINE#         35
  C:B2FDH         LINE#         36
  -------         ENDPROC       GETFWREVEE
  -------         PROC          _SAVEFWREVEE
  X:0002H         SYMBOL        rev
  C:BC20H         LINE#         38
  C:BC28H         LINE#         39
  C:BC28H         LINE#         40
  C:BC30H         LINE#         41
  C:BC39H         LINE#         42
  C:BC42H         LINE#         43
  C:BC4BH         LINE#         45
  C:BC57H         LINE#         46
  -------         ENDPROC       _SAVEFWREVEE
  -------         PROC          GETDEBUGLEVELEE
  C:C9D9H         LINE#         49
  C:C9D9H         LINE#         50
  C:C9D9H         LINE#         51
  C:C9E0H         LINE#         52
  -------         ENDPROC       GETDEBUGLEVELEE
  -------         PROC          _SAVEDEBUGLEVELEE
  D:0007H         SYMBOL        dl
  C:C965H         LINE#         54
  C:C965H         LINE#         55
  C:C965H         LINE#         56
  -------         ENDPROC       _SAVEDEBUGLEVELEE
  -------         PROC          GETWIDEMODEEE
  C:C9E1H         LINE#         61
  C:C9E1H         LINE#         62
  C:C9E1H         LINE#         63
  C:C9E8H         LINE#         64
  -------         ENDPROC       GETWIDEMODEEE
  -------         PROC          _SAVEWIDEMODEEE
  D:0007H         SYMBOL        dl
  C:C96EH         LINE#         66
  C:C96EH         LINE#         67
  C:C96EH         LINE#         68
  -------         ENDPROC       _SAVEWIDEMODEEE
  -------         PROC          GETPOSSIBLEAUTODETECTSTDEE
  -------         DO            
  D:0007H         SYMBOL        val
BL51 BANKED LINKER/LOCATER V6.22                                                      12/15/2017  13:23:50  PAGE 53


  -------         ENDDO         
  C:C9E9H         LINE#         73
  C:C9E9H         LINE#         74
  C:C9E9H         LINE#         77
  C:C9F0H         LINE#         83
  C:C9F0H         LINE#         84
  -------         ENDPROC       GETPOSSIBLEAUTODETECTSTDEE
  -------         PROC          SETPOSSIBLEAUTODETECTSTDEE
  -------         DO            
  X:0002H         SYMBOL        i
  X:0003H         SYMBOL        val
  -------         ENDDO         
  C:AA48H         LINE#         86
  C:AA48H         LINE#         87
  C:AA48H         LINE#         88
  C:AA4DH         LINE#         91
  C:AA51H         LINE#         92
  C:AA7FH         LINE#         93
  C:AA7FH         LINE#         94
  C:AA8BH         LINE#         100
  C:AA8BH         LINE#         101
  C:AA94H         LINE#         102
  C:AA9DH         LINE#         103
  C:AAA6H         LINE#         104
  C:AAAFH         LINE#         105
  C:AAB8H         LINE#         106
  C:AAC1H         LINE#         107
  C:AAC8H         LINE#         108
  C:AAC8H         LINE#         109
  C:AAC8H         LINE#         110
  -------         ENDPROC       SETPOSSIBLEAUTODETECTSTDEE
  -------         PROC          GETOSDPOSITIONMODEEE
  -------         DO            
  D:0007H         SYMBOL        val
  -------         ENDDO         
  C:C9F1H         LINE#         117
  C:C9F1H         LINE#         118
  C:C9F1H         LINE#         121
  C:C9F8H         LINE#         123
  C:C9F8H         LINE#         124
  -------         ENDPROC       GETOSDPOSITIONMODEEE
  -------         PROC          _SAVEOSDPOSITIONMODEEE
  D:0007H         SYMBOL        ndata
  C:C977H         LINE#         126
  C:C977H         LINE#         127
  C:C977H         LINE#         129
  -------         ENDPROC       _SAVEOSDPOSITIONMODEEE
  -------         PROC          _GETVIDEODATAFROMEE
  D:0007H         SYMBOL        offset
  -------         DO            
  D:0007H         SYMBOL        val
  -------         ENDDO         
  C:C950H         LINE#         136
  C:C950H         LINE#         137
  C:C950H         LINE#         141
  C:C95AH         LINE#         145
  C:C95AH         LINE#         146
BL51 BANKED LINKER/LOCATER V6.22                                                      12/15/2017  13:23:50  PAGE 54


  -------         ENDPROC       _GETVIDEODATAFROMEE
  -------         PROC          _SAVEVIDEODATATOEE
  D:0007H         SYMBOL        offset
  D:0005H         SYMBOL        ndata
  -------         DO            
  D:0007H         SYMBOL        tot
  -------         ENDDO         
  C:C980H         LINE#         148
  C:C980H         LINE#         149
  C:C980H         LINE#         153
  C:C984H         LINE#         157
  -------         ENDPROC       _SAVEVIDEODATATOEE
  -------         PROC          _SAVEINPUTSELECTIONEE
  D:0007H         SYMBOL        val
  C:C989H         LINE#         160
  C:C989H         LINE#         161
  C:C989H         LINE#         162
  -------         ENDPROC       _SAVEINPUTSELECTIONEE
  -------         PROC          GETOSDLANGEE
  -------         DO            
  D:0007H         SYMBOL        val
  -------         ENDDO         
  C:C9F9H         LINE#         186
  C:C9F9H         LINE#         187
  C:C9F9H         LINE#         190
  C:CA00H         LINE#         196
  C:CA00H         LINE#         197
  -------         ENDPROC       GETOSDLANGEE
  -------         PROC          _SAVEOSDLANGEE
  D:0007H         SYMBOL        val
  C:C992H         LINE#         199
  C:C992H         LINE#         200
  C:C992H         LINE#         201
  -------         ENDPROC       _SAVEOSDLANGEE
  -------         PROC          GETAUDIOVOLEE
  C:CA01H         LINE#         226
  C:CA01H         LINE#         227
  C:CA01H         LINE#         228
  C:CA08H         LINE#         229
  -------         ENDPROC       GETAUDIOVOLEE
  -------         PROC          _SETAUDIOVOLEE
  D:0007H         SYMBOL        vol
  C:C99BH         LINE#         231
  C:C99BH         LINE#         232
  C:C99BH         LINE#         233
  -------         ENDPROC       _SETAUDIOVOLEE
  -------         PROC          GETPCAUDIOVOLEE
  C:CA09H         LINE#         236
  C:CA09H         LINE#         237
  C:CA09H         LINE#         238
  C:CA10H         LINE#         239
  -------         ENDPROC       GETPCAUDIOVOLEE
  -------         PROC          _SETPCAUDIOVOLEE
  D:0007H         SYMBOL        vol
  C:C9A4H         LINE#         240
  C:C9A4H         LINE#         241
  C:C9A4H         LINE#         242
BL51 BANKED LINKER/LOCATER V6.22                                                      12/15/2017  13:23:50  PAGE 55


  -------         ENDPROC       _SETPCAUDIOVOLEE
  -------         PROC          CLEARBASICEE
  C:C509H         LINE#         407
  C:C509H         LINE#         408
  C:C509H         LINE#         409
  C:C511H         LINE#         410
  C:C516H         LINE#         412
  C:C51DH         LINE#         413
  C:C525H         LINE#         420
  C:C528H         LINE#         424
  C:C52BH         LINE#         427
  -------         ENDPROC       CLEARBASICEE
  -------         ENDMOD        ETC_EEP

  -------         MODULE        I2C
  C:0000H         SYMBOL        _ICE_DUMMY_
  C:BDABH         PUBLIC        _WriteI2CnD
  D:00E8H         PUBLIC        P4
  B:0090H.0       PUBLIC        P1_0
  B:0090H.1       PUBLIC        P1_1
  C:BFCAH         PUBLIC        _WriteI2Cn_
  C:C319H         PUBLIC        I2CReadData
  C:BCEAH         PUBLIC        _WriteI2Cn
  C:BF91H         PUBLIC        _ReadI2C
  C:CA41H         PUBLIC        dd
  C:B099H         PUBLIC        _I2CWriteData
  C:C57DH         PUBLIC        _WriteI2C
  C:C84AH         PUBLIC        I2CStart
  C:C557H         PUBLIC        _ReadEEP
  C:0016H         PUBLIC        I2CStop
  C:BB94H         PUBLIC        _WriteEEP
  C:C67FH         SYMBOL        Com002D
  C:C67FH         SYMBOL        L?0046
  C:C67FH         SYMBOL        L?0047
  C:C689H         SYMBOL        L?0048
  C:C696H         SYMBOL        L?0049
  C:C696H         SYMBOL        L?0050
  -------         PROC          COM002D
  -------         ENDPROC       COM002D
  -------         PROC          _WRITEEEP
  X:0028H         SYMBOL        index
  X:002AH         SYMBOL        dat
  -------         DO            
  X:002BH         SYMBOL        addr
  -------         ENDDO         
  C:BB94H         LINE#         91
  C:BB9FH         LINE#         92
  C:BB9FH         LINE#         95
  C:BBB7H         LINE#         97
  C:BBBAH         LINE#         98
  C:BBC2H         LINE#         99
  C:BBCBH         LINE#         100
  C:BBD3H         LINE#         101
  C:BBD6H         LINE#         107
  -------         ENDPROC       _WRITEEEP
  -------         PROC          _READEEP
  D:0004H         SYMBOL        index
BL51 BANKED LINKER/LOCATER V6.22                                                      12/15/2017  13:23:50  PAGE 56


  -------         DO            
  X:0033H         SYMBOL        val
  D:0007H         SYMBOL        addr
  -------         ENDDO         
  C:C557H         LINE#         110
  C:C55BH         LINE#         111
  C:C55BH         LINE#         115
  C:C56AH         LINE#         117
  C:C572H         LINE#         122
  C:C577H         LINE#         123
  C:C57CH         LINE#         124
  -------         ENDPROC       _READEEP
  -------         PROC          _READI2C
  X:0034H         SYMBOL        addr
  X:0035H         SYMBOL        index
  -------         DO            
  X:0036H         SYMBOL        val
  -------         ENDDO         
  C:BF91H         LINE#         126
  C:BF99H         LINE#         127
  C:BF99H         LINE#         130
  C:BF9CH         LINE#         131
  C:BFA4H         LINE#         132
  C:BFACH         LINE#         133
  C:BFAFH         LINE#         134
  C:BFB9H         LINE#         135
  C:BFC1H         LINE#         136
  C:BFC4H         LINE#         138
  C:BFC9H         LINE#         139
  -------         ENDPROC       _READI2C
  -------         PROC          _WRITEI2C
  X:0055H         SYMBOL        addr
  X:0056H         SYMBOL        index
  X:0057H         SYMBOL        val
  C:C57DH         LINE#         142
  C:C585H         LINE#         143
  C:C585H         LINE#         144
  C:C588H         LINE#         145
  C:C590H         LINE#         146
  C:C598H         LINE#         147
  C:C5A0H         LINE#         148
  -------         ENDPROC       _WRITEI2C
  -------         PROC          _WRITEI2CND
  X:0034H         SYMBOL        addr
  X:0035H         SYMBOL        index
  X:0036H         SYMBOL        val
  X:0037H         SYMBOL        cnt
  -------         DO            
  X:0038H         SYMBOL        i
  -------         ENDDO         
  C:BDABH         LINE#         151
  C:BDB3H         LINE#         152
  C:BDB3H         LINE#         155
  C:BDB6H         LINE#         156
  C:BDBEH         LINE#         157
  C:BDC6H         LINE#         159
  C:BDD6H         LINE#         160
BL51 BANKED LINKER/LOCATER V6.22                                                      12/15/2017  13:23:50  PAGE 57


  C:BDDEH         LINE#         162
  C:BDE6H         LINE#         164
  -------         ENDPROC       _WRITEI2CND
  -------         PROC          _WRITEI2CN
  X:0055H         SYMBOL        addr
  X:0056H         SYMBOL        index
  X:0057H         SYMBOL        val
  X:005AH         SYMBOL        cnt
  -------         DO            
  X:005BH         SYMBOL        i
  -------         ENDDO         
  C:BCEAH         LINE#         167
  C:BCF3H         LINE#         168
  C:BCF3H         LINE#         172
  C:BCF6H         LINE#         173
  C:BCFEH         LINE#         174
  C:BD06H         LINE#         176
  C:BD17H         LINE#         177
  C:BD20H         LINE#         179
  C:BD28H         LINE#         180
  -------         ENDPROC       _WRITEI2CN
  -------         PROC          _WRITEI2CN_
  X:001AH         SYMBOL        addr
  X:001BH         SYMBOL        val
  X:001EH         SYMBOL        cnt
  -------         DO            
  X:001FH         SYMBOL        i
  -------         ENDDO         
  C:BFCAH         LINE#         183
  C:BFD3H         LINE#         184
  C:BFD3H         LINE#         187
  C:BFD6H         LINE#         188
  C:BFDEH         LINE#         190
  C:BFEFH         LINE#         191
  C:BFF8H         LINE#         192
  C:C000H         LINE#         193
  -------         ENDPROC       _WRITEI2CN_
  -------         PROC          DD
  C:CA41H         LINE#         249
  C:CA41H         LINE#         250
  C:CA41H         LINE#         254
  -------         ENDPROC       DD
  -------         PROC          I2CSTART
  C:C84AH         LINE#         259
  C:C84AH         LINE#         260
  C:C84AH         LINE#         261
  C:C84FH         LINE#         262
  C:C854H         LINE#         263
  C:C859H         LINE#         264
  C:C85BH         LINE#         265
  -------         ENDPROC       I2CSTART
  -------         PROC          I2CSTOP
  C:0016H         LINE#         267
  C:0016H         LINE#         268
  C:0016H         LINE#         269
  C:001BH         LINE#         270
  C:0020H         LINE#         271
BL51 BANKED LINKER/LOCATER V6.22                                                      12/15/2017  13:23:50  PAGE 58


  C:0022H         LINE#         272
  -------         ENDPROC       I2CSTOP
  -------         PROC          _I2CWRITEDATA
  D:0007H         SYMBOL        value
  C:B099H         LINE#         274
  C:B099H         LINE#         275
  C:B099H         LINE#         289
  C:B0A3H         LINE#         290
  C:B0AEH         LINE#         291
  C:B0B9H         LINE#         292
  C:B0C4H         LINE#         294
  C:B0CFH         LINE#         295
  C:B0DAH         LINE#         296
  C:B0E5H         LINE#         297
  C:B0F0H         LINE#         300
  C:B0F3H         LINE#         301
  C:B0F5H         LINE#         302
  C:B0F7H         LINE#         303
  C:B0F9H         LINE#         305
  C:B0FBH         LINE#         306
  C:B0FDH         LINE#         307
  C:B0FFH         LINE#         308
  C:B101H         LINE#         309
  -------         ENDPROC       _I2CWRITEDATA
  -------         PROC          I2CREADDATA
  -------         DO            
  D:0004H         SYMBOL        i
  D:0007H         SYMBOL        value
  -------         ENDDO         
  C:C319H         LINE#         311
  C:C319H         LINE#         312
  C:C319H         LINE#         314
  C:C31BH         LINE#         316
  C:C320H         LINE#         317
  C:C322H         LINE#         319
  C:C324H         LINE#         320
  C:C326H         LINE#         321
  C:C32AH         LINE#         322
  C:C330H         LINE#         323
  C:C332H         LINE#         324
  C:C33DH         LINE#         325
  C:C340H         LINE#         327
  C:C342H         LINE#         328
  C:C344H         LINE#         329
  C:C346H         LINE#         330
  C:C348H         LINE#         332
  C:C348H         LINE#         334
  -------         ENDPROC       I2CREADDATA
  -------         ENDMOD        I2C

  -------         MODULE        KEYREMO
  C:0000H         SYMBOL        _ICE_DUMMY_
  D:00A0H         PUBLIC        P2
  B:0022H.6       PUBLIC        IsRun2835ClkTune
  D:00E8H         PUBLIC        P4
  B:0022H.7       PUBLIC        CAM_PTZ_RUN_flag
  X:0140H         PUBLIC        RELEASE_TR_JUMP_Flag
BL51 BANKED LINKER/LOCATER V6.22                                                      12/15/2017  13:23:50  PAGE 59


  X:0141H         PUBLIC        Disp_Input
  X:0142H         PUBLIC        KeyBuffer
  C:AC5AH         PUBLIC        _HS_Display2835ClkTuneVal
  C:C79AH         PUBLIC        RemoVolDn_LeftKey
  D:0070H         PUBLIC        b2835ClkTuneVal
  X:0143H         PUBLIC        DayNightLevel
  C:C77FH         PUBLIC        RemoVolUp_RightKey
  X:0144H         PUBLIC        lock_keycnt
  X:0145H         PUBLIC        BookMarkState
  X:0146H         PUBLIC        TR_JUMP_Flag
  C:C908H         PUBLIC        RemoChnDn_DnKey
  X:0147H         PUBLIC        OSD_LOCKF
  X:0148H         PUBLIC        LockKeyState
  C:6D73H         SYMBOL        _?ix1000
  C:4A46H         PUBLIC        CheckKeyIn
  C:C8FBH         PUBLIC        RemoChnUp_UpKey
  C:B588H         PUBLIC        _GetKey
  B:0023H.0       PUBLIC        IsEnter2835ClkTune
  X:0149H         PUBLIC        TR_JUMP_HOLD
  C:C21EH         PUBLIC        RemoMenu_MenuKey
  D:0071H         PUBLIC        Enter2835TuneClock
  C:982BH         PUBLIC        _ActionRemo
  C:C85CH         SYMBOL        Com00CB
  C:C85CH         SYMBOL        L?0204
  C:C85CH         SYMBOL        L?0205
  C:C864H         SYMBOL        L?0207
  -------         PROC          COM00CB
  -------         ENDPROC       COM00CB
  C:C242H         SYMBOL        L?0202
  -------         PROC          REMOMENU_MENUKEY
  C:C21EH         LINE#         120
  C:C21EH         LINE#         121
  C:C21EH         LINE#         125
  C:C228H         LINE#         127
  C:C228H         LINE#         129
  C:C22BH         LINE#         130
  C:C22DH         LINE#         131
  C:C230H         LINE#         132
  C:C232H         LINE#         133
  C:C235H         LINE#         134
  C:C23EH         LINE#         137
  C:C241H         LINE#         138
  C:C241H         LINE#         139
  -------         ENDPROC       REMOMENU_MENUKEY
  -------         PROC          REMOCHNUP_UPKEY
  C:C8FBH         LINE#         142
  C:C8FBH         LINE#         143
  C:C8FBH         LINE#         151
  C:C902H         LINE#         162
  C:C907H         LINE#         168
  -------         ENDPROC       REMOCHNUP_UPKEY
  -------         PROC          REMOCHNDN_DNKEY
  C:C908H         LINE#         170
  C:C908H         LINE#         171
  C:C908H         LINE#         179
  C:C90FH         LINE#         180
  C:C914H         LINE#         181
BL51 BANKED LINKER/LOCATER V6.22                                                      12/15/2017  13:23:50  PAGE 60


  C:C914H         LINE#         187
  -------         ENDPROC       REMOCHNDN_DNKEY
  -------         PROC          REMOVOLUP_RIGHTKEY
  C:C77FH         LINE#         189
  C:C77FH         LINE#         190
  C:C77FH         LINE#         198
  C:C786H         LINE#         199
  C:C78EH         LINE#         200
  C:C791H         LINE#         201
  C:C791H         LINE#         203
  C:C791H         LINE#         209
  C:C791H         LINE#         210
  C:C796H         LINE#         211
  C:C799H         LINE#         212
  C:C799H         LINE#         213
  C:C799H         LINE#         214
  -------         ENDPROC       REMOVOLUP_RIGHTKEY
  -------         PROC          REMOVOLDN_LEFTKEY
  C:C79AH         LINE#         216
  C:C79AH         LINE#         217
  C:C79AH         LINE#         225
  C:C7A1H         LINE#         226
  C:C7A1H         LINE#         227
  C:C7A4H         LINE#         228
  C:C7A9H         LINE#         230
  C:C7ACH         LINE#         231
  C:C7ACH         LINE#         233
  C:C7ACH         LINE#         239
  C:C7ACH         LINE#         240
  C:C7B1H         LINE#         241
  C:C7B4H         LINE#         242
  C:C7B4H         LINE#         243
  C:C7B4H         LINE#         244
  -------         ENDPROC       REMOVOLDN_LEFTKEY
  -------         PROC          _ACTIONREMO
  X:0004H         SYMBOL        _RemoDataCode
  X:0005H         SYMBOL        AutoKey
  C:982BH         LINE#         249
  C:9833H         LINE#         250
  C:9833H         LINE#         251
  C:9836H         LINE#         271
  C:9880H         LINE#         273
  C:9880H         LINE#         277
  C:9888H         LINE#         278
  C:9891H         LINE#         279
  C:9894H         LINE#         281
  C:9894H         LINE#         294
  C:9894H         LINE#         296
  C:9894H         LINE#         300
  C:989AH         LINE#         301
  C:989DH         LINE#         303
  C:989DH         LINE#         307
  C:98A9H         LINE#         308
  C:98ACH         LINE#         309
  C:98AFH         LINE#         311
  C:98AFH         LINE#         312
  C:98AFH         LINE#         313
BL51 BANKED LINKER/LOCATER V6.22                                                      12/15/2017  13:23:50  PAGE 61


  C:98AFH         LINE#         314
  C:98AFH         LINE#         315
  C:98AFH         LINE#         316
  C:98AFH         LINE#         317
  C:98AFH         LINE#         318
  C:98AFH         LINE#         319
  C:98AFH         LINE#         320
  C:98AFH         LINE#         324
  C:98B3H         LINE#         326
  C:98B6H         LINE#         327
  C:98B6H         LINE#         329
  C:98B6H         LINE#         333
  C:98B9H         LINE#         334
  C:98BBH         LINE#         336
  C:98BBH         LINE#         340
  C:98BEH         LINE#         341
  C:98C0H         LINE#         343
  C:98C0H         LINE#         347
  C:98C9H         LINE#         348
  C:98D0H         LINE#         349
  C:98D3H         LINE#         350
  C:98D3H         LINE#         351
  C:98D5H         LINE#         353
  C:98D5H         LINE#         357
  C:98D8H         LINE#         358
  C:98DAH         LINE#         359
  C:98DAH         LINE#         363
  C:98DDH         LINE#         364
  C:98DFH         LINE#         367
  C:98DFH         LINE#         371
  C:98E8H         LINE#         375
  C:98EBH         LINE#         377
  C:98EDH         LINE#         379
  C:98EDH         LINE#         383
  C:98F4H         LINE#         384
  C:98F9H         LINE#         385
  C:98FBH         LINE#         398
  C:98FBH         LINE#         402
  C:9902H         LINE#         403
  C:9902H         LINE#         405
  C:9902H         LINE#         417
  C:9904H         LINE#         418
  -------         ENDPROC       _ACTIONREMO
  C:4EF5H         SYMBOL        L?0198
  C:4F0EH         SYMBOL        L?0199
  C:4F19H         SYMBOL        L?0200
  C:4F23H         SYMBOL        L?0201
  C:4F33H         SYMBOL        L?0206
  -------         PROC          CHECKKEYIN
  -------         DO            
  X:0001H         SYMBOL        ret
  X:0002H         SYMBOL        ikey
  X:0003H         SYMBOL        OSD_LOCK
  -------         ENDDO         
  C:4A46H         LINE#         420
  C:4A46H         LINE#         421
  C:4A46H         LINE#         422
BL51 BANKED LINKER/LOCATER V6.22                                                      12/15/2017  13:23:50  PAGE 62


  C:4A4CH         LINE#         425
  C:4A52H         LINE#         426
  C:4A52H         LINE#         427
  C:4A73H         LINE#         428
  C:4A75H         LINE#         429
  C:4A75H         LINE#         432
  C:4A84H         LINE#         433
  C:4A84H         LINE#         436
  C:4A9DH         LINE#         437
  C:4AA5H         LINE#         438
  C:4AADH         LINE#         439
  C:4AB5H         LINE#         440
  C:4ABDH         LINE#         441
  C:4AC5H         LINE#         442
  C:4ACDH         LINE#         443
  C:4AD6H         LINE#         444
  C:4AD6H         LINE#         454
  C:4ADEH         LINE#         460
  C:4AE6H         LINE#         462
  C:4AE6H         LINE#         463
  C:4AE9H         LINE#         467
  C:4AF6H         LINE#         469
  C:4AF6H         LINE#         470
  C:4AFFH         LINE#         471
  C:4B05H         LINE#         472
  C:4B09H         LINE#         473
  C:4B0DH         LINE#         474
  C:4B12H         LINE#         475
  C:4B15H         LINE#         477
  C:4B1CH         LINE#         478
  C:4B1CH         LINE#         479
  C:4B1FH         LINE#         480
  C:4B21H         LINE#         482
  C:4B21H         LINE#         483
  C:4B24H         LINE#         484
  C:4B29H         LINE#         485
  C:4B2DH         LINE#         486
  C:4B30H         LINE#         488
  C:4B30H         LINE#         492
  C:4B32H         LINE#         496
  C:4B32H         LINE#         497
  C:4B32H         LINE#         499
  C:4B40H         LINE#         500
  C:4B40H         LINE#         501
  C:4B41H         LINE#         502
  C:4B44H         LINE#         503
  C:4B44H         LINE#         506
  C:4B52H         LINE#         507
  C:4B52H         LINE#         508
  C:4B5AH         LINE#         509
  C:4B60H         LINE#         510
  C:4B64H         LINE#         511
  C:4B6BH         LINE#         513
  C:4B6EH         LINE#         514
  C:4B73H         LINE#         515
  C:4B78H         LINE#         518
  C:4B7AH         LINE#         520
BL51 BANKED LINKER/LOCATER V6.22                                                      12/15/2017  13:23:50  PAGE 63


  C:4B7AH         LINE#         523
  C:4B8CH         LINE#         524
  C:4B8CH         LINE#         525
  C:4B8EH         LINE#         526
  C:4B93H         LINE#         527
  C:4B93H         LINE#         553
  C:4BA8H         LINE#         554
  C:4BA8H         LINE#         555
  C:4BABH         LINE#         556
  C:4BACH         LINE#         557
  C:4BACH         LINE#         558
  C:4BACH         LINE#         559
  C:4BAFH         LINE#         561
  C:4BB6H         LINE#         564
  C:4BB8H         LINE#         566
  C:4BBBH         LINE#         567
  C:4BBBH         LINE#         570
  C:4BBEH         LINE#         572
  C:4BE1H         LINE#         573
  C:4BE1H         LINE#         574
  C:4BEAH         LINE#         576
  C:4BF0H         LINE#         577
  C:4BF0H         LINE#         578
  C:4BF7H         LINE#         579
  C:4BFCH         LINE#         581
  C:4BFEH         LINE#         583
  C:4C34H         LINE#         584
  C:4C34H         LINE#         585
  C:4C34H         LINE#         586
  C:4C34H         LINE#         587
  C:4C3AH         LINE#         588
  C:4C3CH         LINE#         590
  C:4C3CH         LINE#         591
  C:4C42H         LINE#         592
  C:4C44H         LINE#         594
  C:4C44H         LINE#         595
  C:4C4AH         LINE#         596
  C:4C4CH         LINE#         598
  C:4C4CH         LINE#         599
  C:4C52H         LINE#         600
  C:4C54H         LINE#         602
  C:4C54H         LINE#         603
  C:4C5AH         LINE#         604
  C:4C5CH         LINE#         606
  C:4C5CH         LINE#         607
  C:4C62H         LINE#         608
  C:4C64H         LINE#         610
  C:4C64H         LINE#         611
  C:4C6AH         LINE#         612
  C:4C6CH         LINE#         614
  C:4C6CH         LINE#         615
  C:4C72H         LINE#         616
  C:4C74H         LINE#         618
  C:4C74H         LINE#         619
  C:4C7AH         LINE#         620
  C:4C7CH         LINE#         622
  C:4C7CH         LINE#         623
BL51 BANKED LINKER/LOCATER V6.22                                                      12/15/2017  13:23:50  PAGE 64


  C:4C82H         LINE#         624
  C:4C84H         LINE#         626
  C:4C84H         LINE#         627
  C:4C8AH         LINE#         628
  C:4C8CH         LINE#         630
  C:4C8CH         LINE#         631
  C:4C92H         LINE#         632
  C:4C94H         LINE#         634
  C:4C94H         LINE#         635
  C:4C9AH         LINE#         636
  C:4C9CH         LINE#         638
  C:4C9CH         LINE#         639
  C:4CA2H         LINE#         640
  C:4CA4H         LINE#         642
  C:4CA4H         LINE#         643
  C:4CAAH         LINE#         644
  C:4CACH         LINE#         646
  C:4CACH         LINE#         647
  C:4CB5H         LINE#         648
  C:4CB5H         LINE#         649
  C:4CB5H         LINE#         651
  C:4CB5H         LINE#         652
  C:4CB7H         LINE#         655
  C:4CB7H         LINE#         657
  C:4CBAH         LINE#         658
  C:4CBAH         LINE#         659
  C:4CC3H         LINE#         660
  C:4CC3H         LINE#         662
  C:4CCEH         LINE#         663
  C:4CD3H         LINE#         665
  C:4CDAH         LINE#         666
  C:4CDAH         LINE#         667
  C:4CDDH         LINE#         669
  C:4CDDH         LINE#         670
  C:4CDFH         LINE#         674
  C:4CE2H         LINE#         675
  C:4CE2H         LINE#         676
  C:4CE2H         LINE#         677
  C:4CE5H         LINE#         679
  C:4CE5H         LINE#         680
  C:4CEEH         LINE#         683
  C:4CF1H         LINE#         684
  C:4CF1H         LINE#         685
  C:4CF8H         LINE#         686
  C:4CFBH         LINE#         689
  C:4CFBH         LINE#         713
  C:4CFEH         LINE#         714
  C:4CFEH         LINE#         716
  C:4D04H         LINE#         717
  C:4D04H         LINE#         719
  C:4D04H         LINE#         720
  C:4D04H         LINE#         721
  C:4D04H         LINE#         722
  C:4D07H         LINE#         723
  C:4D0EH         LINE#         724
  C:4D11H         LINE#         727
  C:4D11H         LINE#         728
BL51 BANKED LINKER/LOCATER V6.22                                                      12/15/2017  13:23:50  PAGE 65


  C:4D18H         LINE#         729
  C:4D18H         LINE#         730
  C:4D1BH         LINE#         731
  C:4D1DH         LINE#         734
  C:4D20H         LINE#         735
  C:4D23H         LINE#         736
  C:4D2DH         LINE#         737
  C:4D2DH         LINE#         742
  C:4D2DH         LINE#         745
  C:4D2DH         LINE#         765
  C:4D33H         LINE#         766
  C:4D33H         LINE#         767
  C:4D33H         LINE#         768
  C:4D36H         LINE#         770
  C:4D36H         LINE#         771
  C:4D38H         LINE#         772
  C:4D38H         LINE#         773
  C:4D38H         LINE#         774
  C:4D38H         LINE#         775
  C:4D3BH         LINE#         779
  C:4D3BH         LINE#         780
  C:4D3EH         LINE#         781
  C:4D3EH         LINE#         782
  C:4D45H         LINE#         783
  C:4D45H         LINE#         784
  C:4D4AH         LINE#         785
  C:4D4CH         LINE#         795
  C:4D4CH         LINE#         797
  C:4D53H         LINE#         800
  C:4D5DH         LINE#         802
  C:4D62H         LINE#         803
  C:4D64H         LINE#         804
  C:4D64H         LINE#         805
  C:4D64H         LINE#         807
  C:4D64H         LINE#         808
  C:4D66H         LINE#         809
  C:4D66H         LINE#         811
  C:4D66H         LINE#         812
  C:4D69H         LINE#         814
  C:4D69H         LINE#         815
  C:4D6CH         LINE#         816
  C:4D6CH         LINE#         817
  C:4D73H         LINE#         818
  C:4D73H         LINE#         819
  C:4D78H         LINE#         820
  C:4D7EH         LINE#         822
  C:4D7EH         LINE#         826
  C:4D81H         LINE#         827
  C:4D81H         LINE#         828
  C:4D84H         LINE#         830
  C:4D84H         LINE#         832
  C:4D92H         LINE#         835
  C:4D9CH         LINE#         837
  C:4DA8H         LINE#         838
  C:4DABH         LINE#         839
  C:4DABH         LINE#         840
  C:4DABH         LINE#         842
BL51 BANKED LINKER/LOCATER V6.22                                                      12/15/2017  13:23:50  PAGE 66


  C:4DABH         LINE#         843
  C:4DADH         LINE#         844
  C:4DADH         LINE#         846
  C:4DADH         LINE#         847
  C:4DB0H         LINE#         849
  C:4DB0H         LINE#         850
  C:4DB3H         LINE#         851
  C:4DB3H         LINE#         852
  C:4DC0H         LINE#         853
  C:4DC3H         LINE#         855
  C:4DCAH         LINE#         856
  C:4DCDH         LINE#         858
  C:4DD0H         LINE#         859
  C:4DD3H         LINE#         861
  C:4DD3H         LINE#         862
  C:4DD5H         LINE#         863
  C:4DD5H         LINE#         865
  C:4DD5H         LINE#         866
  C:4DD8H         LINE#         870
  C:4DD8H         LINE#         872
  C:4DE8H         LINE#         873
  C:4DE8H         LINE#         876
  C:4DE8H         LINE#         877
  C:4DF9H         LINE#         878
  C:4DF9H         LINE#         879
  C:4E07H         LINE#         880
  C:4E07H         LINE#         881
  C:4E0EH         LINE#         882
  C:4E11H         LINE#         884
  C:4E17H         LINE#         886
  C:4E25H         LINE#         888
  C:4E2BH         LINE#         890
  C:4E2FH         LINE#         892
  C:4E2FH         LINE#         893
  C:4E2FH         LINE#         895
  C:4E31H         LINE#         896
  C:4E34H         LINE#         897
  C:4E34H         LINE#         899
  C:4E3AH         LINE#         900
  C:4E3AH         LINE#         901
  C:4E3FH         LINE#         902
  C:4E45H         LINE#         903
  C:4E4AH         LINE#         904
  C:4E4EH         LINE#         906
  C:4E51H         LINE#         908
  C:4E51H         LINE#         911
  C:4E5EH         LINE#         912
  C:4E61H         LINE#         915
  C:4E67H         LINE#         916
  C:4E6BH         LINE#         918
  C:4E70H         LINE#         919
  C:4E73H         LINE#         921
  C:4E73H         LINE#         922
  C:4E76H         LINE#         924
  C:4E76H         LINE#         925
  C:4E7BH         LINE#         926
  C:4E7DH         LINE#         928
BL51 BANKED LINKER/LOCATER V6.22                                                      12/15/2017  13:23:50  PAGE 67


  C:4E7DH         LINE#         929
  C:4E80H         LINE#         979
  C:4E80H         LINE#         980
  C:4E8BH         LINE#         981
  C:4E8BH         LINE#         982
  C:4E8EH         LINE#         983
  C:4E8EH         LINE#         984
  C:4E90H         LINE#         985
  C:4E95H         LINE#         986
  C:4E9DH         LINE#         987
  C:4E9FH         LINE#         988
  C:4EA1H         LINE#         990
  C:4EA1H         LINE#         991
  C:4EA3H         LINE#         992
  C:4EA8H         LINE#         993
  C:4EAFH         LINE#         994
  C:4EAFH         LINE#         996
  C:4EC0H         LINE#         997
  C:4EC0H         LINE#         998
  C:4EC2H         LINE#         1000
  C:4EC2H         LINE#         1001
  C:4ECAH         LINE#         1002
  C:4ECAH         LINE#         1003
  C:4ECFH         LINE#         1004
  C:4ED6H         LINE#         1005
  C:4ED6H         LINE#         1006
  C:4ED6H         LINE#         1007
  C:4ED6H         LINE#         1008
  C:4ED9H         LINE#         1009
  C:4ED9H         LINE#         1010
  C:4ED9H         LINE#         1011
  C:4ED9H         LINE#         1012
  C:4EDCH         LINE#         1013
  C:4EE1H         LINE#         1014
  C:4EE3H         LINE#         1015
  C:4EEFH         LINE#         1016
  C:4EEFH         LINE#         1017
  C:4EEFH         LINE#         1019
  C:4EEFH         LINE#         1020
  C:4EEFH         LINE#         1021
  C:4EF4H         LINE#         1022
  -------         ENDPROC       CHECKKEYIN
  -------         PROC          _GETKEY
  D:0007H         SYMBOL        repeat
  -------         DO            
  B:0024H.1       SYMBOL        ready
  -------         ENDDO         
  C:B588H         LINE#         1030
  C:B588H         LINE#         1031
  C:B588H         LINE#         1035
  C:B58CH         LINE#         1036
  C:B58EH         LINE#         1040
  C:B595H         LINE#         1041
  C:B595H         LINE#         1042
  C:B597H         LINE#         1043
  C:B5ADH         LINE#         1044
  C:B5B2H         LINE#         1045
BL51 BANKED LINKER/LOCATER V6.22                                                      12/15/2017  13:23:50  PAGE 68


  C:B5C6H         LINE#         1046
  C:B5C9H         LINE#         1048
  C:B5CBH         LINE#         1049
  C:B5CBH         LINE#         1106
  C:B5D1H         LINE#         1107
  C:B5D7H         LINE#         1108
  C:B5DDH         LINE#         1110
  C:B5DFH         LINE#         1112
  -------         ENDPROC       _GETKEY
  -------         PROC          _HS_DISPLAY2835CLKTUNEVAL
  X:0004H         SYMBOL        val
  -------         DO            
  X:0006H         SYMBOL        mstr
  -------         ENDDO         
  C:AC5AH         LINE#         1252
  C:AC62H         LINE#         1253
  C:AC62H         LINE#         1254
  C:AC75H         LINE#         1256
  C:AC95H         LINE#         1257
  C:AC99H         LINE#         1259
  C:ACA2H         LINE#         1260
  C:ACA7H         LINE#         1261
  C:ACAFH         LINE#         1262
  C:ACB9H         LINE#         1263
  C:ACCBH         LINE#         1265
  C:ACD2H         LINE#         1266
  -------         ENDPROC       _HS_DISPLAY2835CLKTUNEVAL
  -------         ENDMOD        KEYREMO

  -------         MODULE        MAIN
  C:0000H         SYMBOL        _ICE_DUMMY_
  D:0010H         PUBLIC        CheckBuf
  D:00E8H         PUBLIC        P4
  C:C605H         PUBLIC        GetNextInputSelection
  B:0020H.0       PUBLIC        Range4Coarse
  X:0103H         PUBLIC        CkTMode
  X:0104H         PUBLIC        Baud_rate
  X:0105H         PUBLIC        PowerFlag
  C:9DB2H         PUBLIC        _InitVideoData
  C:C86DH         PUBLIC        IsNoInput
  X:0106H         PUBLIC        SelectModeType
  D:0011H         PUBLIC        RightTime
  B:0090H.4       PUBLIC        P1_4
  C:C9B6H         PUBLIC        GetOSDLastKeyInTime
  B:0090H.5       PUBLIC        P1_5
  X:0107H         PUBLIC        VInputStd
  B:00B0H.4       PUBLIC        P3_4
  X:0108H         PUBLIC        TGFlag
  B:00B0H.5       PUBLIC        P3_5
  B:00B0H.7       PUBLIC        P3_7
  D:0012H         PUBLIC        LeftTime
  C:72A5H         PUBLIC        struct_VInputStd
  D:0013H         PUBLIC        ParkTime
  X:0109H         PUBLIC        displayhold_flag
  C:C921H         PUBLIC        SetOSDLastKeyInTime
  X:010AH         PUBLIC        DVR_AudioRecord
  C:A811H         PUBLIC        main
BL51 BANKED LINKER/LOCATER V6.22                                                      12/15/2017  13:23:50  PAGE 69


  C:94B5H         PUBLIC        _AdjustAutoDayNight
  X:010BH         PUBLIC        TDisplayFlag
  X:010CH         PUBLIC        AutoDayNightDelay
  C:C8DDH         PUBLIC        PowerOff
  C:B97FH         PUBLIC        _I2CDeviceInitialize
  C:9B73H         PUBLIC        CheckDecoderInput
  B:0020H.1       PUBLIC        I2CAutoIncFlagOn
  B:0020H.2       PUBLIC        AccPowerDown
  C:CA25H         PUBLIC        GetVInputStd
  B:0020H.3       PUBLIC        IsFirstRunfromAC
  D:0014H         PUBLIC        LtFlag
  B:0020H.4       PUBLIC        PowerDownStart
  X:010DH         PUBLIC        CAMNumber
  X:010EH         PUBLIC        InputSelection
  D:0015H         PUBLIC        RtFlag
  C:8E28H         PUBLIC        main_loop
  C:C003H         PUBLIC        _SetVInputStd
  C:C9ADH         PUBLIC        PowerDown_XTAL
  X:010FH         PUBLIC        TGFlag1
  C:71FBH         PUBLIC        struct_InputSelection
  C:8AF3H         PUBLIC        LoadEEPROM
  C:C8A0H         PUBLIC        Hs_InitVars
  X:0110H         PUBLIC        bLastTrigger
  B:0020H.5       PUBLIC        JUMPAVFlag
  B:0020H.6       PUBLIC        Flag4AutoPanelRegs
  C:C5A3H         PUBLIC        ReadVInputSTD
  D:0016H         PUBLIC        IHF
  D:001AH         PUBLIC        ReverseFlag
  C:9C38H         PUBLIC        _ChangeInput
  X:0111H         PUBLIC        CkPARK
  X:0112H         PUBLIC        PelcoChoiceFLAG
  C:CA2BH         PUBLIC        GetInputSelection
  X:0113H         PUBLIC        DebugLevel
  D:001BH         PUBLIC        IVF
  X:0114H         PUBLIC        ReverseModeFlag
  C:B02CH         PUBLIC        WaitPowerOn
  X:0115H         PUBLIC        Priority
  B:0020H.7       PUBLIC        IsDrawNoVideoSignal
  C:B52FH         PUBLIC        GetVInputStdInx
  B:0021H.0       PUBLIC        DVRReSendDisable
  D:001DH         PUBLIC        PWMLevel
  X:0116H         PUBLIC        Commanderror
  D:001EH         PUBLIC        ReverseTime
  X:0117H         PUBLIC        OSDLastKeyInTime
  B:0021H.1       PUBLIC        SDCardCoverDetect
  X:0119H         PUBLIC        WideScreenMode
  B:0021H.2       PUBLIC        DisplayInputHold
  B:0021H.3       PUBLIC        VGAflag
  X:011AH         PUBLIC        SEQTime
  X:011BH         PUBLIC        VInputStdDetectMode
  D:001FH         PUBLIC        SourceMode
  C:7250H         PUBLIC        struct_InputSelection_S
  C:C251H         SYMBOL        Com00A4
  C:C251H         SYMBOL        L?0165
  C:C251H         SYMBOL        L?0166
  C:C262H         SYMBOL        L?0168
  C:C262H         SYMBOL        L?0169
BL51 BANKED LINKER/LOCATER V6.22                                                      12/15/2017  13:23:50  PAGE 70


  C:C269H         SYMBOL        L?0173
  C:C274H         SYMBOL        L?0174
  C:C274H         SYMBOL        L?0175
  C:C27AH         SYMBOL        L?0176
  -------         PROC          COM00A4
  -------         ENDPROC       COM00A4
  -------         PROC          _I2CDEVICEINITIALIZE
  X:0018H         SYMBOL        RegSet
  -------         DO            
  D:0006H         SYMBOL        cnt
  X:001BH         SYMBOL        addr
  X:001CH         SYMBOL        index
  X:001DH         SYMBOL        val
  -------         ENDDO         
  C:B97FH         LINE#         363
  C:B985H         LINE#         364
  C:B985H         LINE#         365
  C:B987H         LINE#         368
  C:B98EH         LINE#         372
  C:B991H         LINE#         373
  C:B993H         LINE#         375
  C:B9A6H         LINE#         376
  C:B9ACH         LINE#         377
  C:B9B4H         LINE#         391
  C:B9BCH         LINE#         397
  C:B9C6H         LINE#         398
  C:B9C8H         LINE#         399
  -------         ENDPROC       _I2CDEVICEINITIALIZE
  -------         PROC          _INITVIDEODATA
  X:0017H         SYMBOL        src
  C:9DB2H         LINE#         419
  C:9DB7H         LINE#         420
  C:9DB7H         LINE#         430
  C:9DC0H         LINE#         431
  C:9DC6H         LINE#         433
  C:9DE1H         LINE#         436
  C:9DE1H         LINE#         446
  C:9DE1H         LINE#         452
  C:9DE1H         LINE#         453
  C:9DE1H         LINE#         456
  C:9DEAH         LINE#         463
  C:9DECH         LINE#         467
  C:9DECH         LINE#         470
  C:9DECH         LINE#         473
  C:9DECH         LINE#         475
  C:9DECH         LINE#         477
  C:9DECH         LINE#         478
  C:9DF2H         LINE#         479
  C:9DF2H         LINE#         481
  C:9DF9H         LINE#         482
  C:9DF9H         LINE#         483
  C:9E01H         LINE#         484
  C:9E0AH         LINE#         485
  C:9E0CH         LINE#         487
  C:9E0FH         LINE#         493
  C:9E18H         LINE#         495
  C:9E21H         LINE#         499
BL51 BANKED LINKER/LOCATER V6.22                                                      12/15/2017  13:23:50  PAGE 71


  C:9E2BH         LINE#         505
  C:9E31H         LINE#         509
  C:9E38H         LINE#         510
  C:9E38H         LINE#         511
  C:9E3EH         LINE#         512
  C:9E42H         LINE#         513
  C:9E44H         LINE#         514
  C:9E4BH         LINE#         515
  C:9E4BH         LINE#         516
  C:9E51H         LINE#         517
  C:9E5AH         LINE#         518
  C:9E5AH         LINE#         520
  C:9E69H         LINE#         524
  C:9E6BH         LINE#         525
  -------         ENDPROC       _INITVIDEODATA
  -------         PROC          ISNOINPUT
  C:C86DH         LINE#         528
  C:C86DH         LINE#         529
  C:C86DH         LINE#         530
  C:C87BH         LINE#         531
  C:C87DH         LINE#         532
  -------         ENDPROC       ISNOINPUT
  C:9C27H         SYMBOL        L?0167
  -------         PROC          CHECKDECODERINPUT
  -------         DO            
  X:0012H         SYMBOL        std1
  X:0013H         SYMBOL        std
  X:0014H         SYMBOL        cnt
  X:0015H         SYMBOL        trycnt
  X:0016H         SYMBOL        ChangedNoinput
  -------         ENDDO         
  C:9B73H         LINE#         623
  C:9B73H         LINE#         624
  C:9B73H         LINE#         763
  C:9B7AH         LINE#         772
  C:9B8AH         LINE#         775
  C:9B8FH         LINE#         776
  C:9B8FH         LINE#         777
  C:9B97H         LINE#         782
  C:9B9DH         LINE#         783
  C:9BA6H         LINE#         784
  C:9BA6H         LINE#         786
  C:9BB8H         LINE#         787
  C:9BB8H         LINE#         790
  C:9BC3H         LINE#         791
  C:9BC9H         LINE#         793
  C:9BC9H         LINE#         794
  C:9BCEH         LINE#         795
  C:9BD3H         LINE#         796
  C:9BD3H         LINE#         798
  C:9BDCH         LINE#         804
  C:9BE3H         LINE#         805
  C:9BE3H         LINE#         807
  C:9BE6H         LINE#         808
  C:9BECH         LINE#         809
  C:9BEEH         LINE#         810
  C:9BF4H         LINE#         811
BL51 BANKED LINKER/LOCATER V6.22                                                      12/15/2017  13:23:50  PAGE 72


  C:9BF4H         LINE#         815
  C:9BFDH         LINE#         816
  C:9C00H         LINE#         819
  C:9C00H         LINE#         820
  C:9C03H         LINE#         821
  C:9C03H         LINE#         822
  C:9C05H         LINE#         824
  C:9C05H         LINE#         830
  C:9C0EH         LINE#         831
  C:9C11H         LINE#         834
  C:9C11H         LINE#         835
  C:9C14H         LINE#         836
  C:9C19H         LINE#         838
  C:9C1EH         LINE#         839
  C:9C1EH         LINE#         847
  C:9C26H         LINE#         849
  C:9C26H         LINE#         850
  C:9C26H         LINE#         851
  C:9C26H         LINE#         862
  C:9C26H         LINE#         868
  -------         ENDPROC       CHECKDECODERINPUT
  -------         PROC          READVINPUTSTD
  -------         DO            
  D:0007H         SYMBOL        std
  -------         ENDDO         
  C:C5A3H         LINE#         870
  C:C5A3H         LINE#         871
  C:C5A3H         LINE#         874
  C:C5ACH         LINE#         876
  C:C5B7H         LINE#         877
  C:C5BDH         LINE#         879
  C:C5C5H         LINE#         880
  -------         ENDPROC       READVINPUTSTD
  -------         PROC          GETVINPUTSTDINX
  -------         DO            
  D:0007H         SYMBOL        i
  D:0003H         SYMBOL        std
  -------         ENDDO         
  C:B52FH         LINE#         882
  C:B52FH         LINE#         883
  C:B52FH         LINE#         886
  C:B534H         LINE#         888
  C:B54AH         LINE#         890
  C:B54AH         LINE#         891
  C:B54AH         LINE#         892
  C:B54AH         LINE#         893
  C:B552H         LINE#         895
  C:B552H         LINE#         896
  C:B552H         LINE#         897
  C:B561H         LINE#         898
  C:B568H         LINE#         899
  C:B568H         LINE#         901
  C:B56AH         LINE#         902
  C:B57EH         LINE#         903
  C:B57FH         LINE#         904
  C:B582H         LINE#         905
  C:B582H         LINE#         906
BL51 BANKED LINKER/LOCATER V6.22                                                      12/15/2017  13:23:50  PAGE 73


  C:B585H         LINE#         907
  C:B587H         LINE#         908
  -------         ENDPROC       GETVINPUTSTDINX
  -------         PROC          GETVINPUTSTD
  C:CA25H         LINE#         911
  C:CA25H         LINE#         912
  C:CA25H         LINE#         913
  C:CA2AH         LINE#         914
  -------         ENDPROC       GETVINPUTSTD
  -------         PROC          _SETVINPUTSTD
  D:0007H         SYMBOL        newd
  C:C003H         LINE#         917
  C:C003H         LINE#         918
  C:C003H         LINE#         919
  C:C008H         LINE#         933
  C:C01DH         LINE#         936
  C:C01DH         LINE#         939
  C:C01DH         LINE#         942
  C:C01DH         LINE#         944
  C:C025H         LINE#         947
  C:C025H         LINE#         950
  C:C025H         LINE#         953
  C:C034H         LINE#         956
  C:C03BH         LINE#         957
  C:C03BH         LINE#         958
  -------         ENDPROC       _SETVINPUTSTD
  -------         PROC          GETINPUTSELECTION
  C:CA2BH         LINE#         960
  C:CA2BH         LINE#         961
  C:CA2BH         LINE#         962
  C:CA30H         LINE#         963
  -------         ENDPROC       GETINPUTSELECTION
  -------         PROC          GETNEXTINPUTSELECTION
  -------         DO            
  D:0007H         SYMBOL        i
  -------         ENDDO         
  C:C605H         LINE#         965
  C:C605H         LINE#         966
  C:C605H         LINE#         977
  C:C607H         LINE#         978
  C:C617H         LINE#         979
  C:C618H         LINE#         980
  C:C61FH         LINE#         982
  C:C623H         LINE#         984
  -------         ENDPROC       GETNEXTINPUTSELECTION
  -------         PROC          POWERDOWN_XTAL
  B:0024H.1       SYMBOL        flag
  C:C9ADH         LINE#         986
  C:C9ADH         LINE#         987
  C:C9ADH         LINE#         988
  C:C9B3H         LINE#         989
  C:C9B5H         LINE#         990
  -------         ENDPROC       POWERDOWN_XTAL
  C:9CEEH         SYMBOL        L?0170
  -------         PROC          _CHANGEINPUT
  D:0007H         SYMBOL        newsel
  C:9C38H         LINE#         1013
BL51 BANKED LINKER/LOCATER V6.22                                                      12/15/2017  13:23:50  PAGE 74


  C:9C38H         LINE#         1014
  C:9C38H         LINE#         1045
  C:9C3BH         LINE#         1052
  C:9C40H         LINE#         1060
  C:9C48H         LINE#         1062
  C:9C57H         LINE#         1063
  C:9C57H         LINE#         1079
  C:9C57H         LINE#         1080
  C:9C5AH         LINE#         1083
  C:9C5AH         LINE#         1084
  C:9C5DH         LINE#         1085
  C:9C5FH         LINE#         1086
  C:9C61H         LINE#         1088
  C:9C73H         LINE#         1089
  C:9C75H         LINE#         1091
  C:9C75H         LINE#         1092
  C:9C78H         LINE#         1093
  C:9C78H         LINE#         1094
  C:9C7BH         LINE#         1095
  C:9C7DH         LINE#         1096
  C:9C7FH         LINE#         1097
  C:9C85H         LINE#         1098
  C:9C87H         LINE#         1123
  C:9C87H         LINE#         1135
  C:9C8AH         LINE#         1139
  C:9C8CH         LINE#         1140
  C:9C91H         LINE#         1143
  C:9C93H         LINE#         1144
  C:9C95H         LINE#         1157
  C:9CA4H         LINE#         1158
  C:9CA4H         LINE#         1172
  C:9CA4H         LINE#         1173
  C:9CA7H         LINE#         1174
  C:9CAFH         LINE#         1207
  C:9CAFH         LINE#         1218
  C:9CAFH         LINE#         1219
  C:9CB4H         LINE#         1220
  C:9CB7H         LINE#         1221
  C:9CB7H         LINE#         1231
  C:9CB7H         LINE#         1239
  C:9CBAH         LINE#         1244
  C:9CBDH         LINE#         1247
  C:9CC4H         LINE#         1248
  C:9CC4H         LINE#         1249
  C:9CC7H         LINE#         1251
  C:9CD0H         LINE#         1253
  C:9CD2H         LINE#         1255
  C:9CD7H         LINE#         1257
  C:9CDCH         LINE#         1259
  C:9CE5H         LINE#         1260
  C:9CEEH         LINE#         1261
  -------         ENDPROC       _CHANGEINPUT
  -------         PROC          POWEROFF
  C:C8DDH         LINE#         1263
  C:C8DDH         LINE#         1264
  C:C8DDH         LINE#         1268
  C:C8E2H         LINE#         1271
BL51 BANKED LINKER/LOCATER V6.22                                                      12/15/2017  13:23:50  PAGE 75


  C:C8E5H         LINE#         1272
  C:C8E7H         LINE#         1276
  -------         ENDPROC       POWEROFF
  -------         PROC          SETOSDLASTKEYINTIME
  C:C921H         LINE#         1279
  C:C921H         LINE#         1280
  C:C921H         LINE#         1281
  C:C92CH         LINE#         1282
  -------         ENDPROC       SETOSDLASTKEYINTIME
  -------         PROC          GETOSDLASTKEYINTIME
  C:C9B6H         LINE#         1284
  C:C9B6H         LINE#         1285
  C:C9B6H         LINE#         1286
  C:C9BEH         LINE#         1287
  -------         ENDPROC       GETOSDLASTKEYINTIME
  -------         PROC          _ADJUSTAUTODAYNIGHT
  D:0007H         SYMBOL        val
  -------         DO            
  X:0001H         SYMBOL        page
  X:0002H         SYMBOL        PWMLevelTemp
  -------         ENDDO         
  C:94B5H         LINE#         1304
  C:94B5H         LINE#         1305
  C:94B5H         LINE#         1308
  C:94BAH         LINE#         1311
  C:94C4H         LINE#         1312
  C:94CBH         LINE#         1313
  C:94D6H         LINE#         1314
  C:94DEH         LINE#         1315
  C:94E9H         LINE#         1316
  C:94F1H         LINE#         1317
  C:94FCH         LINE#         1318
  C:9504H         LINE#         1319
  C:9510H         LINE#         1320
  C:9510H         LINE#         1322
  C:9516H         LINE#         1326
  C:9516H         LINE#         1350
  C:951CH         LINE#         1354
  C:951CH         LINE#         1355
  C:9525H         LINE#         1356
  C:952AH         LINE#         1358
  C:952AH         LINE#         1359
  C:9535H         LINE#         1360
  C:9539H         LINE#         1361
  C:953FH         LINE#         1362
  C:9541H         LINE#         1364
  C:9546H         LINE#         1365
  C:9546H         LINE#         1366
  C:9548H         LINE#         1368
  C:9548H         LINE#         1369
  C:954EH         LINE#         1371
  C:954EH         LINE#         1374
  C:955AH         LINE#         1375
  C:9560H         LINE#         1376
  C:9574H         LINE#         1378
  C:9588H         LINE#         1379
  -------         ENDPROC       _ADJUSTAUTODAYNIGHT
BL51 BANKED LINKER/LOCATER V6.22                                                      12/15/2017  13:23:50  PAGE 76


  -------         PROC          HS_INITVARS
  C:C8A0H         LINE#         1382
  C:C8A0H         LINE#         1383
  C:C8A0H         LINE#         1387
  C:C8A5H         LINE#         1388
  C:C8A9H         LINE#         1389
  C:C8AFH         LINE#         1403
  -------         ENDPROC       HS_INITVARS
  C:8C04H         SYMBOL        L?0171
  -------         PROC          LOADEEPROM
  -------         DO            
  D:0006H         SYMBOL        val
  -------         ENDDO         
  C:8AF3H         LINE#         1405
  C:8AF3H         LINE#         1406
  C:8AF3H         LINE#         1408
  C:8AFFH         LINE#         1410
  C:8B0BH         LINE#         1412
  C:8B17H         LINE#         1413
  C:8B23H         LINE#         1415
  C:8B2FH         LINE#         1419
  C:8B34H         LINE#         1421
  C:8B3FH         LINE#         1422
  C:8B4BH         LINE#         1423
  C:8B57H         LINE#         1424
  C:8B63H         LINE#         1425
  C:8B6FH         LINE#         1426
  C:8B7BH         LINE#         1428
  C:8B87H         LINE#         1429
  C:8B8CH         LINE#         1454
  C:8B94H         LINE#         1455
  C:8B9AH         LINE#         1456
  C:8BA0H         LINE#         1458
  C:8BA4H         LINE#         1460
  C:8BA9H         LINE#         1461
  C:8BAFH         LINE#         1462
  C:8BB5H         LINE#         1464
  C:8BB9H         LINE#         1466
  C:8BBEH         LINE#         1467
  C:8BC4H         LINE#         1468
  C:8BCAH         LINE#         1470
  C:8BCEH         LINE#         1472
  C:8BD7H         LINE#         1473
  C:8BDDH         LINE#         1474
  C:8BE3H         LINE#         1476
  C:8BE7H         LINE#         1478
  C:8BEFH         LINE#         1479
  C:8BF7H         LINE#         1480
  C:8C03H         LINE#         1483
  -------         ENDPROC       LOADEEPROM
  -------         PROC          MAIN_LOOP
  -------         DO            
  X:0000H         SYMBOL        val
  -------         ENDDO         
  C:8E28H         LINE#         1612
  C:8E28H         LINE#         1613
  C:8E28H         LINE#         1617
BL51 BANKED LINKER/LOCATER V6.22                                                      12/15/2017  13:23:50  PAGE 77


  C:8E31H         LINE#         1622
  C:8E31H         LINE#         1632
  C:8E37H         LINE#         1633
  C:8E37H         LINE#         1634
  C:8E3AH         LINE#         1635
  C:8E3CH         LINE#         1699
  C:8E3CH         LINE#         1700
  C:8E44H         LINE#         1701
  C:8E47H         LINE#         1702
  C:8E47H         LINE#         1704
  C:8E4DH         LINE#         1705
  C:8E4DH         LINE#         1706
  C:8E53H         LINE#         1707
  C:8E53H         LINE#         1708
  C:8E60H         LINE#         1709
  C:8E60H         LINE#         1710
  C:8E63H         LINE#         1711
  C:8E68H         LINE#         1712
  C:8E68H         LINE#         1713
  C:8E68H         LINE#         1714
  C:8E68H         LINE#         1719
  C:8E6EH         LINE#         1720
  C:8E6EH         LINE#         1721
  C:8E7AH         LINE#         1722
  C:8E7AH         LINE#         1723
  C:8E7CH         LINE#         1725
  C:8E7CH         LINE#         1726
  C:8E81H         LINE#         1727
  C:8E81H         LINE#         1752
  C:8E8AH         LINE#         1756
  C:8E92H         LINE#         1757
  C:8E92H         LINE#         1758
  C:8E99H         LINE#         1759
  C:8E99H         LINE#         1760
  C:8E9EH         LINE#         1761
  C:8EA1H         LINE#         1762
  C:8EA7H         LINE#         1764
  C:8EC1H         LINE#         1765
  C:8EC4H         LINE#         1766
  C:8EC6H         LINE#         1767
  C:8ED4H         LINE#         1768
  C:8ED4H         LINE#         1769
  C:8ED7H         LINE#         1770
  C:8EDCH         LINE#         1771
  C:8EDCH         LINE#         1773
  C:8EDFH         LINE#         1774
  C:8EDFH         LINE#         1842
  C:8EE2H         LINE#         1847
  C:8EEDH         LINE#         1849
  C:8EEDH         LINE#         1850
  C:8EEDH         LINE#         1851
  C:8EEDH         LINE#         1854
  C:8EF4H         LINE#         1855
  C:8EF4H         LINE#         1858
  C:8EF7H         LINE#         1867
  C:8EF7H         LINE#         1869
  C:8EF7H         LINE#         1879
BL51 BANKED LINKER/LOCATER V6.22                                                      12/15/2017  13:23:50  PAGE 78


  C:8EF7H         LINE#         1896
  C:8F04H         LINE#         1897
  C:8F04H         LINE#         1898
  C:8F0DH         LINE#         1899
  C:8F12H         LINE#         1900
  C:8F19H         LINE#         1901
  C:8F1EH         LINE#         1902
  C:8F27H         LINE#         1903
  C:8F27H         LINE#         1915
  C:8F2AH         LINE#         1916
  -------         ENDPROC       MAIN_LOOP
  C:A899H         SYMBOL        L?0172
  -------         PROC          MAIN
  C:A811H         LINE#         1918
  C:A811H         LINE#         1919
  C:A811H         LINE#         1924
  C:A813H         LINE#         1925
  C:A818H         LINE#         1939
  C:A81FH         LINE#         1940
  C:A821H         LINE#         1942
  C:A824H         LINE#         1943
  C:A829H         LINE#         1945
  C:A82CH         LINE#         1946
  C:A82FH         LINE#         1947
  C:A832H         LINE#         1950
  C:A837H         LINE#         1956
  C:A83AH         LINE#         1958
  C:A841H         LINE#         1959
  C:A844H         LINE#         1960
  C:A84CH         LINE#         1975
  C:A856H         LINE#         1977
  C:A85BH         LINE#         1988
  C:A864H         LINE#         1996
  C:A869H         LINE#         2000
  C:A86EH         LINE#         2003
  C:A873H         LINE#         2004
  C:A878H         LINE#         2005
  C:A87DH         LINE#         2006
  C:A882H         LINE#         2008
  C:A88BH         LINE#         2012
  C:A88BH         LINE#         2013
  C:A891H         LINE#         2014
  C:A894H         LINE#         2016
  C:A897H         LINE#         2022
  C:A899H         LINE#         2023
  -------         ENDPROC       MAIN
  -------         PROC          WAITPOWERON
  -------         DO            
  D:0007H         SYMBOL        ikey
  X:0000H         SYMBOL        val
  X:0001H         SYMBOL        VGATrigger
  -------         ENDDO         
  C:B02CH         LINE#         2025
  C:B02CH         LINE#         2026
  C:B02CH         LINE#         2028
  C:B031H         LINE#         2033
  C:B031H         LINE#         2034
BL51 BANKED LINKER/LOCATER V6.22                                                      12/15/2017  13:23:50  PAGE 79


  C:B031H         LINE#         2064
  C:B039H         LINE#         2065
  C:B03BH         LINE#         2066
  C:B03BH         LINE#         2067
  C:B040H         LINE#         2077
  C:B042H         LINE#         2079
  C:B042H         LINE#         2080
  C:B04AH         LINE#         2081
  C:B04DH         LINE#         2082
  C:B052H         LINE#         2084
  C:B052H         LINE#         2090
  C:B05AH         LINE#         2092
  C:B063H         LINE#         2093
  C:B063H         LINE#         2094
  C:B068H         LINE#         2095
  C:B070H         LINE#         2096
  C:B072H         LINE#         2097
  C:B072H         LINE#         2099
  C:B072H         LINE#         2148
  C:B075H         LINE#         2150
  C:B077H         LINE#         2161
  C:B07AH         LINE#         2162
  C:B07DH         LINE#         2164
  C:B087H         LINE#         2165
  C:B08DH         LINE#         2168
  C:B08FH         LINE#         2172
  C:B094H         LINE#         2175
  -------         ENDPROC       WAITPOWERON
  -------         ENDMOD        MAIN

  -------         MODULE        MEASURE
  C:0000H         SYMBOL        _ICE_DUMMY_
  -------         ENDMOD        MEASURE

  -------         MODULE        OSDBASIC
  C:0000H         SYMBOL        _ICE_DUMMY_
  C:BC64H         PUBLIC        _ShowOSDWindow_TW88
  C:848BH         PUBLIC        Init_Osd_DisplayMuteInfo
  C:C433H         PUBLIC        _ClearDataCnt
  C:84E9H         PUBLIC        Init_Osd_DisplayInput_B
  C:8533H         PUBLIC        Init_Osd_BarWindow
  C:B479H         PUBLIC        Change_OSDColorLookup
  C:C7B5H         PUBLIC        _strlen
  C:84FCH         PUBLIC        Init_Osd_MainMenu
  C:C3A9H         PUBLIC        _ShowOSDWindowAll
  D:0066H         PUBLIC        OSDStrInfo
  C:844DH         PUBLIC        FontTestWindow
  C:8794H         PUBLIC        _utoa
  C:849EH         PUBLIC        Init_Osd_DisplayTVChannel
  C:C284H         PUBLIC        _WriteStringToAddr
  C:8478H         PUBLIC        Init_Osd_DisplayVchipWindow
  C:C2E8H         PUBLIC        _DrawAttrCnt
  C:8546H         PUBLIC        _DisplayRAMFont
  C:B3BDH         PUBLIC        _DownloadFont
  C:C406H         PUBLIC        WaitEndofDisplayArea
  C:BAB6H         PUBLIC        _GetOSDWindowX
  C:B6E8H         PUBLIC        _GetOSDWindowY
BL51 BANKED LINKER/LOCATER V6.22                                                      12/15/2017  13:23:50  PAGE 80


  C:8F2BH         PUBLIC        _DisplayROMFont
  C:BD6CH         PUBLIC        _SetOSDWindowX_TW88
  C:BCA8H         PUBLIC        _SetOSDWindowY_TW88
  C:84C4H         PUBLIC        Init_Osd_DisplayInput
  C:8465H         PUBLIC        Init_Osd_DisplayLogo
  D:006EH         PUBLIC        ptrFont
  C:C075H         PUBLIC        DownloadUDFont
  C:A464H         PUBLIC        _InitOSDWindow
  C:84B1H         PUBLIC        Init_Osd_DisplayPCInfo
  C:A080H         SYMBOL        Com0067
  C:A080H         SYMBOL        L?0104
  C:A083H         SYMBOL        L?0105
  C:A084H         SYMBOL        L?0106
  C:A08FH         SYMBOL        L?0107
  C:A0B0H         SYMBOL        L?0109
  C:A0B0H         SYMBOL        L?0110
  C:A0B9H         SYMBOL        L?0111
  C:A0B9H         SYMBOL        L?0112
  C:A0C1H         SYMBOL        L?0113
  C:A0D3H         SYMBOL        L?0115
  C:A0E2H         SYMBOL        L?0117
  C:A0E2H         SYMBOL        L?0118
  C:A0EBH         SYMBOL        L?0121
  C:A0EBH         SYMBOL        L?0122
  C:A0F2H         SYMBOL        L?0123
  C:A0FFH         SYMBOL        L?0124
  C:A0FFH         SYMBOL        L?0125
  C:A107H         SYMBOL        L?0126
  C:A113H         SYMBOL        L?0129
  C:A114H         SYMBOL        L?0130
  C:A11BH         SYMBOL        L?0133
  C:A11BH         SYMBOL        L?0134
  C:A122H         SYMBOL        L?0135
  C:A122H         SYMBOL        L?0136
  -------         PROC          COM0067
  -------         ENDPROC       COM0067
  C:C428H         SYMBOL        L?0131
  -------         PROC          WAITENDOFDISPLAYAREA
  -------         DO            
  X:0028H         SYMBOL        ret
  X:0029H         SYMBOL        i
  -------         ENDDO         
  C:C406H         LINE#         41
  C:C406H         LINE#         42
  C:C406H         LINE#         45
  C:C40DH         LINE#         47
  C:C410H         LINE#         48
  C:C410H         LINE#         49
  C:C41BH         LINE#         50
  C:C427H         LINE#         51
  -------         ENDPROC       WAITENDOFDISPLAYAREA
  C:B4C9H         SYMBOL        L?0132
  -------         PROC          CHANGE_OSDCOLORLOOKUP
  -------         DO            
  X:000CH         SYMBOL        i
  X:000DH         SYMBOL        j
  -------         ENDDO         
BL51 BANKED LINKER/LOCATER V6.22                                                      12/15/2017  13:23:50  PAGE 81


  C:B479H         LINE#         56
  C:B479H         LINE#         57
  C:B479H         LINE#         59
  C:B47EH         LINE#         60
  C:B48DH         LINE#         61
  C:B498H         LINE#         62
  C:B4B5H         LINE#         63
  C:B4BCH         LINE#         64
  C:B4C8H         LINE#         65
  -------         ENDPROC       CHANGE_OSDCOLORLOOKUP
  C:B40BH         SYMBOL        L?0127
  C:B414H         SYMBOL        L?0137
  -------         PROC          _DOWNLOADFONT
  X:0006H         SYMBOL        cod
  X:0007H         SYMBOL        fontdata
  C:B3BDH         LINE#         98
  C:B3C6H         LINE#         99
  C:B3C6H         LINE#         100
  C:B3D0H         LINE#         101
  C:B3D9H         LINE#         104
  C:B3EBH         LINE#         105
  C:B3FEH         LINE#         107
  C:B40BH         LINE#         108
  -------         ENDPROC       _DOWNLOADFONT
  -------         PROC          DOWNLOADUDFONT
  -------         DO            
  X:0005H         SYMBOL        i
  -------         ENDDO         
  C:C075H         LINE#         110
  C:C075H         LINE#         111
  C:C075H         LINE#         114
  C:C07EH         LINE#         116
  C:C092H         LINE#         117
  C:C0A4H         LINE#         118
  C:C0ACH         LINE#         119
  -------         ENDPROC       DOWNLOADUDFONT
  -------         PROC          _SETOSDWINDOWX_TW88
  D:0007H         SYMBOL        winno
  X:0014H         SYMBOL        x
  -------         DO            
  X:0015H         SYMBOL        tmp
  D:0005H         SYMBOL        dat
  -------         ENDDO         
  C:BD6CH         LINE#         177
  C:BD6FH         LINE#         178
  C:BD6FH         LINE#         182
  C:BD7AH         LINE#         183
  C:BD80H         LINE#         185
  C:BD86H         LINE#         187
  C:BD90H         LINE#         188
  C:BD95H         LINE#         190
  C:BD9DH         LINE#         191
  C:BDAAH         LINE#         192
  -------         ENDPROC       _SETOSDWINDOWX_TW88
  -------         PROC          _SETOSDWINDOWY_TW88
  D:0007H         SYMBOL        winno
  X:0014H         SYMBOL        y
BL51 BANKED LINKER/LOCATER V6.22                                                      12/15/2017  13:23:50  PAGE 82


  -------         DO            
  X:0015H         SYMBOL        tmp
  D:0005H         SYMBOL        dat
  -------         ENDDO         
  C:BCA8H         LINE#         194
  C:BCABH         LINE#         195
  C:BCABH         LINE#         199
  C:BCB6H         LINE#         200
  C:BCBCH         LINE#         202
  C:BCC2H         LINE#         204
  C:BCCCH         LINE#         205
  C:BCD4H         LINE#         207
  C:BCDCH         LINE#         208
  C:BCE9H         LINE#         209
  -------         ENDPROC       _SETOSDWINDOWY_TW88
  -------         PROC          _SHOWOSDWINDOWALL
  X:0017H         SYMBOL        on
  -------         DO            
  X:0018H         SYMBOL        rd
  -------         ENDDO         
  C:C3A9H         LINE#         214
  C:C3AEH         LINE#         215
  C:C3AEH         LINE#         218
  C:C3B1H         LINE#         219
  C:C3BDH         LINE#         221
  C:C3C3H         LINE#         222
  C:C3C9H         LINE#         224
  C:C3D7H         LINE#         226
  -------         ENDPROC       _SHOWOSDWINDOWALL
  -------         PROC          _SHOWOSDWINDOW_TW88
  D:0007H         SYMBOL        winno
  X:0017H         SYMBOL        onoff
  -------         DO            
  X:0018H         SYMBOL        rd
  -------         ENDDO         
  C:BC64H         LINE#         227
  C:BC67H         LINE#         228
  C:BC67H         LINE#         231
  C:BC72H         LINE#         232
  C:BC78H         LINE#         234
  C:BC84H         LINE#         235
  C:BC91H         LINE#         236
  C:BC98H         LINE#         238
  C:BC9BH         LINE#         239
  C:BCA7H         LINE#         240
  -------         ENDPROC       _SHOWOSDWINDOW_TW88
  -------         PROC          _GETOSDWINDOWX
  D:0007H         SYMBOL        winno
  -------         DO            
  X:0028H         SYMBOL        x
  -------         ENDDO         
  C:BAB6H         LINE#         243
  C:BAB6H         LINE#         244
  C:BAB6H         LINE#         247
  C:BAC6H         LINE#         248
  C:BACCH         LINE#         250
  C:BADDH         LINE#         251
BL51 BANKED LINKER/LOCATER V6.22                                                      12/15/2017  13:23:50  PAGE 83


  C:BAEDH         LINE#         253
  C:BB00H         LINE#         254
  -------         ENDPROC       _GETOSDWINDOWX
  -------         PROC          _GETOSDWINDOWY
  D:0007H         SYMBOL        winno
  -------         DO            
  X:0028H         SYMBOL        y
  -------         ENDDO         
  C:B6E8H         LINE#         257
  C:B6E8H         LINE#         258
  C:B6E8H         LINE#         261
  C:B6F8H         LINE#         262
  C:B6FEH         LINE#         264
  C:B71BH         LINE#         265
  C:B72BH         LINE#         267
  C:B73EH         LINE#         268
  -------         ENDPROC       _GETOSDWINDOWY
  C:8FD1H         SYMBOL        L?0101
  C:900AH         SYMBOL        L?0108
  C:9012H         SYMBOL        L?0116
  C:901AH         SYMBOL        L?0119
  C:9024H         SYMBOL        L?0138
  -------         PROC          _DISPLAYROMFONT
  X:0002H         SYMBOL        scode
  -------         DO            
  X:0003H         SYMBOL        i
  -------         ENDDO         
  C:8F2BH         LINE#         284
  C:8F30H         LINE#         285
  C:8F30H         LINE#         288
  C:8F35H         LINE#         289
  C:8F3AH         LINE#         290
  C:8F49H         LINE#         291
  C:8F57H         LINE#         292
  C:8F5DH         LINE#         293
  C:8F61H         LINE#         294
  C:8F70H         LINE#         295
  C:8F72H         LINE#         296
  C:8F7DH         LINE#         297
  C:8F81H         LINE#         298
  C:8F88H         LINE#         299
  C:8F88H         LINE#         300
  C:8F88H         LINE#         301
  C:8F8BH         LINE#         302
  C:8F94H         LINE#         303
  C:8F9AH         LINE#         304
  C:8F9DH         LINE#         305
  C:8FA2H         LINE#         306
  C:8FABH         LINE#         307
  C:8FB0H         LINE#         308
  C:8FB0H         LINE#         309
  C:8FB4H         LINE#         310
  C:8FB4H         LINE#         311
  C:8FB4H         LINE#         312
  C:8FB4H         LINE#         313
  C:8FB7H         LINE#         314
  C:8FB7H         LINE#         315
BL51 BANKED LINKER/LOCATER V6.22                                                      12/15/2017  13:23:50  PAGE 84


  C:8FB7H         LINE#         316
  C:8FB7H         LINE#         317
  C:8FBCH         LINE#         318
  C:8FBFH         LINE#         319
  C:8FBFH         LINE#         320
  C:8FC8H         LINE#         321
  C:8FD1H         LINE#         322
  -------         ENDPROC       _DISPLAYROMFONT
  C:861FH         SYMBOL        L?0102
  C:8658H         SYMBOL        L?0114
  C:8663H         SYMBOL        L?0120
  -------         PROC          _DISPLAYRAMFONT
  X:0002H         SYMBOL        scode
  -------         DO            
  X:0003H         SYMBOL        i
  X:0004H         SYMBOL        j
  D:0006H         SYMBOL        takenTime
  -------         ENDDO         
  C:8546H         LINE#         325
  C:854BH         LINE#         326
  C:854BH         LINE#         330
  C:8554H         LINE#         331
  C:8558H         LINE#         332
  C:8565H         LINE#         333
  C:8573H         LINE#         334
  C:8579H         LINE#         335
  C:857DH         LINE#         336
  C:858DH         LINE#         337
  C:858FH         LINE#         338
  C:859AH         LINE#         339
  C:859EH         LINE#         340
  C:85A5H         LINE#         341
  C:85A5H         LINE#         342
  C:85ADH         LINE#         343
  C:85B6H         LINE#         344
  C:85BBH         LINE#         345
  C:85C1H         LINE#         346
  C:85CAH         LINE#         347
  C:85D3H         LINE#         348
  C:85DCH         LINE#         349
  C:85E1H         LINE#         350
  C:85E1H         LINE#         351
  C:85E5H         LINE#         352
  C:85E5H         LINE#         353
  C:85E5H         LINE#         354
  C:85E5H         LINE#         355
  C:85E8H         LINE#         356
  C:85E8H         LINE#         357
  C:85E8H         LINE#         358
  C:85E8H         LINE#         359
  C:85EDH         LINE#         360
  C:85F0H         LINE#         361
  C:85F0H         LINE#         362
  C:85F0H         LINE#         363
  C:85F5H         LINE#         364
  C:85F8H         LINE#         365
  C:85FCH         LINE#         366
BL51 BANKED LINKER/LOCATER V6.22                                                      12/15/2017  13:23:50  PAGE 85


  C:860DH         LINE#         367
  C:860DH         LINE#         368
  C:8616H         LINE#         369
  C:861FH         LINE#         370
  -------         ENDPROC       _DISPLAYRAMFONT
  -------         PROC          _WRITESTRINGTOADDR
  X:004FH         SYMBOL        addr
  X:0051H         SYMBOL        str
  X:0054H         SYMBOL        cnt
  C:C284H         LINE#         908
  C:C28DH         LINE#         909
  C:C28DH         LINE#         911
  C:C293H         LINE#         913
  C:C29CH         LINE#         914
  C:C2B1H         LINE#         917
  -------         ENDPROC       _WRITESTRINGTOADDR
  -------         PROC          _DRAWATTRCNT
  X:0030H         SYMBOL        addr
  X:0032H         SYMBOL        color
  X:0033H         SYMBOL        cnt
  C:C2E8H         LINE#         932
  C:C2F2H         LINE#         933
  C:C2F2H         LINE#         934
  C:C2F8H         LINE#         935
  C:C301H         LINE#         936
  C:C313H         LINE#         938
  -------         ENDPROC       _DRAWATTRCNT
  -------         PROC          _CLEARDATACNT
  X:0030H         SYMBOL        addr
  X:0032H         SYMBOL        cnt
  C:C433H         LINE#         941
  C:C43AH         LINE#         942
  C:C43AH         LINE#         944
  C:C440H         LINE#         945
  C:C449H         LINE#         946
  C:C45AH         LINE#         949
  -------         ENDPROC       _CLEARDATACNT
  -------         PROC          _UTOA
  X:004FH         SYMBOL        value
  X:0051H         SYMBOL        str
  X:0054H         SYMBOL        radix
  -------         DO            
  X:0055H         SYMBOL        cnt
  X:0056H         SYMBOL        str1
  X:0059H         SYMBOL        i
  X:005BH         SYMBOL        div
  -------         ENDDO         
  C:8794H         LINE#         957
  C:879DH         LINE#         958
  C:879DH         LINE#         966
  C:87A3H         LINE#         967
  C:87A8H         LINE#         968
  C:87B0H         LINE#         969
  C:87C5H         LINE#         970
  C:87C8H         LINE#         971
  C:87CDH         LINE#         972
  C:87D7H         LINE#         973
BL51 BANKED LINKER/LOCATER V6.22                                                      12/15/2017  13:23:50  PAGE 86


  C:87DDH         LINE#         974
  C:87DFH         LINE#         975
  C:87E5H         LINE#         976
  C:87F4H         LINE#         978
  C:8805H         LINE#         979
  C:881BH         LINE#         980
  C:8826H         LINE#         981
  C:8826H         LINE#         982
  C:8829H         LINE#         983
  C:8834H         LINE#         984
  C:8848H         LINE#         985
  C:884BH         LINE#         986
  C:8850H         LINE#         987
  C:8860H         LINE#         988
  C:8865H         LINE#         990
  C:886FH         LINE#         991
  C:8878H         LINE#         992
  C:8878H         LINE#         993
  C:888CH         LINE#         994
  C:8897H         LINE#         995
  C:889CH         LINE#         997
  C:88A8H         LINE#         998
  C:88B2H         LINE#         999
  C:88B2H         LINE#         1000
  C:88B4H         LINE#         1001
  -------         ENDPROC       _UTOA
  -------         PROC          _STRLEN
  X:004FH         SYMBOL        str
  -------         DO            
  D:0007H         SYMBOL        i
  -------         ENDDO         
  C:C7B5H         LINE#         1002
  C:C7BBH         LINE#         1003
  C:C7BBH         LINE#         1004
  C:C7BDH         LINE#         1006
  C:C7CFH         LINE#         1007
  C:C7CFH         LINE#         1008
  -------         ENDPROC       _STRLEN
  C:A4F3H         SYMBOL        L?0128
  C:A4FCH         SYMBOL        L?0139
  -------         PROC          _INITOSDWINDOW
  X:0015H         SYMBOL        ptr
  -------         DO            
  X:0018H         SYMBOL        i
  X:0019H         SYMBOL        page
  -------         ENDDO         
  C:A464H         LINE#         1014
  C:A46AH         LINE#         1015
  C:A46AH         LINE#         1018
  C:A476H         LINE#         1019
  C:A480H         LINE#         1021
  C:A48DH         LINE#         1023
  C:A492H         LINE#         1024
  C:A498H         LINE#         1025
  C:A4B2H         LINE#         1026
  C:A4CDH         LINE#         1028
  C:A4D8H         LINE#         1029
BL51 BANKED LINKER/LOCATER V6.22                                                      12/15/2017  13:23:50  PAGE 87


  C:A4DAH         LINE#         1031
  C:A4E7H         LINE#         1032
  C:A4F3H         LINE#         1033
  -------         ENDPROC       _INITOSDWINDOW
  -------         ENDMOD        OSDBASIC

  -------         MODULE        OSDMENU
  C:0000H         SYMBOL        _ICE_DUMMY_
  C:0D7EH         PUBLIC        Str_Secord
  C:07C9H         PUBLIC        ReversModeString
  C:02C2H         PUBLIC        Str_Sharpness_F
  X:00E3H         PUBLIC        MenuChild
  C:027EH         PUBLIC        Str_Saturation_S
  C:018DH         PUBLIC        Str_LCDVersion_E
  C:0DE9H         PUBLIC        RECORDSDCARD_ICON
  X:00E5H         PUBLIC        PW_FirstNumber
  C:0E97H         PUBLIC        FWUpdateSelectMenu
  C:0BE3H         PUBLIC        Str_DVR_DISPLAY
  C:0557H         PUBLIC        Str_UpdateConfig_E
  C:002EH         PUBLIC        OSDHighMenu
  C:B1D3H         PUBLIC        ResetVideoValue
  C:01BEH         PUBLIC        Str_OSDPosition_E
  C:CA38H         PUBLIC        IsInputAnalogRGB
  C:0DDDH         PUBLIC        VIDEO_ICON
  C:02D9H         PUBLIC        Str_Sharpness_K
  C:733EH         PUBLIC        _OSDCursorMove
  D:00E8H         PUBLIC        P4
  C:156DH         PUBLIC        PanelBrightnessRange
  C:1223H         PUBLIC        RECORDSELECT
  C:0DAEH         PUBLIC        Str_FourthNumber
  C:0D4EH         PUBLIC        Str_FPS
  X:00E6H         PUBLIC        MenuFormat
  C:0D54H         PUBLIC        Str_RecordMode
  C:0A63H         PUBLIC        Str_Version
  C:0DABH         PUBLIC        Str_ThirdNumber
  C:0D93H         PUBLIC        Str_RETURNAPPLY
  C:0AE1H         PUBLIC        Str_OSDLang
  C:0892H         PUBLIC        ResolutionChoiceString
  C:0573H         PUBLIC        Str_CamADelay_E
  X:00E8H         PUBLIC        BarRange
  C:1579H         PUBLIC        PanelHueRange
  C:0579H         PUBLIC        Str_CamBDelay_E
  C:0D51H         PUBLIC        Str_Quality
  C:0CEEH         PUBLIC        Str_VER
  C:0CEBH         PUBLIC        Str_SPACE
  C:057FH         PUBLIC        Str_CamCDelay_E
  C:0398H         PUBLIC        Str_TIMEOUT_STEP_E
  C:01D8H         PUBLIC        Str_OSDPosition_K
  C:0D66H         PUBLIC        Str_ManualRecordStop
  C:09EFH         PUBLIC        ONOFFChineseChoiceString
  C:03F7H         PUBLIC        Str_RecordLength_E
  C:119FH         PUBLIC        DMUtility
  C:0DC6H         PUBLIC        Str_WideScreen
  C:0ABDH         PUBLIC        CheckPCCableStr
  C:15C5H         PUBLIC        PCColorTempRGB
  C:1597H         PUBLIC        VideoBrightnessRange
  C:0C2EH         PUBLIC        Str_CVBSA
BL51 BANKED LINKER/LOCATER V6.22                                                      12/15/2017  13:23:50  PAGE 88


  C:053DH         PUBLIC        Str_TriggerDelay_E
  C:02D1H         PUBLIC        Str_Sharpness_S
  C:0D9FH         PUBLIC        Str_YES
  C:0C3DH         PUBLIC        Str_CVBSB
  C:0C01H         PUBLIC        Str_OSD_LOCK
  D:0075H         SYMBOL        MenuIndexStack
  C:0C4CH         PUBLIC        Str_CVBSC
  C:04E2H         PUBLIC        Str_SecondNumber_E
  C:C87EH         PUBLIC        GetOSDLang
  C:15A3H         PUBLIC        VideoHueRange
  C:0FC3H         PUBLIC        DateTimeSelectMenu
  C:05A6H         PUBLIC        Str_DISTANCE_E
  C:A6E2H         PUBLIC        _DisplayVolumebar
  C:0E1FH         PUBLIC        InputSelectMenu
  C:A3C1H         PUBLIC        _DisplayViewBar
  C:5714H         PUBLIC        _DisplayOSDMenuOneItem
  C:119BH         PUBLIC        UtilityMenu
  C:0D7BH         PUBLIC        Str_Minute
  C:01CBH         PUBLIC        Str_OSDPosition_S
  X:00EAH         PUBLIC        MenuStack
  C:154FH         PUBLIC        UserRange
  C:0E1DH         PUBLIC        NumberOnly
  C:0C10H         PUBLIC        Str_PASSWORD
  C:09DEH         PUBLIC        bpsChoiceString
  C:024EH         PUBLIC        Str_Contrast_D
  C:161DH         PUBLIC        WIDE_ADDRESS
  C:1403H         PUBLIC        TRIGGERSelectMenu
  C:0DA5H         PUBLIC        Str_FirstNumber
  C:0C6AH         PUBLIC        Str_Auto_Day_Night
  C:0476H         PUBLIC        Str_TimeBegines_E
  C:023BH         PUBLIC        Str_Contrast_E
  C:01B6H         PUBLIC        Str_GETWAY_E
  X:00F2H         PUBLIC        DVR_DataChange
  C:C14EH         PUBLIC        OpenOSDMenu
  C:12EBH         PUBLIC        DMUserPicture
  C:08F9H         PUBLIC        RecordLengthChoiceString
  C:0244H         PUBLIC        Str_Contrast_F
  C:157FH         PUBLIC        PanelSaturationRange
  C:0438H         PUBLIC        Str_Snapshot_E
  C:A77DH         PUBLIC        _DoAction
  C:AB56H         PUBLIC        InitOSDMenu
  C:0DBDH         PUBLIC        Str_Informmation
  C:0585H         PUBLIC        Str_CamRDelay_E
  C:0421H         PUBLIC        Str_ManualRecordStart_E
  C:04B1H         PUBLIC        Str_AudioRecord_E
  C:0199H         PUBLIC        Str_DVRVersion_E
  C:10A7H         PUBLIC        DMDVRRecallSELECT
  C:1077H         PUBLIC        DMMonitorRecallSELECT
  C:0261H         PUBLIC        Str_Contrast_K
  C:0161H         PUBLIC        AutoAdjustInfo
  C:0D5DH         PUBLIC        Str_PostAlarmLength
  C:0D5AH         PUBLIC        Str_PreAlarmLength
  C:C92DH         PUBLIC        ClearValueWin
  C:0CF7H         PUBLIC        Str_GAUGE_RECALL
  C:0AC0H         PUBLIC        OutOfRangeStr
  C:159DH         PUBLIC        VideoSaturationRange
  C:0DD9H         PUBLIC        INPUT_ICON
BL51 BANKED LINKER/LOCATER V6.22                                                      12/15/2017  13:23:50  PAGE 89


  C:0C5BH         PUBLIC        Str_CVBSR
  X:00F3H         PUBLIC        MenuTitle
  C:0CFDH         PUBLIC        Str_ReversMode
  C:032EH         PUBLIC        Str_MIRROR_E
  C:0ECBH         PUBLIC        ChangePasswordSelectMenu
  C:0D96H         PUBLIC        Str_FormatSD
  C:0E23H         PUBLIC        InputSourceMenu
  C:0CFAH         PUBLIC        Str_PRIORITY
  C:0B3BH         PUBLIC        Str_Reset
  C:1573H         PUBLIC        PanelSharpnessRange
  C:0DB7H         PUBLIC        Str_TriggerSet
  C:077DH         PUBLIC        CaptionChoice
  C:0257H         PUBLIC        Str_Contrast_S
  C:07A8H         PUBLIC        NMhoiceString
  C:0355H         PUBLIC        Str_RETURN_E
  C:01ADH         PUBLIC        Str_WIFI_MAC_E
  C:0D72H         PUBLIC        Str_Month
  C:0D60H         PUBLIC        Str_Apply
  C:0CF4H         PUBLIC        Str_GAUGE_STEP
  C:0985H         PUBLIC        AudioRecordChoiceString
  C:0463H         PUBLIC        Str_Secord_E
  C:09FDH         PUBLIC        IMAGEChineseString
  C:1117H         PUBLIC        InformationMenu
  C:0E19H         PUBLIC        BookMark_ICON
  C:1373H         PUBLIC        DMCAMSELECT
  C:0F43H         PUBLIC        FORMATSDSELECT
  C:0858H         PUBLIC        REARString
  C:059AH         PUBLIC        Str_DVR_DISPLAY_E
  C:15A9H         PUBLIC        VideoSharpnessRange
  C:0D8AH         PUBLIC        Str_Week
  C:03C8H         PUBLIC        Str_ReverseMode_E
  C:04FDH         PUBLIC        Str_FourthNumber_E
  C:03DFH         PUBLIC        Str_FPS_E
  C:03EBH         PUBLIC        Str_RecordMode_E
  C:01F4H         PUBLIC        Str_OSDLang_D
  C:0185H         PUBLIC        Str_Version_E
  C:1047H         PUBLIC        DMRecallSELECT
  C:0D8DH         PUBLIC        Str_Time
  C:04F0H         PUBLIC        Str_ThirdNumber_E
  C:0495H         PUBLIC        Str_RETURNAPPLY_E
  C:01E4H         PUBLIC        Str_OSDLang_E
  C:1681H         PUBLIC        WIDEDATA_480i
  C:0D6CH         PUBLIC        Str_DateTime
  C:01EDH         PUBLIC        Str_OSDLang_F
  C:0D6FH         PUBLIC        Str_Year
  C:0CA0H         PUBLIC        Str_CAMA
  C:0968H         PUBLIC        TimeBeginesWeekChoiceString
  C:03E3H         PUBLIC        Str_Quality_E
  C:0389H         PUBLIC        Str_VER_E
  C:0387H         PUBLIC        Str_SPACE_E
  C:A129H         PUBLIC        OSDHighMenu_sub
  C:0E09H         PUBLIC        NoGsensor_ICON
  C:0DC3H         PUBLIC        Str_SDCARDCOVERDET
  C:0CAFH         PUBLIC        Str_CAMB
  C:042DH         PUBLIC        Str_ManualRecordStop_E
  C:0CBEH         PUBLIC        Str_CAMC
  C:0315H         PUBLIC        Str_WideScreen_E
BL51 BANKED LINKER/LOCATER V6.22                                                      12/15/2017  13:23:50  PAGE 90


  C:012EH         PUBLIC        CheckPCCableStr_E
  C:9120H         PUBLIC        _SetVideoMode
  C:7FE7H         PUBLIC        DisplayInfo_OSD
  C:1771H         PUBLIC        OSDInfoStr
  C:1721H         PUBLIC        WIDEDATA_720p
  C:14DFH         PUBLIC        DMMainMenu
  C:0CDCH         PUBLIC        Str_CAMD
  C:05D4H         PUBLIC        Str_CVBSA_E
  C:05DBH         PUBLIC        Str_CVBSB_E
  C:05B5H         PUBLIC        Str_OSD_LOCK_E
  C:04CEH         PUBLIC        Str_YES_E
  C:0203H         PUBLIC        Str_OSDLang_K
  C:16A9H         PUBLIC        WIDEDATA_576i
  C:1277H         PUBLIC        SDCARD
  C:05E2H         PUBLIC        Str_CVBSC_E
  C:16D1H         PUBLIC        WIDEDATA_480p
  C:0DFDH         PUBLIC        NoGPS_ICON
  C:0C88H         PUBLIC        Str_DIR_IMAGE_CAMA
  C:0BD4H         PUBLIC        Str_DISPLAY
  C:0B68H         PUBLIC        Str_SEQ_TIME_STEP
  X:00F5H         SYMBOL        cursor_item
  C:68DDH         PUBLIC        _GetItemValue
  C:0DD5H         PUBLIC        TV_ICON
  C:0C8BH         PUBLIC        Str_DIR_IMAGE_CAMB
  C:08A5H         PUBLIC        FPSChoiceString
  C:C379H         PUBLIC        _Get_cursor_item
  C:0C8EH         PUBLIC        Str_DIR_IMAGE_CAMC
  C:08E4H         PUBLIC        RecordModeChoiceString
  C:045FH         PUBLIC        Str_Minute_E
  C:0321H         PUBLIC        Str_WideScreen_K
  C:0ACFH         PUBLIC        StrVolume
  C:05BEH         PUBLIC        Str_PASSWORD_E
  B:0023H.7       PUBLIC        displayOnValueWindow
  X:00F6H         SYMBOL        title_item
  C:1567H         PUBLIC        PanelContrastRange
  C:0DA2H         PUBLIC        Str_NO
  C:B102H         PUBLIC        _SetVideoBacklight
  C:08B9H         PUBLIC        QualityChoiceString
  C:0886H         PUBLIC        JUMPString
  C:05F0H         PUBLIC        Str_Auto_Day_Night_E
  C:04D5H         PUBLIC        Str_FirstNumber_E
  C:16F9H         PUBLIC        WIDEDATA_576p
  C:0E11H         PUBLIC        NoWiFi_ICON
  C:0D75H         PUBLIC        Str_Day
  C:0C91H         PUBLIC        Str_REAR_SETUP
  C:01FCH         PUBLIC        Str_OSDLang_S
  C:B5E0H         PUBLIC        CheckPanelImage
  C:0D78H         PUBLIC        Str_Hour
  C:0AF0H         PUBLIC        Str_Brightness
  D:0079H         SYMBOL        MenuSP
  C:054BH         PUBLIC        Str_Informmation_E
  C:145BH         PUBLIC        DMCAMERA
  X:00F7H         SYMBOL        val_osdwin
  C:15B5H         PUBLIC        Contast_Reg_Addr
  C:0DE5H         PUBLIC        SDCARD_ICON
  C:0DB1H         PUBLIC        Str_ChangePassword
  C:0BB6H         PUBLIC        Str_DVRRECALL
BL51 BANKED LINKER/LOCATER V6.22                                                      12/15/2017  13:23:50  PAGE 91


  C:0BA7H         PUBLIC        Str_MonitorRECALL
  C:0B1DH         PUBLIC        Str_Hue
  C:1591H         PUBLIC        TW2835VideoContrastRange
  C:158BH         PUBLIC        VideoContrastRange
  C:0CCDH         PUBLIC        Str_CAMR
  C:0741H         PUBLIC        WideScreenChoice
  C:12E7H         PUBLIC        UserPictureMenuType
  C:0C79H         PUBLIC        Str_DIR_IMAGE
  C:040FH         PUBLIC        Str_PostAlarmLength_E
  C:0405H         PUBLIC        Str_PreAlarmLength_E
  X:00F8H         SYMBOL        val_index
  C:2D79H         PUBLIC        _SetItemValue
  C:A5A8H         PUBLIC        _ChangeVideoData
  C:03B2H         PUBLIC        Str_GAUGE_RECALL_E
  C:013EH         PUBLIC        OutOfRangeStr_E
  C:1617H         PUBLIC        Init_DTV_Data
  C:1561H         PUBLIC        PCUserColorTempRange
  C:05E9H         PUBLIC        Str_CVBSR_E
  C:9671H         PUBLIC        _DrawNum
  C:1815H         SYMBOL        _?ix1000
  C:1457H         PUBLIC        CAMERAMenu
  C:0D81H         PUBLIC        Str_DaylightSaving
  C:C4E1H         PUBLIC        SaveValue1
  C:185BH         SYMBOL        _?ix1001
  C:9FD3H         PUBLIC        _SetPCColor
  X:00F9H         SYMBOL        cur_osdwin
  C:CA18H         PUBLIC        _GetVideoDatawithOffset
  C:1865H         SYMBOL        _?ix1002
  C:0D9CH         PUBLIC        Str_FirmwareUpdate
  C:0A90H         PUBLIC        Str_WIFI_IP
  C:079FH         PUBLIC        ONOFFChoiceString
  C:04A2H         PUBLIC        Str_FormatSD_E
  C:02EFH         PUBLIC        Str_Reset_D
  C:186FH         SYMBOL        _?ix1003
  C:0B77H         PUBLIC        Str_CAM_OUT
  C:03BFH         PUBLIC        Str_PRIORITY_E
  C:02E2H         PUBLIC        Str_Reset_E
  C:187BH         SYMBOL        _?ix1004
  C:0525H         PUBLIC        Str_TriggerSet_E
  C:02E8H         PUBLIC        Str_Reset_F
  C:014BH         PUBLIC        OutOfRangeStr_K
  C:155BH         PUBLIC        OSDMenuXRange
  C:0E9BH         PUBLIC        FWUpdateSELECT
  C:B41BH         PUBLIC        InitOSDMenuXY
  C:1555H         PUBLIC        OSDMenuYRange
  C:0450H         PUBLIC        Str_Month_E
  C:041BH         PUBLIC        Str_Apply_E
  C:03A6H         PUBLIC        Str_GAUGE_STEP_E
  C:C349H         PUBLIC        _SetVideoBrightness
  C:14DBH         PUBLIC        TVMainMenu
  C:0DE1H         PUBLIC        UTIL_ICON
  C:058BH         PUBLIC        Str_AVDelay_E
  C:1273H         PUBLIC        SDCARDMenu
  C:0D90H         PUBLIC        Str_TimeZone
  C:093EH         PUBLIC        PostAlarmLengthChoiceString
  C:0926H         PUBLIC        PreAlarmLengthChoiceString
  C:7D0EH         PUBLIC        OSDSelect
BL51 BANKED LINKER/LOCATER V6.22                                                      12/15/2017  13:23:50  PAGE 92


  C:0B0EH         PUBLIC        Str_Saturation
  C:030FH         PUBLIC        Str_Reset_K
  C:B638H         PUBLIC        _SetVideoHue
  C:1611H         PUBLIC        Init_Video_Data
  C:0DF5H         PUBLIC        SDCardOverWrite_ICON
  C:99D7H         PUBLIC        _DrawStringByLang
  C:136FH         PUBLIC        CAMSelectMenu
  C:0DEDH         PUBLIC        PC_ADJ_ICON
  C:0481H         PUBLIC        Str_Week_E
  C:0B98H         PUBLIC        Str_RECALL
  C:0D87H         PUBLIC        Str_Standard
  C:0B86H         PUBLIC        Str_JumpAV
  C:0486H         PUBLIC        Str_Time_E
  C:15BBH         PUBLIC        OSDPOSITIONMODE_TABLE
  C:0441H         PUBLIC        Str_DateTime_E
  C:9905H         PUBLIC        _Set4WideScreen
  C:0DBAH         PUBLIC        Str_TriggerVGA
  C:0C1FH         PUBLIC        Str_SOURCE_TITLE
  C:0638H         PUBLIC        Str_CAMA_E
  C:044BH         PUBLIC        Str_Year_E
  C:0652H         PUBLIC        Str_CAMB_E
  C:0565H         PUBLIC        Str_SDCARDCOVERDET_E
  C:02FEH         PUBLIC        Str_Reset_S
  C:0FC7H         PUBLIC        DateTimeSELECT
  C:0658H         PUBLIC        Str_CAMC_E
  X:00FAH         PUBLIC        PW_SecondNumber
  C:0D4BH         PUBLIC        Str_Resolution
  C:0BC5H         PUBLIC        Str_EXIT
  C:068EH         PUBLIC        ModeChoice
  C:065EH         PUBLIC        Str_CAMD_E
  C:C69DH         PUBLIC        _SetLanguage
  X:00FBH         SYMBOL        OSDMenuX
  C:BBDBH         PUBLIC        _GetLowerMenuItem
  C:0B59H         PUBLIC        Str_JUMP
  C:0B2CH         PUBLIC        Str_Sharpness
  X:00FCH         SYMBOL        OSDMenuY
  C:0609H         PUBLIC        Str_DIR_IMAGE_CAMA_E
  C:0591H         PUBLIC        Str_DISPLAY_E
  C:033AH         PUBLIC        Str_SEQ_TIME_STEP_E
  C:92F3H         PUBLIC        DisplayOSDMenu
  C:C460H         PUBLIC        pushMenu
  C:1749H         PUBLIC        WIDEDATA_1080i
  C:0A72H         PUBLIC        Str_LCDVersion
  C:075DH         PUBLIC        OsdPositionModeChoice
  C:0615H         PUBLIC        Str_DIR_IMAGE_CAMB_E
  C:AF42H         PUBLIC        _SetVideoSaturation
  C:C9BFH         PUBLIC        _GetUpperMenuItem
  C:0621H         PUBLIC        Str_DIR_IMAGE_CAMC_E
  C:0DC0H         PUBLIC        Str_UpdateConfig
  C:0158H         PUBLIC        StrVolume_E
  C:9594H         PUBLIC        DisplayCursor
  C:111BH         PUBLIC        DMINFORMATION
  C:0DF1H         PUBLIC        NoSDCard_ICON
  C:0AD2H         PUBLIC        Str_OSDPosition
  C:04D2H         PUBLIC        Str_NO_E
  C:AAD0H         PUBLIC        _AWT_DisplayViewBar
  C:AE4CH         PUBLIC        _SetPCColorTemp
BL51 BANKED LINKER/LOCATER V6.22                                                      12/15/2017  13:23:50  PAGE 93


  C:B16BH         PUBLIC        _SetRGBContrast
  C:121FH         PUBLIC        RecordSelectMenu
  C:09D6H         PUBLIC        PDChoiceString
  C:062DH         PUBLIC        Str_REAR_SETUP_E
  C:0456H         PUBLIC        Str_Day_E
  C:0221H         PUBLIC        Str_Brightness_D
  C:15AFH         PUBLIC        DigitalVideoSaturationRange
  C:0F3FH         PUBLIC        FORMATSDSelectMenu
  C:0E1EH         PUBLIC        DefaultBar
  C:07DEH         PUBLIC        IMAGEString
  C:045AH         PUBLIC        Str_Hour_E
  C:020BH         PUBLIC        Str_Brightness_E
  C:152FH         PUBLIC        DefaultMenu
  C:0D0FH         PUBLIC        Str_CamADelay
  C:07FBH         PUBLIC        IMAGE_A_String
  C:0216H         PUBLIC        Str_Brightness_F
  C:866DH         PUBLIC        _OSDValueUpDn
  C:0D1EH         PUBLIC        Str_CamBDelay
  C:081AH         PUBLIC        IMAGE_B_String
  C:029FH         PUBLIC        Str_Hue_D
  C:0DB4H         PUBLIC        Str_Str_OverWrite
  C:0D2DH         PUBLIC        Str_CamCDelay
  C:0CF1H         PUBLIC        Str_TIMEOUT_STEP
  C:0839H         PUBLIC        IMAGE_C_String
  C:050BH         PUBLIC        Str_ChangePassword_E
  C:0372H         PUBLIC        Str_DVRRECALL_E
  C:0363H         PUBLIC        Str_MonitorRECALL_E
  C:0292H         PUBLIC        Str_Hue_E
  B:0024H.0       PUBLIC        OnChangingValue
  C:0D57H         PUBLIC        Str_RecordLength
  C:0645H         PUBLIC        Str_CAMR_E
  C:0296H         PUBLIC        Str_Hue_F
  C:05FFH         PUBLIC        Str_DIR_IMAGE_E
  C:0ECFH         PUBLIC        ChangePasswordSELECT
  C:0E01H         PUBLIC        NoGPS_ICON2
  C:0D00H         PUBLIC        Str_TriggerDelay
  C:0712H         PUBLIC        VInputStdChoice
  C:0233H         PUBLIC        Str_Brightness_K
  C:A31EH         PUBLIC        _SetVideoSharpness
  C:0664H         PUBLIC        OSDLangString
  C:7503H         PUBLIC        _DrawMenulist
  C:C6D7H         PUBLIC        popMenu
  C:0DA8H         PUBLIC        Str_SecondNumber
  C:0467H         PUBLIC        Str_DaylightSaving_E
  C:0BF2H         PUBLIC        Str_DISTANCE
  C:02AFH         PUBLIC        Str_Hue_K
  C:07B8H         PUBLIC        DayChoiceString
  C:04BEH         PUBLIC        Str_FirmwareUpdate_E
  C:01A5H         PUBLIC        Str_WIFI_IP_E
  C:034DH         PUBLIC        Str_CAM_OUT_E
  X:00FDH         SYMBOL        OSDLang
  C:BA1CH         PUBLIC        ClearCursor
  C:CA31H         PUBLIC        GetOSDPositionMode
  C:1407H         PUBLIC        DMTRIGGERSELECT
  C:15D1H         PUBLIC        VideoModeTable
  C:051BH         PUBLIC        Str_OverWrite_E
  C:13B3H         PUBLIC        DelaySelectMenu
BL51 BANKED LINKER/LOCATER V6.22                                                      12/15/2017  13:23:50  PAGE 94


  C:10D7H         PUBLIC        RecallMenu
  C:0E15H         PUBLIC        WiFiLittle_ICON
  C:0D84H         PUBLIC        Str_TimeBegines
  C:0AFFH         PUBLIC        Str_Contrast
  C:0AAEH         PUBLIC        Str_GETWAY
  C:022CH         PUBLIC        Str_Brightness_S
  C:6F81H         PUBLIC        ResetOSDValue
  C:C6F3H         PUBLIC        _GetNextCursorMenuItem
  C:0E05H         PUBLIC        Gsensor_ICON
  C:0D69H         PUBLIC        Str_Snapshot
  C:048BH         PUBLIC        Str_TimeZone_E
  C:0274H         PUBLIC        Str_Saturation_D
  C:02A5H         PUBLIC        Str_Hue_S
  C:0269H         PUBLIC        Str_Saturation_E
  X:00FEH         PUBLIC        PW_FourthNumber
  C:12FFH         PUBLIC        DMPicture
  C:0D63H         PUBLIC        Str_ManualRecordStart
  C:0D3CH         PUBLIC        Str_CamRDelay
  C:1585H         PUBLIC        PanelBacklightRange
  C:0D99H         PUBLIC        Str_AudioRecord
  C:0A81H         PUBLIC        Str_DVRVersion
  C:0956H         PUBLIC        DaylightSavingChoiceString
  X:00FFH         PUBLIC        PW_ThridNumber
  C:BD2BH         PUBLIC        _GetTargetChild
  C:1631H         PUBLIC        WIDEDATA_N
  C:0DF9H         PUBLIC        GPS_ICON
  C:035CH         PUBLIC        Str_RECALL_E
  C:1659H         PUBLIC        WIDEDATA_P
  C:07D4H         PUBLIC        ONOFFChoiceString1
  C:047DH         PUBLIC        Str_Standard_E
  C:0345H         PUBLIC        Str_JumpAV_E
  C:BA69H         PUBLIC        _CAMOutDSel
  C:0289H         PUBLIC        Str_Saturation_K
  C:7E7EH         PUBLIC        _SetOSDPositionMode
  C:12FBH         PUBLIC        PictureMenu
  C:0E27H         PUBLIC        DMINPUTSOURCE
  C:0B4AH         PUBLIC        Str_MIRROR
  C:05C7H         PUBLIC        Str_SOURCE_TITLE_E
  C:0531H         PUBLIC        Str_TriggerVGA_E
  C:BDE9H         PUBLIC        CloseOSDMenu
  C:017BH         PUBLIC        Str_Composite_E
  X:0100H         SYMBOL        OSDItemValue
  X:0102H         PUBLIC        OSDMenuLevel
  C:0E0DH         PUBLIC        WiFi_ICON
  C:098FH         PUBLIC        TimeZoneChoiceString
  C:03D4H         PUBLIC        Str_Resolution_E
  C:037DH         PUBLIC        Str_EXIT_E
  C:02C9H         PUBLIC        Str_Sharpness_D
  C:C4B8H         PUBLIC        _SetVideoContrast
  C:0B89H         PUBLIC        Str_RETURN
  C:0A9FH         PUBLIC        Str_WIFI_MAC
  C:0A25H         PUBLIC        JUMPChineseString
  C:0335H         PUBLIC        Str_JUMP_E
  C:02B8H         PUBLIC        Str_Sharpness_E
  C:5346H         SYMBOL        Com0308
  C:5346H         SYMBOL        L?0777
  C:534FH         SYMBOL        L?0778
BL51 BANKED LINKER/LOCATER V6.22                                                      12/15/2017  13:23:50  PAGE 95


  C:5358H         SYMBOL        L?0781
  C:5358H         SYMBOL        L?0782
  C:535BH         SYMBOL        L?0783
  C:5364H         SYMBOL        L?0784
  C:5364H         SYMBOL        L?0785
  C:536BH         SYMBOL        L?0786
  C:5372H         SYMBOL        L?0790
  C:5379H         SYMBOL        L?0791
  C:537FH         SYMBOL        L?0792
  C:5388H         SYMBOL        L?0795
  C:539CH         SYMBOL        L?0796
  C:53A2H         SYMBOL        L?0797
  C:53AFH         SYMBOL        L?0798
  C:53B8H         SYMBOL        L?0799
  C:53B8H         SYMBOL        L?0800
  C:53BEH         SYMBOL        L?0801
  C:53C5H         SYMBOL        L?0802
  C:53C6H         SYMBOL        L?0803
  C:53CCH         SYMBOL        L?0805
  C:53CEH         SYMBOL        L?0806
  C:53CFH         SYMBOL        L?0807
  C:53D7H         SYMBOL        L?0808
  C:53D7H         SYMBOL        L?0809
  C:53DAH         SYMBOL        L?0810
  C:53E1H         SYMBOL        L?0813
  C:53E5H         SYMBOL        L?0814
  C:53F0H         SYMBOL        L?0816
  C:53F0H         SYMBOL        L?0817
  C:5407H         SYMBOL        L?0818
  C:540DH         SYMBOL        L?0820
  C:540DH         SYMBOL        L?0821
  C:5414H         SYMBOL        L?0823
  C:5414H         SYMBOL        L?0824
  C:541DH         SYMBOL        L?0825
  C:541DH         SYMBOL        L?0826
  C:5420H         SYMBOL        L?0827
  C:5428H         SYMBOL        L?0828
  C:5428H         SYMBOL        L?0829
  C:542BH         SYMBOL        L?0830
  C:5435H         SYMBOL        L?0833
  C:5435H         SYMBOL        L?0834
  C:543EH         SYMBOL        L?0835
  C:543EH         SYMBOL        L?0836
  C:5446H         SYMBOL        L?0839
  C:5446H         SYMBOL        L?0840
  C:544DH         SYMBOL        L?0841
  C:5454H         SYMBOL        L?0842
  C:545BH         SYMBOL        L?0844
  C:5464H         SYMBOL        L?0845
  C:546DH         SYMBOL        L?0847
  C:546FH         SYMBOL        L?0848
  C:5478H         SYMBOL        L?0849
  C:5481H         SYMBOL        L?0850
  C:5488H         SYMBOL        L?0852
  C:548DH         SYMBOL        L?0853
  C:5490H         SYMBOL        L?0854
  C:5499H         SYMBOL        L?0860
BL51 BANKED LINKER/LOCATER V6.22                                                      12/15/2017  13:23:50  PAGE 96


  C:54A0H         SYMBOL        L?0861
  C:54A2H         SYMBOL        L?0862
  C:54A9H         SYMBOL        L?0867
  C:54C6H         SYMBOL        L?0868
  C:54CFH         SYMBOL        L?0869
  C:54D1H         SYMBOL        L?0870
  C:54DFH         SYMBOL        L?0871
  C:54F9H         SYMBOL        L?0873
  C:54F9H         SYMBOL        L?0874
  C:5506H         SYMBOL        L?0878
  C:551CH         SYMBOL        L?0879
  C:5532H         SYMBOL        L?0880
  C:5532H         SYMBOL        L?0881
  C:5533H         SYMBOL        L?0882
  C:553AH         SYMBOL        L?0883
  C:553AH         SYMBOL        L?0884
  C:5547H         SYMBOL        L?0885
  C:5547H         SYMBOL        L?0886
  C:554DH         SYMBOL        L?0887
  C:554EH         SYMBOL        L?0888
  C:5555H         SYMBOL        L?0889
  C:5569H         SYMBOL        L?0890
  C:5569H         SYMBOL        L?0891
  C:5571H         SYMBOL        L?0892
  C:5574H         SYMBOL        L?0893
  C:557CH         SYMBOL        L?0894
  C:557FH         SYMBOL        L?0895
  C:5586H         SYMBOL        L?0898
  C:5597H         SYMBOL        L?0902
  C:55A7H         SYMBOL        L?0903
  C:55AFH         SYMBOL        L?0904
  C:55AFH         SYMBOL        L?0905
  C:55B6H         SYMBOL        L?0906
  C:55B6H         SYMBOL        L?0907
  C:55BCH         SYMBOL        L?0908
  C:55C7H         SYMBOL        L?0909
  C:55C7H         SYMBOL        L?0910
  C:55CEH         SYMBOL        L?0911
  C:55DEH         SYMBOL        L?0914
  C:55EDH         SYMBOL        L?0915
  C:55FCH         SYMBOL        L?0916
  C:560BH         SYMBOL        L?0917
  C:561AH         SYMBOL        L?0918
  C:5629H         SYMBOL        L?0922
  C:5637H         SYMBOL        L?0923
  C:5645H         SYMBOL        L?0924
  C:5647H         SYMBOL        L?0925
  C:564FH         SYMBOL        L?0929
  C:564FH         SYMBOL        L?0930
  C:5656H         SYMBOL        L?0931
  C:5663H         SYMBOL        L?0932
  C:5665H         SYMBOL        L?0933
  C:566CH         SYMBOL        L?0934
  C:5673H         SYMBOL        L?0937
  C:567FH         SYMBOL        L?0938
  C:567FH         SYMBOL        L?0939
  C:5687H         SYMBOL        L?0940
BL51 BANKED LINKER/LOCATER V6.22                                                      12/15/2017  13:23:50  PAGE 97


  C:5687H         SYMBOL        L?0941
  C:568FH         SYMBOL        L?0942
  C:568FH         SYMBOL        L?0943
  C:5697H         SYMBOL        L?0944
  C:56A2H         SYMBOL        L?0945
  C:56A3H         SYMBOL        L?0946
  C:56AAH         SYMBOL        L?0947
  C:56B5H         SYMBOL        L?0948
  C:56BCH         SYMBOL        L?0949
  C:56C7H         SYMBOL        L?0951
  C:56D1H         SYMBOL        L?0952
  C:56D8H         SYMBOL        L?0953
  C:56D8H         SYMBOL        L?0954
  C:56DFH         SYMBOL        L?0955
  C:56E9H         SYMBOL        L?0956
  C:56E9H         SYMBOL        L?0957
  C:56EFH         SYMBOL        L?0958
  C:56EFH         SYMBOL        L?0959
  C:56F6H         SYMBOL        L?0960
  C:5700H         SYMBOL        L?0961
  C:570AH         SYMBOL        L?0962
  -------         PROC          COM0308
  -------         ENDPROC       COM0308
  -------         PROC          GETOSDPOSITIONMODE
  -------         DO            
  D:0007H         SYMBOL        val
  -------         ENDDO         
  C:CA31H         LINE#         112
  C:CA31H         LINE#         113
  C:CA31H         LINE#         115
  C:CA34H         LINE#         118
  C:CA34H         LINE#         119
  -------         ENDPROC       GETOSDPOSITIONMODE
  C:7FDEH         SYMBOL        L?0919
  -------         PROC          _SETOSDPOSITIONMODE
  X:0012H         SYMBOL        flag
  -------         DO            
  D:0004H         SYMBOL        val
  X:0013H         SYMBOL        addx
  X:0015H         SYMBOL        addy
  X:0017H         SYMBOL        i
  D:0007H         SYMBOL        inc
  X:0018H         SYMBOL        winno
  X:0019H         SYMBOL        OSDStart
  D:0002H         SYMBOL        tmp
  -------         ENDDO         
  C:7E7EH         LINE#         121
  C:7E83H         LINE#         122
  C:7E83H         LINE#         134
  C:7E8BH         LINE#         135
  C:7E98H         LINE#         136
  C:7E9BH         LINE#         137
  C:7EA0H         LINE#         139
  C:7EADH         LINE#         140
  C:7EC0H         LINE#         141
  C:7EC4H         LINE#         143
  C:7ED1H         LINE#         144
BL51 BANKED LINKER/LOCATER V6.22                                                      12/15/2017  13:23:50  PAGE 98


  C:7EE4H         LINE#         145
  C:7EE9H         LINE#         147
  C:7EF9H         LINE#         148
  C:7F00H         LINE#         149
  C:7F03H         LINE#         150
  C:7F06H         LINE#         151
  C:7F19H         LINE#         152
  C:7F1FH         LINE#         154
  C:7F28H         LINE#         155
  C:7F2BH         LINE#         156
  C:7F2EH         LINE#         157
  C:7F40H         LINE#         158
  C:7F5DH         LINE#         159
  C:7F66H         LINE#         161
  C:7F69H         LINE#         174
  C:7F76H         LINE#         175
  C:7F86H         LINE#         176
  C:7F90H         LINE#         177
  C:7FAFH         LINE#         178
  C:7FB7H         LINE#         180
  C:7FC4H         LINE#         181
  C:7FCCH         LINE#         183
  C:7FCFH         LINE#         184
  C:7FD8H         LINE#         187
  C:7FDDH         LINE#         188
  -------         ENDPROC       _SETOSDPOSITIONMODE
  C:7100H         SYMBOL        L?0831
  C:7108H         SYMBOL        L?0837
  C:7110H         SYMBOL        L?0846
  C:7117H         SYMBOL        L?0851
  C:711FH         SYMBOL        L?0855
  C:7126H         SYMBOL        L?0859
  C:712EH         SYMBOL        L?0863
  C:7135H         SYMBOL        L?0872
  C:713CH         SYMBOL        L?0875
  C:7144H         SYMBOL        L?0896
  C:714BH         SYMBOL        L?0899
  C:7155H         SYMBOL        L?0912
  C:715DH         SYMBOL        L?0935
  -------         PROC          RESETOSDVALUE
  C:6F81H         LINE#         270
  C:6F81H         LINE#         271
  C:6F81H         LINE#         272
  C:6F8AH         LINE#         273
  C:6F93H         LINE#         275
  C:6F98H         LINE#         278
  C:6F9DH         LINE#         280
  C:6FA2H         LINE#         284
  C:6FAEH         LINE#         285
  C:6FB3H         LINE#         286
  C:6FB8H         LINE#         287
  C:6FBDH         LINE#         288
  C:6FC2H         LINE#         289
  C:6FC7H         LINE#         290
  C:6FCCH         LINE#         291
  C:6FD1H         LINE#         292
  C:6FD6H         LINE#         293
BL51 BANKED LINKER/LOCATER V6.22                                                      12/15/2017  13:23:50  PAGE 99


  C:6FDBH         LINE#         294
  C:6FE0H         LINE#         295
  C:6FE5H         LINE#         296
  C:6FEEH         LINE#         297
  C:6FF4H         LINE#         298
  C:6FF9H         LINE#         299
  C:7002H         LINE#         300
  C:700BH         LINE#         302
  C:7010H         LINE#         303
  C:7015H         LINE#         304
  C:701AH         LINE#         318
  C:701FH         LINE#         319
  C:7025H         LINE#         335
  C:702AH         LINE#         337
  C:7032H         LINE#         341
  C:7037H         LINE#         342
  C:703CH         LINE#         343
  C:7045H         LINE#         344
  C:704DH         LINE#         346
  C:7052H         LINE#         347
  C:7057H         LINE#         348
  C:705CH         LINE#         349
  C:7061H         LINE#         350
  C:7066H         LINE#         351
  C:7069H         LINE#         352
  C:706EH         LINE#         354
  C:7073H         LINE#         355
  C:707FH         LINE#         360
  C:7087H         LINE#         361
  C:7093H         LINE#         362
  C:709CH         LINE#         363
  C:70A8H         LINE#         364
  C:70B1H         LINE#         365
  C:70BDH         LINE#         366
  C:70C5H         LINE#         367
  C:70CAH         LINE#         369
  C:70CFH         LINE#         370
  C:70D7H         LINE#         373
  C:70D9H         LINE#         374
  C:70E3H         LINE#         375
  C:70E5H         LINE#         376
  C:70EFH         LINE#         380
  C:70F1H         LINE#         381
  C:70FAH         LINE#         387
  C:70FDH         LINE#         390
  C:7100H         LINE#         392
  -------         ENDPROC       RESETOSDVALUE
  -------         PROC          GETOSDLANG
  C:C87EH         LINE#         427
  C:C87EH         LINE#         428
  C:C87EH         LINE#         429
  C:C886H         LINE#         430
  C:C88EH         LINE#         431
  C:C88EH         LINE#         432
  -------         ENDPROC       GETOSDLANG
  -------         PROC          _SETLANGUAGE
  D:0007H         SYMBOL        flag
BL51 BANKED LINKER/LOCATER V6.22                                                      12/15/2017  13:23:50  PAGE 100


  -------         DO            
  D:0007H         SYMBOL        inc
  -------         ENDDO         
  C:C69DH         LINE#         434
  C:C69DH         LINE#         435
  C:C69DH         LINE#         437
  C:C6A7H         LINE#         438
  C:C6AAH         LINE#         439
  C:C6B1H         LINE#         441
  C:C6B4H         LINE#         443
  C:C6B9H         LINE#         444
  -------         ENDPROC       _SETLANGUAGE
  -------         PROC          _SETRGBCONTRAST
  D:0007H         SYMBOL        temp
  X:0014H         SYMBOL        val
  -------         DO            
  X:0015H         SYMBOL        index
  X:0017H         SYMBOL        i
  X:0018H         SYMBOL        newval
  X:001AH         SYMBOL        toValue
  -------         ENDDO         
  C:B16BH         LINE#         480
  C:B170H         LINE#         481
  C:B170H         LINE#         486
  C:B180H         LINE#         487
  C:B18DH         LINE#         488
  C:B18DH         LINE#         489
  C:B1A3H         LINE#         490
  C:B1B2H         LINE#         491
  C:B1CAH         LINE#         492
  C:B1D2H         LINE#         493
  -------         ENDPROC       _SETRGBCONTRAST
  -------         PROC          _SETPCCOLORTEMP
  D:0007H         SYMBOL        flag
  -------         DO            
  D:0007H         SYMBOL        val
  X:0012H         SYMBOL        regv
  D:0007H         SYMBOL        inc
  -------         ENDDO         
  C:AE4CH         LINE#         507
  C:AE4CH         LINE#         508
  C:AE4CH         LINE#         515
  C:AE56H         LINE#         516
  C:AE72H         LINE#         517
  C:AE7AH         LINE#         519
  C:AE80H         LINE#         520
  C:AE87H         LINE#         521
  C:AE9CH         LINE#         522
  C:AEA8H         LINE#         524
  C:AEB6H         LINE#         525
  C:AEBAH         LINE#         527
  C:AEC3H         LINE#         529
  C:AEC6H         LINE#         530
  -------         ENDPROC       _SETPCCOLORTEMP
  -------         PROC          _SETPCCOLOR
  X:0012H         SYMBOL        color
  D:0005H         SYMBOL        flag
BL51 BANKED LINKER/LOCATER V6.22                                                      12/15/2017  13:23:50  PAGE 101


  -------         DO            
  X:0013H         SYMBOL        newval
  X:0015H         SYMBOL        toValue
  X:0017H         SYMBOL        regv
  -------         ENDDO         
  C:9FD3H         LINE#         540
  C:9FD8H         LINE#         541
  C:9FD8H         LINE#         545
  C:9FFBH         LINE#         546
  C:A015H         LINE#         547
  C:A018H         LINE#         549
  C:A023H         LINE#         550
  C:A032H         LINE#         551
  C:A043H         LINE#         553
  C:A050H         LINE#         554
  C:A063H         LINE#         556
  C:A07CH         LINE#         558
  C:A07FH         LINE#         559
  -------         ENDPROC       _SETPCCOLOR
  C:B62EH         SYMBOL        L?0865
  -------         PROC          CHECKPANELIMAGE
  C:B5E0H         LINE#         615
  C:B5E0H         LINE#         616
  C:B5E0H         LINE#         637
  C:B5E0H         LINE#         638
  C:B5F2H         LINE#         639
  C:B5F4H         LINE#         640
  C:B5FEH         LINE#         641
  C:B600H         LINE#         642
  C:B60AH         LINE#         643
  C:B613H         LINE#         644
  C:B61CH         LINE#         645
  C:B62EH         LINE#         646
  C:B62EH         LINE#         647
  -------         ENDPROC       CHECKPANELIMAGE
  -------         PROC          _SETVIDEOMODE
  X:0018H         SYMBOL        mode
  -------         DO            
  X:0019H         SYMBOL        i
  X:001BH         SYMBOL        regv
  -------         DO            
  X:001DH         SYMBOL        userv
  -------         ENDDO         
  -------         ENDDO         
  C:9120H         LINE#         659
  C:9126H         LINE#         660
  C:9126H         LINE#         663
  C:912DH         LINE#         665
  C:9135H         LINE#         667
  C:914CH         LINE#         668
  C:9187H         LINE#         670
  C:919FH         LINE#         671
  C:919FH         LINE#         672
  C:919FH         LINE#         674
  C:91A1H         LINE#         676
  C:91A1H         LINE#         678
  C:91A1H         LINE#         682
BL51 BANKED LINKER/LOCATER V6.22                                                      12/15/2017  13:23:50  PAGE 102


  C:91A9H         LINE#         683
  C:91B1H         LINE#         684
  C:91BDH         LINE#         685
  C:91C9H         LINE#         686
  C:91D1H         LINE#         688
  C:91E0H         LINE#         689
  C:91F3H         LINE#         690
  C:91F3H         LINE#         691
  C:91FCH         LINE#         692
  C:920CH         LINE#         697
  C:920CH         LINE#         699
  -------         ENDPROC       _SETVIDEOMODE
  -------         PROC          ISINPUTANALOGRGB
  C:CA38H         LINE#         701
  C:CA38H         LINE#         702
  C:CA38H         LINE#         709
  C:CA3AH         LINE#         710
  -------         ENDPROC       ISINPUTANALOGRGB
  -------         PROC          _GETVIDEODATAWITHOFFSET
  D:0007H         SYMBOL        offset
  C:CA18H         LINE#         712
  C:CA18H         LINE#         713
  C:CA18H         LINE#         714
  C:CA1EH         LINE#         716
  C:CA1EH         LINE#         717
  -------         ENDPROC       _GETVIDEODATAWITHOFFSET
  -------         PROC          _CHANGEVIDEODATA
  X:0012H         SYMBOL        offset
  D:0005H         SYMBOL        flag
  -------         DO            
  X:0013H         SYMBOL        newv
  D:0006H         SYMBOL        inc
  -------         ENDDO         
  C:A5A8H         LINE#         719
  C:A5ADH         LINE#         720
  C:A5ADH         LINE#         723
  C:A5BBH         LINE#         725
  C:A5CBH         LINE#         726
  C:A5E6H         LINE#         727
  C:A5E9H         LINE#         728
  C:A5E9H         LINE#         730
  C:A601H         LINE#         731
  C:A601H         LINE#         732
  C:A606H         LINE#         733
  C:A608H         LINE#         734
  C:A60EH         LINE#         735
  C:A610H         LINE#         736
  C:A610H         LINE#         737
  C:A610H         LINE#         738
  C:A61EH         LINE#         739
  C:A620H         LINE#         740
  C:A626H         LINE#         741
  C:A628H         LINE#         742
  C:A62EH         LINE#         743
  C:A62EH         LINE#         744
  C:A62EH         LINE#         746
  C:A63AH         LINE#         748
BL51 BANKED LINKER/LOCATER V6.22                                                      12/15/2017  13:23:50  PAGE 103


  C:A645H         LINE#         749
  C:A645H         LINE#         751
  -------         ENDPROC       _CHANGEVIDEODATA
  -------         PROC          _SETVIDEOCONTRAST
  D:0007H         SYMBOL        newv
  -------         DO            
  X:001FH         SYMBOL        regv
  -------         ENDDO         
  C:C4B8H         LINE#         753
  C:C4B8H         LINE#         754
  C:C4B8H         LINE#         762
  C:C4CDH         LINE#         765
  -------         ENDPROC       _SETVIDEOCONTRAST
  -------         PROC          _SETVIDEOBRIGHTNESS
  D:0007H         SYMBOL        newv
  -------         DO            
  X:001FH         SYMBOL        regv
  -------         ENDDO         
  C:C349H         LINE#         769
  C:C349H         LINE#         770
  C:C349H         LINE#         772
  C:C349H         LINE#         782
  C:C35EH         LINE#         784
  C:C367H         LINE#         785
  C:C36EH         LINE#         787
  C:C378H         LINE#         788
  C:C378H         LINE#         789
  -------         ENDPROC       _SETVIDEOBRIGHTNESS
  C:B164H         SYMBOL        L?0963
  -------         PROC          _SETVIDEOBACKLIGHT
  D:0007H         SYMBOL        newv
  -------         DO            
  X:0015H         SYMBOL        regv
  X:0017H         SYMBOL        page
  -------         ENDDO         
  C:B102H         LINE#         790
  C:B102H         LINE#         791
  C:B102H         LINE#         796
  C:B117H         LINE#         807
  C:B123H         LINE#         808
  C:B129H         LINE#         809
  C:B13AH         LINE#         810
  C:B158H         LINE#         811
  C:B164H         LINE#         813
  -------         ENDPROC       _SETVIDEOBACKLIGHT
  -------         PROC          _SETVIDEOHUE
  X:001FH         SYMBOL        newv
  -------         DO            
  X:0020H         SYMBOL        regv
  -------         ENDDO         
  C:B638H         LINE#         815
  C:B63DH         LINE#         816
  C:B63DH         LINE#         820
  C:B645H         LINE#         821
  C:B652H         LINE#         822
  C:B666H         LINE#         823
  C:B668H         LINE#         824
BL51 BANKED LINKER/LOCATER V6.22                                                      12/15/2017  13:23:50  PAGE 104


  C:B668H         LINE#         825
  C:B675H         LINE#         826
  C:B67EH         LINE#         827
  C:B685H         LINE#         829
  C:B68FH         LINE#         830
  C:B68FH         LINE#         832
  -------         ENDPROC       _SETVIDEOHUE
  -------         PROC          _SETVIDEOSATURATION
  X:001FH         SYMBOL        svtype
  X:0020H         SYMBOL        newv
  -------         DO            
  X:0021H         SYMBOL        regv
  -------         ENDDO         
  C:AF42H         LINE#         834
  C:AF4AH         LINE#         835
  C:AF4AH         LINE#         839
  C:AF50H         LINE#         840
  C:AF61H         LINE#         841
  C:AF7FH         LINE#         842
  C:AF81H         LINE#         843
  C:AF81H         LINE#         845
  C:AF9BH         LINE#         847
  C:AFA5H         LINE#         848
  C:AFA8H         LINE#         849
  C:AFAAH         LINE#         850
  C:AFAAH         LINE#         851
  C:AFB9H         LINE#         852
  C:AFB9H         LINE#         853
  C:AFB9H         LINE#         854
  -------         ENDPROC       _SETVIDEOSATURATION
  -------         PROC          _SETVIDEOSHARPNESS
  X:0012H         SYMBOL        flag
  -------         DO            
  D:0007H         SYMBOL        orgv
  D:0007H         SYMBOL        inc
  X:0013H         SYMBOL        newv
  X:0015H         SYMBOL        regv
  -------         ENDDO         
  C:A31EH         LINE#         857
  C:A323H         LINE#         858
  C:A323H         LINE#         863
  C:A32DH         LINE#         864
  C:A335H         LINE#         865
  C:A342H         LINE#         866
  C:A34EH         LINE#         867
  C:A36FH         LINE#         869
  C:A373H         LINE#         871
  C:A391H         LINE#         873
  C:A39AH         LINE#         875
  C:A3AAH         LINE#         878
  C:A3B5H         LINE#         879
  C:A3C0H         LINE#         881
  C:A3C0H         LINE#         882
  -------         ENDPROC       _SETVIDEOSHARPNESS
  C:B228H         SYMBOL        L?0900
  -------         PROC          RESETVIDEOVALUE
  -------         DO            
BL51 BANKED LINKER/LOCATER V6.22                                                      12/15/2017  13:23:50  PAGE 105


  X:0009H         SYMBOL        i
  X:000AH         SYMBOL        CurInput
  -------         ENDDO         
  C:B1D3H         LINE#         926
  C:B1D3H         LINE#         927
  C:B1D3H         LINE#         933
  C:B1DBH         LINE#         934
  C:B1EBH         LINE#         936
  C:B1EFH         LINE#         937
  C:B1EFH         LINE#         938
  C:B1F4H         LINE#         939
  C:B1FBH         LINE#         940
  C:B202H         LINE#         941
  C:B202H         LINE#         942
  C:B202H         LINE#         943
  C:B207H         LINE#         949
  C:B20EH         LINE#         950
  C:B213H         LINE#         951
  C:B213H         LINE#         952
  C:B21BH         LINE#         953
  C:B223H         LINE#         954
  C:B228H         LINE#         956
  -------         ENDPROC       RESETVIDEOVALUE
  -------         PROC          _SET4WIDESCREEN
  X:0018H         SYMBOL        id
  -------         DO            
  X:0019H         SYMBOL        i
  X:001BH         SYMBOL        WideData
  -------         ENDDO         
  C:9905H         LINE#         1075
  C:990AH         LINE#         1076
  C:990AH         LINE#         1078
  C:990FH         LINE#         1079
  C:9914H         LINE#         1080
  C:991AH         LINE#         1081
  C:991AH         LINE#         1092
  C:991AH         LINE#         1095
  C:9920H         LINE#         1096
  C:9929H         LINE#         1102
  C:9929H         LINE#         1105
  C:9931H         LINE#         1138
  C:9931H         LINE#         1139
  C:9931H         LINE#         1162
  C:9957H         LINE#         1169
  C:9957H         LINE#         1176
  C:9964H         LINE#         1181
  C:9966H         LINE#         1182
  C:9966H         LINE#         1188
  C:997EH         LINE#         1190
  C:997EH         LINE#         1193
  C:9984H         LINE#         1195
  C:9984H         LINE#         1200
  C:9987H         LINE#         1202
  C:99A0H         LINE#         1203
  C:99C1H         LINE#         1207
  C:99C7H         LINE#         1208
  C:99CFH         LINE#         1209
BL51 BANKED LINKER/LOCATER V6.22                                                      12/15/2017  13:23:50  PAGE 106


  C:99CFH         LINE#         1211
  -------         ENDPROC       _SET4WIDESCREEN
  -------         PROC          PUSHMENU
  C:C460H         LINE#         140
  C:C460H         LINE#         141
  C:C460H         LINE#         145
  C:C467H         LINE#         158
  C:C477H         LINE#         159
  C:C486H         LINE#         160
  C:C489H         LINE#         161
  C:C489H         LINE#         162
  C:C48BH         LINE#         163
  -------         ENDPROC       PUSHMENU
  -------         PROC          POPMENU
  C:C6D7H         LINE#         165
  C:C6D7H         LINE#         166
  C:C6D7H         LINE#         170
  C:C6DBH         LINE#         171
  C:C6E3H         LINE#         172
  C:C6EDH         LINE#         186
  C:C6F0H         LINE#         187
  C:C6F0H         LINE#         188
  C:C6F2H         LINE#         189
  -------         ENDPROC       POPMENU
  -------         PROC          _GETLOWERMENUITEM
  X:001DH         SYMBOL        DMp
  X:0020H         SYMBOL        itemno
  C:BBDBH         LINE#         191
  C:BBE6H         LINE#         192
  C:BBE6H         LINE#         193
  C:BBE9H         LINE#         194
  C:BBECH         LINE#         195
  C:BBF2H         LINE#         196
  C:BC17H         LINE#         197
  C:BC1AH         LINE#         198
  C:BC1FH         LINE#         200
  -------         ENDPROC       _GETLOWERMENUITEM
  -------         PROC          _GETUPPERMENUITEM
  D:0007H         SYMBOL        itemno
  C:C9BFH         LINE#         202
  C:C9BFH         LINE#         203
  C:C9BFH         LINE#         205
  C:C9C3H         LINE#         206
  C:C9C6H         LINE#         207
  C:C9C7H         LINE#         208
  C:C9C7H         LINE#         209
  -------         ENDPROC       _GETUPPERMENUITEM
  -------         PROC          _GETTARGETCHILD
  D:0004H         SYMBOL        tid
  -------         DO            
  D:0006H         SYMBOL        i
  -------         ENDDO         
  C:BD2BH         LINE#         211
  C:BD2DH         LINE#         212
  C:BD2DH         LINE#         216
  C:BD3BH         LINE#         217
  C:BD3DH         LINE#         224
BL51 BANKED LINKER/LOCATER V6.22                                                      12/15/2017  13:23:50  PAGE 107


  C:BD41H         LINE#         230
  C:BD59H         LINE#         231
  C:BD5CH         LINE#         232
  C:BD67H         LINE#         233
  C:BD69H         LINE#         235
  C:BD6BH         LINE#         236
  -------         ENDPROC       _GETTARGETCHILD
  C:8118H         SYMBOL        L?0838
  C:8135H         SYMBOL        L?0926
  C:8143H         SYMBOL        L?0950
  -------         PROC          DISPLAYINFO_OSD
  -------         DO            
  X:0009H         SYMBOL        i
  X:000AH         SYMBOL        title
  X:000BH         SYMBOL        len
  D:0007H         SYMBOL        inputs
  X:000CH         SYMBOL        mstr
  -------         ENDDO         
  C:7FE7H         LINE#         282
  C:7FE7H         LINE#         283
  C:7FE7H         LINE#         284
  C:7FEDH         LINE#         287
  C:7FF0H         LINE#         288
  C:7FF8H         LINE#         289
  C:7FFEH         LINE#         291
  C:8004H         LINE#         293
  C:800BH         LINE#         294
  C:8011H         LINE#         296
  C:8016H         LINE#         298
  C:801EH         LINE#         299
  C:8038H         LINE#         300
  C:8074H         LINE#         303
  C:8077H         LINE#         304
  C:807DH         LINE#         305
  C:8098H         LINE#         306
  C:809CH         LINE#         307
  C:80B6H         LINE#         318
  C:80B6H         LINE#         319
  C:80B9H         LINE#         320
  C:80D3H         LINE#         321
  C:80D3H         LINE#         335
  C:80D8H         LINE#         336
  C:80DEH         LINE#         337
  C:80E2H         LINE#         338
  C:80E7H         LINE#         339
  C:80F2H         LINE#         340
  C:80F9H         LINE#         341
  C:80FCH         LINE#         349
  C:8118H         LINE#         352
  -------         ENDPROC       DISPLAYINFO_OSD
  -------         PROC          _DISPLAYVOLUMEBAR
  X:0008H         SYMBOL        val
  -------         DO            
  C:180DH         SYMBOL        BAR_ROM_TABLE
  D:0007H         SYMBOL        i
  X:0009H         SYMBOL        Bar_str
  D:0006H         SYMBOL        addr
BL51 BANKED LINKER/LOCATER V6.22                                                      12/15/2017  13:23:50  PAGE 108


  -------         ENDDO         
  C:A6E2H         LINE#         362
  C:A6E7H         LINE#         363
  C:A6E7H         LINE#         375
  C:A6F4H         LINE#         382
  C:A6FDH         LINE#         383
  C:A6FDH         LINE#         384
  C:A715H         LINE#         385
  C:A71EH         LINE#         386
  C:A72DH         LINE#         387
  C:A72DH         LINE#         389
  C:A734H         LINE#         390
  C:A73AH         LINE#         393
  C:A741H         LINE#         394
  C:A744H         LINE#         397
  C:A752H         LINE#         398
  C:A75DH         LINE#         399
  C:A764H         LINE#         401
  C:A767H         LINE#         402
  C:A76AH         LINE#         404
  C:A76EH         LINE#         406
  -------         ENDPROC       _DISPLAYVOLUMEBAR
  -------         PROC          _GET_CURSOR_ITEM
  D:0007H         SYMBOL        id
  -------         DO            
  X:0008H         SYMBOL        i
  X:0009H         SYMBOL        tid
  -------         ENDDO         
  C:C379H         LINE#         448
  C:C379H         LINE#         449
  C:C379H         LINE#         450
  C:C37FH         LINE#         457
  C:C384H         LINE#         458
  C:C38CH         LINE#         459
  C:C38EH         LINE#         461
  C:C391H         LINE#         462
  C:C391H         LINE#         464
  C:C39EH         LINE#         466
  C:C3A1H         LINE#         468
  C:C3A3H         LINE#         469
  C:C3A3H         LINE#         475
  C:C3A8H         LINE#         476
  -------         ENDPROC       _GET_CURSOR_ITEM
  C:59C7H         SYMBOL        L?0770
  C:59F6H         SYMBOL        L?0772
  C:5A35H         SYMBOL        L?0774
  C:5A74H         SYMBOL        L?0815
  C:5A90H         SYMBOL        L?0856
  C:5AA1H         SYMBOL        L?0901
  C:5AAEH         SYMBOL        L?0913
  C:5AB6H         SYMBOL        L?0920
  -------         PROC          _DISPLAYOSDMENUONEITEM
  X:001DH         SYMBOL        winno
  X:001FH         SYMBOL        DMp
  X:0022H         SYMBOL        x
  X:0023H         SYMBOL        y
  X:0024H         SYMBOL        NOTViewflag
BL51 BANKED LINKER/LOCATER V6.22                                                      12/15/2017  13:23:50  PAGE 109


  -------         DO            
  D:0007H         SYMBOL        i
  X:0025H         SYMBOL        j
  X:0026H         SYMBOL        k
  X:0027H         SYMBOL        IconColor
  X:0028H         SYMBOL        addr
  X:002AH         SYMBOL        Str
  C:182AH         SYMBOL        RightSign_str
  C:1836H         SYMBOL        SpaceStr
  C:1842H         SYMBOL        Dot
  C:1844H         SYMBOL        Colon
  -------         DO            
  X:002DH         SYMBOL        ptr
  X:002DH         SYMBOL        ptr
  X:002DH         SYMBOL        ptr
  -------         ENDDO         
  -------         DO            
  X:002DH         SYMBOL        ptr
  X:002DH         SYMBOL        ptr
  -------         ENDDO         
  -------         DO            
  X:002DH         SYMBOL        ptr
  -------         ENDDO         
  -------         ENDDO         
  C:5714H         LINE#         482
  C:571DH         LINE#         483
  C:571DH         LINE#         503
  C:572DH         LINE#         504
  C:5733H         LINE#         514
  C:5759H         LINE#         521
  C:5766H         LINE#         524
  C:576EH         LINE#         526
  C:5776H         LINE#         527
  C:577AH         LINE#         531
  C:5780H         LINE#         534
  C:5787H         LINE#         535
  C:5787H         LINE#         542
  C:578FH         LINE#         546
  C:579BH         LINE#         548
  C:57A1H         LINE#         549
  C:57A4H         LINE#         551
  C:57B2H         LINE#         552
  C:57D1H         LINE#         558
  C:57D7H         LINE#         560
  C:57E7H         LINE#         561
  C:5801H         LINE#         563
  C:580BH         LINE#         565
  C:580BH         LINE#         567
  C:5814H         LINE#         568
  C:581FH         LINE#         578
  C:584AH         LINE#         579
  C:584AH         LINE#         581
  C:5860H         LINE#         583
  C:586BH         LINE#         586
  C:587DH         LINE#         587
  C:587DH         LINE#         589
  C:587DH         LINE#         590
BL51 BANKED LINKER/LOCATER V6.22                                                      12/15/2017  13:23:50  PAGE 110


  C:587DH         LINE#         592
  C:587DH         LINE#         593
  C:5884H         LINE#         599
  C:5884H         LINE#         600
  C:5895H         LINE#         601
  C:5898H         LINE#         602
  C:5898H         LINE#         603
  C:5898H         LINE#         604
  C:5898H         LINE#         606
  C:5898H         LINE#         607
  C:5898H         LINE#         609
  C:5898H         LINE#         610
  C:58AFH         LINE#         611
  C:58AFH         LINE#         612
  C:58AFH         LINE#         613
  C:58B5H         LINE#         614
  C:58B5H         LINE#         615
  C:58C0H         LINE#         616
  C:58C0H         LINE#         617
  C:58C6H         LINE#         618
  C:58C6H         LINE#         619
  C:58CFH         LINE#         620
  C:58D2H         LINE#         622
  C:58D2H         LINE#         623
  C:58DBH         LINE#         624
  C:58E0H         LINE#         625
  C:58EEH         LINE#         626
  C:58F3H         LINE#         627
  C:5904H         LINE#         628
  C:5914H         LINE#         629
  C:5926H         LINE#         630
  C:5938H         LINE#         631
  C:594DH         LINE#         632
  C:5959H         LINE#         633
  C:596BH         LINE#         634
  C:596EH         LINE#         636
  C:596EH         LINE#         637
  C:5974H         LINE#         638
  C:5974H         LINE#         639
  C:597FH         LINE#         640
  C:597FH         LINE#         641
  C:5985H         LINE#         642
  C:5985H         LINE#         643
  C:5991H         LINE#         644
  C:5991H         LINE#         645
  C:5991H         LINE#         646
  C:5991H         LINE#         647
  C:5991H         LINE#         649
  C:5991H         LINE#         650
  C:5991H         LINE#         653
  C:5991H         LINE#         654
  C:59ACH         LINE#         656
  C:59ACH         LINE#         657
  C:59ACH         LINE#         659
  C:59ACH         LINE#         660
  C:59ACH         LINE#         661
  C:59ACH         LINE#         662
BL51 BANKED LINKER/LOCATER V6.22                                                      12/15/2017  13:23:50  PAGE 111


  C:59ACH         LINE#         663
  C:59B5H         LINE#         664
  C:59B7H         LINE#         672
  C:59B7H         LINE#         673
  C:59C6H         LINE#         674
  C:59C6H         LINE#         675
  C:59C6H         LINE#         676
  -------         ENDPROC       _DISPLAYOSDMENUONEITEM
  -------         PROC          CLEARCURSOR
  -------         DO            
  D:0007H         SYMBOL        cursor_y
  X:000AH         SYMBOL        addr
  -------         ENDDO         
  C:BA1CH         LINE#         678
  C:BA1CH         LINE#         679
  C:BA1CH         LINE#         684
  C:BA24H         LINE#         688
  C:BA36H         LINE#         689
  C:BA46H         LINE#         690
  C:BA4CH         LINE#         692
  C:BA5BH         LINE#         693
  C:BA68H         LINE#         697
  -------         ENDPROC       CLEARCURSOR
  -------         PROC          DISPLAYCURSOR
  -------         DO            
  X:000DH         SYMBOL        cursor_y
  X:000EH         SYMBOL        i
  X:000FH         SYMBOL        addr
  -------         ENDDO         
  C:9594H         LINE#         699
  C:9594H         LINE#         700
  C:9594H         LINE#         701
  C:9599H         LINE#         706
  C:95A3H         LINE#         710
  C:95B2H         LINE#         711
  C:95B2H         LINE#         712
  C:95B7H         LINE#         713
  C:95BAH         LINE#         714
  C:95C8H         LINE#         715
  C:95D5H         LINE#         716
  C:95DDH         LINE#         718
  C:95FEH         LINE#         724
  C:960FH         LINE#         725
  C:9612H         LINE#         727
  C:961EH         LINE#         729
  C:9622H         LINE#         730
  C:9630H         LINE#         732
  C:9630H         LINE#         733
  C:9633H         LINE#         734
  C:9633H         LINE#         735
  C:964CH         LINE#         736
  C:9650H         LINE#         737
  C:9652H         LINE#         739
  C:9652H         LINE#         740
  C:965BH         LINE#         741
  C:9670H         LINE#         742
  C:9670H         LINE#         743
BL51 BANKED LINKER/LOCATER V6.22                                                      12/15/2017  13:23:50  PAGE 112


  C:9670H         LINE#         767
  -------         ENDPROC       DISPLAYCURSOR
  C:6AABH         SYMBOL        L?0779
  C:6AB5H         SYMBOL        L?0787
  C:6ABFH         SYMBOL        L?0789
  C:6AC9H         SYMBOL        L?0793
  C:6AD3H         SYMBOL        L?0804
  C:6ADDH         SYMBOL        L?0811
  C:6AE7H         SYMBOL        L?0819
  C:6AF1H         SYMBOL        L?0822
  C:6AFBH         SYMBOL        L?0832
  C:6B05H         SYMBOL        L?0843
  C:6B0FH         SYMBOL        L?0857
  C:6B19H         SYMBOL        L?0876
  C:6B23H         SYMBOL        L?0927
  -------         PROC          _GETITEMVALUE
  X:0030H         SYMBOL        id
  -------         DO            
  X:0031H         SYMBOL        val
  -------         ENDDO         
  C:68DDH         LINE#         773
  C:68E2H         LINE#         774
  C:68E2H         LINE#         775
  C:68E7H         LINE#         781
  C:6967H         LINE#         798
  C:696CH         LINE#         803
  C:6975H         LINE#         820
  C:697EH         LINE#         822
  C:697EH         LINE#         823
  C:697EH         LINE#         824
  C:697EH         LINE#         825
  C:697EH         LINE#         826
  C:697EH         LINE#         827
  C:697EH         LINE#         828
  C:698AH         LINE#         829
  C:698AH         LINE#         831
  C:698DH         LINE#         832
  C:6992H         LINE#         834
  C:6997H         LINE#         835
  C:6999H         LINE#         845
  C:69A5H         LINE#         846
  C:69A8H         LINE#         849
  C:69A8H         LINE#         850
  C:69B4H         LINE#         852
  C:69B4H         LINE#         853
  C:69B9H         LINE#         855
  C:69BCH         LINE#         856
  C:69BCH         LINE#         857
  C:69C1H         LINE#         858
  C:69C4H         LINE#         859
  C:69C4H         LINE#         860
  C:69C9H         LINE#         861
  C:69CCH         LINE#         862
  C:69CCH         LINE#         863
  C:69D1H         LINE#         864
  C:69D4H         LINE#         865
  C:69D4H         LINE#         866
BL51 BANKED LINKER/LOCATER V6.22                                                      12/15/2017  13:23:50  PAGE 113


  C:69D9H         LINE#         867
  C:69DCH         LINE#         868
  C:69DCH         LINE#         869
  C:69E1H         LINE#         870
  C:69E4H         LINE#         871
  C:69E4H         LINE#         872
  C:69E9H         LINE#         873
  C:69ECH         LINE#         875
  C:69ECH         LINE#         876
  C:69F1H         LINE#         877
  C:69F4H         LINE#         878
  C:69F4H         LINE#         879
  C:69F9H         LINE#         880
  C:69FCH         LINE#         881
  C:69FCH         LINE#         882
  C:6A01H         LINE#         883
  C:6A04H         LINE#         884
  C:6A04H         LINE#         885
  C:6A09H         LINE#         886
  C:6A0CH         LINE#         887
  C:6A0CH         LINE#         888
  C:6A11H         LINE#         889
  C:6A14H         LINE#         890
  C:6A14H         LINE#         891
  C:6A19H         LINE#         892
  C:6A1CH         LINE#         893
  C:6A1CH         LINE#         894
  C:6A21H         LINE#         895
  C:6A24H         LINE#         896
  C:6A24H         LINE#         897
  C:6A29H         LINE#         898
  C:6A2CH         LINE#         899
  C:6A2CH         LINE#         900
  C:6A31H         LINE#         901
  C:6A34H         LINE#         902
  C:6A34H         LINE#         903
  C:6A39H         LINE#         904
  C:6A3CH         LINE#         927
  C:6A3CH         LINE#         928
  C:6A41H         LINE#         929
  C:6A44H         LINE#         930
  C:6A44H         LINE#         931
  C:6A49H         LINE#         932
  C:6A4BH         LINE#         933
  C:6A4BH         LINE#         934
  C:6A50H         LINE#         936
  C:6A52H         LINE#         939
  C:6A52H         LINE#         940
  C:6A63H         LINE#         941
  C:6A67H         LINE#         942
  C:6A69H         LINE#         1042
  C:6A69H         LINE#         1043
  C:6A6EH         LINE#         1044
  C:6A70H         LINE#         1045
  C:6A70H         LINE#         1046
  C:6A75H         LINE#         1047
  C:6A77H         LINE#         1049
BL51 BANKED LINKER/LOCATER V6.22                                                      12/15/2017  13:23:50  PAGE 114


  C:6A77H         LINE#         1050
  C:6A82H         LINE#         1051
  C:6A84H         LINE#         1053
  C:6A84H         LINE#         1054
  C:6A89H         LINE#         1055
  C:6A8BH         LINE#         1057
  C:6A8BH         LINE#         1058
  C:6A90H         LINE#         1059
  C:6A92H         LINE#         1061
  C:6A92H         LINE#         1062
  C:6A97H         LINE#         1063
  C:6A99H         LINE#         1065
  C:6A99H         LINE#         1066
  C:6AA2H         LINE#         1067
  C:6AA2H         LINE#         1069
  C:6AA2H         LINE#         1071
  C:6AAAH         LINE#         1072
  -------         ENDPROC       _GETITEMVALUE
  C:3637H         SYMBOL        L?0764
  C:3649H         SYMBOL        L?0765
  C:365BH         SYMBOL        L?0766
  C:366DH         SYMBOL        L?0767
  C:367FH         SYMBOL        L?0768
  C:3691H         SYMBOL        L?0769
  C:369FH         SYMBOL        L?0771
  C:36ADH         SYMBOL        L?0773
  C:36BBH         SYMBOL        L?0775
  C:36C9H         SYMBOL        L?0780
  C:36D7H         SYMBOL        L?0788
  C:36E5H         SYMBOL        L?0794
  C:36F3H         SYMBOL        L?0812
  C:3702H         SYMBOL        L?0858
  C:370BH         SYMBOL        L?0877
  C:3714H         SYMBOL        L?0897
  C:3722H         SYMBOL        L?0928
  -------         PROC          _SETITEMVALUE
  X:000EH         SYMBOL        id
  X:000FH         SYMBOL        flag
  -------         DO            
  X:0010H         SYMBOL        val
  -------         ENDDO         
  C:2D79H         LINE#         1077
  C:2D83H         LINE#         1078
  C:2D83H         LINE#         1079
  C:2D86H         LINE#         1083
  C:2D96H         LINE#         1086
  C:2E1FH         LINE#         1125
  C:2E2AH         LINE#         1131
  C:2E35H         LINE#         1145
  C:2E40H         LINE#         1147
  C:2E4DH         LINE#         1148
  C:2E5AH         LINE#         1149
  C:2E67H         LINE#         1151
  C:2E69H         LINE#         1152
  C:2E74H         LINE#         1153
  C:2E77H         LINE#         1154
  C:2E7AH         LINE#         1155
BL51 BANKED LINKER/LOCATER V6.22                                                      12/15/2017  13:23:50  PAGE 115


  C:2E7DH         LINE#         1157
  C:2E8BH         LINE#         1161
  C:2E8FH         LINE#         1167
  C:2E98H         LINE#         1169
  C:2E9BH         LINE#         1171
  C:2E9BH         LINE#         1172
  C:2E9BH         LINE#         1173
  C:2E9EH         LINE#         1174
  C:2EA0H         LINE#         1175
  C:2EA6H         LINE#         1176
  C:2EB3H         LINE#         1177
  C:2EB6H         LINE#         1179
  C:2EC0H         LINE#         1180
  C:2EC0H         LINE#         1182
  C:2ED6H         LINE#         1191
  C:2EDCH         LINE#         1192
  C:2EE8H         LINE#         1193
  C:2EEBH         LINE#         1194
  C:2EEEH         LINE#         1195
  C:2EF1H         LINE#         1196
  C:2EF4H         LINE#         1199
  C:2EF4H         LINE#         1200
  C:2EF6H         LINE#         1205
  C:2EFCH         LINE#         1206
  C:2F0FH         LINE#         1208
  C:2F25H         LINE#         1239
  C:2F2CH         LINE#         1240
  C:2F2EH         LINE#         1245
  C:2F31H         LINE#         1247
  C:2F31H         LINE#         1248
  C:2F33H         LINE#         1249
  C:2F39H         LINE#         1250
  C:2F4CH         LINE#         1252
  C:2F61H         LINE#         1253
  C:2F63H         LINE#         1255
  C:2F6CH         LINE#         1261
  C:2F6FH         LINE#         1263
  C:2F6FH         LINE#         1264
  C:2F71H         LINE#         1265
  C:2F77H         LINE#         1266
  C:2F8AH         LINE#         1268
  C:2F9FH         LINE#         1269
  C:2FA4H         LINE#         1270
  C:2FA7H         LINE#         1272
  C:2FA7H         LINE#         1273
  C:2FA9H         LINE#         1274
  C:2FAFH         LINE#         1275
  C:2FC2H         LINE#         1277
  C:2FD7H         LINE#         1278
  C:2FDCH         LINE#         1279
  C:2FDFH         LINE#         1281
  C:2FDFH         LINE#         1282
  C:2FE1H         LINE#         1283
  C:2FE7H         LINE#         1284
  C:2FFAH         LINE#         1286
  C:300FH         LINE#         1287
  C:3011H         LINE#         1288
BL51 BANKED LINKER/LOCATER V6.22                                                      12/15/2017  13:23:50  PAGE 116


  C:301AH         LINE#         1289
  C:301DH         LINE#         1291
  C:301DH         LINE#         1292
  C:301FH         LINE#         1293
  C:3025H         LINE#         1294
  C:3038H         LINE#         1296
  C:304DH         LINE#         1298
  C:3056H         LINE#         1299
  C:3058H         LINE#         1300
  C:3058H         LINE#         1301
  C:305FH         LINE#         1302
  C:3068H         LINE#         1303
  C:306EH         LINE#         1304
  C:3070H         LINE#         1306
  C:3070H         LINE#         1307
  C:3079H         LINE#         1308
  C:3081H         LINE#         1309
  C:3086H         LINE#         1310
  C:308FH         LINE#         1311
  C:308FH         LINE#         1312
  C:3092H         LINE#         1313
  C:3095H         LINE#         1314
  C:30A1H         LINE#         1315
  C:30A1H         LINE#         1316
  C:30A1H         LINE#         1318
  C:30A6H         LINE#         1319
  C:30A9H         LINE#         1321
  C:30A9H         LINE#         1322
  C:30ABH         LINE#         1323
  C:30B1H         LINE#         1324
  C:30C4H         LINE#         1326
  C:30D9H         LINE#         1327
  C:30DEH         LINE#         1328
  C:30E7H         LINE#         1329
  C:30EAH         LINE#         1331
  C:30EAH         LINE#         1332
  C:30ECH         LINE#         1333
  C:30F2H         LINE#         1334
  C:3105H         LINE#         1336
  C:311AH         LINE#         1337
  C:311FH         LINE#         1339
  C:312CH         LINE#         1340
  C:312FH         LINE#         1351
  C:312FH         LINE#         1352
  C:3131H         LINE#         1353
  C:3137H         LINE#         1354
  C:314AH         LINE#         1356
  C:315FH         LINE#         1357
  C:3164H         LINE#         1359
  C:3171H         LINE#         1360
  C:3174H         LINE#         1362
  C:3174H         LINE#         1369
  C:3177H         LINE#         1371
  C:3177H         LINE#         1372
  C:317CH         LINE#         1373
  C:3183H         LINE#         1374
  C:3196H         LINE#         1376
BL51 BANKED LINKER/LOCATER V6.22                                                      12/15/2017  13:23:50  PAGE 117


  C:31ABH         LINE#         1377
  C:31B0H         LINE#         1379
  C:31BDH         LINE#         1380
  C:31BFH         LINE#         1382
  C:31BFH         LINE#         1389
  C:31C1H         LINE#         1391
  C:31C1H         LINE#         1392
  C:31C6H         LINE#         1393
  C:31CDH         LINE#         1394
  C:31E0H         LINE#         1396
  C:31F5H         LINE#         1397
  C:31FAH         LINE#         1399
  C:3207H         LINE#         1400
  C:320EH         LINE#         1402
  C:3212H         LINE#         1409
  C:3215H         LINE#         1427
  C:3215H         LINE#         1428
  C:321AH         LINE#         1429
  C:3221H         LINE#         1430
  C:3221H         LINE#         1431
  C:322FH         LINE#         1432
  C:3232H         LINE#         1433
  C:3234H         LINE#         1435
  C:3234H         LINE#         1436
  C:3242H         LINE#         1437
  C:3248H         LINE#         1438
  C:3248H         LINE#         1439
  C:324DH         LINE#         1440
  C:3250H         LINE#         1442
  C:3250H         LINE#         1443
  C:3255H         LINE#         1444
  C:325CH         LINE#         1445
  C:325CH         LINE#         1446
  C:326AH         LINE#         1447
  C:326DH         LINE#         1448
  C:326FH         LINE#         1450
  C:326FH         LINE#         1451
  C:327DH         LINE#         1452
  C:3283H         LINE#         1453
  C:3283H         LINE#         1454
  C:3288H         LINE#         1455
  C:328BH         LINE#         1457
  C:328BH         LINE#         1458
  C:3290H         LINE#         1459
  C:3297H         LINE#         1460
  C:3297H         LINE#         1461
  C:32A5H         LINE#         1462
  C:32A8H         LINE#         1463
  C:32AAH         LINE#         1465
  C:32AAH         LINE#         1466
  C:32B8H         LINE#         1467
  C:32BEH         LINE#         1468
  C:32BEH         LINE#         1469
  C:32C3H         LINE#         1470
  C:32C6H         LINE#         1473
  C:32C6H         LINE#         1474
  C:32CBH         LINE#         1475
BL51 BANKED LINKER/LOCATER V6.22                                                      12/15/2017  13:23:50  PAGE 118


  C:32D2H         LINE#         1476
  C:32D2H         LINE#         1480
  C:32DEH         LINE#         1482
  C:32E4H         LINE#         1484
  C:32E7H         LINE#         1485
  C:32E9H         LINE#         1487
  C:32E9H         LINE#         1488
  C:32EEH         LINE#         1489
  C:32F7H         LINE#         1491
  C:32F7H         LINE#         1495
  C:32FDH         LINE#         1497
  C:32FDH         LINE#         1498
  C:32FDH         LINE#         1499
  C:3302H         LINE#         1500
  C:3305H         LINE#         1502
  C:3305H         LINE#         1503
  C:330AH         LINE#         1504
  C:3311H         LINE#         1505
  C:3324H         LINE#         1507
  C:3339H         LINE#         1508
  C:333EH         LINE#         1510
  C:3341H         LINE#         1648
  C:3341H         LINE#         1649
  C:3346H         LINE#         1650
  C:334DH         LINE#         1651
  C:334DH         LINE#         1652
  C:335BH         LINE#         1653
  C:335EH         LINE#         1654
  C:3360H         LINE#         1656
  C:3360H         LINE#         1657
  C:336EH         LINE#         1658
  C:3374H         LINE#         1659
  C:3374H         LINE#         1661
  C:3379H         LINE#         1673
  C:337CH         LINE#         1676
  C:337CH         LINE#         1677
  C:3381H         LINE#         1678
  C:3388H         LINE#         1679
  C:3388H         LINE#         1680
  C:339AH         LINE#         1682
  C:33A0H         LINE#         1684
  C:33A2H         LINE#         1686
  C:33A2H         LINE#         1687
  C:33B4H         LINE#         1689
  C:33BAH         LINE#         1691
  C:33BAH         LINE#         1693
  C:33BFH         LINE#         1694
  C:33C8H         LINE#         1695
  C:33CBH         LINE#         1699
  C:33CBH         LINE#         1700
  C:33D0H         LINE#         1702
  C:33D7H         LINE#         1703
  C:33EAH         LINE#         1705
  C:33FFH         LINE#         1708
  C:3409H         LINE#         1709
  C:3417H         LINE#         1710
  C:341AH         LINE#         2125
BL51 BANKED LINKER/LOCATER V6.22                                                      12/15/2017  13:23:50  PAGE 119


  C:341AH         LINE#         2126
  C:341FH         LINE#         2127
  C:3426H         LINE#         2128
  C:3426H         LINE#         2129
  C:3438H         LINE#         2130
  C:343BH         LINE#         2131
  C:343DH         LINE#         2133
  C:343DH         LINE#         2134
  C:344BH         LINE#         2135
  C:3451H         LINE#         2136
  C:3451H         LINE#         2137
  C:3458H         LINE#         2138
  C:345AH         LINE#         2139
  C:345DH         LINE#         2141
  C:345DH         LINE#         2142
  C:3462H         LINE#         2143
  C:3469H         LINE#         2144
  C:347CH         LINE#         2146
  C:3491H         LINE#         2147
  C:3498H         LINE#         2148
  C:349AH         LINE#         2149
  C:349CH         LINE#         2151
  C:349CH         LINE#         2152
  C:34A6H         LINE#         2153
  C:34ADH         LINE#         2154
  C:34ADH         LINE#         2155
  C:34BBH         LINE#         2156
  C:34BEH         LINE#         2157
  C:34C0H         LINE#         2159
  C:34C0H         LINE#         2160
  C:34CEH         LINE#         2161
  C:34D4H         LINE#         2162
  C:34D4H         LINE#         2163
  C:34DBH         LINE#         2164
  C:34DFH         LINE#         2165
  C:34E2H         LINE#         2167
  C:34E2H         LINE#         2168
  C:34E8H         LINE#         2169
  C:34EFH         LINE#         2170
  C:34EFH         LINE#         2171
  C:34FDH         LINE#         2172
  C:3502H         LINE#         2173
  C:3504H         LINE#         2175
  C:3504H         LINE#         2176
  C:3519H         LINE#         2177
  C:351FH         LINE#         2178
  C:351FH         LINE#         2179
  C:3528H         LINE#         2180
  C:352EH         LINE#         2181
  C:3531H         LINE#         2183
  C:3531H         LINE#         2184
  C:3536H         LINE#         2185
  C:353DH         LINE#         2186
  C:353DH         LINE#         2187
  C:3545H         LINE#         2188
  C:354BH         LINE#         2190
  C:3551H         LINE#         2191
BL51 BANKED LINKER/LOCATER V6.22                                                      12/15/2017  13:23:50  PAGE 120


  C:3553H         LINE#         2193
  C:3553H         LINE#         2194
  C:3558H         LINE#         2195
  C:3561H         LINE#         2197
  C:3564H         LINE#         2198
  C:3564H         LINE#         2199
  C:356BH         LINE#         2200
  C:356EH         LINE#         2202
  C:356EH         LINE#         2203
  C:3573H         LINE#         2204
  C:357AH         LINE#         2205
  C:357AH         LINE#         2206
  C:3582H         LINE#         2207
  C:3588H         LINE#         2209
  C:358EH         LINE#         2210
  C:3590H         LINE#         2212
  C:3590H         LINE#         2213
  C:3595H         LINE#         2214
  C:359EH         LINE#         2216
  C:35A1H         LINE#         2217
  C:35A1H         LINE#         2218
  C:35A8H         LINE#         2219
  C:35ABH         LINE#         2221
  C:35ABH         LINE#         2222
  C:35B5H         LINE#         2223
  C:35BCH         LINE#         2224
  C:35BCH         LINE#         2225
  C:35C4H         LINE#         2226
  C:35CAH         LINE#         2228
  C:35D0H         LINE#         2229
  C:35D2H         LINE#         2231
  C:35D2H         LINE#         2232
  C:35D7H         LINE#         2233
  C:35E0H         LINE#         2235
  C:35E3H         LINE#         2236
  C:35E3H         LINE#         2237
  C:35EAH         LINE#         2238
  C:35ECH         LINE#         2240
  C:35ECH         LINE#         2241
  C:35F6H         LINE#         2242
  C:35FDH         LINE#         2243
  C:35FDH         LINE#         2244
  C:3605H         LINE#         2245
  C:360BH         LINE#         2247
  C:3611H         LINE#         2248
  C:3613H         LINE#         2250
  C:3613H         LINE#         2251
  C:3618H         LINE#         2252
  C:3621H         LINE#         2254
  C:3624H         LINE#         2255
  C:3624H         LINE#         2256
  C:362EH         LINE#         2257
  C:362EH         LINE#         2260
  C:362EH         LINE#         2262
  C:3636H         LINE#         2263
  -------         ENDPROC       _SETITEMVALUE
  -------         PROC          _DISPLAYVIEWBAR
BL51 BANKED LINKER/LOCATER V6.22                                                      12/15/2017  13:23:50  PAGE 121


  X:0030H         SYMBOL        addr
  X:0032H         SYMBOL        val
  -------         DO            
  C:1846H         SYMBOL        BAR_ROM_TABLE
  X:0033H         SYMBOL        i
  X:0034H         SYMBOL        Bar_str
  -------         ENDDO         
  C:A3C1H         LINE#         2266
  C:A3C9H         LINE#         2267
  C:A3C9H         LINE#         2288
  C:A3CCH         LINE#         2290
  C:A3DEH         LINE#         2296
  C:A3E7H         LINE#         2297
  C:A3E7H         LINE#         2298
  C:A3FFH         LINE#         2300
  C:A40FH         LINE#         2301
  C:A423H         LINE#         2303
  C:A423H         LINE#         2306
  C:A42AH         LINE#         2307
  C:A42DH         LINE#         2310
  C:A43DH         LINE#         2311
  C:A44AH         LINE#         2312
  C:A451H         LINE#         2313
  C:A457H         LINE#         2375
  -------         ENDPROC       _DISPLAYVIEWBAR
  -------         PROC          _AWT_DISPLAYVIEWBAR
  X:0030H         SYMBOL        addr
  X:0032H         SYMBOL        val
  -------         DO            
  X:0033H         SYMBOL        i
  X:0034H         SYMBOL        Bar_str
  -------         ENDDO         
  C:AAD0H         LINE#         2382
  C:AAD8H         LINE#         2383
  C:AAD8H         LINE#         2387
  C:AAE5H         LINE#         2389
  C:AAEFH         LINE#         2390
  C:AAEFH         LINE#         2391
  C:AAFAH         LINE#         2392
  C:AAFAH         LINE#         2393
  C:AAFAH         LINE#         2394
  C:AAFFH         LINE#         2395
  C:AAFFH         LINE#         2396
  C:AB01H         LINE#         2398
  C:AB01H         LINE#         2399
  C:AB07H         LINE#         2400
  C:AB0DH         LINE#         2401
  C:AB0FH         LINE#         2403
  C:AB0FH         LINE#         2404
  C:AB15H         LINE#         2405
  C:AB1AH         LINE#         2406
  C:AB1AH         LINE#         2408
  C:AB1AH         LINE#         2409
  C:AB1AH         LINE#         2410
  C:AB1AH         LINE#         2412
  C:AB24H         LINE#         2413
  C:AB39H         LINE#         2414
BL51 BANKED LINKER/LOCATER V6.22                                                      12/15/2017  13:23:50  PAGE 122


  C:AB39H         LINE#         2417
  C:AB43H         LINE#         2418
  C:AB49H         LINE#         2457
  -------         ENDPROC       _AWT_DISPLAYVIEWBAR
  -------         PROC          _DRAWNUM
  X:0030H         SYMBOL        addr
  X:0032H         SYMBOL        nptr
  X:0035H         SYMBOL        val
  -------         DO            
  X:0037H         SYMBOL        x
  X:0038H         SYMBOL        i
  X:0039H         SYMBOL        j
  X:003AH         SYMBOL        k
  D:0007H         SYMBOL        len
  X:003BH         SYMBOL        mstr
  X:0040H         SYMBOL        Num_str
  X:004CH         SYMBOL        str
  -------         ENDDO         
  C:9671H         LINE#         2460
  C:967AH         LINE#         2461
  C:967AH         LINE#         2463
  C:9685H         LINE#         2466
  C:968BH         LINE#         2467
  C:969AH         LINE#         2468
  C:969FH         LINE#         2469
  C:96A8H         LINE#         2472
  C:96ABH         LINE#         2473
  C:96BEH         LINE#         2474
  C:96CEH         LINE#         2476
  C:96E1H         LINE#         2477
  C:96EAH         LINE#         2478
  C:96F6H         LINE#         2479
  C:9704H         LINE#         2480
  C:9716H         LINE#         2483
  C:971CH         LINE#         2484
  C:972BH         LINE#         2485
  C:973EH         LINE#         2486
  -------         ENDPROC       _DRAWNUM
  C:9A88H         SYMBOL        L?0866
  -------         PROC          _DRAWSTRINGBYLANG
  X:0030H         SYMBOL        addr
  X:0032H         SYMBOL        yptr
  X:0035H         SYMBOL        val
  -------         DO            
  X:0037H         SYMBOL        j
  D:0005H         SYMBOL        l
  X:0038H         SYMBOL        Size_val
  X:0039H         SYMBOL        Buf
  X:0045H         SYMBOL        Str
  -------         ENDDO         
  C:99D7H         LINE#         2490
  C:99E0H         LINE#         2491
  C:99E0H         LINE#         2494
  C:99EBH         LINE#         2497
  C:99F5H         LINE#         2498
  C:99FEH         LINE#         2500
  C:9A0CH         LINE#         2501
BL51 BANKED LINKER/LOCATER V6.22                                                      12/15/2017  13:23:50  PAGE 123


  C:9A0CH         LINE#         2502
  C:9A2BH         LINE#         2503
  C:9A30H         LINE#         2504
  C:9A30H         LINE#         2506
  C:9A3AH         LINE#         2507
  C:9A52H         LINE#         2508
  C:9A57H         LINE#         2509
  C:9A57H         LINE#         2511
  C:9A67H         LINE#         2513
  C:9A72H         LINE#         2515
  C:9A88H         LINE#         2517
  -------         ENDPROC       _DRAWSTRINGBYLANG
  -------         PROC          _DRAWMENULIST
  X:0011H         SYMBOL        NOTViewflag
  -------         DO            
  X:0012H         SYMBOL        i
  X:0013H         SYMBOL        j
  X:0014H         SYMBOL        k
  X:0015H         SYMBOL        x
  X:0016H         SYMBOL        y
  D:0001H         SYMBOL        DMp
  X:0017H         SYMBOL        Desc
  X:001AH         SYMBOL        Max_y
  X:001BH         SYMBOL        addr
  -------         ENDDO         
  C:7503H         LINE#         2545
  C:7508H         LINE#         2546
  C:7508H         LINE#         2547
  C:750FH         LINE#         2557
  C:751EH         LINE#         2563
  C:7531H         LINE#         2564
  C:753AH         LINE#         2565
  C:7542H         LINE#         2567
  C:7559H         LINE#         2568
  C:757DH         LINE#         2574
  C:7591H         LINE#         2575
  C:75A6H         LINE#         2582
  C:75C1H         LINE#         2585
  C:75C7H         LINE#         2586
  C:75C7H         LINE#         2588
  C:75D8H         LINE#         2589
  C:75DEH         LINE#         2595
  C:75F1H         LINE#         2597
  C:7605H         LINE#         2598
  C:761CH         LINE#         2600
  C:7622H         LINE#         2601
  C:7624H         LINE#         2602
  C:762DH         LINE#         2603
  C:762DH         LINE#         2605
  C:763AH         LINE#         2607
  C:7642H         LINE#         2608
  C:7674H         LINE#         2609
  C:7684H         LINE#         2610
  C:7686H         LINE#         2611
  C:7686H         LINE#         2615
  C:7692H         LINE#         2617
  C:7692H         LINE#         2618
BL51 BANKED LINKER/LOCATER V6.22                                                      12/15/2017  13:23:50  PAGE 124


  C:76A4H         LINE#         2619
  C:76ADH         LINE#         2621
  C:76B3H         LINE#         2622
  C:76B5H         LINE#         2623
  C:76BDH         LINE#         2624
  C:76BDH         LINE#         2633
  -------         ENDPROC       _DRAWMENULIST
  -------         PROC          DISPLAYOSDMENU
  C:92F3H         LINE#         2639
  C:92F3H         LINE#         2640
  C:92F3H         LINE#         2657
  C:92FDH         LINE#         2661
  C:931AH         LINE#         2662
  C:9320H         LINE#         2664
  C:9320H         LINE#         2665
  C:9360H         LINE#         2667
  C:9360H         LINE#         2668
  C:9368H         LINE#         2669
  C:936EH         LINE#         2670
  C:9370H         LINE#         2672
  C:937BH         LINE#         2673
  C:937BH         LINE#         2680
  C:9380H         LINE#         2683
  C:9385H         LINE#         2684
  C:9385H         LINE#         2685
  C:9388H         LINE#         2686
  C:938EH         LINE#         2687
  C:9392H         LINE#         2689
  C:93A5H         LINE#         2690
  C:93A8H         LINE#         2691
  C:93AEH         LINE#         2693
  C:93B3H         LINE#         2695
  C:93B6H         LINE#         2696
  C:93C9H         LINE#         2697
  C:93CCH         LINE#         2698
  C:93D2H         LINE#         2699
  C:93D2H         LINE#         2705
  -------         ENDPROC       DISPLAYOSDMENU
  -------         PROC          OSDHIGHMENU_SUB
  -------         DO            
  X:0009H         SYMBOL        temp_cursor
  -------         ENDDO         
  C:A129H         LINE#         2708
  C:A129H         LINE#         2709
  C:A129H         LINE#         2715
  C:A131H         LINE#         2716
  C:A13BH         LINE#         2717
  C:A143H         LINE#         2719
  C:A149H         LINE#         2720
  C:A14CH         LINE#         2722
  C:A14CH         LINE#         2723
  C:A152H         LINE#         2724
  C:A159H         LINE#         2725
  C:A161H         LINE#         2733
  C:A161H         LINE#         2736
  C:A177H         LINE#         2739
  C:A19BH         LINE#         2741
BL51 BANKED LINKER/LOCATER V6.22                                                      12/15/2017  13:23:50  PAGE 125


  C:A1A1H         LINE#         2743
  C:A1A5H         LINE#         2744
  C:A1ABH         LINE#         2745
  C:A1AEH         LINE#         2746
  C:A1B0H         LINE#         2748
  C:A1B0H         LINE#         2749
  C:A1B5H         LINE#         2750
  C:A1B8H         LINE#         2751
  C:A1B8H         LINE#         2754
  C:A1BFH         LINE#         2755
  C:A1C8H         LINE#         2756
  C:A1D1H         LINE#         2757
  C:A1D1H         LINE#         2760
  -------         ENDPROC       OSDHIGHMENU_SUB
  C:A804H         SYMBOL        L?0936
  -------         PROC          _DOACTION
  D:0007H         SYMBOL        id
  -------         DO            
  X:0008H         SYMBOL        ret
  -------         ENDDO         
  C:A77DH         LINE#         2763
  C:A77DH         LINE#         2764
  C:A77DH         LINE#         2765
  C:A783H         LINE#         2770
  C:A7A3H         LINE#         2772
  C:A7A3H         LINE#         2773
  C:A7A3H         LINE#         2774
  C:A7A3H         LINE#         2785
  C:A7AAH         LINE#         2786
  C:A7ACH         LINE#         2827
  C:A7ACH         LINE#         2831
  C:A7ACH         LINE#         2832
  C:A7ACH         LINE#         2834
  C:A7AFH         LINE#         2843
  C:A7B1H         LINE#         2866
  C:A7B3H         LINE#         2876
  C:A7B3H         LINE#         2877
  C:A7B3H         LINE#         2879
  C:A7B3H         LINE#         2880
  C:A7B3H         LINE#         2882
  C:A7B6H         LINE#         2884
  C:A7B9H         LINE#         2885
  C:A7C7H         LINE#         2886
  C:A7C9H         LINE#         2910
  C:A7CCH         LINE#         2911
  C:A7CEH         LINE#         2931
  C:A7CEH         LINE#         2932
  C:A7D1H         LINE#         2933
  C:A7D3H         LINE#         2934
  C:A7D5H         LINE#         2936
  C:A7D8H         LINE#         2938
  C:A7E2H         LINE#         2939
  C:A7E8H         LINE#         2941
  C:A7EBH         LINE#         2943
  C:A7EDH         LINE#         2946
  C:A7F2H         LINE#         2947
  C:A7F6H         LINE#         2948
BL51 BANKED LINKER/LOCATER V6.22                                                      12/15/2017  13:23:50  PAGE 126


  C:A7FAH         LINE#         2949
  C:A7FEH         LINE#         2954
  C:A7FEH         LINE#         3214
  C:A7FEH         LINE#         3215
  C:A803H         LINE#         3216
  -------         ENDPROC       _DOACTION
  -------         PROC          _GETNEXTCURSORMENUITEM
  D:0001H         SYMBOL        DMp
  D:0005H         SYMBOL        itemno
  X:000EH         SYMBOL        flag
  -------         DO            
  D:0006H         SYMBOL        new_cursor
  -------         ENDDO         
  C:C6F3H         LINE#         3219
  C:C6F3H         LINE#         3220
  C:C6F3H         LINE#         3223
  C:C6FEH         LINE#         3224
  C:C707H         LINE#         3225
  C:C70CH         LINE#         3226
  C:C70CH         LINE#         3227
  C:C70EH         LINE#         3228
  -------         ENDPROC       _GETNEXTCURSORMENUITEM
  -------         PROC          SAVEVALUE1
  C:C4E1H         LINE#         3233
  C:C4E1H         LINE#         3234
  C:C4E1H         LINE#         3237
  C:C4FBH         LINE#         3239
  C:C4FBH         LINE#         3240
  C:C506H         LINE#         3244
  C:C506H         LINE#         3246
  C:C506H         LINE#         3248
  C:C506H         LINE#         3249
  C:C506H         LINE#         3251
  C:C508H         LINE#         3252
  -------         ENDPROC       SAVEVALUE1
  -------         PROC          CLEARVALUEWIN
  C:C92DH         LINE#         3254
  C:C92DH         LINE#         3255
  C:C92DH         LINE#         3256
  C:C930H         LINE#         3258
  C:C936H         LINE#         3259
  C:C938H         LINE#         3260
  -------         ENDPROC       CLEARVALUEWIN
  C:74FBH         SYMBOL        L?0921
  -------         PROC          _OSDCURSORMOVE
  X:0006H         SYMBOL        flag
  -------         DO            
  X:0007H         SYMBOL        new_cursor
  X:0008H         SYMBOL        old_cursor
  D:0002H         SYMBOL        dat
  B:0024H.1       SYMBOL        OSDLANG_Changing
  -------         DO            
  X:0009H         SYMBOL        i
  -------         ENDDO         
  -------         ENDDO         
  C:733EH         LINE#         3262
  C:7343H         LINE#         3263
BL51 BANKED LINKER/LOCATER V6.22                                                      12/15/2017  13:23:50  PAGE 127


  C:7343H         LINE#         3270
  C:7345H         LINE#         3276
  C:734BH         LINE#         3278
  C:736FH         LINE#         3281
  C:7393H         LINE#         3283
  C:73ABH         LINE#         3285
  C:73AEH         LINE#         3287
  C:73B6H         LINE#         3288
  C:73C3H         LINE#         3289
  C:73C9H         LINE#         3290
  C:73D9H         LINE#         3295
  C:73DEH         LINE#         3296
  C:73DEH         LINE#         3298
  C:73E1H         LINE#         3299
  C:73E4H         LINE#         3300
  C:73E4H         LINE#         3301
  C:73E9H         LINE#         3302
  C:73ECH         LINE#         3388
  C:7418H         LINE#         3390
  C:7418H         LINE#         3391
  C:741DH         LINE#         3392
  C:7423H         LINE#         3393
  C:7423H         LINE#         3394
  C:744CH         LINE#         3396
  C:744CH         LINE#         3397
  C:7452H         LINE#         3398
  C:7457H         LINE#         3399
  C:7457H         LINE#         3402
  C:745FH         LINE#         3403
  C:7467H         LINE#         3404
  C:746CH         LINE#         3405
  C:746CH         LINE#         3406
  C:746FH         LINE#         3408
  C:7474H         LINE#         3409
  C:747DH         LINE#         3410
  C:7484H         LINE#         3419
  C:748DH         LINE#         3421
  C:74A7H         LINE#         3426
  C:74AEH         LINE#         3429
  C:74B3H         LINE#         3433
  C:74C1H         LINE#         3435
  C:74C4H         LINE#         3436
  C:74CBH         LINE#         3438
  C:74D4H         LINE#         3439
  C:74DDH         LINE#         3442
  C:74DDH         LINE#         3444
  C:74DDH         LINE#         3445
  C:74F2H         LINE#         3446
  C:74F7H         LINE#         3447
  C:74FAH         LINE#         3448
  C:74FAH         LINE#         3456
  -------         ENDPROC       _OSDCURSORMOVE
  C:8775H         SYMBOL        L?0864
  -------         PROC          _OSDVALUEUPDN
  X:0006H         SYMBOL        flag
  -------         DO            
  X:0007H         SYMBOL        ptr
BL51 BANKED LINKER/LOCATER V6.22                                                      12/15/2017  13:23:50  PAGE 128


  X:000AH         SYMBOL        val
  X:000CH         SYMBOL        addr
  -------         ENDDO         
  C:866DH         LINE#         3458
  C:8672H         LINE#         3459
  C:8672H         LINE#         3465
  C:8678H         LINE#         3466
  C:86A4H         LINE#         3468
  C:86C3H         LINE#         3470
  C:86C3H         LINE#         3471
  C:86E7H         LINE#         3474
  C:870CH         LINE#         3476
  C:8712H         LINE#         3479
  C:8718H         LINE#         3480
  C:8718H         LINE#         3490
  C:8718H         LINE#         3491
  C:8727H         LINE#         3492
  C:873AH         LINE#         3499
  C:873AH         LINE#         3500
  C:873AH         LINE#         3501
  C:8744H         LINE#         3502
  C:8744H         LINE#         3503
  C:8744H         LINE#         3505
  C:8744H         LINE#         3527
  C:8744H         LINE#         3528
  C:8753H         LINE#         3529
  C:8766H         LINE#         3530
  C:8774H         LINE#         3531
  C:8774H         LINE#         3533
  C:8774H         LINE#         3534
  C:8774H         LINE#         3535
  -------         ENDPROC       _OSDVALUEUPDN
  -------         PROC          CLOSEOSDMENU
  -------         DO            
  X:0016H         SYMBOL        i
  -------         ENDDO         
  C:BDE9H         LINE#         3537
  C:BDE9H         LINE#         3538
  C:BDE9H         LINE#         3542
  C:BDEEH         LINE#         3545
  C:BDF1H         LINE#         3546
  C:BE01H         LINE#         3547
  C:BE01H         LINE#         3548
  C:BE0BH         LINE#         3549
  C:BE14H         LINE#         3550
  C:BE1CH         LINE#         3552
  C:BE21H         LINE#         3558
  C:BE24H         LINE#         3576
  C:BE26H         LINE#         3577
  -------         ENDPROC       CLOSEOSDMENU
  -------         PROC          INITOSDMENUXY
  -------         DO            
  X:000DH         SYMBOL        val
  X:000FH         SYMBOL        addx
  X:0011H         SYMBOL        addy
  X:0013H         SYMBOL        winno
  -------         ENDDO         
BL51 BANKED LINKER/LOCATER V6.22                                                      12/15/2017  13:23:50  PAGE 129


  C:B41BH         LINE#         3579
  C:B41BH         LINE#         3580
  C:B41BH         LINE#         3584
  C:B42CH         LINE#         3585
  C:B43DH         LINE#         3595
  C:B44BH         LINE#         3597
  C:B44EH         LINE#         3598
  C:B45BH         LINE#         3600
  C:B463H         LINE#         3601
  C:B470H         LINE#         3602
  C:B478H         LINE#         3603
  -------         ENDPROC       INITOSDMENUXY
  -------         PROC          OPENOSDMENU
  -------         DO            
  X:0006H         SYMBOL        i
  -------         ENDDO         
  C:C14EH         LINE#         3609
  C:C14EH         LINE#         3611
  C:C14EH         LINE#         3616
  C:C151H         LINE#         3617
  C:C151H         LINE#         3621
  C:C154H         LINE#         3623
  C:C154H         LINE#         3631
  C:C164H         LINE#         3633
  C:C164H         LINE#         3634
  C:C169H         LINE#         3635
  C:C171H         LINE#         3637
  C:C178H         LINE#         3638
  C:C17DH         LINE#         3639
  -------         ENDPROC       OPENOSDMENU
  -------         PROC          INITOSDMENU
  -------         DO            
  X:000CH         SYMBOL        i
  -------         ENDDO         
  C:AB56H         LINE#         3702
  C:AB56H         LINE#         3704
  C:AB56H         LINE#         3706
  C:AB5BH         LINE#         3709
  C:AB63H         LINE#         3711
  C:AB66H         LINE#         3728
  C:AB66H         LINE#         3748
  C:AB70H         LINE#         3750
  C:AB70H         LINE#         3751
  C:AB70H         LINE#         3753
  C:AB73H         LINE#         3754
  C:AB77H         LINE#         3755
  C:AB90H         LINE#         3757
  C:AB96H         LINE#         3758
  C:AB9BH         LINE#         3760
  C:AB9EH         LINE#         3761
  C:ABA3H         LINE#         3763
  C:ABA9H         LINE#         3764
  C:ABACH         LINE#         3765
  C:ABAEH         LINE#         3773
  C:ABB7H         LINE#         3774
  C:ABBFH         LINE#         3778
  C:ABC6H         LINE#         3780
BL51 BANKED LINKER/LOCATER V6.22                                                      12/15/2017  13:23:50  PAGE 130


  C:ABCCH         LINE#         3781
  C:ABD3H         LINE#         3783
  C:ABD6H         LINE#         3787
  -------         ENDPROC       INITOSDMENU
  -------         PROC          OSDHIGHMENU
  C:002EH         LINE#         3790
  C:002EH         LINE#         3791
  C:002EH         LINE#         3796
  C:0031H         LINE#         3797
  C:0031H         LINE#         3799
  C:0034H         LINE#         3801
  C:0039H         LINE#         3802
  C:003CH         LINE#         3805
  C:003CH         LINE#         3807
  C:003EH         LINE#         3808
  C:0057H         LINE#         3810
  C:005FH         LINE#         3811
  C:0062H         LINE#         3820
  -------         ENDPROC       OSDHIGHMENU
  -------         PROC          OSDSELECT
  -------         DO            
  D:0007H         SYMBOL        ret
  X:0006H         SYMBOL        addr
  -------         ENDDO         
  C:7D0EH         LINE#         3822
  C:7D0EH         LINE#         3823
  C:7D0EH         LINE#         3827
  C:7D19H         LINE#         3828
  C:7D34H         LINE#         3830
  C:7D5CH         LINE#         3834
  C:7D75H         LINE#         3835
  C:7D7BH         LINE#         3837
  C:7DADH         LINE#         3838
  C:7DADH         LINE#         3839
  C:7DBCH         LINE#         3842
  C:7DBCH         LINE#         3843
  C:7DBFH         LINE#         3844
  C:7DC2H         LINE#         3845
  C:7DC2H         LINE#         3847
  C:7DC2H         LINE#         3848
  C:7DC2H         LINE#         3849
  C:7DC4H         LINE#         3850
  C:7DC7H         LINE#         3851
  C:7DDDH         LINE#         3890
  C:7DDDH         LINE#         3891
  C:7DDFH         LINE#         3893
  C:7DF2H         LINE#         3894
  C:7DF2H         LINE#         3895
  C:7DF2H         LINE#         3898
  C:7DF5H         LINE#         3899
  C:7DF5H         LINE#         3902
  C:7DF5H         LINE#         3903
  C:7DF5H         LINE#         3904
  C:7DFAH         LINE#         3905
  C:7E14H         LINE#         3908
  C:7E1DH         LINE#         3909
  C:7E26H         LINE#         3910
BL51 BANKED LINKER/LOCATER V6.22                                                      12/15/2017  13:23:50  PAGE 131


  C:7E26H         LINE#         3912
  C:7E2CH         LINE#         3914
  C:7E2FH         LINE#         3915
  C:7E2FH         LINE#         3916
  C:7E36H         LINE#         3918
  C:7E4DH         LINE#         3919
  C:7E55H         LINE#         3920
  C:7E6BH         LINE#         3922
  C:7E72H         LINE#         3923
  C:7E77H         LINE#         3925
  C:7E7AH         LINE#         3927
  C:7E7DH         LINE#         3928
  C:7E7DH         LINE#         3929
  C:7E7DH         LINE#         3931
  -------         ENDPROC       OSDSELECT
  -------         PROC          _CAMOUTDSEL
  X:0009H         SYMBOL        val
  C:BA69H         LINE#         3951
  C:BA6EH         LINE#         3952
  C:BA6EH         LINE#         3953
  C:BA70H         LINE#         3954
  C:BA78H         LINE#         3955
  C:BA7FH         LINE#         3956
  C:BA87H         LINE#         3957
  C:BA8EH         LINE#         3958
  C:BA96H         LINE#         3959
  C:BA9DH         LINE#         3960
  C:BAA5H         LINE#         3961
  C:BAACH         LINE#         3962
  C:BAB5H         LINE#         3963
  -------         ENDPROC       _CAMOUTDSEL
  -------         ENDMOD        OSDMENU

  -------         MODULE        PC_EEP
  C:0000H         SYMBOL        _ICE_DUMMY_
  -------         ENDMOD        PC_EEP

  -------         MODULE        PRINTF
  C:0000H         SYMBOL        _ICE_DUMMY_
  D:00E8H         PUBLIC        P4
  C:C88FH         PUBLIC        Hex
  C:C7D0H         PUBLIC        _Puts
  D:0099H         PUBLIC        SBUF
  C:5E1EH         PUBLIC        _DoPrint
  C:C530H         PUBLIC        _Printf
  C:B4D4H         SYMBOL        Com005C
  C:B4D4H         SYMBOL        L?0093
  C:B4D4H         SYMBOL        L?0094
  C:B4D7H         SYMBOL        L?0095
  C:B4D8H         SYMBOL        L?0096
  C:B4E1H         SYMBOL        L?0097
  C:B4E1H         SYMBOL        L?0098
  C:B4E4H         SYMBOL        L?0099
  C:B4F2H         SYMBOL        L?0100
  C:B4F2H         SYMBOL        L?0101
  C:B4F8H         SYMBOL        L?0102
  C:B4FEH         SYMBOL        L?0103
BL51 BANKED LINKER/LOCATER V6.22                                                      12/15/2017  13:23:50  PAGE 132


  C:B50DH         SYMBOL        L?0104
  C:B513H         SYMBOL        L?0105
  C:B513H         SYMBOL        L?0106
  C:B519H         SYMBOL        L?0107
  C:B519H         SYMBOL        L?0108
  C:B51FH         SYMBOL        L?0109
  C:B522H         SYMBOL        L?0110
  C:B529H         SYMBOL        L?0111
  C:B529H         SYMBOL        L?0112
  -------         PROC          COM005C
  -------         ENDPROC       COM005C
  -------         PROC          _DOPRINT
  X:004CH         SYMBOL        fmt
  X:004FH         SYMBOL        ap
  -------         DO            
  X:0052H         SYMBOL        ch
  X:0053H         SYMBOL        i
  X:0054H         SYMBOL        value
  B:0024H.1       SYMBOL        fl_zero
  B:0024H.2       SYMBOL        fl_num
  X:0058H         SYMBOL        fl_len
  X:0059H         SYMBOL        cnt
  X:005AH         SYMBOL        mask
  X:005EH         SYMBOL        ptr
  -------         ENDDO         
  C:5E1EH         LINE#         17
  C:5E24H         LINE#         18
  C:5E24H         LINE#         26
  C:5E2EH         LINE#         32
  C:5E2EH         LINE#         36
  C:5E3EH         LINE#         37
  C:5E3EH         LINE#         38
  C:5E47H         LINE#         39
  C:5E51H         LINE#         40
  C:5E5EH         LINE#         41
  C:5E5EH         LINE#         42
  C:5E5EH         LINE#         46
  C:5E60H         LINE#         47
  C:5E62H         LINE#         48
  C:5E67H         LINE#         50
  C:5E71H         LINE#         52
  C:5E76H         LINE#         53
  C:5E78H         LINE#         54
  C:5E7FH         LINE#         55
  C:5E80H         LINE#         56
  C:5E80H         LINE#         57
  C:5E82H         LINE#         58
  C:5E96H         LINE#         59
  C:5E9DH         LINE#         60
  C:5EA4H         LINE#         61
  C:5EA4H         LINE#         65
  C:5EAAH         LINE#         67
  C:5EBEH         LINE#         68
  C:5EBEH         LINE#         69
  C:5ECDH         LINE#         70
  C:5ECDH         LINE#         71
  C:5EDAH         LINE#         72
BL51 BANKED LINKER/LOCATER V6.22                                                      12/15/2017  13:23:50  PAGE 133


  C:5EDAH         LINE#         76
  C:5F06H         LINE#         78
  C:5F06H         LINE#         79
  C:5F06H         LINE#         81
  C:5F16H         LINE#         82
  C:5F16H         LINE#         83
  C:5F29H         LINE#         84
  C:5F31H         LINE#         85
  C:5F33H         LINE#         87
  C:5F33H         LINE#         88
  C:5F48H         LINE#         89
  C:5F4EH         LINE#         90
  C:5F50H         LINE#         92
  C:5F50H         LINE#         93
  C:5F54H         LINE#         94
  C:5F5DH         LINE#         95
  C:5F5DH         LINE#         96
  C:5F5DH         LINE#         98
  C:5F64H         LINE#         99
  C:5F6CH         LINE#         100
  C:5F7BH         LINE#         101
  C:5F7BH         LINE#         103
  C:5F81H         LINE#         104
  C:5F95H         LINE#         106
  C:5FA2H         LINE#         107
  C:5FB3H         LINE#         108
  C:5FB6H         LINE#         109
  C:5FC0H         LINE#         110
  C:5FC0H         LINE#         112
  C:5FF0H         LINE#         114
  C:5FF0H         LINE#         115
  C:5FFEH         LINE#         116
  C:601BH         LINE#         117
  C:601DH         LINE#         118
  C:6028H         LINE#         120
  C:6039H         LINE#         121
  C:604BH         LINE#         123
  C:6059H         LINE#         124
  C:605CH         LINE#         126
  C:605CH         LINE#         128
  C:605CH         LINE#         129
  C:605CH         LINE#         131
  C:606CH         LINE#         132
  C:6079H         LINE#         133
  C:6081H         LINE#         134
  C:608AH         LINE#         135
  C:608AH         LINE#         137
  C:6098H         LINE#         139
  C:60B8H         LINE#         140
  C:60E8H         LINE#         141
  C:60F0H         LINE#         142
  C:60F0H         LINE#         144
  C:60F0H         LINE#         155
  C:60FFH         LINE#         156
  C:610AH         LINE#         157
  C:6119H         LINE#         158
  C:6119H         LINE#         163
BL51 BANKED LINKER/LOCATER V6.22                                                      12/15/2017  13:23:50  PAGE 134


  C:6119H         LINE#         164
  C:6125H         LINE#         165
  C:6132H         LINE#         166
  C:6132H         LINE#         168
  C:6132H         LINE#         169
  C:613BH         LINE#         170
  C:613EH         LINE#         171
  C:613EH         LINE#         172
  C:613EH         LINE#         173
  -------         ENDPROC       _DOPRINT
  -------         PROC          _PRINTF
  X:001EH         SYMBOL        fmt
  -------         DO            
  X:0021H         SYMBOL        ellipsis_40
  X:0049H         SYMBOL        ap
  -------         ENDDO         
  C:C530H         LINE#         180
  C:C536H         LINE#         181
  C:C536H         LINE#         184
  C:C542H         LINE#         185
  -------         ENDPROC       _PRINTF
  -------         PROC          _PUTS
  X:0013H         SYMBOL        ptr
  C:C7D0H         LINE#         189
  C:C7D6H         LINE#         190
  C:C7D6H         LINE#         191
  C:C7DEH         LINE#         192
  C:C7EAH         LINE#         193
  -------         ENDPROC       _PUTS
  -------         ENDMOD        PRINTF

  -------         MODULE        TABLE
  C:0000H         SYMBOL        _ICE_DUMMY_
  C:613FH         PUBLIC        NTSC_Regs
  C:628FH         PUBLIC        PAL_Regs
  -------         ENDMOD        TABLE

  -------         MODULE        TW88
  C:0000H         SYMBOL        _ICE_DUMMY_
  C:C747H         PUBLIC        COMPOSITE3Input
  C:A279H         PUBLIC        _Mapping1
  C:9F22H         PUBLIC        _LCDPowerON
  D:00E8H         PUBLIC        P4
  C:C6BAH         PUBLIC        _ClearAutoDetectStd
  B:00B0H.5       PUBLIC        P3_5
  C:B73FH         PUBLIC        DetectDecoderInput
  C:CA42H         PUBLIC        ON_LVDS
  C:C5C6H         PUBLIC        SetAutoDetectStd
  X:015DH         PUBLIC        CAM_QUAD_TO
  C:C0ADH         PUBLIC        LCDPower
  X:015EH         SYMBOL        m_cStandard
  C:CA43H         PUBLIC        OFF_LVDS
  C:C70FH         PUBLIC        COMPOSITE1Input
  C:C72BH         PUBLIC        COMPOSITE2Input
  C:B2FEH         SYMBOL        Com0021
  C:B2FEH         SYMBOL        L?0034
  C:B305H         SYMBOL        L?0035
BL51 BANKED LINKER/LOCATER V6.22                                                      12/15/2017  13:23:50  PAGE 135


  C:B308H         SYMBOL        L?0036
  C:B30BH         SYMBOL        L?0037
  C:B311H         SYMBOL        L?0038
  C:B334H         SYMBOL        L?0039
  C:B344H         SYMBOL        L?0040
  C:B344H         SYMBOL        L?0041
  C:B34DH         SYMBOL        L?0044
  C:B34DH         SYMBOL        L?0045
  C:B354H         SYMBOL        L?0046
  -------         PROC          COM0021
  -------         ENDPROC       COM0021
  -------         PROC          SETAUTODETECTSTD
  -------         DO            
  D:0007H         SYMBOL        val
  -------         ENDDO         
  C:C5C6H         LINE#         32
  C:C5C6H         LINE#         33
  C:C5C6H         LINE#         39
  C:C5CCH         LINE#         40
  C:C5D4H         LINE#         41
  C:C5DBH         LINE#         42
  -------         ENDPROC       SETAUTODETECTSTD
  -------         PROC          _CLEARAUTODETECTSTD
  X:0018H         SYMBOL        std
  -------         DO            
  D:0007H         SYMBOL        val
  -------         ENDDO         
  C:C6BAH         LINE#         45
  C:C6BFH         LINE#         46
  C:C6BFH         LINE#         53
  C:C6C6H         LINE#         54
  C:C6CFH         LINE#         55
  -------         ENDPROC       _CLEARAUTODETECTSTD
  C:B78AH         SYMBOL        L?0043
  -------         PROC          DETECTDECODERINPUT
  -------         DO            
  X:0017H         SYMBOL        std
  X:0018H         SYMBOL        val
  -------         ENDDO         
  C:B73FH         LINE#         89
  C:B73FH         LINE#         90
  C:B73FH         LINE#         95
  C:B744H         LINE#         96
  C:B74AH         LINE#         97
  C:B74FH         LINE#         98
  C:B751H         LINE#         99
  C:B751H         LINE#         101
  C:B756H         LINE#         102
  C:B75BH         LINE#         106
  C:B75EH         LINE#         107
  C:B763H         LINE#         108
  C:B765H         LINE#         109
  C:B765H         LINE#         110
  C:B76EH         LINE#         111
  C:B774H         LINE#         112
  C:B77BH         LINE#         113
  C:B77BH         LINE#         114
BL51 BANKED LINKER/LOCATER V6.22                                                      12/15/2017  13:23:50  PAGE 136


  C:B787H         LINE#         127
  C:B789H         LINE#         128
  -------         ENDPROC       DETECTDECODERINPUT
  -------         PROC          COMPOSITE1INPUT
  C:C70FH         LINE#         135
  C:C70FH         LINE#         136
  C:C70FH         LINE#         137
  C:C718H         LINE#         138
  C:C71EH         LINE#         139
  -------         ENDPROC       COMPOSITE1INPUT
  -------         PROC          COMPOSITE2INPUT
  C:C72BH         LINE#         153
  C:C72BH         LINE#         154
  C:C72BH         LINE#         155
  C:C734H         LINE#         156
  C:C73AH         LINE#         157
  -------         ENDPROC       COMPOSITE2INPUT
  -------         PROC          COMPOSITE3INPUT
  C:C747H         LINE#         160
  C:C747H         LINE#         161
  C:C747H         LINE#         162
  C:C750H         LINE#         163
  C:C756H         LINE#         164
  -------         ENDPROC       COMPOSITE3INPUT
  -------         PROC          ON_LVDS
  C:CA42H         LINE#         339
  C:CA42H         LINE#         340
  C:CA42H         LINE#         350
  -------         ENDPROC       ON_LVDS
  -------         PROC          OFF_LVDS
  C:CA43H         LINE#         352
  C:CA43H         LINE#         353
  C:CA43H         LINE#         364
  -------         ENDPROC       OFF_LVDS
  C:9FCBH         SYMBOL        L?0042
  -------         PROC          _LCDPOWERON
  X:0012H         SYMBOL        mute
  C:9F22H         LINE#         366
  C:9F27H         LINE#         367
  C:9F27H         LINE#         369
  C:9F3CH         LINE#         372
  C:9F41H         LINE#         383
  C:9F49H         LINE#         384
  C:9F49H         LINE#         390
  C:9F4CH         LINE#         395
  C:9F4EH         LINE#         399
  C:9F53H         LINE#         400
  C:9F58H         LINE#         402
  C:9F5DH         LINE#         407
  C:9F62H         LINE#         408
  C:9F65H         LINE#         411
  C:9F6EH         LINE#         439
  C:9F73H         LINE#         443
  C:9F79H         LINE#         446
  C:9F82H         LINE#         447
  C:9F89H         LINE#         448
  C:9F92H         LINE#         450
BL51 BANKED LINKER/LOCATER V6.22                                                      12/15/2017  13:23:50  PAGE 137


  C:9F92H         LINE#         451
  C:9F9EH         LINE#         452
  C:9F9EH         LINE#         454
  C:9FA0H         LINE#         455
  C:9FA7H         LINE#         456
  C:9FAAH         LINE#         457
  C:9FB1H         LINE#         458
  C:9FB4H         LINE#         460
  C:9FCAH         LINE#         469
  C:9FCAH         LINE#         471
  -------         ENDPROC       _LCDPOWERON
  -------         PROC          LCDPOWER
  -------         DO            
  X:015CH         SYMBOL        state
  -------         ENDDO         
  C:C0ADH         LINE#         526
  C:C0ADH         LINE#         527
  C:C0ADH         LINE#         532
  C:C0B4H         LINE#         533
  C:C0B6H         LINE#         534
  C:C0B9H         LINE#         535
  C:C0BEH         LINE#         537
  C:C0C4H         LINE#         538
  C:C0C6H         LINE#         540
  C:C0C6H         LINE#         542
  C:C0CBH         LINE#         543
  C:C0D0H         LINE#         550
  C:C0D6H         LINE#         551
  C:C0DBH         LINE#         553
  C:C0E4H         LINE#         554
  C:C0E4H         LINE#         555
  -------         ENDPROC       LCDPOWER
  -------         PROC          _MAPPING1
  X:0023H         SYMBOL        fromValue
  X:0025H         SYMBOL        fromRange
  X:0028H         SYMBOL        toValue
  X:002BH         SYMBOL        toRange
  -------         DO            
  X:002EH         SYMBOL        a
  X:0030H         SYMBOL        b
  -------         ENDDO         
  C:A279H         LINE#         1766
  C:A285H         LINE#         1767
  C:A285H         LINE#         1774
  C:A297H         LINE#         1775
  C:A2ABH         LINE#         1776
  C:A2BDH         LINE#         1778
  C:A2C4H         LINE#         1780
  C:A2D4H         LINE#         1781
  C:A2D7H         LINE#         1782
  C:A2D7H         LINE#         1783
  C:A2E0H         LINE#         1784
  C:A2E6H         LINE#         1786
  C:A2EDH         LINE#         1788
  C:A31BH         LINE#         1789
  C:A31BH         LINE#         1796
  C:A31DH         LINE#         1798
BL51 BANKED LINKER/LOCATER V6.22                                                      12/15/2017  13:23:50  PAGE 138


  -------         ENDPROC       _MAPPING1
  -------         ENDMOD        TW88

  -------         MODULE        UDFONT
  C:0000H         SYMBOL        _ICE_DUMMY_
  C:1887H         PUBLIC        OSD_Color_LookUp_Data_Table
  C:1897H         PUBLIC        RAMFONTDATA
  -------         ENDMOD        UDFONT

  -------         MODULE        HS_KEYREMO
  C:0000H         SYMBOL        _ICE_DUMMY_
  D:00E8H         PUBLIC        P4
  C:7B74H         PUBLIC        JumpTable
  B:0023H.1       PUBLIC        ParkFlag
  B:0080H.1       PUBLIC        P0_1
  B:0080H.2       PUBLIC        P0_2
  B:0080H.3       PUBLIC        P0_3
  B:0023H.2       PUBLIC        AVFlag
  X:0125H         PUBLIC        SelectBoxMode
  C:A8A1H         PUBLIC        SetSelectMode
  C:63DFH         PUBLIC        _TriggerHandler
  C:0026H         PUBLIC        SetRightSource
  C:B7EAH         PUBLIC        _SetSourceMode
  C:BE27H         PUBLIC        SetRearSource
  X:0126H         PUBLIC        TimeStep
  C:000EH         PUBLIC        SetLeftSource
  C:AEC7H         PUBLIC        CheckTrigger
  C:7B98H         PUBLIC        JumpTable_S
  X:0127H         PUBLIC        Attr_A
  X:0128H         PUBLIC        Attr_B
  X:0129H         PUBLIC        Attr_C
  X:012AH         PUBLIC        NowModeState
  X:012BH         PUBLIC        Gauge_Flag
  X:012CH         PUBLIC        Attr_R
  C:B88FH         PUBLIC        SetJumpMode
  B:0023H.3       PUBLIC        VGAAudio
  C:7B94H         PUBLIC        SEQTable
  X:012DH         PUBLIC        TriggerFlag
  X:012EH         PUBLIC        SelectBoxADC
  C:B239H         PUBLIC        _CheckSourceMode
  C:9E6CH         PUBLIC        CheckMirror
  X:012FH         PUBLIC        TriggerMode
  X:0130H         PUBLIC        SEQIndex
  X:0131H         PUBLIC        SEQFlag
  C:C1B6H         PUBLIC        SetNowMode
  C:7B8CH         PUBLIC        RightTable
  X:0132H         PUBLIC        AV_MODE_DELAY
  C:C182H         PUBLIC        SEQMode
  C:7B82H         PUBLIC        RearTable
  C:7B90H         PUBLIC        LeftTable
  C:7B53H         PUBLIC        ParkTable
  C:BEDFH         SYMBOL        Com00AA
  C:BEDFH         SYMBOL        L?0171
  C:BEF0H         SYMBOL        L?0173
  C:BEFCH         SYMBOL        L?0174
  C:BF00H         SYMBOL        L?0175
  C:BF07H         SYMBOL        L?0180
BL51 BANKED LINKER/LOCATER V6.22                                                      12/15/2017  13:23:50  PAGE 139


  C:BF11H         SYMBOL        L?0181
  -------         PROC          COM00AA
  -------         ENDPROC       COM00AA
  -------         PROC          _SETSOURCEMODE
  D:0007H         SYMBOL        Index
  D:0005H         SYMBOL        attr0
  D:0003H         SYMBOL        attr1
  X:0156H         SYMBOL        attr2
  X:0157H         SYMBOL        attr3
  C:B7EAH         LINE#         209
  C:B7EAH         LINE#         210
  C:B7EAH         LINE#         211
  C:B7F5H         LINE#         212
  C:B7F5H         LINE#         213
  C:B7F5H         LINE#         214
  C:B7F5H         LINE#         215
  C:B7F5H         LINE#         216
  C:B7F5H         LINE#         217
  C:B7F5H         LINE#         218
  C:B7F5H         LINE#         219
  C:B7F5H         LINE#         220
  C:B7F5H         LINE#         221
  C:B7F5H         LINE#         222
  C:B7F5H         LINE#         223
  C:B7F5H         LINE#         224
  C:B7F5H         LINE#         230
  C:B7F5H         LINE#         231
  C:B7F5H         LINE#         232
  C:B7F5H         LINE#         233
  C:B7F5H         LINE#         234
  C:B7F5H         LINE#         235
  C:B7F5H         LINE#         236
  C:B7F5H         LINE#         237
  C:B7F5H         LINE#         238
  C:B7F5H         LINE#         239
  C:B7F5H         LINE#         240
  C:B7F5H         LINE#         241
  C:B7F5H         LINE#         242
  C:B7F5H         LINE#         243
  C:B7F5H         LINE#         244
  C:B7F5H         LINE#         245
  C:B7F5H         LINE#         246
  C:B7F5H         LINE#         247
  C:B7F5H         LINE#         248
  C:B7F5H         LINE#         249
  C:B7F5H         LINE#         258
  C:B80EH         LINE#         259
  C:B813H         LINE#         260
  C:B818H         LINE#         322
  C:B819H         LINE#         342
  C:B819H         LINE#         344
  C:B820H         LINE#         345
  C:B820H         LINE#         346
  C:B822H         LINE#         347
  C:B827H         LINE#         348
  C:B82DH         LINE#         349
  C:B82EH         LINE#         351
BL51 BANKED LINKER/LOCATER V6.22                                                      12/15/2017  13:23:50  PAGE 140


  C:B82EH         LINE#         352
  C:B834H         LINE#         353
  C:B839H         LINE#         355
  C:B839H         LINE#         359
  C:B839H         LINE#         361
  C:B839H         LINE#         362
  C:B839H         LINE#         363
  C:B839H         LINE#         364
  C:B83CH         LINE#         365
  C:B83CH         LINE#         366
  C:B83CH         LINE#         367
  -------         ENDPROC       _SETSOURCEMODE
  -------         PROC          SETSELECTMODE
  C:A8A1H         LINE#         558
  C:A8A1H         LINE#         559
  C:A8A1H         LINE#         560
  C:A8A6H         LINE#         561
  C:A8ADH         LINE#         562
  C:A8ADH         LINE#         563
  C:A8AFH         LINE#         565
  C:A8B7H         LINE#         567
  C:A8B7H         LINE#         573
  C:A8BAH         LINE#         574
  C:A8BAH         LINE#         576
  C:A8BDH         LINE#         577
  C:A8BDH         LINE#         578
  C:A8C5H         LINE#         580
  C:A8C8H         LINE#         581
  C:A8CAH         LINE#         582
  C:A8CAH         LINE#         583
  C:A8CCH         LINE#         585
  C:A8CCH         LINE#         587
  C:A8D5H         LINE#         591
  C:A8DAH         LINE#         593
  C:A8E0H         LINE#         595
  C:A8E8H         LINE#         596
  C:A8E8H         LINE#         599
  C:A8EEH         LINE#         602
  C:A8F0H         LINE#         606
  C:A8F0H         LINE#         610
  C:A8F9H         LINE#         614
  C:A8FEH         LINE#         616
  C:A904H         LINE#         618
  C:A90CH         LINE#         621
  C:A915H         LINE#         624
  C:A915H         LINE#         626
  C:A923H         LINE#         627
  C:A92AH         LINE#         628
  C:A930H         LINE#         629
  -------         ENDPROC       SETSELECTMODE
  -------         PROC          _CHECKSOURCEMODE
  D:0007H         SYMBOL        sorce
  C:B239H         LINE#         636
  C:B239H         LINE#         637
  C:B239H         LINE#         638
  C:B249H         LINE#         639
  C:B249H         LINE#         640
BL51 BANKED LINKER/LOCATER V6.22                                                      12/15/2017  13:23:50  PAGE 141


  C:B249H         LINE#         642
  C:B252H         LINE#         644
  C:B254H         LINE#         645
  C:B256H         LINE#         656
  C:B256H         LINE#         659
  C:B25FH         LINE#         661
  C:B261H         LINE#         665
  C:B263H         LINE#         667
  C:B263H         LINE#         670
  C:B26CH         LINE#         672
  C:B271H         LINE#         676
  C:B273H         LINE#         678
  C:B273H         LINE#         679
  C:B273H         LINE#         680
  C:B273H         LINE#         681
  C:B276H         LINE#         682
  C:B279H         LINE#         683
  C:B279H         LINE#         684
  C:B279H         LINE#         688
  C:B287H         LINE#         689
  C:B28EH         LINE#         691
  -------         ENDPROC       _CHECKSOURCEMODE
  -------         PROC          SEQMODE
  -------         DO            
  X:0001H         SYMBOL        val
  -------         ENDDO         
  C:C182H         LINE#         714
  C:C182H         LINE#         715
  C:C182H         LINE#         723
  C:C18AH         LINE#         730
  C:C190H         LINE#         731
  C:C198H         LINE#         733
  C:C19EH         LINE#         735
  C:C1ABH         LINE#         740
  C:C1AFH         LINE#         745
  C:C1B5H         LINE#         747
  -------         ENDPROC       SEQMODE
  -------         PROC          SETJUMPMODE
  -------         DO            
  X:0004H         SYMBOL        val
  -------         ENDDO         
  C:B88FH         LINE#         749
  C:B88FH         LINE#         750
  C:B88FH         LINE#         753
  C:B896H         LINE#         754
  C:B896H         LINE#         755
  C:B8A2H         LINE#         764
  C:B8A7H         LINE#         769
  C:B8A9H         LINE#         771
  C:B8A9H         LINE#         773
  C:B8AEH         LINE#         778
  C:B8B6H         LINE#         781
  C:B8C9H         LINE#         786
  C:B8C9H         LINE#         787
  C:B8CFH         LINE#         790
  C:B8D9H         LINE#         791
  C:B8DFH         LINE#         793
BL51 BANKED LINKER/LOCATER V6.22                                                      12/15/2017  13:23:50  PAGE 142


  -------         ENDPROC       SETJUMPMODE
  C:9EE3H         SYMBOL        L?0163
  C:9EF0H         SYMBOL        L?0164
  C:9EFBH         SYMBOL        L?0165
  C:9F0CH         SYMBOL        L?0166
  C:9F17H         SYMBOL        L?0177
  -------         PROC          CHECKMIRROR
  -------         DO            
  X:0017H         SYMBOL        val
  -------         ENDDO         
  C:9E6CH         LINE#         799
  C:9E6CH         LINE#         800
  C:9E6CH         LINE#         803
  C:9E7EH         LINE#         804
  C:9E7EH         LINE#         805
  C:9E7EH         LINE#         806
  C:9E80H         LINE#         807
  C:9E85H         LINE#         808
  C:9E85H         LINE#         809
  C:9E85H         LINE#         810
  C:9E88H         LINE#         812
  C:9E8AH         LINE#         813
  C:9E8AH         LINE#         814
  C:9E8AH         LINE#         816
  C:9E8DH         LINE#         818
  C:9E8DH         LINE#         819
  C:9E8DH         LINE#         820
  C:9E90H         LINE#         822
  C:9E92H         LINE#         823
  C:9E92H         LINE#         824
  C:9E92H         LINE#         826
  C:9E92H         LINE#         827
  C:9E94H         LINE#         829
  C:9E94H         LINE#         830
  C:9E96H         LINE#         831
  C:9E9BH         LINE#         832
  C:9E9BH         LINE#         833
  C:9E9BH         LINE#         834
  C:9E9EH         LINE#         836
  C:9EA0H         LINE#         837
  C:9EA0H         LINE#         838
  C:9EA0H         LINE#         839
  C:9EA2H         LINE#         841
  C:9EA2H         LINE#         842
  C:9EA2H         LINE#         843
  C:9EA5H         LINE#         845
  C:9EA7H         LINE#         846
  C:9EA7H         LINE#         847
  C:9EA7H         LINE#         848
  C:9EA7H         LINE#         849
  C:9EA9H         LINE#         851
  C:9EA9H         LINE#         852
  C:9EB5H         LINE#         853
  C:9EBDH         LINE#         854
  C:9EBDH         LINE#         855
  C:9EBDH         LINE#         856
  C:9EC0H         LINE#         858
BL51 BANKED LINKER/LOCATER V6.22                                                      12/15/2017  13:23:50  PAGE 143


  C:9EC2H         LINE#         859
  C:9EC2H         LINE#         860
  C:9EC2H         LINE#         863
  C:9EC4H         LINE#         865
  C:9EC4H         LINE#         866
  C:9EC4H         LINE#         867
  C:9EC7H         LINE#         869
  C:9EC9H         LINE#         870
  C:9EC9H         LINE#         871
  C:9EC9H         LINE#         873
  C:9EC9H         LINE#         874
  C:9ECBH         LINE#         876
  C:9ECBH         LINE#         877
  C:9ECFH         LINE#         878
  C:9ED2H         LINE#         880
  C:9ED6H         LINE#         881
  C:9ED9H         LINE#         882
  C:9EE2H         LINE#         883
  C:9EE2H         LINE#         884
  C:9EE2H         LINE#         885
  -------         ENDPROC       CHECKMIRROR
  -------         PROC          SETNOWMODE
  -------         DO            
  D:0007H         SYMBOL        val
  -------         ENDDO         
  C:C1B6H         LINE#         888
  C:C1B6H         LINE#         889
  C:C1B6H         LINE#         891
  C:C1C5H         LINE#         892
  C:C1CBH         LINE#         893
  C:C1CBH         LINE#         898
  C:C1D3H         LINE#         900
  C:C1D8H         LINE#         901
  C:C1D9H         LINE#         903
  C:C1D9H         LINE#         904
  C:C1E0H         LINE#         913
  C:C1E9H         LINE#         915
  C:C1E9H         LINE#         916
  -------         ENDPROC       SETNOWMODE
  -------         PROC          SETREARSOURCE
  C:BE27H         LINE#         918
  C:BE27H         LINE#         919
  C:BE27H         LINE#         927
  C:BE2CH         LINE#         938
  C:BE33H         LINE#         941
  C:BE33H         LINE#         970
  C:BE3CH         LINE#         971
  C:BE45H         LINE#         972
  C:BE4EH         LINE#         974
  C:BE4EH         LINE#         977
  C:BE61H         LINE#         978
  C:BE64H         LINE#         980
  -------         ENDPROC       SETREARSOURCE
  -------         PROC          SETLEFTSOURCE
  C:000EH         LINE#         982
  C:000EH         LINE#         983
  C:000EH         LINE#         994
BL51 BANKED LINKER/LOCATER V6.22                                                      12/15/2017  13:23:50  PAGE 144


  -------         ENDPROC       SETLEFTSOURCE
  -------         PROC          SETRIGHTSOURCE
  C:0026H         LINE#         998
  C:0026H         LINE#         999
  C:0026H         LINE#         1009
  -------         ENDPROC       SETRIGHTSOURCE
  -------         PROC          CHECKTRIGGER
  -------         DO            
  X:0013H         SYMBOL        TriggerFlagtemp
  X:011CH         SYMBOL        PT
  X:011DH         SYMBOL        POT
  X:011EH         SYMBOL        POTF
  X:011FH         SYMBOL        CPON
  X:0120H         SYMBOL        PPON
  X:0121H         SYMBOL        BT
  X:0014H         SYMBOL        x
  -------         ENDDO         
  C:AEC7H         LINE#         1048
  C:AEC7H         LINE#         1049
  C:AEC7H         LINE#         1065
  C:AECFH         LINE#         1066
  C:AED4H         LINE#         1068
  C:AED6H         LINE#         1069
  C:AED9H         LINE#         1070
  C:AED9H         LINE#         1072
  C:AEDFH         LINE#         1073
  C:AEE2H         LINE#         1074
  C:AEE9H         LINE#         1075
  C:AEE9H         LINE#         1087
  C:AEEBH         LINE#         1088
  C:AEEEH         LINE#         1089
  C:AEEEH         LINE#         1090
  C:AEF5H         LINE#         1091
  C:AEF8H         LINE#         1092
  C:AEFFH         LINE#         1093
  C:AEFFH         LINE#         1096
  C:AF01H         LINE#         1097
  C:AF04H         LINE#         1098
  C:AF04H         LINE#         1099
  C:AF0BH         LINE#         1100
  C:AF0EH         LINE#         1101
  C:AF10H         LINE#         1103
  C:AF12H         LINE#         1105
  C:AF14H         LINE#         1142
  C:AF1BH         LINE#         1143
  C:AF1BH         LINE#         1144
  C:AF21H         LINE#         1145
  C:AF21H         LINE#         1500
  C:AF24H         LINE#         1501
  C:AF24H         LINE#         1502
  C:AF2AH         LINE#         1503
  C:AF2AH         LINE#         1504
  C:AF3CH         LINE#         1506
  C:AF3CH         LINE#         1513
  C:AF41H         LINE#         1514
  C:AF41H         LINE#         1515
  -------         ENDPROC       CHECKTRIGGER
BL51 BANKED LINKER/LOCATER V6.22                                                      12/15/2017  13:23:50  PAGE 145


  C:660BH         SYMBOL        L?0167
  C:6616H         SYMBOL        L?0168
  C:6624H         SYMBOL        L?0169
  C:6636H         SYMBOL        L?0172
  C:6640H         SYMBOL        L?0176
  C:664EH         SYMBOL        L?0178
  C:6659H         SYMBOL        L?0179
  -------         PROC          _TRIGGERHANDLER
  X:0002H         SYMBOL        T_Flag
  -------         DO            
  X:0003H         SYMBOL        i
  X:0004H         SYMBOL        ReverseMask
  X:0005H         SYMBOL        LeftMask
  X:0006H         SYMBOL        RightMask
  X:0007H         SYMBOL        CamCMask
  X:0008H         SYMBOL        CamDMask
  X:0009H         SYMBOL        VGAMask
  X:000AH         SYMBOL        delaytrigger
  X:000BH         SYMBOL        j
  -------         ENDDO         
  C:63DFH         LINE#         1518
  C:63E4H         LINE#         1519
  C:63E4H         LINE#         1538
  C:63EAH         LINE#         1539
  C:63EAH         LINE#         1540
  C:63EAH         LINE#         1541
  C:63EAH         LINE#         1542
  C:63EAH         LINE#         1543
  C:63EAH         LINE#         1544
  C:63F0H         LINE#         1545
  C:63F4H         LINE#         1546
  C:63F6H         LINE#         1548
  C:63F6H         LINE#         1550
  C:63F7H         LINE#         1551
  C:63F7H         LINE#         1552
  C:63F7H         LINE#         1553
  C:63F7H         LINE#         1555
  C:63FDH         LINE#         1556
  C:6401H         LINE#         1557
  C:6401H         LINE#         1579
  C:6412H         LINE#         1580
  C:6412H         LINE#         1581
  C:641DH         LINE#         1582
  C:641DH         LINE#         1587
  C:6424H         LINE#         1589
  C:6424H         LINE#         1590
  C:6424H         LINE#         1591
  C:6424H         LINE#         1592
  C:6427H         LINE#         1596
  C:6427H         LINE#         1599
  C:642AH         LINE#         1600
  C:642AH         LINE#         1601
  C:642CH         LINE#         1603
  C:642CH         LINE#         1606
  C:6433H         LINE#         1607
  C:6439H         LINE#         1608
  C:643CH         LINE#         1609
BL51 BANKED LINKER/LOCATER V6.22                                                      12/15/2017  13:23:50  PAGE 146


  C:6442H         LINE#         1611
  C:6443H         LINE#         1613
  C:6443H         LINE#         1616
  C:6454H         LINE#         1617
  C:6454H         LINE#         1618
  C:645FH         LINE#         1619
  C:645FH         LINE#         1624
  C:6466H         LINE#         1626
  C:6466H         LINE#         1627
  C:6466H         LINE#         1628
  C:6466H         LINE#         1629
  C:6469H         LINE#         1633
  C:6469H         LINE#         1636
  C:646CH         LINE#         1637
  C:646CH         LINE#         1638
  C:646EH         LINE#         1640
  C:646EH         LINE#         1642
  C:6475H         LINE#         1643
  C:6478H         LINE#         1644
  C:647EH         LINE#         1645
  C:6481H         LINE#         1646
  C:6483H         LINE#         1649
  C:6486H         LINE#         1650
  C:6492H         LINE#         1651
  C:6492H         LINE#         1655
  C:6494H         LINE#         1657
  C:6494H         LINE#         1659
  C:64A5H         LINE#         1660
  C:64A5H         LINE#         1661
  C:64B0H         LINE#         1662
  C:64B0H         LINE#         1667
  C:64B7H         LINE#         1669
  C:64B7H         LINE#         1670
  C:64BAH         LINE#         1671
  C:64BDH         LINE#         1672
  C:64C0H         LINE#         1676
  C:64C0H         LINE#         1679
  C:64C3H         LINE#         1680
  C:64C3H         LINE#         1681
  C:64C5H         LINE#         1683
  C:64C5H         LINE#         1686
  C:64CCH         LINE#         1687
  C:64CFH         LINE#         1688
  C:64D5H         LINE#         1689
  C:64D8H         LINE#         1690
  C:64DAH         LINE#         1693
  C:64DDH         LINE#         1694
  C:64DFH         LINE#         1695
  C:64E5H         LINE#         1698
  C:64E5H         LINE#         1700
  C:64E5H         LINE#         1775
  C:64F0H         LINE#         1776
  C:64F0H         LINE#         1777
  C:64F7H         LINE#         1780
  C:64F7H         LINE#         1784
  C:64FAH         LINE#         1785
  C:64FAH         LINE#         1786
BL51 BANKED LINKER/LOCATER V6.22                                                      12/15/2017  13:23:50  PAGE 147


  C:64FCH         LINE#         1788
  C:64FFH         LINE#         1791
  C:64FFH         LINE#         1794
  C:650EH         LINE#         1795
  C:650EH         LINE#         1796
  C:650EH         LINE#         1797
  C:6510H         LINE#         1798
  C:6512H         LINE#         1800
  C:6512H         LINE#         1801
  C:6514H         LINE#         1802
  C:6516H         LINE#         1804
  C:6516H         LINE#         1805
  C:651BH         LINE#         1806
  C:651DH         LINE#         1818
  C:651DH         LINE#         1819
  C:651DH         LINE#         1820
  C:651DH         LINE#         1821
  C:651DH         LINE#         1822
  C:6522H         LINE#         1823
  C:6522H         LINE#         1824
  C:6522H         LINE#         1827
  C:652CH         LINE#         1828
  C:652CH         LINE#         1829
  C:6531H         LINE#         1830
  C:6531H         LINE#         1831
  C:6534H         LINE#         1833
  C:653DH         LINE#         1835
  C:653DH         LINE#         1836
  C:6542H         LINE#         1837
  C:654AH         LINE#         1853
  C:6552H         LINE#         1854
  C:6552H         LINE#         1855
  C:6555H         LINE#         1856
  C:655EH         LINE#         1857
  C:6560H         LINE#         1858
  C:6566H         LINE#         1859
  C:6566H         LINE#         1872
  C:6566H         LINE#         1920
  C:6566H         LINE#         1921
  C:656CH         LINE#         1922
  C:656FH         LINE#         1927
  C:656FH         LINE#         1946
  C:6576H         LINE#         1947
  C:6576H         LINE#         1948
  C:657BH         LINE#         1949
  C:6584H         LINE#         1950
  C:6589H         LINE#         1951
  C:65A2H         LINE#         1952
  C:65A2H         LINE#         1954
  C:65A4H         LINE#         1957
  C:65AAH         LINE#         1958
  C:65ADH         LINE#         1963
  C:65B7H         LINE#         1964
  C:65BDH         LINE#         1966
  C:65BDH         LINE#         1986
  C:65BDH         LINE#         1993
  C:65C0H         LINE#         1994
BL51 BANKED LINKER/LOCATER V6.22                                                      12/15/2017  13:23:50  PAGE 148


  C:65C0H         LINE#         1995
  C:65C2H         LINE#         1999
  C:65CAH         LINE#         2001
  C:65CAH         LINE#         2004
  C:65D3H         LINE#         2006
  C:65D8H         LINE#         2007
  C:65E0H         LINE#         2008
  C:65E0H         LINE#         2009
  C:65E5H         LINE#         2010
  C:65E5H         LINE#         2011
  C:65E8H         LINE#         2012
  C:65EEH         LINE#         2014
  C:65EEH         LINE#         2015
  C:65F3H         LINE#         2016
  C:65FBH         LINE#         2019
  C:6607H         LINE#         2020
  C:660AH         LINE#         2021
  C:660AH         LINE#         2022
  C:660AH         LINE#         2027
  -------         ENDPROC       _TRIGGERHANDLER
  -------         ENDMOD        HS_KEYREMO

  -------         MODULE        HS_DISPLAYOSD
  C:0000H         SYMBOL        _ICE_DUMMY_
  C:C8ECH         PUBLIC        ClearGAUGEINFO
  C:941EH         PUBLIC        GaugeString1
  C:9422H         PUBLIC        GaugeString2
  C:9426H         PUBLIC        GaugeString3
  C:942AH         PUBLIC        GaugeString4
  C:942EH         PUBLIC        GaugeString5
  C:9442H         PUBLIC        GaugeString6
  C:945AH         PUBLIC        GaugeString7
  C:920DH         PUBLIC        DisplayGaugeOSD
  C:9472H         PUBLIC        Init_Osd_DisplayGAUGEWindow
  B:0024H.3       PUBLIC        Init_DisplayInput
  C:940CH         PUBLIC        GaugeString
  C:8D1CH         PUBLIC        _DisplayInformation
  C:BF57H         SYMBOL        Com001C
  C:BF57H         SYMBOL        L?0029
  C:BF5BH         SYMBOL        L?0030
  C:BF5DH         SYMBOL        L?0031
  C:BF64H         SYMBOL        L?0032
  C:BF6DH         SYMBOL        L?0033
  C:BF76H         SYMBOL        L?0035
  C:BF7FH         SYMBOL        L?0036
  C:BF86H         SYMBOL        L?0037
  -------         PROC          COM001C
  -------         ENDPROC       COM001C
  -------         PROC          DISPLAYGAUGEOSD
  -------         DO            
  X:000CH         SYMBOL        i
  -------         ENDDO         
  C:920DH         LINE#         118
  C:920DH         LINE#         152
  C:920DH         LINE#         164
  C:9216H         LINE#         172
  C:923CH         LINE#         181
BL51 BANKED LINKER/LOCATER V6.22                                                      12/15/2017  13:23:50  PAGE 149


  C:9247H         LINE#         182
  C:9257H         LINE#         183
  C:926AH         LINE#         185
  C:9275H         LINE#         186
  C:927FH         LINE#         187
  C:928DH         LINE#         189
  C:9295H         LINE#         190
  C:929BH         LINE#         192
  C:92ACH         LINE#         194
  C:92B7H         LINE#         195
  C:92C1H         LINE#         196
  C:92D1H         LINE#         234
  C:92D6H         LINE#         239
  C:92DBH         LINE#         240
  C:92DEH         LINE#         243
  C:92E5H         LINE#         244
  C:92EAH         LINE#         245
  -------         ENDPROC       DISPLAYGAUGEOSD
  -------         PROC          CLEARGAUGEINFO
  C:C8ECH         LINE#         249
  C:C8ECH         LINE#         250
  C:C8ECH         LINE#         251
  C:C8F3H         LINE#         252
  C:C8FAH         LINE#         253
  -------         ENDPROC       CLEARGAUGEINFO
  C:8E1DH         SYMBOL        L?0034
  -------         PROC          _DISPLAYINFORMATION
  X:0004H         SYMBOL        info
  -------         DO            
  C:9485H         SYMBOL        Str_LOCK_Mirror
  C:949DH         SYMBOL        Str_ACTIVE_Mirror
  -------         ENDDO         
  C:8D1CH         LINE#         324
  C:8D21H         LINE#         325
  C:8D21H         LINE#         332
  C:8D2AH         LINE#         338
  C:8D33H         LINE#         340
  C:8D51H         LINE#         341
  C:8D51H         LINE#         342
  C:8D51H         LINE#         344
  C:8D59H         LINE#         345
  C:8D59H         LINE#         346
  C:8D5CH         LINE#         347
  C:8D65H         LINE#         348
  C:8D68H         LINE#         350
  C:8D68H         LINE#         351
  C:8D6BH         LINE#         352
  C:8D74H         LINE#         353
  C:8D74H         LINE#         358
  C:8D77H         LINE#         360
  C:8D77H         LINE#         362
  C:8D7FH         LINE#         363
  C:8D7FH         LINE#         364
  C:8D82H         LINE#         365
  C:8D8BH         LINE#         366
  C:8D8DH         LINE#         368
  C:8D8DH         LINE#         369
BL51 BANKED LINKER/LOCATER V6.22                                                      12/15/2017  13:23:50  PAGE 150


  C:8D90H         LINE#         370
  C:8D99H         LINE#         371
  C:8D99H         LINE#         376
  C:8D9BH         LINE#         450
  C:8D9BH         LINE#         451
  C:8D9EH         LINE#         452
  C:8DACH         LINE#         453
  C:8DAEH         LINE#         455
  C:8DAEH         LINE#         456
  C:8DB1H         LINE#         457
  C:8DBCH         LINE#         458
  C:8DBEH         LINE#         460
  C:8DBEH         LINE#         461
  C:8DC8H         LINE#         462
  C:8DD1H         LINE#         463
  C:8DD3H         LINE#         466
  C:8DD3H         LINE#         468
  C:8DDAH         LINE#         469
  C:8DE1H         LINE#         471
  C:8DE8H         LINE#         476
  C:8DF2H         LINE#         477
  C:8DF5H         LINE#         478
  C:8E03H         LINE#         485
  C:8E03H         LINE#         487
  C:8E03H         LINE#         489
  C:8E08H         LINE#         490
  C:8E0FH         LINE#         491
  C:8E14H         LINE#         492
  C:8E1DH         LINE#         493
  -------         ENDPROC       _DISPLAYINFORMATION
  -------         ENDMOD        HS_DISPLAYOSD

  -------         MODULE        AUDIO
  C:0000H         SYMBOL        _ICE_DUMMY_
  D:00E8H         PUBLIC        P4
  C:C9C8H         PUBLIC        AudioMute
  B:0090H.7       PUBLIC        P1_7
  X:0161H         PUBLIC        AudioVol
  X:0162H         PUBLIC        PCAudioVol
  C:88B5H         PUBLIC        _ChangeVol
  -------         PROC          AUDIOMUTE
  B:0024H.1       SYMBOL        mute
  C:C9C8H         LINE#         288
  C:C9C8H         LINE#         289
  C:C9C8H         LINE#         305
  C:C9CBH         LINE#         306
  C:C9CEH         LINE#         308
  C:C9D0H         LINE#         317
  -------         ENDPROC       AUDIOMUTE
  C:89BEH         SYMBOL        L?0028
  C:89CEH         SYMBOL        L?0029
  -------         PROC          _CHANGEVOL
  D:0007H         SYMBOL        amount
  -------         DO            
  D:0006H         SYMBOL        chg
  X:0012H         SYMBOL        VCOM
  X:0013H         SYMBOL        AudioTemp
BL51 BANKED LINKER/LOCATER V6.22                                                      12/15/2017  13:23:50  PAGE 151


  -------         ENDDO         
  C:88B5H         LINE#         319
  C:88B5H         LINE#         320
  C:88B5H         LINE#         322
  C:88B7H         LINE#         327
  C:88BAH         LINE#         328
  C:88BAH         LINE#         329
  C:88BDH         LINE#         330
  C:88BFH         LINE#         332
  C:88BFH         LINE#         333
  C:88C7H         LINE#         334
  C:88C7H         LINE#         336
  C:88D3H         LINE#         337
  C:88D7H         LINE#         339
  C:88DCH         LINE#         341
  C:88E4H         LINE#         342
  C:88E4H         LINE#         343
  C:8906H         LINE#         344
  C:8908H         LINE#         345
  C:890AH         LINE#         347
  C:890AH         LINE#         348
  C:8921H         LINE#         349
  C:8923H         LINE#         350
  C:8923H         LINE#         352
  C:8926H         LINE#         353
  C:8926H         LINE#         354
  C:892CH         LINE#         356
  C:893DH         LINE#         357
  C:8945H         LINE#         359
  C:8958H         LINE#         361
  C:895DH         LINE#         363
  C:8969H         LINE#         365
  C:896EH         LINE#         373
  C:8978H         LINE#         375
  C:8978H         LINE#         392
  C:8982H         LINE#         395
  C:898EH         LINE#         396
  C:8992H         LINE#         398
  C:8997H         LINE#         400
  C:899FH         LINE#         401
  C:899FH         LINE#         402
  C:89A3H         LINE#         403
  C:89A6H         LINE#         404
  C:89A8H         LINE#         406
  C:89A8H         LINE#         407
  C:89ACH         LINE#         408
  C:89AFH         LINE#         409
  C:89AFH         LINE#         411
  C:89B2H         LINE#         412
  C:89B8H         LINE#         414
  C:89BDH         LINE#         416
  -------         ENDPROC       _CHANGEVOL
  -------         ENDMOD        AUDIO

  -------         MODULE        DEBUG
  C:0000H         SYMBOL        _ICE_DUMMY_
  D:00E8H         PUBLIC        P4
BL51 BANKED LINKER/LOCATER V6.22                                                      12/15/2017  13:23:50  PAGE 152


  -------         ENDMOD        DEBUG

  -------         MODULE        HS_DVRPROTOCOL
  C:0000H         SYMBOL        _ICE_DUMMY_
  X:0061H         PUBLIC        PresetMode
  B:0022H.1       PUBLIC        FormatStart
  X:0062H         PUBLIC        second
  X:0063H         PUBLIC        UpdateOK
  B:0022H.2       PUBLIC        SpeedDomeMode
  D:00E8H         PUBLIC        P4
  X:0064H         PUBLIC        DVR_Resolution
  X:0065H         PUBLIC        DVR_timebeginesmonth
  X:0066H         PUBLIC        Information
  X:0074H         PUBLIC        DVR_timebeginesweek
  X:0075H         PUBLIC        minute
  X:0076H         PUBLIC        DVR_RecordLength
  B:0022H.3       PUBLIC        DoorState
  X:0077H         PUBLIC        CommandBuffer
  X:0079H         PUBLIC        month
  X:007AH         PUBLIC        InformationLen
  B:0022H.4       PUBLIC        GetDVRStatusflag
  X:007BH         PUBLIC        DVR_daylightsaving
  X:007CH         PUBLIC        DVR_FPS
  X:007DH         PUBLIC        DVR_RecordMode
  X:007EH         PUBLIC        DVR_RecordStatus
  X:007FH         PUBLIC        DVR_Quality
  X:0080H         PUBLIC        day
  X:0081H         PUBLIC        hour
  B:0022H.5       PUBLIC        DVR_Ready
  X:0082H         PUBLIC        DVR_standardtimebeginesWeek
  X:0083H         PUBLIC        DVR_standardtimebeginesTime
  C:AD54H         PUBLIC        Send_PelcoD_Command
  X:0084H         PUBLIC        DVR_PostAlarmLength
  X:0085H         PUBLIC        DVR_PreAlarmLength
  D:008DH         PUBLIC        TH1
  X:0086H         PUBLIC        DVR_sandardtimebeginesMonth
  C:6D75H         PUBLIC        _CAM_TxCommand_toRS485
  X:0087H         PUBLIC        SerialNumber
  X:0088H         PUBLIC        DVR_System
  C:ABD9H         PUBLIC        Send_PelcoP_Command
  X:0089H         PUBLIC        DVRVersion
  X:009AH         PUBLIC        TriggerStatus
  X:009BH         PUBLIC        PresetNumber
  X:009CH         PUBLIC        year1
  X:009DH         PUBLIC        year2
  X:009EH         PUBLIC        DVR_SDCardAvailable
  D:00BAH         PUBLIC        S2BRT
  X:009FH         PUBLIC        GPSState
  X:00A0H         PUBLIC        DVR_Busy
  X:00A1H         PUBLIC        DVR_timebeginesTime
  X:00A2H         PUBLIC        FormatStatus
  X:00A3H         PUBLIC        DVRVersionLen
  X:00A4H         PUBLIC        gb_P_Com
  X:00A6H         PUBLIC        DVR_OverWrite
  X:00A7H         PUBLIC        gb_PTZ_Speed
  X:00A8H         PUBLIC        DVR_TimeZone
  C:C0E5H         SYMBOL        Com005D
BL51 BANKED LINKER/LOCATER V6.22                                                      12/15/2017  13:23:50  PAGE 153


  C:C0E5H         SYMBOL        L?0094
  C:C0E5H         SYMBOL        L?0095
  C:C0ECH         SYMBOL        L?0096
  C:C0ECH         SYMBOL        L?0097
  C:C0EFH         SYMBOL        L?0098
  C:C0F7H         SYMBOL        L?0099
  C:C0F7H         SYMBOL        L?0100
  C:C100H         SYMBOL        L?0101
  C:C100H         SYMBOL        L?0102
  C:C109H         SYMBOL        L?0103
  C:C109H         SYMBOL        L?0104
  C:C110H         SYMBOL        L?0105
  -------         PROC          COM005D
  -------         ENDPROC       COM005D
  -------         PROC          _CAM_TXCOMMAND_TORS485
  X:0004H         SYMBOL        Com_ID
  -------         DO            
  X:0005H         SYMBOL        j
  -------         ENDDO         
  C:6D75H         LINE#         994
  C:6D7AH         LINE#         995
  C:6D7AH         LINE#         1001
  C:6D8AH         LINE#         1002
  C:6D8AH         LINE#         1003
  C:6D8AH         LINE#         1005
  C:6D99H         LINE#         1006
  C:6DA6H         LINE#         1007
  C:6DACH         LINE#         1009
  C:6DB5H         LINE#         1010
  C:6DBBH         LINE#         1012
  C:6DE7H         LINE#         1013
  C:6DE7H         LINE#         1026
  C:6DE7H         LINE#         1027
  C:6DE7H         LINE#         1028
  C:6DECH         LINE#         1029
  C:6DECH         LINE#         1030
  C:6DECH         LINE#         1031
  C:6DECH         LINE#         1032
  C:6DEEH         LINE#         1040
  C:6DEEH         LINE#         1041
  C:6DF3H         LINE#         1042
  C:6DF3H         LINE#         1043
  C:6DF3H         LINE#         1044
  C:6DF3H         LINE#         1045
  C:6DF3H         LINE#         1046
  C:6DF6H         LINE#         1048
  C:6DF6H         LINE#         1049
  C:6DF6H         LINE#         1050
  C:6DFCH         LINE#         1051
  C:6DFDH         LINE#         1052
  C:6DFDH         LINE#         1053
  C:6DFDH         LINE#         1054
  C:6E00H         LINE#         1112
  C:6E00H         LINE#         1113
  C:6E00H         LINE#         1114
  C:6E05H         LINE#         1115
  C:6E05H         LINE#         1119
BL51 BANKED LINKER/LOCATER V6.22                                                      12/15/2017  13:23:50  PAGE 154


  C:6E05H         LINE#         1120
  C:6E05H         LINE#         1121
  C:6E07H         LINE#         1122
  C:6E07H         LINE#         1123
  C:6E07H         LINE#         1124
  C:6E0CH         LINE#         1125
  C:6E0CH         LINE#         1129
  C:6E0FH         LINE#         1130
  C:6E0FH         LINE#         1131
  C:6E11H         LINE#         1132
  C:6E11H         LINE#         1133
  C:6E11H         LINE#         1134
  C:6E17H         LINE#         1135
  C:6E1AH         LINE#         1136
  C:6E20H         LINE#         1138
  C:6E23H         LINE#         1139
  C:6E24H         LINE#         1140
  C:6E24H         LINE#         1141
  C:6E26H         LINE#         1142
  C:6E26H         LINE#         1143
  C:6E26H         LINE#         1144
  C:6E2CH         LINE#         1145
  C:6E2FH         LINE#         1146
  C:6E35H         LINE#         1148
  C:6E38H         LINE#         1149
  C:6E3CH         LINE#         1150
  C:6E3CH         LINE#         1151
  C:6E3EH         LINE#         1152
  C:6E3EH         LINE#         1153
  C:6E3EH         LINE#         1154
  C:6E44H         LINE#         1155
  C:6E47H         LINE#         1156
  C:6E4AH         LINE#         1157
  C:6E50H         LINE#         1159
  C:6E53H         LINE#         1160
  C:6E53H         LINE#         1161
  C:6E55H         LINE#         1162
  C:6E55H         LINE#         1163
  C:6E55H         LINE#         1164
  C:6E5BH         LINE#         1165
  C:6E5EH         LINE#         1166
  C:6E61H         LINE#         1167
  C:6E67H         LINE#         1169
  C:6E6AH         LINE#         1170
  C:6E6AH         LINE#         1171
  C:6E6CH         LINE#         1172
  C:6E6CH         LINE#         1173
  C:6E6CH         LINE#         1174
  C:6E6FH         LINE#         1175
  C:6E6FH         LINE#         1176
  C:6E73H         LINE#         1177
  C:6E73H         LINE#         1178
  C:6E75H         LINE#         1179
  C:6E75H         LINE#         1180
  C:6E7BH         LINE#         1181
  C:6E7EH         LINE#         1182
  C:6E80H         LINE#         1183
BL51 BANKED LINKER/LOCATER V6.22                                                      12/15/2017  13:23:50  PAGE 155


  C:6E82H         LINE#         1184
  C:6E85H         LINE#         1185
  C:6E85H         LINE#         1216
  C:6E85H         LINE#         1217
  C:6E85H         LINE#         1218
  C:6E85H         LINE#         1220
  C:6E94H         LINE#         1221
  C:6EA1H         LINE#         1222
  C:6EA7H         LINE#         1224
  C:6EAFH         LINE#         1226
  C:6EDBH         LINE#         1227
  C:6EDBH         LINE#         1240
  C:6EDBH         LINE#         1241
  C:6EDBH         LINE#         1242
  C:6EE0H         LINE#         1243
  C:6EE0H         LINE#         1244
  C:6EE0H         LINE#         1245
  C:6EE0H         LINE#         1246
  C:6EE2H         LINE#         1254
  C:6EE2H         LINE#         1255
  C:6EE7H         LINE#         1256
  C:6EE7H         LINE#         1257
  C:6EE7H         LINE#         1258
  C:6EE7H         LINE#         1259
  C:6EE7H         LINE#         1260
  C:6EEAH         LINE#         1262
  C:6EEAH         LINE#         1263
  C:6EEAH         LINE#         1264
  C:6EF0H         LINE#         1265
  C:6EF1H         LINE#         1266
  C:6EF1H         LINE#         1267
  C:6EF1H         LINE#         1268
  C:6EF4H         LINE#         1320
  C:6EF4H         LINE#         1321
  C:6EF4H         LINE#         1322
  C:6EFAH         LINE#         1323
  C:6EFDH         LINE#         1324
  C:6F03H         LINE#         1326
  C:6F06H         LINE#         1327
  C:6F06H         LINE#         1328
  C:6F06H         LINE#         1329
  C:6F08H         LINE#         1330
  C:6F08H         LINE#         1331
  C:6F08H         LINE#         1332
  C:6F0EH         LINE#         1333
  C:6F11H         LINE#         1334
  C:6F17H         LINE#         1336
  C:6F1AH         LINE#         1337
  C:6F1BH         LINE#         1338
  C:6F1BH         LINE#         1339
  C:6F1DH         LINE#         1340
  C:6F1DH         LINE#         1341
  C:6F1DH         LINE#         1342
  C:6F23H         LINE#         1343
  C:6F26H         LINE#         1344
  C:6F29H         LINE#         1345
  C:6F2FH         LINE#         1347
BL51 BANKED LINKER/LOCATER V6.22                                                      12/15/2017  13:23:50  PAGE 156


  C:6F32H         LINE#         1348
  C:6F32H         LINE#         1349
  C:6F34H         LINE#         1350
  C:6F34H         LINE#         1351
  C:6F34H         LINE#         1352
  C:6F3AH         LINE#         1353
  C:6F3DH         LINE#         1354
  C:6F40H         LINE#         1355
  C:6F46H         LINE#         1357
  C:6F49H         LINE#         1358
  C:6F49H         LINE#         1359
  C:6F4BH         LINE#         1360
  C:6F4BH         LINE#         1361
  C:6F4BH         LINE#         1362
  C:6F50H         LINE#         1363
  C:6F50H         LINE#         1367
  C:6F57H         LINE#         1368
  C:6F57H         LINE#         1369
  C:6F59H         LINE#         1370
  C:6F59H         LINE#         1371
  C:6F59H         LINE#         1372
  C:6F5EH         LINE#         1373
  C:6F5EH         LINE#         1377
  C:6F65H         LINE#         1378
  C:6F65H         LINE#         1379
  C:6F67H         LINE#         1380
  C:6F67H         LINE#         1381
  C:6F67H         LINE#         1382
  C:6F6AH         LINE#         1383
  C:6F6AH         LINE#         1384
  C:6F6EH         LINE#         1385
  C:6F6EH         LINE#         1386
  C:6F70H         LINE#         1387
  C:6F70H         LINE#         1388
  C:6F76H         LINE#         1389
  C:6F79H         LINE#         1390
  C:6F7BH         LINE#         1391
  C:6F7DH         LINE#         1392
  C:6F80H         LINE#         1393
  C:6F80H         LINE#         1424
  C:6F80H         LINE#         1425
  C:6F80H         LINE#         1498
  C:6F80H         LINE#         1500
  -------         ENDPROC       _CAM_TXCOMMAND_TORS485
  -------         PROC          SEND_PELCOP_COMMAND
  -------         DO            
  X:0006H         SYMBOL        ii
  D:0004H         SYMBOL        j
  -------         ENDDO         
  C:ABD9H         LINE#         1508
  C:ABD9H         LINE#         1509
  C:ABD9H         LINE#         1513
  C:ABE1H         LINE#         1514
  C:ABE3H         LINE#         1515
  C:ABFBH         LINE#         1521
  C:AC09H         LINE#         1522
  C:AC09H         LINE#         1523
BL51 BANKED LINKER/LOCATER V6.22                                                      12/15/2017  13:23:50  PAGE 157


  C:AC09H         LINE#         1524
  C:AC0CH         LINE#         1525
  C:AC0EH         LINE#         1526
  C:AC0EH         LINE#         1527
  C:AC11H         LINE#         1528
  C:AC13H         LINE#         1529
  C:AC13H         LINE#         1530
  C:AC16H         LINE#         1531
  C:AC16H         LINE#         1532
  C:AC16H         LINE#         1534
  C:AC29H         LINE#         1535
  C:AC30H         LINE#         1536
  C:AC3FH         LINE#         1537
  C:AC3FH         LINE#         1538
  C:AC47H         LINE#         1539
  C:AC4FH         LINE#         1540
  C:AC56H         LINE#         1541
  C:AC59H         LINE#         1546
  -------         ENDPROC       SEND_PELCOP_COMMAND
  -------         PROC          SEND_PELCOD_COMMAND
  -------         DO            
  X:0006H         SYMBOL        ii
  D:0007H         SYMBOL        j
  -------         ENDDO         
  C:AD54H         LINE#         1554
  C:AD54H         LINE#         1555
  C:AD54H         LINE#         1559
  C:AD5CH         LINE#         1560
  C:AD5EH         LINE#         1561
  C:AD6EH         LINE#         1563
  C:AD7CH         LINE#         1564
  C:AD7CH         LINE#         1565
  C:AD7CH         LINE#         1566
  C:AD7FH         LINE#         1567
  C:AD81H         LINE#         1568
  C:AD81H         LINE#         1569
  C:AD84H         LINE#         1570
  C:AD86H         LINE#         1571
  C:AD86H         LINE#         1572
  C:AD89H         LINE#         1573
  C:AD89H         LINE#         1574
  C:AD89H         LINE#         1576
  C:AD9FH         LINE#         1577
  C:ADA6H         LINE#         1580
  C:ADB5H         LINE#         1581
  C:ADB5H         LINE#         1582
  C:ADBDH         LINE#         1583
  C:ADC5H         LINE#         1585
  C:ADCCH         LINE#         1586
  C:ADCFH         LINE#         1589
  -------         ENDPROC       SEND_PELCOD_COMMAND
  -------         ENDMOD        HS_DVRPROTOCOL

  -------         MODULE        MONITOR
  C:0000H         SYMBOL        _ICE_DUMMY_
  D:00A0H         PUBLIC        P2
  C:974EH         PUBLIC        MonDumpI2C
BL51 BANKED LINKER/LOCATER V6.22                                                      12/15/2017  13:23:50  PAGE 158


  D:00E8H         PUBLIC        P4
  C:C624H         PUBLIC        Prompt
  C:BF1BH         PUBLIC        _stricmp
  C:BEA2H         PUBLIC        MonTxDump
  C:76BEH         PUBLIC        MonGetCommand
  C:C76EH         PUBLIC        _toupper
  C:ADD0H         PUBLIC        _MonIncDecI2C
  C:BB01H         PUBLIC        MonNewReadI2C
  B:00B0H.4       PUBLIC        P3_4
  B:0080H.7       PUBLIC        P0_7
  B:00B0H.7       PUBLIC        P3_7
  X:00ACH         PUBLIC        MonRdata
  X:00ADH         PUBLIC        argc
  X:00AEH         PUBLIC        MonWdata
  B:0023H.4       PUBLIC        AccessEnable
  B:0023H.5       PUBLIC        echo
  C:CA3EH         PUBLIC        _SetMonAddress
  C:B795H         PUBLIC        MonNewWriteI2C
  X:00AFH         PUBLIC        monstr
  X:00CDH         PUBLIC        MonIndex
  C:9CF6H         PUBLIC        MonNewDumpI2C
  X:00CEH         PUBLIC        argv
  C:A506H         PUBLIC        MonHelp
  B:0023H.6       SYMBOL        indirect
  C:902EH         PUBLIC        MonWriteBit
  C:C1EAH         PUBLIC        _Asc1Bin
  C:C042H         PUBLIC        _Asc2Bin
  C:B9CEH         PUBLIC        MonReadI2C
  C:4F3BH         PUBLIC        Monitor
  D:007CH         PUBLIC        MonAddress
  C:CA3BH         PUBLIC        _Mon_tx
  C:ACD7H         PUBLIC        MonWriteI2C
  C:AFBAH         PUBLIC        _a2i
  C:82AAH         SYMBOL        Com011B
  C:82AAH         SYMBOL        L?0284
  C:82B0H         SYMBOL        L?0285
  C:82CEH         SYMBOL        L?0286
  C:82D5H         SYMBOL        L?0292
  C:82E8H         SYMBOL        L?0293
  C:82EBH         SYMBOL        L?0294
  C:82EFH         SYMBOL        L?0295
  C:82F6H         SYMBOL        L?0300
  C:8303H         SYMBOL        L?0301
  C:8304H         SYMBOL        L?0302
  C:8307H         SYMBOL        L?0303
  C:830DH         SYMBOL        L?0305
  C:830DH         SYMBOL        L?0306
  C:8320H         SYMBOL        L?0308
  C:8320H         SYMBOL        L?0309
  C:8330H         SYMBOL        L?0310
  C:8330H         SYMBOL        L?0311
  C:8337H         SYMBOL        L?0312
  C:833EH         SYMBOL        L?0313
  C:833EH         SYMBOL        L?0314
  C:8341H         SYMBOL        L?0315
  C:8349H         SYMBOL        L?0317
  C:834CH         SYMBOL        L?0318
BL51 BANKED LINKER/LOCATER V6.22                                                      12/15/2017  13:23:50  PAGE 159


  C:8354H         SYMBOL        L?0319
  C:8354H         SYMBOL        L?0320
  C:835CH         SYMBOL        L?0322
  C:836AH         SYMBOL        L?0323
  C:8371H         SYMBOL        L?0324
  C:8371H         SYMBOL        L?0325
  C:8374H         SYMBOL        L?0326
  C:837CH         SYMBOL        L?0327
  C:8384H         SYMBOL        L?0328
  C:838BH         SYMBOL        L?0330
  C:838BH         SYMBOL        L?0331
  C:8397H         SYMBOL        L?0332
  C:8397H         SYMBOL        L?0333
  C:839FH         SYMBOL        L?0334
  C:839FH         SYMBOL        L?0335
  C:83A6H         SYMBOL        L?0336
  C:83A6H         SYMBOL        L?0337
  C:83AEH         SYMBOL        L?0339
  C:83BCH         SYMBOL        L?0341
  C:83BFH         SYMBOL        L?0342
  C:83C5H         SYMBOL        L?0343
  C:83D2H         SYMBOL        L?0344
  C:83D2H         SYMBOL        L?0345
  C:83DAH         SYMBOL        L?0346
  C:83DBH         SYMBOL        L?0347
  C:83E2H         SYMBOL        L?0348
  C:83E9H         SYMBOL        L?0349
  C:83E9H         SYMBOL        L?0350
  C:83F0H         SYMBOL        L?0351
  -------         PROC          COM011B
  -------         ENDPROC       COM011B
  -------         PROC          PROMPT
  C:C624H         LINE#         53
  C:C624H         LINE#         54
  C:C624H         LINE#         56
  C:C62BH         LINE#         57
  C:C635H         LINE#         59
  C:C642H         LINE#         60
  -------         ENDPROC       PROMPT
  -------         PROC          _MON_TX
  D:0007H         SYMBOL        ch
  C:CA3BH         LINE#         63
  C:CA3BH         LINE#         64
  C:CA3BH         LINE#         65
  -------         ENDPROC       _MON_TX
  -------         PROC          _A2I
  X:0004H         SYMBOL        str
  -------         DO            
  X:0007H         SYMBOL        num
  X:000BH         SYMBOL        i
  -------         ENDDO         
  C:AFBAH         LINE#         74
  C:AFC0H         LINE#         75
  C:AFC0H         LINE#         76
  C:AFCAH         LINE#         79
  C:AFCFH         LINE#         80
  C:AFD9H         LINE#         81
BL51 BANKED LINKER/LOCATER V6.22                                                      12/15/2017  13:23:50  PAGE 160


  C:B017H         LINE#         82
  C:B025H         LINE#         83
  C:B02BH         LINE#         84
  -------         ENDPROC       _A2I
  -------         PROC          _ASC1BIN
  D:0007H         SYMBOL        asc
  C:C1EAH         LINE#         86
  C:C1EAH         LINE#         87
  C:C1EAH         LINE#         88
  C:C1FCH         LINE#         89
  C:C20DH         LINE#         90
  C:C21DH         LINE#         95
  -------         ENDPROC       _ASC1BIN
  C:C03CH         SYMBOL        L?0290
  -------         PROC          L?0289
  -------         ENDPROC       L?0289
  C:C03CH         SYMBOL        L?0290
  -------         PROC          _ASC2BIN
  D:0001H         SYMBOL        s
  -------         DO            
  D:0004H         SYMBOL        bin
  -------         ENDDO         
  C:C042H         LINE#         97
  C:C042H         LINE#         98
  C:C042H         LINE#         101
  C:C045H         LINE#         102
  C:C04EH         LINE#         103
  C:C05CH         LINE#         104
  C:C069H         LINE#         105
  C:C070H         LINE#         106
  C:C072H         LINE#         107
  C:C074H         LINE#         108
  -------         ENDPROC       _ASC2BIN
  -------         PROC          L?0338
  -------         ENDPROC       L?0338
  -------         PROC          _TOUPPER
  D:0007H         SYMBOL        ch
  C:C76EH         LINE#         112
  C:C76EH         LINE#         113
  C:C76EH         LINE#         114
  C:C77AH         LINE#         115
  C:C77EH         LINE#         120
  -------         ENDPROC       _TOUPPER
  -------         PROC          _STRICMP
  X:0002H         SYMBOL        ptr1
  X:0005H         SYMBOL        ptr2
  -------         DO            
  X:0008H         SYMBOL        i
  D:0006H         SYMBOL        ret
  -------         ENDDO         
  C:BF1BH         LINE#         123
  C:BF21H         LINE#         124
  C:BF21H         LINE#         128
  C:BF30H         LINE#         129
  C:BF47H         LINE#         130
  C:BF4BH         LINE#         131
  C:BF53H         LINE#         132
BL51 BANKED LINKER/LOCATER V6.22                                                      12/15/2017  13:23:50  PAGE 161


  C:BF56H         LINE#         133
  -------         ENDPROC       _STRICMP
  -------         PROC          _SETMONADDRESS
  D:0007H         SYMBOL        addr
  C:CA3EH         LINE#         139
  C:CA3EH         LINE#         140
  C:CA3EH         LINE#         141
  C:CA40H         LINE#         142
  -------         ENDPROC       _SETMONADDRESS
  -------         PROC          MONREADI2C
  C:B9CEH         LINE#         146
  C:B9CEH         LINE#         147
  C:B9CEH         LINE#         148
  C:B9DDH         LINE#         149
  C:B9DDH         LINE#         150
  C:B9E3H         LINE#         152
  C:B9E3H         LINE#         154
  C:B9EBH         LINE#         155
  C:B9F1H         LINE#         157
  C:B9FDH         LINE#         159
  C:BA00H         LINE#         160
  C:BA13H         LINE#         162
  C:BA1BH         LINE#         163
  -------         ENDPROC       MONREADI2C
  -------         PROC          MONWRITEI2C
  C:ACD7H         LINE#         166
  C:ACD7H         LINE#         167
  C:ACD7H         LINE#         168
  C:ACDCH         LINE#         169
  C:ACE2H         LINE#         171
  C:ACE2H         LINE#         173
  C:ACEAH         LINE#         174
  C:ACF5H         LINE#         176
  C:ACF8H         LINE#         177
  C:AD0EH         LINE#         178
  C:AD16H         LINE#         179
  C:AD1EH         LINE#         180
  C:AD21H         LINE#         181
  C:AD23H         LINE#         182
  C:AD23H         LINE#         183
  C:AD2BH         LINE#         184
  C:AD36H         LINE#         185
  C:AD36H         LINE#         186
  C:AD3CH         LINE#         187
  C:AD3CH         LINE#         188
  C:AD3CH         LINE#         189
  C:AD44H         LINE#         190
  C:AD49H         LINE#         191
  C:AD4BH         LINE#         192
  C:AD4BH         LINE#         193
  C:AD53H         LINE#         194
  C:AD53H         LINE#         195
  C:AD53H         LINE#         196
  -------         ENDPROC       MONWRITEI2C
  -------         PROC          _MONINCDECI2C
  D:0007H         SYMBOL        inc
  C:ADD0H         LINE#         202
BL51 BANKED LINKER/LOCATER V6.22                                                      12/15/2017  13:23:50  PAGE 162


  C:ADD0H         LINE#         203
  C:ADD0H         LINE#         205
  C:ADDFH         LINE#         206
  C:ADE7H         LINE#         207
  C:ADEFH         LINE#         208
  C:ADF8H         LINE#         209
  C:ADFFH         LINE#         210
  C:ADFFH         LINE#         213
  C:AE07H         LINE#         214
  C:AE0FH         LINE#         215
  C:AE12H         LINE#         216
  C:AE14H         LINE#         217
  C:AE14H         LINE#         218
  C:AE1CH         LINE#         219
  C:AE27H         LINE#         220
  C:AE27H         LINE#         222
  C:AE2AH         LINE#         223
  C:AE43H         LINE#         224
  C:AE49H         LINE#         225
  C:AE49H         LINE#         227
  -------         ENDPROC       _MONINCDECI2C
  C:97F1H         SYMBOL        L?0296
  -------         PROC          MONDUMPI2C
  -------         DO            
  X:0002H         SYMBOL        ToMonIndex
  X:0003H         SYMBOL        cnt
  -------         ENDDO         
  C:974EH         LINE#         231
  C:974EH         LINE#         232
  C:974EH         LINE#         234
  C:9757H         LINE#         236
  C:9764H         LINE#         237
  C:9776H         LINE#         238
  C:9785H         LINE#         239
  C:9795H         LINE#         240
  C:97AAH         LINE#         242
  C:97ADH         LINE#         243
  C:97B3H         LINE#         244
  C:97B8H         LINE#         245
  C:97BAH         LINE#         246
  C:97BAH         LINE#         247
  C:97BAH         LINE#         248
  C:97BFH         LINE#         249
  C:97BFH         LINE#         250
  C:97BFH         LINE#         251
  C:97C4H         LINE#         252
  C:97C6H         LINE#         253
  C:97C6H         LINE#         254
  C:97C6H         LINE#         255
  C:97CBH         LINE#         256
  C:97CBH         LINE#         257
  C:97CBH         LINE#         258
  C:97CBH         LINE#         259
  C:97D0H         LINE#         260
  C:97D5H         LINE#         261
  C:97DBH         LINE#         262
  C:97DBH         LINE#         263
BL51 BANKED LINKER/LOCATER V6.22                                                      12/15/2017  13:23:50  PAGE 163


  C:97E0H         LINE#         264
  C:97E0H         LINE#         265
  C:97E0H         LINE#         266
  C:97E5H         LINE#         267
  C:97EBH         LINE#         268
  C:97EBH         LINE#         269
  C:97F0H         LINE#         270
  C:97F0H         LINE#         271
  C:97F0H         LINE#         272
  -------         ENDPROC       MONDUMPI2C
  -------         PROC          MONNEWREADI2C
  -------         DO            
  X:0002H         SYMBOL        Slave
  -------         ENDDO         
  C:BB01H         LINE#         276
  C:BB01H         LINE#         277
  C:BB01H         LINE#         280
  C:BB13H         LINE#         281
  C:BB13H         LINE#         282
  C:BB19H         LINE#         284
  C:BB19H         LINE#         285
  C:BB21H         LINE#         287
  C:BB24H         LINE#         288
  C:BB29H         LINE#         290
  C:BB37H         LINE#         292
  C:BB3AH         LINE#         293
  C:BB43H         LINE#         295
  C:BB4BH         LINE#         296
  -------         ENDPROC       MONNEWREADI2C
  -------         PROC          MONNEWWRITEI2C
  -------         DO            
  X:0002H         SYMBOL        Slave
  -------         ENDDO         
  C:B795H         LINE#         298
  C:B795H         LINE#         299
  C:B795H         LINE#         302
  C:B79EH         LINE#         303
  C:B7A4H         LINE#         305
  C:B7A4H         LINE#         307
  C:B7A4H         LINE#         308
  C:B7ACH         LINE#         309
  C:B7B4H         LINE#         311
  C:B7B7H         LINE#         312
  C:B7BFH         LINE#         313
  C:B7C2H         LINE#         314
  C:B7C4H         LINE#         315
  C:B7C4H         LINE#         316
  C:B7CFH         LINE#         317
  C:B7DDH         LINE#         318
  C:B7DDH         LINE#         320
  C:B7E0H         LINE#         321
  C:B7E9H         LINE#         323
  -------         ENDPROC       MONNEWWRITEI2C
  C:9D74H         SYMBOL        L?0299
  -------         PROC          MONNEWDUMPI2C
  -------         DO            
  X:0002H         SYMBOL        ToMonIndex
BL51 BANKED LINKER/LOCATER V6.22                                                      12/15/2017  13:23:50  PAGE 164


  X:0003H         SYMBOL        Slave
  X:0004H         SYMBOL        i
  -------         ENDDO         
  C:9CF6H         LINE#         325
  C:9CF6H         LINE#         326
  C:9CF6H         LINE#         330
  C:9D06H         LINE#         331
  C:9D13H         LINE#         332
  C:9D1BH         LINE#         334
  C:9D1EH         LINE#         335
  C:9D23H         LINE#         336
  C:9D2BH         LINE#         337
  C:9D2DH         LINE#         338
  C:9D2DH         LINE#         339
  C:9D32H         LINE#         340
  C:9D32H         LINE#         341
  C:9D32H         LINE#         342
  C:9D3AH         LINE#         343
  C:9D3FH         LINE#         344
  C:9D3FH         LINE#         345
  C:9D44H         LINE#         346
  C:9D44H         LINE#         347
  C:9D44H         LINE#         348
  C:9D44H         LINE#         349
  C:9D4CH         LINE#         350
  C:9D54H         LINE#         351
  C:9D59H         LINE#         352
  C:9D5EH         LINE#         353
  C:9D5EH         LINE#         354
  C:9D5EH         LINE#         355
  C:9D66H         LINE#         356
  C:9D6EH         LINE#         357
  C:9D73H         LINE#         358
  C:9D73H         LINE#         359
  C:9D73H         LINE#         360
  -------         ENDPROC       MONNEWDUMPI2C
  C:9104H         SYMBOL        L?0321
  -------         PROC          MONWRITEBIT
  -------         DO            
  X:0002H         SYMBOL        mask
  D:0006H         SYMBOL        i
  X:0003H         SYMBOL        FromBit
  X:0004H         SYMBOL        ToBit
  X:0005H         SYMBOL        MonMask
  D:0004H         SYMBOL        val
  X:0006H         SYMBOL        Slave
  -------         ENDDO         
  C:902EH         LINE#         363
  C:902EH         LINE#         364
  C:902EH         LINE#         369
  C:9037H         LINE#         370
  C:903DH         LINE#         372
  C:903DH         LINE#         373
  C:9045H         LINE#         375
  C:9045H         LINE#         376
  C:904FH         LINE#         377
  C:9059H         LINE#         378
BL51 BANKED LINKER/LOCATER V6.22                                                      12/15/2017  13:23:50  PAGE 165


  C:9064H         LINE#         380
  C:907DH         LINE#         381
  C:9086H         LINE#         383
  C:9086H         LINE#         385
  C:908CH         LINE#         386
  C:908EH         LINE#         387
  C:909AH         LINE#         388
  C:90A0H         LINE#         389
  C:90A3H         LINE#         390
  C:90A6H         LINE#         392
  C:90A8H         LINE#         393
  C:90B4H         LINE#         394
  C:90BAH         LINE#         395
  C:90BEH         LINE#         396
  C:90C1H         LINE#         398
  C:90C9H         LINE#         399
  C:90CCH         LINE#         400
  C:90CFH         LINE#         402
  C:90D5H         LINE#         403
  C:90D8H         LINE#         404
  C:90DAH         LINE#         405
  C:90DAH         LINE#         406
  C:90DDH         LINE#         407
  C:90E0H         LINE#         409
  C:90E6H         LINE#         410
  C:90F1H         LINE#         411
  C:90F1H         LINE#         413
  C:90F4H         LINE#         414
  C:9103H         LINE#         416
  -------         ENDPROC       MONWRITEBIT
  -------         PROC          MONTXDUMP
  -------         DO            
  X:0002H         SYMBOL        count
  -------         ENDDO         
  C:BEA2H         LINE#         442
  C:BEA2H         LINE#         443
  C:BEA2H         LINE#         446
  C:BEA7H         LINE#         447
  C:BEB0H         LINE#         449
  C:BEB0H         LINE#         450
  C:BEC1H         LINE#         451
  C:BEC1H         LINE#         452
  C:BECEH         LINE#         453
  C:BED4H         LINE#         454
  C:BEDEH         LINE#         455
  -------         ENDPROC       MONTXDUMP
  C:A587H         SYMBOL        L?0298
  C:A598H         SYMBOL        L?0316
  C:A5A0H         SYMBOL        L?0329
  -------         PROC          MONHELP
  C:A506H         LINE#         461
  C:A506H         LINE#         462
  C:A506H         LINE#         463
  C:A50FH         LINE#         464
  C:A513H         LINE#         465
  C:A513H         LINE#         466
  C:A51DH         LINE#         467
BL51 BANKED LINKER/LOCATER V6.22                                                      12/15/2017  13:23:50  PAGE 166


  C:A521H         LINE#         468
  C:A52BH         LINE#         469
  C:A52FH         LINE#         470
  C:A539H         LINE#         471
  C:A53DH         LINE#         472
  C:A547H         LINE#         473
  C:A54BH         LINE#         474
  C:A555H         LINE#         475
  C:A55EH         LINE#         476
  C:A567H         LINE#         477
  C:A570H         LINE#         478
  C:A579H         LINE#         479
  C:A57DH         LINE#         480
  C:A57DH         LINE#         481
  C:A587H         LINE#         482
  -------         ENDPROC       MONHELP
  C:7864H         SYMBOL        L?0340
  -------         PROC          MONGETCOMMAND
  -------         DO            
  X:00A9H         SYMBOL        comment
  X:00AAH         SYMBOL        incnt
  X:00ABH         SYMBOL        last_argc
  X:0002H         SYMBOL        i
  X:0003H         SYMBOL        ch
  X:0004H         SYMBOL        ret
  -------         ENDDO         
  C:76BEH         LINE#         487
  C:76BEH         LINE#         488
  C:76BEH         LINE#         492
  C:76C3H         LINE#         494
  C:76CBH         LINE#         496
  C:76D3H         LINE#         499
  C:76D9H         LINE#         500
  C:76EDH         LINE#         501
  C:76EDH         LINE#         502
  C:76EDH         LINE#         503
  C:76EFH         LINE#         504
  C:76EFH         LINE#         505
  C:76EFH         LINE#         506
  C:76F7H         LINE#         507
  C:76FDH         LINE#         508
  C:7700H         LINE#         509
  C:7703H         LINE#         510
  C:7703H         LINE#         513
  C:7726H         LINE#         515
  C:7726H         LINE#         516
  C:772BH         LINE#         517
  C:772BH         LINE#         518
  C:772BH         LINE#         519
  C:772BH         LINE#         520
  C:772DH         LINE#         523
  C:772DH         LINE#         525
  C:7733H         LINE#         526
  C:7736H         LINE#         527
  C:7739H         LINE#         528
  C:7739H         LINE#         530
  C:7748H         LINE#         531
BL51 BANKED LINKER/LOCATER V6.22                                                      12/15/2017  13:23:50  PAGE 167


  C:774CH         LINE#         533
  C:7761H         LINE#         535
  C:7767H         LINE#         536
  C:776BH         LINE#         537
  C:776FH         LINE#         538
  C:7772H         LINE#         539
  C:7775H         LINE#         540
  C:7775H         LINE#         541
  C:777EH         LINE#         542
  C:7783H         LINE#         543
  C:778FH         LINE#         544
  C:7794H         LINE#         546
  C:7796H         LINE#         547
  C:77A9H         LINE#         548
  C:77AFH         LINE#         549
  C:77B2H         LINE#         550
  C:77C9H         LINE#         551
  C:77C9H         LINE#         552
  C:77C9H         LINE#         553
  C:77CEH         LINE#         555
  C:77D3H         LINE#         556
  C:77D6H         LINE#         557
  C:77DBH         LINE#         559
  C:77DEH         LINE#         562
  C:77DEH         LINE#         563
  C:77E6H         LINE#         564
  C:77ECH         LINE#         565
  C:77EEH         LINE#         568
  C:77EEH         LINE#         569
  C:77F4H         LINE#         570
  C:77F6H         LINE#         571
  C:77F9H         LINE#         572
  C:77FEH         LINE#         573
  C:7801H         LINE#         574
  C:7801H         LINE#         575
  C:7803H         LINE#         578
  C:7803H         LINE#         579
  C:7809H         LINE#         580
  C:7809H         LINE#         581
  C:7809H         LINE#         582
  C:780BH         LINE#         584
  C:780DH         LINE#         585
  C:780FH         LINE#         587
  C:780FH         LINE#         588
  C:7815H         LINE#         589
  C:7815H         LINE#         590
  C:7815H         LINE#         591
  C:7817H         LINE#         593
  C:7819H         LINE#         594
  C:781BH         LINE#         596
  C:781BH         LINE#         597
  C:7821H         LINE#         598
  C:7821H         LINE#         599
  C:7821H         LINE#         600
  C:7823H         LINE#         602
  C:7825H         LINE#         603
  C:7827H         LINE#         605
BL51 BANKED LINKER/LOCATER V6.22                                                      12/15/2017  13:23:50  PAGE 168


  C:7827H         LINE#         606
  C:782DH         LINE#         607
  C:782DH         LINE#         608
  C:782DH         LINE#         609
  C:782FH         LINE#         611
  C:7834H         LINE#         612
  C:7836H         LINE#         614
  C:7836H         LINE#         615
  C:783EH         LINE#         616
  C:784FH         LINE#         617
  C:784FH         LINE#         618
  C:784FH         LINE#         620
  C:7856H         LINE#         621
  C:785AH         LINE#         622
  C:785DH         LINE#         623
  C:785EH         LINE#         624
  C:785EH         LINE#         625
  C:785EH         LINE#         626
  C:7863H         LINE#         627
  C:7863H         LINE#         628
  -------         ENDPROC       MONGETCOMMAND
  C:51FAH         SYMBOL        L?0273
  C:520EH         SYMBOL        L?0274
  C:5222H         SYMBOL        L?0275
  C:5236H         SYMBOL        L?0276
  C:524AH         SYMBOL        L?0277
  C:5262H         SYMBOL        L?0278
  C:5276H         SYMBOL        L?0279
  C:528EH         SYMBOL        L?0280
  C:52A2H         SYMBOL        L?0281
  C:52BAH         SYMBOL        L?0282
  C:52CEH         SYMBOL        L?0287
  C:52E2H         SYMBOL        L?0288
  C:52F6H         SYMBOL        L?0291
  C:530AH         SYMBOL        L?0297
  C:531EH         SYMBOL        L?0304
  C:5332H         SYMBOL        L?0307
  -------         PROC          MONITOR
  -------         DO            
  X:0001H         SYMBOL        mode
  -------         ENDDO         
  C:4F3BH         LINE#         634
  C:4F3BH         LINE#         635
  C:4F3BH         LINE#         636
  C:4F44H         LINE#         650
  C:4F46H         LINE#         653
  C:4F4FH         LINE#         654
  C:4F52H         LINE#         655
  C:4F55H         LINE#         656
  C:4F5EH         LINE#         657
  C:4F60H         LINE#         658
  C:4F63H         LINE#         659
  C:4F66H         LINE#         671
  C:4F6FH         LINE#         672
  C:4F72H         LINE#         673
  C:4F75H         LINE#         674
  C:4F7EH         LINE#         675
BL51 BANKED LINKER/LOCATER V6.22                                                      12/15/2017  13:23:50  PAGE 169


  C:4F80H         LINE#         676
  C:4F83H         LINE#         677
  C:4F86H         LINE#         688
  C:4F8FH         LINE#         689
  C:4F98H         LINE#         690
  C:4F9BH         LINE#         691
  C:4F9EH         LINE#         692
  C:4FA7H         LINE#         693
  C:4FA9H         LINE#         694
  C:4FACH         LINE#         695
  C:4FAFH         LINE#         698
  C:4FB8H         LINE#         699
  C:4FBBH         LINE#         700
  C:4FBEH         LINE#         784
  C:4FC7H         LINE#         785
  C:4FCCH         LINE#         786
  C:4FCFH         LINE#         789
  C:4FEAH         LINE#         790
  C:4FEDH         LINE#         792
  C:4FF0H         LINE#         794
  C:4FF9H         LINE#         796
  C:5000H         LINE#         797
  C:5009H         LINE#         798
  C:5012H         LINE#         799
  C:5018H         LINE#         800
  C:501BH         LINE#         801
  C:501BH         LINE#         803
  C:5023H         LINE#         805
  C:5023H         LINE#         806
  C:5026H         LINE#         816
  C:502FH         LINE#         817
  C:5032H         LINE#         818
  C:5035H         LINE#         870
  C:503EH         LINE#         871
  C:5045H         LINE#         872
  C:504DH         LINE#         873
  C:5050H         LINE#         874
  C:5050H         LINE#         875
  C:505FH         LINE#         876
  C:5062H         LINE#         879
  C:506BH         LINE#         880
  C:5070H         LINE#         881
  C:5072H         LINE#         882
  C:5078H         LINE#         883
  C:507BH         LINE#         884
  C:507BH         LINE#         885
  C:507DH         LINE#         886
  C:5083H         LINE#         887
  C:5083H         LINE#         888
  C:5086H         LINE#         890
  C:508FH         LINE#         891
  C:5094H         LINE#         892
  C:5096H         LINE#         893
  C:509CH         LINE#         894
  C:509FH         LINE#         895
  C:50A4H         LINE#         896
  C:50A6H         LINE#         897
BL51 BANKED LINKER/LOCATER V6.22                                                      12/15/2017  13:23:50  PAGE 170


  C:50ACH         LINE#         898
  C:50AFH         LINE#         899
  C:50AFH         LINE#         900
  C:50BAH         LINE#         901
  C:50BAH         LINE#         902
  C:50BDH         LINE#         903
  C:50C6H         LINE#         904
  C:50CBH         LINE#         906
  C:50D1H         LINE#         907
  C:50D4H         LINE#         908
  C:50DBH         LINE#         910
  C:50DFH         LINE#         911
  C:50E2H         LINE#         912
  C:50E2H         LINE#         913
  C:50EBH         LINE#         914
  C:50EBH         LINE#         915
  C:50EEH         LINE#         916
  C:50F7H         LINE#         917
  C:5100H         LINE#         918
  C:5102H         LINE#         919
  C:5108H         LINE#         920
  C:510BH         LINE#         921
  C:5114H         LINE#         922
  C:5116H         LINE#         923
  C:511CH         LINE#         924
  C:511FH         LINE#         925
  C:511FH         LINE#         926
  C:512AH         LINE#         927
  C:512AH         LINE#         928
  C:512DH         LINE#         930
  C:5136H         LINE#         931
  C:5142H         LINE#         933
  C:5142H         LINE#         934
  C:514BH         LINE#         935
  C:5154H         LINE#         936
  C:515DH         LINE#         937
  C:5166H         LINE#         938
  C:5168H         LINE#         939
  C:5168H         LINE#         940
  C:5171H         LINE#         941
  C:5174H         LINE#         942
  C:5177H         LINE#         943
  C:517CH         LINE#         944
  C:5180H         LINE#         945
  C:5180H         LINE#         1087
  C:5183H         LINE#         1090
  C:518CH         LINE#         1091
  C:518FH         LINE#         1092
  C:5191H         LINE#         1095
  C:51AAH         LINE#         1096
  C:51B3H         LINE#         1097
  C:51BCH         LINE#         1098
  C:51BEH         LINE#         1099
  C:51D7H         LINE#         1100
  C:51E0H         LINE#         1101
  C:51E2H         LINE#         1102
  C:51E2H         LINE#         1103
BL51 BANKED LINKER/LOCATER V6.22                                                      12/15/2017  13:23:50  PAGE 171


  C:51EBH         LINE#         1104
  C:51EBH         LINE#         1105
  C:51EDH         LINE#         1130
  C:51EDH         LINE#         1131
  C:51F6H         LINE#         1132
  C:51F6H         LINE#         1134
  C:51F9H         LINE#         1136
  -------         ENDPROC       MONITOR
  -------         ENDMOD        MONITOR

  -------         MODULE        ?C?COPY
  C:45DEH         PUBLIC        ?C?COPY
  -------         ENDMOD        ?C?COPY

  -------         MODULE        ?C?CLDPTR
  C:4604H         PUBLIC        ?C?CLDPTR
  -------         ENDMOD        ?C?CLDPTR

  -------         MODULE        ?C?CLDOPTR
  C:461DH         PUBLIC        ?C?CLDOPTR
  -------         ENDMOD        ?C?CLDOPTR

  -------         MODULE        ?C?CSTPTR
  C:464AH         PUBLIC        ?C?CSTPTR
  -------         ENDMOD        ?C?CSTPTR

  -------         MODULE        ?C?IMUL
  C:465CH         PUBLIC        ?C?IMUL
  -------         ENDMOD        ?C?IMUL

  -------         MODULE        ?C?UIDIV
  C:466EH         PUBLIC        ?C?UIDIV
  -------         ENDMOD        ?C?UIDIV

  -------         MODULE        ?C?SIDIV
  C:46C3H         PUBLIC        ?C?SIDIV
  -------         ENDMOD        ?C?SIDIV

  -------         MODULE        ?C?IILDX
  C:46F9H         PUBLIC        ?C?IILDX
  -------         ENDMOD        ?C?IILDX

  -------         MODULE        ?C?ILDPTR
  C:470FH         PUBLIC        ?C?ILDPTR
  -------         ENDMOD        ?C?ILDPTR

  -------         MODULE        ?C?ILDOPTR
  C:473AH         PUBLIC        ?C?ILDOPTR
  -------         ENDMOD        ?C?ILDOPTR

  -------         MODULE        ?C?ISTPTR
  C:4772H         PUBLIC        ?C?ISTPTR
  -------         ENDMOD        ?C?ISTPTR

  -------         MODULE        ?C?LADD
  C:4791H         PUBLIC        ?C?LADD
  -------         ENDMOD        ?C?LADD
BL51 BANKED LINKER/LOCATER V6.22                                                      12/15/2017  13:23:50  PAGE 172



  -------         MODULE        ?C?LMUL
  C:479EH         PUBLIC        ?C?LMUL
  -------         ENDMOD        ?C?LMUL

  -------         MODULE        ?C?ULDIV
  C:4829H         PUBLIC        ?C?ULDIV
  -------         ENDMOD        ?C?ULDIV

  -------         MODULE        ?C?ULCMP
  C:48BBH         PUBLIC        ?C?ULCMP
  -------         ENDMOD        ?C?ULCMP

  -------         MODULE        ?C?SLSHR
  C:48CCH         PUBLIC        ?C?SLSHR
  -------         ENDMOD        ?C?SLSHR

  -------         MODULE        ?C?LLDPTR
  C:48E0H         PUBLIC        ?C?LLDPTR
  -------         ENDMOD        ?C?LLDPTR

  -------         MODULE        ?C?LLDXDATA
  C:4900H         PUBLIC        ?C?LLDXDATA
  -------         ENDMOD        ?C?LLDXDATA

  -------         MODULE        ?C?LLDXDATA0
  C:490CH         PUBLIC        ?C?LLDXDATA0
  -------         ENDMOD        ?C?LLDXDATA0

  -------         MODULE        ?C?LSTXDATA
  C:4918H         PUBLIC        ?C?LSTXDATA
  -------         ENDMOD        ?C?LSTXDATA

  -------         MODULE        ?C?LSTKXDATA
  C:4924H         PUBLIC        ?C?LSTKXDATA
  -------         ENDMOD        ?C?LSTKXDATA

  -------         MODULE        ?C?OFFXADD
  C:4955H         PUBLIC        ?C?OFFXADD
  -------         ENDMOD        ?C?OFFXADD

  -------         MODULE        ?C?PLDXDATA
  C:4961H         PUBLIC        ?C?PLDXDATA
  -------         ENDMOD        ?C?PLDXDATA

  -------         MODULE        ?C?PLDIXDATA
  C:496AH         PUBLIC        ?C?PLDIXDATA
  -------         ENDMOD        ?C?PLDIXDATA

  -------         MODULE        ?C?PSTXDATA
  C:4981H         PUBLIC        ?C?PSTXDATA
  -------         ENDMOD        ?C?PSTXDATA

  -------         MODULE        ?C?PLDCODE
  C:498AH         PUBLIC        ?C?PLDCODE
  -------         ENDMOD        ?C?PLDCODE

BL51 BANKED LINKER/LOCATER V6.22                                                      12/15/2017  13:23:50  PAGE 173


  -------         MODULE        ?C?PLDPTR
  C:4996H         PUBLIC        ?C?PLDPTR
  -------         ENDMOD        ?C?PLDPTR

  -------         MODULE        ?C?PLDOPTR
  C:49B6H         PUBLIC        ?C?PLDOPTR
  -------         ENDMOD        ?C?PLDOPTR

  -------         MODULE        ?C?CCASE
  C:49E6H         PUBLIC        ?C?CCASE
  -------         ENDMOD        ?C?CCASE

  -------         MODULE        ABS
  C:C939H         PUBLIC        _ABS
  -------         ENDMOD        ABS

  -------         MODULE        ?C?LLDIDATA
  C:4A0CH         PUBLIC        ?C?LLDIDATA
  -------         ENDMOD        ?C?LLDIDATA

  -------         MODULE        ?C?LLDPDATA
  C:4A18H         PUBLIC        ?C?LLDPDATA
  -------         ENDMOD        ?C?LLDPDATA

  -------         MODULE        ?C?LLDCODE
  C:4A24H         PUBLIC        ?C?LLDCODE
  -------         ENDMOD        ?C?LLDCODE

  -------         MODULE        ?C?PLDIDATA
  C:4A34H         PUBLIC        ?C?PLDIDATA
  -------         ENDMOD        ?C?PLDIDATA

  -------         MODULE        ?C?PLDPDATA
  C:4A3DH         PUBLIC        ?C?PLDPDATA
  -------         ENDMOD        ?C?PLDPDATA

*** WARNING L16: UNCALLED SEGMENT, IGNORED FOR OVERLAY PROCESS
    SEGMENT: ?PR?DISPLAYHANDLER?DISPINFO

*** WARNING L16: UNCALLED SEGMENT, IGNORED FOR OVERLAY PROCESS
    SEGMENT: ?PR?_SETSOURCEMODE?HS_KEYREMO

*** WARNING L1: UNRESOLVED EXTERNAL SYMBOL
    SYMBOL:  LCDPOWEROFF
    MODULE:  .\Output\TW88.obj (TW88)

*** WARNING L2: REFERENCE MADE TO UNRESOLVED EXTERNAL
    SYMBOL:  LCDPOWEROFF
    MODULE:  .\Output\TW88.obj (TW88)
    ADDRESS: C0B7H

Program Size: data=125.4 xdata=355 code=51780
LINK/LOCATE RUN COMPLETE.  4 WARNING(S),  0 ERROR(S)
