BL51 BANKED LINKER/LOCATER V5.03                                                        05/28/2012  11:22:31  PAGE 1


BL51 BANKED LINKER/LOCATER V5.03, INVOKED BY:
C:\KEIL\C51\BIN\BL51.EXE .\Output\adc.obj, .\Output\cpu.obj, .\Output\dispinfo.obj, .\Output\etc_eep.obj, .\Output\I2c.o
>> bj, .\Output\keyremo.obj, .\Output\Main.obj, .\Output\Measure.obj, .\Output\Osdbasic.obj, .\Output\osdmenu.obj, .\Out
>> put\pc_eep.obj, .\Output\Printf.obj, .\Output\table.obj, .\Output\TW88.obj, .\Output\udfont.obj, .\Output\HS_keyremo.
>> obj, .\Output\HS_DisplayOSD.obj, .\Output\audio.obj, .\Output\Debug.obj, .\Output\HS_DVRProtocol.obj TO .\Output\AWT_
>> ML073G PRINT (.\Source\AWT_ML073G.m51) RAMSIZE (256) XDATA (0X0000-0X03FF)


MEMORY MODEL: LARGE


INPUT MODULES INCLUDED:
  .\Output\adc.obj (ADC)
  .\Output\cpu.obj (CPU)
  .\Output\dispinfo.obj (DISPINFO)
  .\Output\etc_eep.obj (ETC_EEP)
  .\Output\I2c.obj (I2C)
  .\Output\keyremo.obj (KEYREMO)
  .\Output\Main.obj (MAIN)
  .\Output\Measure.obj (MEASURE)
  .\Output\Osdbasic.obj (OSDBASIC)
  .\Output\osdmenu.obj (OSDMENU)
  .\Output\pc_eep.obj (PC_EEP)
  .\Output\Printf.obj (PRINTF)
  .\Output\table.obj (TABLE)
  .\Output\TW88.obj (TW88)
  .\Output\udfont.obj (UDFONT)
  .\Output\HS_keyremo.obj (HS_KEYREMO)
  .\Output\HS_DisplayOSD.obj (HS_DISPLAYOSD)
  .\Output\audio.obj (AUDIO)
  .\Output\Debug.obj (DEBUG)
  .\Output\HS_DVRProtocol.obj (HS_DVRPROTOCOL)
  C:\KEIL\C51\LIB\C51L.LIB (?C_STARTUP)
  C:\KEIL\C51\LIB\C51L.LIB (?C?COPY)
  C:\KEIL\C51\LIB\C51L.LIB (?C?CLDPTR)
  C:\KEIL\C51\LIB\C51L.LIB (?C?CLDOPTR)
  C:\KEIL\C51\LIB\C51L.LIB (?C?CSTPTR)
  C:\KEIL\C51\LIB\C51L.LIB (?C?CSTOPTR)
  C:\KEIL\C51\LIB\C51L.LIB (?C?IMUL)
  C:\KEIL\C51\LIB\C51L.LIB (?C?UIDIV)
  C:\KEIL\C51\LIB\C51L.LIB (?C?SIDIV)
  C:\KEIL\C51\LIB\C51L.LIB (?C?IILDX)
  C:\KEIL\C51\LIB\C51L.LIB (?C?ILDPTR)
  C:\KEIL\C51\LIB\C51L.LIB (?C?ILDOPTR)
  C:\KEIL\C51\LIB\C51L.LIB (?C?ISTPTR)
  C:\KEIL\C51\LIB\C51L.LIB (?C?LMUL)
  C:\KEIL\C51\LIB\C51L.LIB (?C?ULDIV)
  C:\KEIL\C51\LIB\C51L.LIB (?C?ULCMP)
  C:\KEIL\C51\LIB\C51L.LIB (?C?SLSHR)
  C:\KEIL\C51\LIB\C51L.LIB (?C?LLDPTR)
  C:\KEIL\C51\LIB\C51L.LIB (?C?LLDXDATA)
  C:\KEIL\C51\LIB\C51L.LIB (?C?LLDXDATA0)
  C:\KEIL\C51\LIB\C51L.LIB (?C?LSTXDATA)
  C:\KEIL\C51\LIB\C51L.LIB (?C?LSTKXDATA)
  C:\KEIL\C51\LIB\C51L.LIB (?C?OFFXADD)
  C:\KEIL\C51\LIB\C51L.LIB (?C?PLDXDATA)
  C:\KEIL\C51\LIB\C51L.LIB (?C?PLDIXDATA)
  C:\KEIL\C51\LIB\C51L.LIB (?C?PSTXDATA)
BL51 BANKED LINKER/LOCATER V5.03                                                      05/28/2012  11:22:31  PAGE 2


  C:\KEIL\C51\LIB\C51L.LIB (?C?PLDCODE)
  C:\KEIL\C51\LIB\C51L.LIB (?C?PLDPTR)
  C:\KEIL\C51\LIB\C51L.LIB (?C?PLDOPTR)
  C:\KEIL\C51\LIB\C51L.LIB (?C?CCASE)
  C:\KEIL\C51\LIB\C51L.LIB (ABS)
  C:\KEIL\C51\LIB\C51L.LIB (?C_INIT)
  C:\KEIL\C51\LIB\C51L.LIB (?C?LLDIDATA)
  C:\KEIL\C51\LIB\C51L.LIB (?C?LLDPDATA)
  C:\KEIL\C51\LIB\C51L.LIB (?C?LLDCODE)
  C:\KEIL\C51\LIB\C51L.LIB (?C?PLDIDATA)
  C:\KEIL\C51\LIB\C51L.LIB (?C?PLDPDATA)


LINK MAP OF MODULE:  .\Output\AWT_ML073G (ADC)


            TYPE    BASE      LENGTH    RELOCATION   SEGMENT NAME
            -----------------------------------------------------

            * * * * * * *   D A T A   M E M O R Y   * * * * * * *
            REG     0000H     0008H     ABSOLUTE     "REG BANK 0"
            REG     0008H     0008H     ABSOLUTE     "REG BANK 1"
            DATA    0010H     000AH     UNIT         ?DT?OSDBASIC
            DATA    001AH     0005H     UNIT         ?DT?OSDMENU
                    001FH     0001H                  *** GAP ***
            BIT     0020H.0   0001H.0   UNIT         ?BI?MAIN
            BIT     0021H.0   0000H.5   UNIT         ?BI?HS_DVRPROTOCOL
            BIT     0021H.5   0000H.4   UNIT         ?BI?CPU
            BIT     0022H.1   0000H.3   UNIT         ?BI?HS_KEYREMO
            BIT     0022H.4   0000H.3   UNIT         _BIT_GROUP_
            BIT     0022H.7   0000H.2   UNIT         ?BI?OSDMENU
            BIT     0023H.1   0000H.1   UNIT         ?BI?KEYREMO
            BIT     0023H.2   0000H.1   UNIT         ?BI?HS_DISPLAYOSD
                    0023H.3   0000H.5                *** GAP ***
            DATA    0024H     003FH     UNIT         ?DT?CPU
            DATA    0063H     0007H     UNIT         ?DT?MAIN
            DATA    006AH     0002H     UNIT         ?DT?DISPINFO
            IDATA   006CH     0001H     UNIT         ?STACK

            * * * * * * *  X D A T A   M E M O R Y  * * * * * * *
            XDATA   0000H     0072H     UNIT         _XDATA_GROUP_
            XDATA   0072H     0048H     UNIT         ?XD?HS_DVRPROTOCOL
            XDATA   00BAH     0020H     UNIT         ?XD?OSDMENU
            XDATA   00DAH     0010H     UNIT         ?XD?MAIN
            XDATA   00EAH     000CH     UNIT         ?XD?HS_KEYREMO
            XDATA   00F6H     0005H     UNIT         ?XD?KEYREMO
            XDATA   00FBH     0004H     UNIT         ?XD?CPU
            XDATA   00FFH     0002H     UNIT         ?XD?AUDIO
            XDATA   0101H     0001H     UNIT         ?XD?DISPINFO
            XDATA   0102H     0001H     UNIT         ?XD?TW88

            * * * * * * *   C O D E   M E M O R Y   * * * * * * *
            CODE    0000H     0003H     ABSOLUTE     
            CODE    0003H     0008H     UNIT         ?PR?_RS_TX?CPU
            CODE    000BH     0003H     ABSOLUTE     
            CODE    000EH     0003H     UNIT         ?PR?EXT1_INT?CPU
            CODE    0011H     0001H     UNIT         ?PR?DD?I2C
BL51 BANKED LINKER/LOCATER V5.03                                                      05/28/2012  11:22:31  PAGE 3


            CODE    0012H     0001H     UNIT         ?PR?ON_LVDS?TW88
            CODE    0013H     0003H     ABSOLUTE     
            CODE    0016H     000DH     UNIT         ?PR?I2CSTOP?I2C
            CODE    0023H     0003H     ABSOLUTE     
            CODE    0026H     0003H     UNIT         ?PR?ISINPUTANALOGRGB?OSDMENU
            CODE    0029H     0001H     UNIT         ?PR?OFF_LVDS?TW88
                    002AH     0001H                  *** GAP ***
            CODE    002BH     0003H     ABSOLUTE     
            CODE    002EH     0035H     UNIT         ?PR?OSDHIGHMENU?OSDMENU
            CODE    0063H     0003H     ABSOLUTE     
            CODE    0066H     1858H     UNIT         ?CO?OSDMENU
            CODE    18BEH     14F2H     UNIT         ?CO?UDFONT
            CODE    2DB0H     110AH     UNIT         ?PR?_SETITEMVALUE?OSDMENU
            CODE    3EBAH     0834H     UNIT         ?CO?CPU
            CODE    46EEH     054DH     UNIT         ?C?LIB_CODE
            CODE    4C3BH     046CH     UNIT         ?PR?DVRRECEIVEPASER?HS_DVRPROTOCOL
            CODE    50A7H     03BFH     UNIT         ?PR?OSDMENU
            CODE    5466H     0385H     UNIT         ?PR?_DISPLAYOSDMENUONEITEM?OSDMENU
            CODE    57EBH     036BH     UNIT         ?PR?_GETITEMVALUE?OSDMENU
            CODE    5B56H     031EH     UNIT         ?PR?_DOPRINT?PRINTF
            CODE    5E74H     02E2H     UNIT         ?CO?HS_DVRPROTOCOL
            CODE    6156H     02BFH     UNIT         ?PR?_HS_DVRTXCMDPASER?HS_DVRPROTOCOL
            CODE    6415H     02AEH     UNIT         ?PR?_DOACTION?OSDMENU
            CODE    66C3H     0252H     UNIT         ?PR?_TW2835COMMAND?CPU
            CODE    6915H     024AH     UNIT         ?PR?_OSDCURSORMOVE?OSDMENU
            CODE    6B5FH     0238H     UNIT         ?PR?CHECKKEYIN?KEYREMO
            CODE    6D97H     0212H     UNIT         ?PR?_DISPLAYINFORMATION?HS_DISPLAYOSD
            CODE    6FA9H     020CH     UNIT         ?PR?_CAM_TXCOMMAND_TORS485?HS_DVRPROTOCOL
            CODE    71B5H     01FAH     UNIT         ?PR?HS_DVRPROTOCOL
            CODE    73AFH     01EFH     UNIT         ?PR?DISPLAYDVRSTATUS?HS_DISPLAYOSD
            CODE    759EH     01EAH     UNIT         ?PR?_TRIGGERHANDLER?HS_KEYREMO
            CODE    7788H     01D0H     UNIT         ?CO?HS_DISPLAYOSD
            CODE    7958H     01CFH     UNIT         ?PR?SELECTBOXHANDLER?HS_KEYREMO
            CODE    7B27H     01C9H     UNIT         ?PR?RESETOSDVALUE?OSDMENU
            CODE    7CF0H     01C8H     UNIT         ?PR?_DRAWMENULIST?OSDMENU
            CODE    7EB8H     01BAH     UNIT         ?PR?MAIN_LOOP?MAIN
            CODE    8072H     018DH     UNIT         ?CO?KEYREMO
            CODE    81FFH     016DH     UNIT         ?PR?DISPLAYINFO_OSD?OSDMENU
            CODE    836CH     0163H     UNIT         ?PR?OSDSELECT?OSDMENU
            CODE    84CFH     0147H     UNIT         ?PR?DISPLAYINPUT?DISPINFO
            CODE    8616H     0146H     UNIT         ?PR?_DISPLAYNUMBER?HS_DISPLAYOSD
            CODE    875CH     0145H     UNIT         ?CO?MAIN
            CODE    88A1H     0135H     UNIT         ?PR?_GETKEY?KEYREMO
            CODE    89D6H     0130H     UNIT         ?CO?HS_KEYREMO
            CODE    8B06H     012AH     UNIT         ?PR?LOADEEPROM?MAIN
            CODE    8C30H     0122H     UNIT         ?CO?TABLE
            CODE    8D52H     0120H     UNIT         ?PR?_UTOA?OSDBASIC
            CODE    8E72H     011AH     UNIT         ?PR?MAIN_INIT?CPU
            CODE    8F8CH     0119H     UNIT         ?PR?TIMER0_INT?CPU
            CODE    90A5H     00FEH     UNIT         ?PR?_OSDVALUEUPDN?OSDMENU
            CODE    91A3H     00FBH     UNIT         ?PR?DISPLAYOSDMENU?OSDMENU
            CODE    929EH     00F8H     UNIT         ?CO?OSDBASIC
            CODE    9396H     00E3H     UNIT         ?PR?_SETVIDEOMODE?OSDMENU
            CODE    9479H     00DFH     UNIT         ?PR?_CHANGEVOL?AUDIO
            CODE    9558H     00DDH     UNIT         ?PR?DISPLAYCURSOR?OSDMENU
            CODE    9635H     00DAH     UNIT         ?PR?_ACTIONREMO?KEYREMO
            CODE    970FH     00D8H     UNIT         ?PR?_DISPLAYVIEWBAR?OSDMENU
BL51 BANKED LINKER/LOCATER V5.03                                                      05/28/2012  11:22:31  PAGE 4


            CODE    97E7H     00D6H     UNIT         ?PR?DISPLAYGAUGEOSD?HS_DISPLAYOSD
            CODE    98BDH     00D5H     UNIT         ?PR?_DRAWNUM?OSDMENU
            CODE    9992H     00D3H     UNIT         ?PR?_DRAWSTRINGBYLANG?OSDMENU
            CODE    9A65H     00CDH     UNIT         ?PR?_ADJUSTAUTODAYNIGHT?MAIN
            CODE    9B32H     00C3H     UNIT         ?PR?WAITPOWERON?MAIN
            CODE    9BF5H     00BDH     UNIT         ?PR?_SET4WIDESCREEN?OSDMENU
            CODE    9CB2H     00BCH     UNIT         ?C_INITSEG
            CODE    9D6EH     00BAH     UNIT         ?PR?MAIN?MAIN
            CODE    9E28H     00B5H     UNIT         ?PR?CHECKTRIGGER?HS_KEYREMO
            CODE    9EDDH     00ABH     UNIT         ?PR?DISPLAYVOL?DISPINFO
            CODE    9F88H     00ABH     UNIT         ?PR?DISPLAYFWVERSION?HS_DISPLAYOSD
            CODE    A033H     00A8H     UNIT         ?PR?INITTECHWELL?CPU
            CODE    A0DBH     00A7H     UNIT         ?PR?CHECKDECODERINPUT?MAIN
            CODE    A182H     00A7H     UNIT         ?PR?_INITOSDWINDOW?OSDBASIC
            CODE    A229H     00A7H     UNIT         ?PR?_SETVIDEOSHARPNESS?OSDMENU
            CODE    A2D0H     00A6H     UNIT         ?PR?_SETPCCOLOR?OSDMENU
            CODE    A376H     00A5H     UNIT         ?PR?_MAPPING1?TW88
            CODE    A41BH     00A4H     UNIT         ?PR?_CHANGEVIDEODATA?OSDMENU
            CODE    A4BFH     009FH     UNIT         ?PR?HS_DISPLAYOSD
            CODE    A55EH     009DH     UNIT         ?PR?OSDHIGHMENU_SUB?OSDMENU
            CODE    A5FBH     0095H     UNIT         ?PR?_CHANGEINPUT?MAIN
            CODE    A690H     0091H     UNIT         ?PR?DVRCOMMANDRESEND?HS_DVRPROTOCOL
            CODE    A721H     0090H     UNIT         ?PR?_DISPLAYVOLUMEBAR?OSDMENU
            CODE    A7B1H     008EH     UNIT         ?PR?_INITVIDEODATA?MAIN
            CODE    A83FH     008CH     UNIT         ?C_C51STARTUP
            CODE    A8CBH     008BH     UNIT         ?PR?_HS_SEND_DVR_COMMAND?HS_DVRPROTOCOL
            CODE    A956H     008AH     UNIT         ?PR?REMOVOLDN_LEFTKEY?KEYREMO
            CODE    A9E0H     0088H     UNIT         ?PR?SETPOSSIBLEAUTODETECTSTDEE?ETC_EEP
            CODE    AA68H     0085H     UNIT         ?PR?CHECKANDCLEAROSD?DISPINFO
            CODE    AAEDH     0080H     UNIT         ?PR?_SETPCCOLORTEMP?OSDMENU
            CODE    AB6DH     007EH     UNIT         ?PR?SEND_PELCOP_COMMAND?HS_DVRPROTOCOL
            CODE    ABEBH     007BH     UNIT         ?PR?HS_KEYREMO
            CODE    AC66H     007AH     UNIT         ?PR?HS_PROTOCOL_INIT?HS_DVRPROTOCOL
            CODE    ACE0H     0077H     UNIT         ?PR?SETSELECTMODE?HS_KEYREMO
            CODE    AD57H     0076H     UNIT         ?PR?_SETVIDEOSATURATION?OSDMENU
            CODE    ADCDH     0075H     UNIT         ?PR?SEND_PELCOD_COMMAND?HS_DVRPROTOCOL
            CODE    AE42H     0074H     UNIT         ?PR?_LCDPOWERON?TW88
            CODE    AEB6H     0070H     UNIT         ?PR?OSDBASIC
            CODE    AF26H     0069H     UNIT         ?PR?_I2CWRITEDATA?I2C
            CODE    AF8FH     0069H     UNIT         ?PR?_SETVIDEOBACKLIGHT?OSDMENU
            CODE    AFF8H     0066H     UNIT         ?PR?_SETVINPUTSTD?MAIN
            CODE    B05EH     0066H     UNIT         ?PR?_SETVIDEOHUE?OSDMENU
            CODE    B0C4H     0066H     UNIT         ?PR?RESETVIDEOVALUE?OSDMENU
            CODE    B12AH     0065H     UNIT         ?PR?_SETRGBCONTRAST?OSDMENU
            CODE    B18FH     0064H     UNIT         ?PR?INITOSDMENU?OSDMENU
            CODE    B1F3H     0061H     UNIT         ?PR?GETFWREVEE?ETC_EEP
            CODE    B254H     005EH     UNIT         ?PR?_DOWNLOADFONT?OSDBASIC
            CODE    B2B2H     005BH     UNIT         ?PR?DISPLAYLOGO?DISPINFO
            CODE    B30DH     005BH     UNIT         ?PR?CHANGE_OSDCOLORLOOKUP?OSDBASIC
            CODE    B368H     005BH     UNIT         ?PR?PRINTF
            CODE    B3C3H     0059H     UNIT         ?PR?GETVINPUTSTDINX?MAIN
            CODE    B41CH     0058H     UNIT         ?PR?CHECKPANELIMAGE?OSDMENU
            CODE    B474H     0057H     UNIT         ?CO?DISPINFO
            CODE    B4CBH     0057H     UNIT         ?PR?_GETOSDWINDOWY?OSDBASIC
            CODE    B522H     0057H     UNIT         ?PR?TW88
            CODE    B579H     0056H     UNIT         ?PR?DETECTDECODERINPUT?TW88
            CODE    B5CFH     0050H     UNIT         ?PR?CLEARCURSOR?OSDMENU
BL51 BANKED LINKER/LOCATER V5.03                                                      05/28/2012  11:22:31  PAGE 5


            CODE    B61FH     004FH     UNIT         ?PR?_I2CDEVICEINITIALIZE?MAIN
            CODE    B66EH     004FH     UNIT         ?PR?_SETOSDWINDOWY_TW88?OSDBASIC
            CODE    B6BDH     004DH     UNIT         ?PR?_CAMOUTDSEL?OSDMENU
            CODE    B70AH     0049H     UNIT         ?PR?_SETVIDEOBRIGHTNESS?OSDMENU
            CODE    B753H     0049H     UNIT         ?PR?_SETSOURCEMODE?HS_KEYREMO
            CODE    B79CH     0048H     UNIT         ?PR?INITCPU?CPU
            CODE    B7E4H     0048H     UNIT         ?PR?_WAIT_MS?CPU
            CODE    B82CH     0047H     UNIT         ?PR?_SHOWOSDWINDOW_TW88?OSDBASIC
            CODE    B873H     0046H     UNIT         ?PR?_WRITEEEP?I2C
            CODE    B8B9H     0046H     UNIT         ?PR?SETJUMPMODE?HS_KEYREMO
            CODE    B8FFH     0045H     UNIT         ?PR?ACCPOWERCONTROL?MAIN
            CODE    B944H     0045H     UNIT         ?PR?_GETLOWERMENUITEM?OSDMENU
            CODE    B989H     0044H     UNIT         ?PR?_WRITEI2CN?I2C
            CODE    B9CDH     0044H     UNIT         ?PR?SETNOWMODE?HS_KEYREMO
            CODE    BA11H     0044H     UNIT         ?PR?SETREARSOURCE?HS_KEYREMO
            CODE    BA55H     0043H     UNIT         ?PR?_SAVEFWREVEE?ETC_EEP
            CODE    BA98H     0041H     UNIT         ?PR?_WRITEI2CND?I2C
            CODE    BAD9H     0041H     UNIT         ?PR?_GETTARGETCHILD?OSDMENU
            CODE    BB1AH     0040H     UNIT         ?PR?_READI2CWORD?I2C
            CODE    BB5AH     003FH     UNIT         ?PR?CPU
            CODE    BB99H     003FH     UNIT         ?PR?REMOVOLUP_RIGHTKEY?KEYREMO
            CODE    BBD8H     003EH     UNIT         ?PR?CLEAROSDINFO?DISPINFO
            CODE    BC16H     003EH     UNIT         ?PR?_SETVIDEOCONTRAST?OSDMENU
            CODE    BC54H     003EH     UNIT         ?PR?_DVRAODIOSEL?OSDMENU
            CODE    BC92H     003DH     UNIT         ?PR?GETTIME_MS?CPU
            CODE    BCCFH     003DH     UNIT         ?PR?HS_INITVARS?MAIN
            CODE    BD0CH     003BH     UNIT         ?PR?CLOSEOSDMENU?OSDMENU
            CODE    BD47H     0039H     UNIT         ?PR?_READI2C?I2C
            CODE    BD80H     0039H     UNIT         ?PR?_WRITEI2CN_?I2C
            CODE    BDB9H     0039H     UNIT         ?PR?_WRITEALC106?I2C
            CODE    BDF2H     0038H     UNIT         ?PR?DOWNLOADUDFONT?OSDBASIC
            CODE    BE2AH     0034H     UNIT         ?PR?SERIAL_INT?CPU
            CODE    BE5EH     0034H     UNIT         ?PR?OPENOSDMENU?OSDMENU
            CODE    BE92H     0033H     UNIT         ?PR?MAIN
            CODE    BEC5H     0033H     UNIT         ?PR?_WRITESTRINGTOADDR?OSDBASIC
            CODE    BEF8H     0031H     UNIT         ?PR?SERIAL2_INT?CPU
            CODE    BF29H     0031H     UNIT         ?PR?_DRAWATTRCNT?OSDBASIC
            CODE    BF5AH     0031H     UNIT         ?PR?LCDPOWEROFF?TW88
            CODE    BF8BH     0030H     UNIT         ?PR?I2CREADDATA?I2C
            CODE    BFBBH     0030H     UNIT         ?PR?_GET_CURSOR_ITEM?OSDMENU
            CODE    BFEBH     002FH     UNIT         ?PR?_SHOWOSDWINDOWALL?OSDBASIC
            CODE    C01AH     002DH     UNIT         ?PR?WAITENDOFDISPLAYAREA?OSDBASIC
            CODE    C047H     002DH     UNIT         ?PR?_CLEARDATACNT?OSDBASIC
            CODE    C074H     002CH     UNIT         ?PR?_READALC106?I2C
            CODE    C0A0H     002CH     UNIT         ?PR?PUSHMENU?OSDMENU
            CODE    C0CCH     0029H     UNIT         ?PR?SETLEFTSOURCE?HS_KEYREMO
            CODE    C0F5H     0028H     UNIT         ?PR?I2CREADDATAWITHACK?I2C
            CODE    C11DH     0028H     UNIT         ?PR?SAVEVALUE1?OSDMENU
            CODE    C145H     0027H     UNIT         ?PR?CLEARBASICEE?ETC_EEP
            CODE    C16CH     0027H     UNIT         ?PR?_PRINTF?PRINTF
            CODE    C193H     0026H     UNIT         ?PR?CLEARTVINFO?DISPINFO
            CODE    C1B9H     0026H     UNIT         ?PR?_READEEP?I2C
            CODE    C1DFH     0026H     UNIT         ?PR?_WRITEI2C?I2C
            CODE    C205H     0026H     UNIT         ?CO?TW88
            CODE    C22BH     0023H     UNIT         ?PR?READVINPUTSTD?MAIN
            CODE    C24EH     0021H     UNIT         ?PR?DISPINFO
            CODE    C26FH     0021H     UNIT         ?PR?_GETVIDEODATAFROMEE?ETC_EEP
BL51 BANKED LINKER/LOCATER V5.03                                                      05/28/2012  11:22:31  PAGE 6


            CODE    C290H     0021H     UNIT         ?PR?COMPOSITE2INPUT?TW88
            CODE    C2B1H     0021H     UNIT         ?PR?COMPOSITE3INPUT?TW88
            CODE    C2D2H     0020H     UNIT         ?PR?SETAUTODETECTSTD?TW88
            CODE    C2F2H     0020H     UNIT         ?PR?SEQMODE?HS_KEYREMO
            CODE    C312H     001FH     UNIT         ?PR?_DIFFTIME_MS?CPU
            CODE    C331H     001FH     UNIT         ?PR?GETNEXTINPUTSELECTION?MAIN
            CODE    C350H     001EH     UNIT         ?PR?INITVARS?CPU
            CODE    C36EH     001EH     UNIT         ?PR?_POWERLED?CPU
            CODE    C38CH     001EH     UNIT         ?PR?I2C
            CODE    C3AAH     001DH     UNIT         ?PR?_SETLANGUAGE?OSDMENU
            CODE    C3C7H     001DH     UNIT         ?PR?_CLEARAUTODETECTSTD?TW88
            CODE    C3E4H     001CH     UNIT         ?PR?POPMENU?OSDMENU
            CODE    C400H     001CH     UNIT         ?PR?_GETNEXTCURSORMENUITEM?OSDMENU
            CODE    C41CH     001BH     UNIT         ?PR?_STRLEN?OSDBASIC
            CODE    C437H     001BH     UNIT         ?PR?_PUTS?PRINTF
            CODE    C452H     001AH     UNIT         ?PR?SETRIGHTSOURCE?HS_KEYREMO
            CODE    C46CH     001AH     UNIT         ?PR?SETTRIGGERCSOURCE?HS_KEYREMO
            CODE    C486H     0016H     UNIT         ?PR?CLEARINPUT?DISPINFO
            CODE    C49CH     0015H     UNIT         ?PR?_DELAY?CPU
            CODE    C4B1H     0014H     UNIT         ?PR?AUDIOMUTE?AUDIO
            CODE    C4C5H     0013H     UNIT         ?PR?I2C_DELAY?I2C
            CODE    C4D8H     0012H     UNIT         ?PR?I2CSTART?I2C
            CODE    C4EAH     0012H     UNIT         ?CO?AUDIO
            CODE    C4FCH     0012H     UNIT         ?PR?_ABS?ABS
            CODE    C50EH     0011H     UNIT         ?PR?_SAVEVIDEODATATOEE?ETC_EEP
            CODE    C51FH     0011H     UNIT         ?PR?ISNOINPUT?MAIN
            CODE    C530H     0011H     UNIT         ?CO?PRINTF
            CODE    C541H     000FH     UNIT         ?PR?TIMER2_INT?CPU
            CODE    C550H     000FH     UNIT         ?PR?CLEARMUTEINFO?DISPINFO
            CODE    C55FH     000FH     UNIT         ?PR?COMPOSITE1INPUT?TW88
            CODE    C56EH     000FH     UNIT         ?PR?GETLCDPOWERSTATE?TW88
            CODE    C57DH     000FH     UNIT         ?PR?CLEARGAUGEINFO?HS_DISPLAYOSD
            CODE    C58CH     000EH     UNIT         ?PR?REMOMENU_MENUKEY?KEYREMO
            CODE    C59AH     000DH     UNIT         ?PR?REMOCHNUP_UPKEY?KEYREMO
            CODE    C5A7H     000DH     UNIT         ?PR?REMOCHNDN_DNKEY?KEYREMO
            CODE    C5B4H     000DH     UNIT         ?PR?POWEROFF?MAIN
            CODE    C5C1H     000CH     UNIT         ?PR?_CLEARDISPLAYEDOSD?DISPINFO
            CODE    C5CDH     000CH     UNIT         ?PR?SETOSDLASTKEYINTIME?MAIN
            CODE    C5D9H     000CH     UNIT         ?PR?CLEARVALUEWIN?OSDMENU
            CODE    C5E5H     000BH     UNIT         ?PR?RS_READY?CPU
            CODE    C5F0H     000BH     UNIT         ?PR?KEYREMO
            CODE    C5FBH     000BH     UNIT         ?PR?GETOSDLANG?OSDMENU
            CODE    C606H     000AH     UNIT         ?PR?_GETVIDEODATAWITHOFFSET?OSDMENU
            CODE    C610H     0009H     UNIT         ?PR?_SAVEDEBUGLEVELEE?ETC_EEP
            CODE    C619H     0009H     UNIT         ?PR?_SAVEWIDEMODEEE?ETC_EEP
            CODE    C622H     0009H     UNIT         ?PR?_SAVEINPUTSELECTIONEE?ETC_EEP
            CODE    C62BH     0009H     UNIT         ?PR?_SAVEOSDLANGEE?ETC_EEP
            CODE    C634H     0009H     UNIT         ?PR?_SETAUDIOVOLEE?ETC_EEP
            CODE    C63DH     0009H     UNIT         ?PR?_SETPCAUDIOVOLEE?ETC_EEP
            CODE    C646H     0009H     UNIT         ?PR?POWERDOWN_XTAL?MAIN
            CODE    C64FH     0009H     UNIT         ?PR?GETOSDLASTKEYINTIME?MAIN
            CODE    C658H     0009H     UNIT         ?PR?_GETUPPERMENUITEM?OSDMENU
            CODE    C661H     0008H     UNIT         ?PR?_RS2_TX?CPU
            CODE    C669H     0008H     UNIT         ?PR?GETDEBUGLEVELEE?ETC_EEP
            CODE    C671H     0008H     UNIT         ?PR?GETWIDEMODEEE?ETC_EEP
            CODE    C679H     0008H     UNIT         ?PR?GETPOSSIBLEAUTODETECTSTDEE?ETC_EEP
            CODE    C681H     0008H     UNIT         ?PR?GETOSDLANGEE?ETC_EEP
BL51 BANKED LINKER/LOCATER V5.03                                                      05/28/2012  11:22:31  PAGE 7


            CODE    C689H     0008H     UNIT         ?PR?GETAUDIOVOLEE?ETC_EEP
            CODE    C691H     0008H     UNIT         ?PR?GETPCAUDIOVOLEE?ETC_EEP
            CODE    C699H     0007H     UNIT         ?PR?CLEARLOGO?DISPINFO
            CODE    C6A0H     0007H     UNIT         ?PR?_SETDISPLAYEDOSD?DISPINFO
            CODE    C6A7H     0006H     UNIT         ?PR?GETDISPLAYEDOSD?DISPINFO
            CODE    C6ADH     0006H     UNIT         ?PR?GETVINPUTSTD?MAIN
            CODE    C6B3H     0006H     UNIT         ?PR?GETINPUTSELECTION?MAIN



OVERLAY MAP OF MODULE:   .\Output\AWT_ML073G (ADC)


SEGMENT                                             BIT_GROUP          XDATA_GROUP
  +--> CALLED SEGMENT                            START    LENGTH     START    LENGTH
------------------------------------------------------------------------------------
?C_C51STARTUP                                    -----    -----      -----    -----
  +--> ?PR?MAIN?MAIN
  +--> ?C_INITSEG

?PR?MAIN?MAIN                                    -----    -----      0000H    0003H
  +--> ?PR?_WAIT_MS?CPU
  +--> ?PR?INITCPU?CPU
  +--> ?PR?INITVARS?CPU
  +--> ?PR?HS_INITVARS?MAIN
  +--> ?PR?INITTECHWELL?CPU
  +--> ?PR?HS_PROTOCOL_INIT?HS_DVRPROTOCOL
  +--> ?PR?LCDPOWEROFF?TW88
  +--> ?PR?MAIN_INIT?CPU
  +--> ?PR?LOADEEPROM?MAIN
  +--> ?PR?_TW2835COMMAND?CPU
  +--> ?PR?SETNOWMODE?HS_KEYREMO
  +--> ?PR?_CHANGEVOL?AUDIO
  +--> ?PR?_DVRAODIOSEL?OSDMENU
  +--> ?PR?_READEEP?I2C
  +--> ?PR?_CAMOUTDSEL?OSDMENU
  +--> ?PR?MAIN_LOOP?MAIN
  +--> ?PR?POWEROFF?MAIN
  +--> ?PR?WAITPOWERON?MAIN

?PR?_WAIT_MS?CPU                                 -----    -----      002CH    0004H

?PR?INITVARS?CPU                                 -----    -----      -----    -----
  +--> ?PR?_DELAY?CPU
  +--> ?PR?POWERDOWN_XTAL?MAIN

?PR?POWERDOWN_XTAL?MAIN                          0022H.4  0000H.1    -----    -----

?PR?INITTECHWELL?CPU                             -----    -----      -----    -----
  +--> ?CO?CPU
  +--> ?PR?_PUTS?PRINTF
  +--> ?PR?_READI2C?I2C
  +--> ?PR?_PRINTF?PRINTF
  +--> ?PR?RS_READY?CPU
  +--> ?PR?_DELAY?CPU
  +--> ?PR?CPU

BL51 BANKED LINKER/LOCATER V5.03                                                      05/28/2012  11:22:31  PAGE 8


?PR?_PUTS?PRINTF                                 -----    -----      001CH    0003H
  +--> ?PR?PRINTF
  +--> ?PR?_RS_TX?CPU

?PR?_READI2C?I2C                                 -----    -----      0044H    0003H
  +--> ?PR?I2CSTART?I2C
  +--> ?PR?_I2CWRITEDATA?I2C
  +--> ?PR?I2CREADDATA?I2C
  +--> ?PR?I2CSTOP?I2C

?PR?I2CSTART?I2C                                 -----    -----      -----    -----
  +--> ?PR?DD?I2C

?PR?_I2CWRITEDATA?I2C                            -----    -----      -----    -----
  +--> ?PR?I2C

?PR?I2C                                          -----    -----      -----    -----
  +--> ?PR?DD?I2C

?PR?I2CREADDATA?I2C                              -----    -----      -----    -----
  +--> ?PR?DD?I2C

?PR?I2CSTOP?I2C                                  -----    -----      -----    -----
  +--> ?PR?DD?I2C

?PR?_PRINTF?PRINTF                               -----    -----      002FH    002EH
  +--> ?PR?_DOPRINT?PRINTF

?PR?_DOPRINT?PRINTF                              0022H.5  0000H.2    005DH    0015H
  +--> ?PR?PRINTF
  +--> ?CO?PRINTF

?PR?LCDPOWEROFF?TW88                             -----    -----      -----    -----
  +--> ?PR?_WRITEI2C?I2C
  +--> ?PR?OFF_LVDS?TW88
  +--> ?PR?_WAIT_MS?CPU
  +--> ?PR?_DELAY?CPU

?PR?_WRITEI2C?I2C                                -----    -----      0058H    0003H
  +--> ?PR?I2C
  +--> ?PR?I2CSTART?I2C
  +--> ?PR?_I2CWRITEDATA?I2C
  +--> ?PR?I2CSTOP?I2C

?PR?MAIN_INIT?CPU                                -----    -----      0003H    0002H
  +--> ?PR?_WRITEI2C?I2C
  +--> ?PR?GETFWREVEE?ETC_EEP
  +--> ?PR?CPU
  +--> ?CO?CPU
  +--> ?PR?_PRINTF?PRINTF
  +--> ?PR?_SAVEFWREVEE?ETC_EEP
  +--> ?PR?_SAVEDEBUGLEVELEE?ETC_EEP
  +--> ?PR?_SAVEINPUTSELECTIONEE?ETC_EEP
  +--> ?PR?CLEARBASICEE?ETC_EEP
  +--> ?PR?GETDEBUGLEVELEE?ETC_EEP
  +--> ?PR?_SETVINPUTSTD?MAIN
  +--> ?PR?_INITVIDEODATA?MAIN
BL51 BANKED LINKER/LOCATER V5.03                                                      05/28/2012  11:22:31  PAGE 9


  +--> ?PR?DISPLAYLOGO?DISPINFO
  +--> ?PR?_LCDPOWERON?TW88
  +--> ?PR?_READEEP?I2C
  +--> ?PR?SETPOSSIBLEAUTODETECTSTDEE?ETC_EEP
  +--> ?PR?CHANGE_OSDCOLORLOOKUP?OSDBASIC
  +--> ?PR?DOWNLOADUDFONT?OSDBASIC
  +--> ?PR?_DELAY?CPU
  +--> ?PR?_WRITEALC106?I2C
  +--> ?PR?_READALC106?I2C

?PR?GETFWREVEE?ETC_EEP                           -----    -----      0005H    0002H
  +--> ?PR?_READEEP?I2C

?PR?_READEEP?I2C                                 -----    -----      0036H    0001H
  +--> ?PR?_READI2C?I2C
  +--> ?PR?_DELAY?CPU

?PR?_SAVEFWREVEE?ETC_EEP                         -----    -----      0005H    0002H
  +--> ?PR?_WRITEEEP?I2C

?PR?_WRITEEEP?I2C                                -----    -----      0029H    0004H
  +--> ?PR?I2CSTART?I2C
  +--> ?PR?_I2CWRITEDATA?I2C
  +--> ?PR?I2CSTOP?I2C
  +--> ?PR?_DELAY?CPU

?PR?_SAVEDEBUGLEVELEE?ETC_EEP                    -----    -----      -----    -----
  +--> ?PR?_WRITEEEP?I2C

?PR?_SAVEINPUTSELECTIONEE?ETC_EEP                -----    -----      -----    -----
  +--> ?PR?_WRITEEEP?I2C

?PR?CLEARBASICEE?ETC_EEP                         -----    -----      -----    -----
  +--> ?PR?_WRITEEEP?I2C
  +--> ?PR?RESETOSDVALUE?OSDMENU
  +--> ?PR?RESETVIDEOVALUE?OSDMENU
  +--> ?PR?_SET4WIDESCREEN?OSDMENU

?PR?RESETOSDVALUE?OSDMENU                        -----    -----      -----    -----
  +--> ?CO?OSDMENU
  +--> ?PR?_WRITEEEP?I2C
  +--> ?PR?_CAMOUTDSEL?OSDMENU
  +--> ?PR?_PUTS?PRINTF
  +--> ?PR?_CLEARDATACNT?OSDBASIC
  +--> ?PR?LOADEEPROM?MAIN
  +--> ?PR?_SAVEOSDLANGEE?ETC_EEP
  +--> ?PR?_READEEP?I2C
  +--> ?PR?_HS_DVRTXCMDPASER?HS_DVRPROTOCOL
  +--> ?PR?INITOSDMENU?OSDMENU

?PR?_CAMOUTDSEL?OSDMENU                          -----    -----      0015H    0001H
  +--> ?CO?OSDMENU
  +--> ?PR?_PUTS?PRINTF

?PR?_CLEARDATACNT?OSDBASIC                       -----    -----      003EH    0003H
  +--> ?PR?OSDBASIC
  +--> ?PR?_WRITEI2C?I2C
BL51 BANKED LINKER/LOCATER V5.03                                                      05/28/2012  11:22:31  PAGE 10


  +--> ?PR?_WRITEI2CND?I2C

?PR?_WRITEI2CND?I2C                              -----    -----      0042H    0005H
  +--> ?PR?I2C
  +--> ?PR?I2CSTART?I2C
  +--> ?PR?_I2CWRITEDATA?I2C
  +--> ?PR?I2C_DELAY?I2C
  +--> ?PR?I2CSTOP?I2C

?PR?LOADEEPROM?MAIN                              -----    -----      -----    -----
  +--> ?PR?_READEEP?I2C
  +--> ?PR?GETAUDIOVOLEE?ETC_EEP
  +--> ?PR?GETPCAUDIOVOLEE?ETC_EEP

?PR?GETAUDIOVOLEE?ETC_EEP                        -----    -----      -----    -----
  +--> ?PR?_READEEP?I2C

?PR?GETPCAUDIOVOLEE?ETC_EEP                      -----    -----      -----    -----
  +--> ?PR?_READEEP?I2C

?PR?_SAVEOSDLANGEE?ETC_EEP                       -----    -----      -----    -----
  +--> ?PR?_WRITEEEP?I2C

?PR?_HS_DVRTXCMDPASER?HS_DVRPROTOCOL             -----    -----      0015H    001AH
  +--> ?CO?HS_DVRPROTOCOL
  +--> ?PR?HS_DVRPROTOCOL
  +--> ?PR?_PRINTF?PRINTF
  +--> ?PR?_HS_SEND_DVR_COMMAND?HS_DVRPROTOCOL

?PR?_HS_SEND_DVR_COMMAND?HS_DVRPROTOCOL          -----    -----      002FH    0006H
  +--> ?PR?HS_DVRPROTOCOL
  +--> ?PR?_RS2_TX?CPU

?PR?INITOSDMENU?OSDMENU                          -----    -----      000CH    0001H
  +--> ?PR?GETOSDLANGEE?ETC_EEP
  +--> ?PR?GETINPUTSELECTION?MAIN
  +--> ?CO?OSDMENU
  +--> ?PR?OSDMENU
  +--> ?CO?OSDBASIC
  +--> ?PR?_INITOSDWINDOW?OSDBASIC
  +--> ?PR?DISPLAYOSDMENU?OSDMENU

?PR?GETOSDLANGEE?ETC_EEP                         -----    -----      -----    -----
  +--> ?PR?_READEEP?I2C

?PR?OSDMENU                                      -----    -----      -----    -----
  +--> ?CO?OSDMENU
  +--> ?CO?MAIN

?PR?_INITOSDWINDOW?OSDBASIC                      -----    -----      003EH    0005H
  +--> ?PR?_READI2C?I2C
  +--> ?PR?_WRITEI2C?I2C
  +--> ?PR?_DELAY?CPU
  +--> ?PR?OSDBASIC
  +--> ?PR?_WRITEI2CN_?I2C

?PR?_WRITEI2CN_?I2C                              -----    -----      0043H    0006H
BL51 BANKED LINKER/LOCATER V5.03                                                      05/28/2012  11:22:31  PAGE 11


  +--> ?PR?I2CSTART?I2C
  +--> ?PR?_I2CWRITEDATA?I2C
  +--> ?PR?I2C
  +--> ?PR?I2CSTOP?I2C

?PR?DISPLAYOSDMENU?OSDMENU                       -----    -----      -----    -----
  +--> ?PR?_DRAWATTRCNT?OSDBASIC
  +--> ?PR?OSDMENU
  +--> ?PR?GETINPUTSELECTION?MAIN
  +--> ?PR?_READEEP?I2C
  +--> ?PR?_DRAWMENULIST?OSDMENU
  +--> ?PR?PUSHMENU?OSDMENU
  +--> ?PR?POPMENU?OSDMENU
  +--> ?PR?DISPLAYCURSOR?OSDMENU

?PR?_DRAWATTRCNT?OSDBASIC                        -----    -----      003EH    0004H
  +--> ?PR?OSDBASIC
  +--> ?PR?_WRITEI2C?I2C
  +--> ?PR?_WRITEI2CND?I2C

?PR?_DRAWMENULIST?OSDMENU                        -----    -----      0014H    000CH
  +--> ?PR?OSDMENU
  +--> ?PR?_STRLEN?OSDBASIC
  +--> ?PR?_DRAWATTRCNT?OSDBASIC
  +--> ?PR?_WRITESTRINGTOADDR?OSDBASIC
  +--> ?PR?_CLEARDATACNT?OSDBASIC
  +--> ?PR?_WRITEI2C?I2C
  +--> ?PR?_DISPLAYOSDMENUONEITEM?OSDMENU
  +--> ?PR?_GETLOWERMENUITEM?OSDMENU

?PR?_STRLEN?OSDBASIC                             -----    -----      0052H    0003H

?PR?_WRITESTRINGTOADDR?OSDBASIC                  -----    -----      0052H    0006H
  +--> ?PR?OSDBASIC
  +--> ?PR?_WRITEI2C?I2C
  +--> ?PR?_WRITEI2CN?I2C

?PR?_WRITEI2CN?I2C                               -----    -----      0058H    0007H
  +--> ?PR?I2C
  +--> ?PR?I2CSTART?I2C
  +--> ?PR?_I2CWRITEDATA?I2C
  +--> ?PR?I2C_DELAY?I2C
  +--> ?PR?I2CSTOP?I2C

?PR?_DISPLAYOSDMENUONEITEM?OSDMENU               -----    -----      0020H    0013H
  +--> ?PR?OSDMENU
  +--> ?PR?_CLEARDATACNT?OSDBASIC
  +--> ?PR?_GETITEMVALUE?OSDMENU
  +--> ?PR?_DISPLAYVIEWBAR?OSDMENU
  +--> ?PR?_DRAWNUM?OSDMENU
  +--> ?CO?OSDMENU
  +--> ?PR?_WRITESTRINGTOADDR?OSDBASIC
  +--> ?PR?_DRAWSTRINGBYLANG?OSDMENU
  +--> ?PR?_STRLEN?OSDBASIC

?PR?_GETITEMVALUE?OSDMENU                        -----    -----      0033H    0003H
  +--> ?PR?_GETVIDEODATAWITHOFFSET?OSDMENU
BL51 BANKED LINKER/LOCATER V5.03                                                      05/28/2012  11:22:31  PAGE 12


  +--> ?PR?OSDMENU
  +--> ?PR?_READEEP?I2C

?PR?_GETVIDEODATAWITHOFFSET?OSDMENU              -----    -----      -----    -----
  +--> ?PR?_GETVIDEODATAFROMEE?ETC_EEP
  +--> ?PR?OSDMENU

?PR?_GETVIDEODATAFROMEE?ETC_EEP                  -----    -----      -----    -----
  +--> ?PR?_READEEP?I2C

?PR?_DISPLAYVIEWBAR?OSDMENU                      -----    -----      0033H    0010H
  +--> ?PR?OSDMENU
  +--> ?CO?OSDMENU
  +--> ?PR?_WRITESTRINGTOADDR?OSDBASIC

?PR?_DRAWNUM?OSDMENU                             -----    -----      0033H    001FH
  +--> ?PR?OSDMENU
  +--> ?CO?OSDMENU
  +--> ?PR?_UTOA?OSDBASIC
  +--> ?PR?_STRLEN?OSDBASIC
  +--> ?PR?_WRITESTRINGTOADDR?OSDBASIC

?PR?_UTOA?OSDBASIC                               -----    -----      0052H    000EH
  +--> ?PR?OSDBASIC

?PR?_DRAWSTRINGBYLANG?OSDMENU                    -----    -----      0033H    0018H
  +--> ?PR?OSDMENU
  +--> ?CO?OSDMENU
  +--> ?PR?_WRITESTRINGTOADDR?OSDBASIC
  +--> ?PR?_STRLEN?OSDBASIC

?PR?_GETLOWERMENUITEM?OSDMENU                    -----    -----      0020H    0004H

?PR?PUSHMENU?OSDMENU                             -----    -----      -----    -----
  +--> ?PR?OSDMENU

?PR?POPMENU?OSDMENU                              -----    -----      -----    -----
  +--> ?PR?OSDMENU

?PR?DISPLAYCURSOR?OSDMENU                        -----    -----      000DH    0004H
  +--> ?PR?OSDMENU
  +--> ?PR?_DRAWATTRCNT?OSDBASIC
  +--> ?PR?_GETITEMVALUE?OSDMENU

?PR?RESETVIDEOVALUE?OSDMENU                      -----    -----      000CH    0002H
  +--> ?CO?OSDMENU
  +--> ?PR?_SETVIDEOMODE?OSDMENU
  +--> ?PR?_SAVEVIDEODATATOEE?ETC_EEP

?PR?_SETVIDEOMODE?OSDMENU                        -----    -----      0022H    0007H
  +--> ?PR?_WRITEEEP?I2C
  +--> ?CO?OSDMENU
  +--> ?PR?_WRITEI2C?I2C
  +--> ?PR?OSDMENU
  +--> ?PR?_GETVIDEODATAWITHOFFSET?OSDMENU
  +--> ?PR?_SETVIDEOCONTRAST?OSDMENU
  +--> ?PR?_SETVIDEOBRIGHTNESS?OSDMENU
BL51 BANKED LINKER/LOCATER V5.03                                                      05/28/2012  11:22:31  PAGE 13


  +--> ?PR?_SETVIDEOSATURATION?OSDMENU
  +--> ?PR?_SETVIDEOHUE?OSDMENU
  +--> ?PR?_MAPPING1?TW88
  +--> ?PR?_READI2C?I2C

?PR?_SETVIDEOCONTRAST?OSDMENU                    -----    -----      0029H    0003H
  +--> ?PR?GETINPUTSELECTION?MAIN
  +--> ?PR?OSDMENU
  +--> ?CO?OSDMENU
  +--> ?PR?_MAPPING1?TW88
  +--> ?PR?_WRITEI2C?I2C

?PR?_MAPPING1?TW88                               -----    -----      002DH    000FH
  +--> ?PR?TW88

?PR?_SETVIDEOBRIGHTNESS?OSDMENU                  -----    -----      0029H    0003H
  +--> ?PR?OSDMENU
  +--> ?CO?OSDMENU
  +--> ?PR?_MAPPING1?TW88
  +--> ?PR?ISINPUTANALOGRGB?OSDMENU
  +--> ?PR?_WRITEI2C?I2C

?PR?_SETVIDEOSATURATION?OSDMENU                  -----    -----      0029H    0004H
  +--> ?PR?ISINPUTANALOGRGB?OSDMENU
  +--> ?PR?OSDMENU
  +--> ?CO?OSDMENU
  +--> ?PR?_MAPPING1?TW88
  +--> ?PR?_READI2C?I2C
  +--> ?PR?_WRITEI2C?I2C

?PR?_SETVIDEOHUE?OSDMENU                         -----    -----      0029H    0003H
  +--> ?PR?OSDMENU
  +--> ?CO?OSDMENU
  +--> ?PR?_MAPPING1?TW88
  +--> ?PR?_READI2C?I2C
  +--> ?PR?ISINPUTANALOGRGB?OSDMENU
  +--> ?PR?_WRITEI2C?I2C

?PR?_SAVEVIDEODATATOEE?ETC_EEP                   -----    -----      -----    -----
  +--> ?PR?_WRITEEEP?I2C

?PR?_SET4WIDESCREEN?OSDMENU                      -----    -----      0022H    0006H
  +--> ?PR?GETVINPUTSTD?MAIN
  +--> ?CO?OSDMENU
  +--> ?PR?WAITENDOFDISPLAYAREA?OSDBASIC
  +--> ?PR?OSDMENU
  +--> ?PR?_WRITEI2C?I2C
  +--> ?PR?_SAVEWIDEMODEEE?ETC_EEP

?PR?WAITENDOFDISPLAYAREA?OSDBASIC                -----    -----      0042H    0002H
  +--> ?PR?_READI2C?I2C

?PR?_SAVEWIDEMODEEE?ETC_EEP                      -----    -----      -----    -----
  +--> ?PR?_WRITEEEP?I2C

?PR?GETDEBUGLEVELEE?ETC_EEP                      -----    -----      -----    -----
  +--> ?PR?_READEEP?I2C
BL51 BANKED LINKER/LOCATER V5.03                                                      05/28/2012  11:22:31  PAGE 14



?PR?_SETVINPUTSTD?MAIN                           -----    -----      0021H    0001H
  +--> ?PR?GETVINPUTSTDINX?MAIN
  +--> ?CO?MAIN
  +--> ?PR?MAIN
  +--> ?PR?_PRINTF?PRINTF

?PR?GETVINPUTSTDINX?MAIN                         -----    -----      -----    -----
  +--> ?PR?READVINPUTSTD?MAIN
  +--> ?PR?MAIN
  +--> ?CO?MAIN

?PR?READVINPUTSTD?MAIN                           -----    -----      -----    -----
  +--> ?PR?ISNOINPUT?MAIN
  +--> ?PR?_READI2C?I2C

?PR?ISNOINPUT?MAIN                               -----    -----      -----    -----
  +--> ?PR?_READI2C?I2C

?PR?MAIN                                         -----    -----      -----    -----
  +--> ?CO?MAIN

?PR?_INITVIDEODATA?MAIN                          -----    -----      0021H    0001H
  +--> ?CO?MAIN
  +--> ?PR?MAIN
  +--> ?PR?_PRINTF?PRINTF
  +--> ?CO?TABLE
  +--> ?PR?_I2CDEVICEINITIALIZE?MAIN
  +--> ?PR?_WRITEI2C?I2C
  +--> ?PR?_CLEARAUTODETECTSTD?TW88
  +--> ?PR?SETAUTODETECTSTD?TW88
  +--> ?PR?_READEEP?I2C
  +--> ?PR?_SETVIDEOMODE?OSDMENU
  +--> ?PR?GETWIDEMODEEE?ETC_EEP
  +--> ?PR?_SET4WIDESCREEN?OSDMENU

?PR?_I2CDEVICEINITIALIZE?MAIN                    -----    -----      0022H    0006H
  +--> ?PR?MAIN
  +--> ?PR?_WRITEI2C?I2C

?PR?_CLEARAUTODETECTSTD?TW88                     -----    -----      0022H    0001H
  +--> ?PR?_READI2C?I2C
  +--> ?PR?_WRITEI2C?I2C

?PR?SETAUTODETECTSTD?TW88                        -----    -----      -----    -----
  +--> ?PR?GETPOSSIBLEAUTODETECTSTDEE?ETC_EEP
  +--> ?PR?_WRITEI2C?I2C
  +--> ?PR?_READI2C?I2C

?PR?GETPOSSIBLEAUTODETECTSTDEE?ETC_EEP           -----    -----      -----    -----
  +--> ?PR?_READEEP?I2C

?PR?GETWIDEMODEEE?ETC_EEP                        -----    -----      -----    -----
  +--> ?PR?_READEEP?I2C

?PR?DISPLAYLOGO?DISPINFO                         -----    -----      0005H    0002H
  +--> ?CO?DISPINFO
BL51 BANKED LINKER/LOCATER V5.03                                                      05/28/2012  11:22:31  PAGE 15


  +--> ?CO?OSDBASIC
  +--> ?PR?_INITOSDWINDOW?OSDBASIC
  +--> ?PR?_CLEARDATACNT?OSDBASIC
  +--> ?PR?_DRAWATTRCNT?OSDBASIC
  +--> ?PR?DISPINFO
  +--> ?PR?_WRITESTRINGTOADDR?OSDBASIC
  +--> ?PR?_SHOWOSDWINDOW_TW88?OSDBASIC

?PR?DISPINFO                                     -----    -----      -----    -----
  +--> ?CO?MAIN

?PR?_SHOWOSDWINDOW_TW88?OSDBASIC                 -----    -----      003FH    0002H
  +--> ?PR?OSDBASIC
  +--> ?PR?_WRITEI2C?I2C
  +--> ?PR?_READI2C?I2C
  +--> ?PR?WAITENDOFDISPLAYAREA?OSDBASIC

?PR?_LCDPOWERON?TW88                             -----    -----      -----    -----
  +--> ?PR?CHECKTRIGGER?HS_KEYREMO
  +--> ?PR?_POWERLED?CPU
  +--> ?PR?GETLCDPOWERSTATE?TW88
  +--> ?PR?OFF_LVDS?TW88
  +--> ?PR?_DELAY?CPU
  +--> ?PR?ON_LVDS?TW88
  +--> ?PR?_WRITEI2C?I2C
  +--> ?PR?_WAIT_MS?CPU
  +--> ?CO?TW88
  +--> ?PR?_PUTS?PRINTF

?PR?CHECKTRIGGER?HS_KEYREMO                      -----    -----      -----    -----
  +--> ?CO?HS_KEYREMO
  +--> ?PR?_WAIT_MS?CPU
  +--> ?PR?_PRINTF?PRINTF

?PR?GETLCDPOWERSTATE?TW88                        -----    -----      -----    -----
  +--> ?PR?_READI2C?I2C

?PR?SETPOSSIBLEAUTODETECTSTDEE?ETC_EEP           -----    -----      0005H    0002H
  +--> ?CO?MAIN
  +--> ?PR?_WRITEEEP?I2C

?PR?CHANGE_OSDCOLORLOOKUP?OSDBASIC               -----    -----      0005H    0002H
  +--> ?CO?UDFONT
  +--> ?PR?_WRITEI2C?I2C

?PR?DOWNLOADUDFONT?OSDBASIC                      -----    -----      0005H    0001H
  +--> ?PR?_WRITEI2C?I2C
  +--> ?CO?UDFONT
  +--> ?PR?_DOWNLOADFONT?OSDBASIC

?PR?_DOWNLOADFONT?OSDBASIC                       -----    -----      0006H    0004H
  +--> ?PR?_READI2C?I2C
  +--> ?PR?_WRITEI2C?I2C
  +--> ?PR?_WRITEI2CN?I2C

?PR?_WRITEALC106?I2C                             -----    -----      -----    -----
  +--> ?PR?I2CSTART?I2C
BL51 BANKED LINKER/LOCATER V5.03                                                      05/28/2012  11:22:31  PAGE 16


  +--> ?PR?_I2CWRITEDATA?I2C
  +--> ?PR?DD?I2C
  +--> ?PR?I2CSTOP?I2C
  +--> ?PR?_DELAY?CPU

?PR?_READALC106?I2C                              -----    -----      0005H    0002H
  +--> ?PR?_READI2CWORD?I2C
  +--> ?PR?_DELAY?CPU

?PR?_READI2CWORD?I2C                             -----    -----      0007H    0002H
  +--> ?PR?I2CSTART?I2C
  +--> ?PR?_I2CWRITEDATA?I2C
  +--> ?PR?I2CREADDATAWITHACK?I2C
  +--> ?PR?I2CREADDATA?I2C
  +--> ?PR?I2CSTOP?I2C

?PR?_TW2835COMMAND?CPU                           -----    -----      001BH    000DH
  +--> ?PR?CPU
  +--> ?CO?CPU
  +--> ?PR?_PRINTF?PRINTF
  +--> ?PR?GETTIME_MS?CPU
  +--> ?PR?_ABS?ABS
  +--> ?PR?_WAIT_MS?CPU

?PR?GETTIME_MS?CPU                               -----    -----      0028H    0002H

?PR?SETNOWMODE?HS_KEYREMO                        -----    -----      0015H    0001H
  +--> ?PR?HS_KEYREMO
  +--> ?PR?_PUTS?PRINTF
  +--> ?PR?_SETSOURCEMODE?HS_KEYREMO
  +--> ?PR?_READEEP?I2C
  +--> ?CO?HS_KEYREMO

?PR?HS_KEYREMO                                   -----    -----      -----    -----
  +--> ?CO?HS_KEYREMO

?PR?_SETSOURCEMODE?HS_KEYREMO                    -----    -----      0016H    0005H
  +--> ?CO?HS_KEYREMO
  +--> ?PR?_TW2835COMMAND?CPU
  +--> ?PR?_CHANGEINPUT?MAIN

?PR?_CHANGEINPUT?MAIN                            -----    -----      001BH    0001H
  +--> ?PR?CLEAROSDINFO?DISPINFO
  +--> ?PR?LCDPOWEROFF?TW88
  +--> ?PR?_INITVIDEODATA?MAIN
  +--> ?PR?COMPOSITE1INPUT?TW88
  +--> ?PR?COMPOSITE3INPUT?TW88
  +--> ?PR?COMPOSITE2INPUT?TW88
  +--> ?PR?_CHANGEVOL?AUDIO
  +--> ?PR?CHECKPANELIMAGE?OSDMENU
  +--> ?PR?_SAVEINPUTSELECTIONEE?ETC_EEP
  +--> ?PR?_DELAY?CPU
  +--> ?PR?CHECKDECODERINPUT?MAIN
  +--> ?PR?DISPLAYINPUT?DISPINFO
  +--> ?PR?_LCDPOWERON?TW88
  +--> ?PR?_WRITEI2C?I2C

BL51 BANKED LINKER/LOCATER V5.03                                                      05/28/2012  11:22:31  PAGE 17


?PR?CLEAROSDINFO?DISPINFO                        -----    -----      003EH    0001H
  +--> ?PR?CLEARLOGO?DISPINFO
  +--> ?PR?GETDISPLAYEDOSD?DISPINFO
  +--> ?PR?CLEARTVINFO?DISPINFO
  +--> ?PR?CLEARMUTEINFO?DISPINFO
  +--> ?PR?CLEARINPUT?DISPINFO
  +--> ?PR?CLOSEOSDMENU?OSDMENU
  +--> ?PR?CLEARGAUGEINFO?HS_DISPLAYOSD

?PR?CLEARLOGO?DISPINFO                           -----    -----      -----    -----
  +--> ?PR?_SHOWOSDWINDOW_TW88?OSDBASIC

?PR?CLEARTVINFO?DISPINFO                         -----    -----      -----    -----
  +--> ?PR?_SHOWOSDWINDOW_TW88?OSDBASIC

?PR?CLEARMUTEINFO?DISPINFO                       -----    -----      -----    -----
  +--> ?PR?_SHOWOSDWINDOW_TW88?OSDBASIC

?PR?CLEARINPUT?DISPINFO                          -----    -----      -----    -----
  +--> ?PR?_SHOWOSDWINDOWALL?OSDBASIC
  +--> ?PR?_SHOWOSDWINDOW_TW88?OSDBASIC

?PR?_SHOWOSDWINDOWALL?OSDBASIC                   -----    -----      0040H    0002H
  +--> ?PR?WAITENDOFDISPLAYAREA?OSDBASIC
  +--> ?PR?_READI2C?I2C
  +--> ?PR?_WRITEI2C?I2C

?PR?CLOSEOSDMENU?OSDMENU                         -----    -----      003FH    0001H
  +--> ?PR?_SHOWOSDWINDOWALL?OSDBASIC
  +--> ?PR?WAITENDOFDISPLAYAREA?OSDBASIC
  +--> ?PR?_WRITEI2C?I2C
  +--> ?PR?_CLEARDISPLAYEDOSD?DISPINFO

?PR?CLEARGAUGEINFO?HS_DISPLAYOSD                 -----    -----      -----    -----
  +--> ?PR?_SHOWOSDWINDOW_TW88?OSDBASIC

?PR?COMPOSITE1INPUT?TW88                         -----    -----      -----    -----
  +--> ?PR?_WRITEI2C?I2C
  +--> ?PR?TW88

?PR?COMPOSITE3INPUT?TW88                         -----    -----      -----    -----
  +--> ?PR?_WRITEI2C?I2C
  +--> ?PR?TW88
  +--> ?PR?_READI2C?I2C

?PR?COMPOSITE2INPUT?TW88                         -----    -----      -----    -----
  +--> ?PR?_WRITEI2C?I2C
  +--> ?PR?TW88
  +--> ?PR?_READI2C?I2C

?PR?_CHANGEVOL?AUDIO                             -----    -----      001CH    0003H
  +--> ?CO?OSDMENU
  +--> ?PR?_WRITEALC106?I2C
  +--> ?CO?AUDIO
  +--> ?PR?_PRINTF?PRINTF
  +--> ?PR?_SETPCAUDIOVOLEE?ETC_EEP
  +--> ?PR?_SETAUDIOVOLEE?ETC_EEP
BL51 BANKED LINKER/LOCATER V5.03                                                      05/28/2012  11:22:31  PAGE 18



?PR?_SETPCAUDIOVOLEE?ETC_EEP                     -----    -----      -----    -----
  +--> ?PR?_WRITEEEP?I2C

?PR?_SETAUDIOVOLEE?ETC_EEP                       -----    -----      -----    -----
  +--> ?PR?_WRITEEEP?I2C

?PR?CHECKPANELIMAGE?OSDMENU                      -----    -----      -----    -----
  +--> ?PR?_READI2C?I2C
  +--> ?PR?_WRITEI2C?I2C

?PR?CHECKDECODERINPUT?MAIN                       -----    -----      001CH    0005H
  +--> ?PR?DETECTDECODERINPUT?TW88
  +--> ?PR?_SETVINPUTSTD?MAIN
  +--> ?PR?_DELAY?CPU
  +--> ?PR?_INITVIDEODATA?MAIN

?PR?DETECTDECODERINPUT?TW88                      -----    -----      0021H    0002H
  +--> ?PR?_DELAY?CPU
  +--> ?PR?_READI2C?I2C

?PR?DISPLAYINPUT?DISPINFO                        -----    -----      001CH    0009H
  +--> ?PR?GETDISPLAYEDOSD?DISPINFO
  +--> ?CO?DISPINFO
  +--> ?PR?_PRINTF?PRINTF
  +--> ?PR?CLEAROSDINFO?DISPINFO
  +--> ?CO?OSDBASIC
  +--> ?PR?_INITOSDWINDOW?OSDBASIC
  +--> ?PR?_CLEARDATACNT?OSDBASIC
  +--> ?PR?_DRAWATTRCNT?OSDBASIC
  +--> ?PR?GETINPUTSELECTION?MAIN
  +--> ?PR?_READEEP?I2C
  +--> ?PR?GETVINPUTSTDINX?MAIN
  +--> ?CO?MAIN
  +--> ?PR?_STRLEN?OSDBASIC
  +--> ?PR?DISPINFO
  +--> ?PR?_WRITESTRINGTOADDR?OSDBASIC
  +--> ?PR?GETOSDLANG?OSDMENU
  +--> ?PR?_SHOWOSDWINDOW_TW88?OSDBASIC
  +--> ?PR?_SHOWOSDWINDOWALL?OSDBASIC
  +--> ?PR?GETTIME_MS?CPU

?PR?GETOSDLANG?OSDMENU                           -----    -----      -----    -----
  +--> ?PR?GETOSDLANGEE?ETC_EEP
  +--> ?PR?OSDMENU

?PR?_DVRAODIOSEL?OSDMENU                         -----    -----      0015H    0001H
  +--> ?CO?OSDMENU
  +--> ?PR?_PUTS?PRINTF

?PR?MAIN_LOOP?MAIN                               -----    -----      0003H    0001H
  +--> ?CO?MAIN
  +--> ?PR?_PUTS?PRINTF
  +--> ?PR?ACCPOWERCONTROL?MAIN
  +--> ?PR?DVRRECEIVEPASER?HS_DVRPROTOCOL
  +--> ?PR?_HS_DVRTXCMDPASER?HS_DVRPROTOCOL
  +--> ?PR?DISPLAYDVRSTATUS?HS_DISPLAYOSD
BL51 BANKED LINKER/LOCATER V5.03                                                      05/28/2012  11:22:31  PAGE 19


  +--> ?PR?GETDISPLAYEDOSD?DISPINFO
  +--> ?PR?_DISPLAYINFORMATION?HS_DISPLAYOSD
  +--> ?PR?MAIN
  +--> ?PR?_PRINTF?PRINTF
  +--> ?PR?DVRCOMMANDRESEND?HS_DVRPROTOCOL
  +--> ?PR?SELECTBOXHANDLER?HS_KEYREMO
  +--> ?PR?CHECKTRIGGER?HS_KEYREMO
  +--> ?PR?_TRIGGERHANDLER?HS_KEYREMO
  +--> ?PR?SEQMODE?HS_KEYREMO
  +--> ?PR?_READI2C?I2C
  +--> ?PR?_ADJUSTAUTODAYNIGHT?MAIN
  +--> ?PR?CHECKKEYIN?KEYREMO
  +--> ?PR?_POWERLED?CPU
  +--> ?PR?CHECKANDCLEAROSD?DISPINFO
  +--> ?PR?GETINPUTSELECTION?MAIN
  +--> ?PR?CHECKDECODERINPUT?MAIN
  +--> ?PR?_WRITEI2C?I2C
  +--> ?PR?_WAIT_MS?CPU

?PR?ACCPOWERCONTROL?MAIN                         -----    -----      -----    -----
  +--> ?PR?_HS_DVRTXCMDPASER?HS_DVRPROTOCOL

?PR?DVRRECEIVEPASER?HS_DVRPROTOCOL               -----    -----      000CH    0020H
  +--> ?PR?HS_DVRPROTOCOL
  +--> ?CO?HS_DVRPROTOCOL
  +--> ?PR?_PRINTF?PRINTF
  +--> ?PR?_HS_SEND_DVR_COMMAND?HS_DVRPROTOCOL
  +--> ?PR?DISPLAYFWVERSION?HS_DISPLAYOSD
  +--> ?PR?_WAIT_MS?CPU

?PR?DISPLAYFWVERSION?HS_DISPLAYOSD               -----    -----      002CH    0012H
  +--> ?CO?HS_DISPLAYOSD
  +--> ?PR?HS_DISPLAYOSD
  +--> ?PR?CLEAROSDINFO?DISPINFO
  +--> ?PR?_INITOSDWINDOW?OSDBASIC
  +--> ?PR?_CLEARDATACNT?OSDBASIC
  +--> ?PR?_DRAWATTRCNT?OSDBASIC
  +--> ?PR?_WRITESTRINGTOADDR?OSDBASIC
  +--> ?CO?OSDMENU
  +--> ?PR?_SETDISPLAYEDOSD?DISPINFO
  +--> ?PR?_SHOWOSDWINDOW_TW88?OSDBASIC
  +--> ?PR?_SHOWOSDWINDOWALL?OSDBASIC
  +--> ?PR?_WRITEI2C?I2C

?PR?HS_DISPLAYOSD                                -----    -----      -----    -----
  +--> ?CO?HS_DISPLAYOSD

?PR?DISPLAYDVRSTATUS?HS_DISPLAYOSD               -----    -----      0006H    0001H
  +--> ?CO?OSDBASIC
  +--> ?PR?_INITOSDWINDOW?OSDBASIC
  +--> ?PR?CLEAROSDINFO?DISPINFO
  +--> ?PR?_CLEARDATACNT?OSDBASIC
  +--> ?PR?_DRAWATTRCNT?OSDBASIC
  +--> ?CO?HS_DISPLAYOSD
  +--> ?PR?_PRINTF?PRINTF
  +--> ?PR?HS_DISPLAYOSD
  +--> ?PR?_WRITESTRINGTOADDR?OSDBASIC
BL51 BANKED LINKER/LOCATER V5.03                                                      05/28/2012  11:22:31  PAGE 20


  +--> ?CO?OSDMENU
  +--> ?PR?_READEEP?I2C
  +--> ?PR?_SHOWOSDWINDOW_TW88?OSDBASIC
  +--> ?PR?_SHOWOSDWINDOWALL?OSDBASIC
  +--> ?PR?_WRITEI2C?I2C
  +--> ?PR?_DISPLAYNUMBER?HS_DISPLAYOSD

?PR?_DISPLAYNUMBER?HS_DISPLAYOSD                 -----    -----      0007H    0018H
  +--> ?CO?HS_DISPLAYOSD
  +--> ?PR?HS_DISPLAYOSD
  +--> ?PR?_DRAWATTRCNT?OSDBASIC
  +--> ?PR?_WRITESTRINGTOADDR?OSDBASIC

?PR?_DISPLAYINFORMATION?HS_DISPLAYOSD            -----    -----      000CH    0001H
  +--> ?PR?HS_DISPLAYOSD
  +--> ?PR?_INITOSDWINDOW?OSDBASIC
  +--> ?PR?CLEAROSDINFO?DISPINFO
  +--> ?PR?_CLEARDATACNT?OSDBASIC
  +--> ?CO?HS_DISPLAYOSD
  +--> ?PR?_DRAWATTRCNT?OSDBASIC
  +--> ?PR?_WRITESTRINGTOADDR?OSDBASIC
  +--> ?PR?_SHOWOSDWINDOW_TW88?OSDBASIC
  +--> ?PR?_SHOWOSDWINDOWALL?OSDBASIC
  +--> ?PR?_WRITEI2C?I2C

?PR?DVRCOMMANDRESEND?HS_DVRPROTOCOL              -----    -----      -----    -----
  +--> ?PR?_HS_DVRTXCMDPASER?HS_DVRPROTOCOL

?PR?SELECTBOXHANDLER?HS_KEYREMO                  -----    -----      0006H    0001H
  +--> ?PR?_WAIT_MS?CPU
  +--> ?CO?HS_KEYREMO
  +--> ?PR?_HS_DVRTXCMDPASER?HS_DVRPROTOCOL
  +--> ?PR?HS_KEYREMO
  +--> ?PR?SETREARSOURCE?HS_KEYREMO
  +--> ?PR?SETLEFTSOURCE?HS_KEYREMO
  +--> ?PR?SETRIGHTSOURCE?HS_KEYREMO
  +--> ?PR?CLEARGAUGEINFO?HS_DISPLAYOSD
  +--> ?PR?_PUTS?PRINTF
  +--> ?PR?SETTRIGGERCSOURCE?HS_KEYREMO
  +--> ?PR?_READEEP?I2C
  +--> ?PR?_SETSOURCEMODE?HS_KEYREMO
  +--> ?PR?_PRINTF?PRINTF
  +--> ?PR?CHECKTRIGGER?HS_KEYREMO
  +--> ?PR?SETNOWMODE?HS_KEYREMO
  +--> ?PR?DISPLAYINPUT?DISPINFO

?PR?SETREARSOURCE?HS_KEYREMO                     -----    -----      -----    -----
  +--> ?CO?HS_KEYREMO
  +--> ?PR?HS_KEYREMO
  +--> ?PR?_SETSOURCEMODE?HS_KEYREMO
  +--> ?PR?_READEEP?I2C
  +--> ?PR?DISPLAYGAUGEOSD?HS_DISPLAYOSD

?PR?DISPLAYGAUGEOSD?HS_DISPLAYOSD                -----    -----      000FH    0001H
  +--> ?PR?CLEAROSDINFO?DISPINFO
  +--> ?PR?HS_DISPLAYOSD
  +--> ?PR?_INITOSDWINDOW?OSDBASIC
BL51 BANKED LINKER/LOCATER V5.03                                                      05/28/2012  11:22:31  PAGE 21


  +--> ?PR?_CLEARDATACNT?OSDBASIC
  +--> ?PR?_DRAWATTRCNT?OSDBASIC
  +--> ?CO?HS_DISPLAYOSD
  +--> ?PR?_WRITESTRINGTOADDR?OSDBASIC
  +--> ?PR?_SETDISPLAYEDOSD?DISPINFO
  +--> ?PR?_SHOWOSDWINDOW_TW88?OSDBASIC
  +--> ?PR?_SHOWOSDWINDOWALL?OSDBASIC
  +--> ?PR?_WRITEI2C?I2C

?PR?SETLEFTSOURCE?HS_KEYREMO                     -----    -----      -----    -----
  +--> ?PR?_READEEP?I2C
  +--> ?CO?HS_KEYREMO
  +--> ?PR?HS_KEYREMO
  +--> ?PR?_SETSOURCEMODE?HS_KEYREMO

?PR?SETRIGHTSOURCE?HS_KEYREMO                    -----    -----      -----    -----
  +--> ?PR?_READEEP?I2C
  +--> ?CO?HS_KEYREMO
  +--> ?PR?HS_KEYREMO
  +--> ?PR?_SETSOURCEMODE?HS_KEYREMO

?PR?SETTRIGGERCSOURCE?HS_KEYREMO                 -----    -----      -----    -----
  +--> ?PR?_READEEP?I2C
  +--> ?CO?HS_KEYREMO
  +--> ?PR?HS_KEYREMO
  +--> ?PR?_SETSOURCEMODE?HS_KEYREMO

?PR?_TRIGGERHANDLER?HS_KEYREMO                   -----    -----      0006H    0009H
  +--> ?CO?HS_KEYREMO
  +--> ?PR?HS_KEYREMO
  +--> ?PR?_PRINTF?PRINTF
  +--> ?PR?SETREARSOURCE?HS_KEYREMO
  +--> ?PR?SETLEFTSOURCE?HS_KEYREMO
  +--> ?PR?SETRIGHTSOURCE?HS_KEYREMO
  +--> ?PR?_PUTS?PRINTF
  +--> ?PR?SETTRIGGERCSOURCE?HS_KEYREMO
  +--> ?PR?_HS_DVRTXCMDPASER?HS_DVRPROTOCOL
  +--> ?PR?_SETSOURCEMODE?HS_KEYREMO
  +--> ?PR?_READEEP?I2C
  +--> ?PR?CHECKTRIGGER?HS_KEYREMO
  +--> ?PR?_WAIT_MS?CPU
  +--> ?PR?CLEARGAUGEINFO?HS_DISPLAYOSD
  +--> ?PR?DISPLAYINPUT?DISPINFO
  +--> ?PR?SETNOWMODE?HS_KEYREMO

?PR?SEQMODE?HS_KEYREMO                           -----    -----      -----    -----
  +--> ?CO?HS_KEYREMO
  +--> ?PR?HS_KEYREMO
  +--> ?PR?_SETSOURCEMODE?HS_KEYREMO

?PR?_ADJUSTAUTODAYNIGHT?MAIN                     -----    -----      0009H    0002H
  +--> ?PR?_READI2C?I2C
  +--> ?PR?MAIN
  +--> ?PR?_WRITEI2C?I2C

?PR?CHECKKEYIN?KEYREMO                           -----    -----      0004H    0003H
  +--> ?PR?_GETKEY?KEYREMO
BL51 BANKED LINKER/LOCATER V5.03                                                      05/28/2012  11:22:31  PAGE 22


  +--> ?CO?KEYREMO
  +--> ?PR?_PRINTF?PRINTF
  +--> ?PR?_READEEP?I2C
  +--> ?PR?_WRITEEEP?I2C
  +--> ?PR?_DISPLAYINFORMATION?HS_DISPLAYOSD
  +--> ?PR?_WAIT_MS?CPU
  +--> ?PR?CLEARGAUGEINFO?HS_DISPLAYOSD
  +--> ?PR?DISPLAYINPUT?DISPINFO
  +--> ?PR?_POWERLED?CPU
  +--> ?PR?SETOSDLASTKEYINTIME?MAIN
  +--> ?PR?_DELAY?CPU
  +--> ?PR?GETDISPLAYEDOSD?DISPINFO
  +--> ?PR?OSDSELECT?OSDMENU
  +--> ?PR?CLEAROSDINFO?DISPINFO
  +--> ?PR?_OSDVALUEUPDN?OSDMENU
  +--> ?PR?_OSDCURSORMOVE?OSDMENU
  +--> ?PR?_ACTIONREMO?KEYREMO
  +--> ?PR?SETSELECTMODE?HS_KEYREMO
  +--> ?PR?SETJUMPMODE?HS_KEYREMO
  +--> ?PR?_CAM_TXCOMMAND_TORS485?HS_DVRPROT...
  +--> ?PR?_HS_DVRTXCMDPASER?HS_DVRPROTOCOL

?PR?_GETKEY?KEYREMO                              0022H.4  0000H.1    0007H    0001H
  +--> ?PR?CLEAROSDINFO?DISPINFO
  +--> ?PR?_CLEARDATACNT?OSDBASIC
  +--> ?PR?_DRAWATTRCNT?OSDBASIC
  +--> ?PR?_DISPLAYINFORMATION?HS_DISPLAYOSD
  +--> ?PR?_WAIT_MS?CPU
  +--> ?PR?SETNOWMODE?HS_KEYREMO
  +--> ?CO?KEYREMO
  +--> ?PR?_PUTS?PRINTF
  +--> ?PR?_PRINTF?PRINTF
  +--> ?PR?_READEEP?I2C

?PR?SETOSDLASTKEYINTIME?MAIN                     -----    -----      -----    -----
  +--> ?PR?GETTIME_MS?CPU

?PR?OSDSELECT?OSDMENU                            -----    -----      0009H    0002H
  +--> ?PR?OSDMENU
  +--> ?PR?GETINPUTSELECTION?MAIN
  +--> ?PR?READVINPUTSTD?MAIN
  +--> ?PR?_DOACTION?OSDMENU
  +--> ?PR?DISPLAYCURSOR?OSDMENU
  +--> ?PR?_GETITEMVALUE?OSDMENU
  +--> ?PR?_WRITEI2C?I2C
  +--> ?PR?PUSHMENU?OSDMENU
  +--> ?PR?_GET_CURSOR_ITEM?OSDMENU
  +--> ?PR?DISPLAYOSDMENU?OSDMENU

?PR?_DOACTION?OSDMENU                            -----    -----      000BH    0001H
  +--> ?PR?_CHANGEINPUT?MAIN
  +--> ?PR?SETNOWMODE?HS_KEYREMO
  +--> ?PR?DISPLAYINPUT?DISPINFO
  +--> ?CO?OSDMENU
  +--> ?PR?OSDMENU
  +--> ?PR?_PRINTF?PRINTF
  +--> ?PR?CLEAROSDINFO?DISPINFO
BL51 BANKED LINKER/LOCATER V5.03                                                      05/28/2012  11:22:31  PAGE 23


  +--> ?PR?_HS_DVRTXCMDPASER?HS_DVRPROTOCOL
  +--> ?PR?DISPLAYINFO_OSD?OSDMENU
  +--> ?PR?CLOSEOSDMENU?OSDMENU
  +--> ?PR?_READEEP?I2C
  +--> ?PR?_DISPLAYINFORMATION?HS_DISPLAYOSD
  +--> ?PR?DVRRECEIVEPASER?HS_DVRPROTOCOL
  +--> ?PR?_WRITEEEP?I2C
  +--> ?PR?OSDHIGHMENU_SUB?OSDMENU
  +--> ?PR?_WAIT_MS?CPU
  +--> ?PR?_CAM_TXCOMMAND_TORS485?HS_DVRPROT...
  +--> ?PR?RESETVIDEOVALUE?OSDMENU
  +--> ?PR?RESETOSDVALUE?OSDMENU

?PR?DISPLAYINFO_OSD?OSDMENU                      -----    -----      000CH    0008H
  +--> ?PR?PUSHMENU?OSDMENU
  +--> ?PR?OSDMENU
  +--> ?PR?_DRAWMENULIST?OSDMENU
  +--> ?PR?_DRAWATTRCNT?OSDBASIC
  +--> ?CO?OSDMENU
  +--> ?PR?_WRITESTRINGTOADDR?OSDBASIC
  +--> ?PR?GETINPUTSELECTION?MAIN
  +--> ?CO?MAIN
  +--> ?PR?_STRLEN?OSDBASIC
  +--> ?PR?GETVINPUTSTDINX?MAIN
  +--> ?PR?_READEEP?I2C

?PR?OSDHIGHMENU_SUB?OSDMENU                      -----    -----      000CH    0001H
  +--> ?PR?OSDMENU
  +--> ?PR?POPMENU?OSDMENU
  +--> ?PR?CLOSEOSDMENU?OSDMENU
  +--> ?CO?OSDMENU
  +--> ?PR?_PRINTF?PRINTF
  +--> ?PR?DISPLAYOSDMENU?OSDMENU
  +--> ?PR?_DRAWMENULIST?OSDMENU
  +--> ?PR?DISPLAYCURSOR?OSDMENU
  +--> ?PR?_WRITEI2C?I2C

?PR?_CAM_TXCOMMAND_TORS485?HS_DVRPROT...         -----    -----      000CH    0002H
  +--> ?PR?HS_DVRPROTOCOL
  +--> ?PR?SEND_PELCOP_COMMAND?HS_DVRPROTOCOL
  +--> ?PR?SEND_PELCOD_COMMAND?HS_DVRPROTOCOL

?PR?SEND_PELCOP_COMMAND?HS_DVRPROTOCOL           -----    -----      000EH    0001H
  +--> ?PR?HS_DVRPROTOCOL
  +--> ?CO?HS_DVRPROTOCOL
  +--> ?PR?_PRINTF?PRINTF
  +--> ?PR?_WAIT_MS?CPU
  +--> ?PR?_RS2_TX?CPU

?PR?SEND_PELCOD_COMMAND?HS_DVRPROTOCOL           -----    -----      000EH    0001H
  +--> ?PR?HS_DVRPROTOCOL
  +--> ?CO?HS_DVRPROTOCOL
  +--> ?PR?_PRINTF?PRINTF
  +--> ?PR?_WAIT_MS?CPU
  +--> ?PR?_RS2_TX?CPU

?PR?_GET_CURSOR_ITEM?OSDMENU                     -----    -----      000BH    0002H
BL51 BANKED LINKER/LOCATER V5.03                                                      05/28/2012  11:22:31  PAGE 24


  +--> ?PR?GETINPUTSELECTION?MAIN
  +--> ?PR?_GETTARGETCHILD?OSDMENU

?PR?_GETTARGETCHILD?OSDMENU                      -----    -----      -----    -----
  +--> ?PR?OSDMENU
  +--> ?PR?_GETLOWERMENUITEM?OSDMENU

?PR?_OSDVALUEUPDN?OSDMENU                        -----    -----      0009H    0008H
  +--> ?PR?OSDMENU
  +--> ?PR?_SETITEMVALUE?OSDMENU
  +--> ?PR?_DISPLAYVIEWBAR?OSDMENU
  +--> ?PR?_DRAWNUM?OSDMENU
  +--> ?PR?_DRAWSTRINGBYLANG?OSDMENU

?PR?_SETITEMVALUE?OSDMENU                        -----    -----      0011H    0004H
  +--> ?PR?OSDMENU
  +--> ?CO?OSDMENU
  +--> ?PR?_PRINTF?PRINTF
  +--> ?PR?_SETLANGUAGE?OSDMENU
  +--> ?PR?_SETPCCOLORTEMP?OSDMENU
  +--> ?PR?_SETPCCOLOR?OSDMENU
  +--> ?PR?_SETVIDEOMODE?OSDMENU
  +--> ?PR?_READEEP?I2C
  +--> ?PR?_DRAWATTRCNT?OSDBASIC
  +--> ?PR?_CHANGEVIDEODATA?OSDMENU
  +--> ?PR?_SETVIDEOSHARPNESS?OSDMENU
  +--> ?PR?_CHANGEVOL?AUDIO
  +--> ?PR?_SET4WIDESCREEN?OSDMENU
  +--> ?PR?_WRITEEEP?I2C
  +--> ?PR?SETNOWMODE?HS_KEYREMO
  +--> ?PR?GETINPUTSELECTION?MAIN
  +--> ?PR?_TW2835COMMAND?CPU
  +--> ?PR?SEQMODE?HS_KEYREMO
  +--> ?PR?_CAMOUTDSEL?OSDMENU
  +--> ?PR?_HS_DVRTXCMDPASER?HS_DVRPROTOCOL
  +--> ?PR?_DVRAODIOSEL?OSDMENU

?PR?_SETLANGUAGE?OSDMENU                         -----    -----      -----    -----
  +--> ?PR?OSDMENU
  +--> ?PR?_SAVEOSDLANGEE?ETC_EEP

?PR?_SETPCCOLORTEMP?OSDMENU                      -----    -----      0015H    0002H
  +--> ?PR?OSDMENU
  +--> ?PR?_WRITEEEP?I2C
  +--> ?PR?_READEEP?I2C
  +--> ?CO?OSDMENU
  +--> ?PR?_MAPPING1?TW88
  +--> ?PR?_SETRGBCONTRAST?OSDMENU
  +--> ?PR?_DRAWATTRCNT?OSDBASIC

?PR?_SETRGBCONTRAST?OSDMENU                      -----    -----      0017H    0008H
  +--> ?PR?_READEEP?I2C
  +--> ?PR?OSDMENU
  +--> ?PR?_MAPPING1?TW88
  +--> ?PR?_WRITEI2C?I2C

?PR?_SETPCCOLOR?OSDMENU                          -----    -----      0015H    0007H
BL51 BANKED LINKER/LOCATER V5.03                                                      05/28/2012  11:22:31  PAGE 25


  +--> ?PR?OSDMENU
  +--> ?PR?_MAPPING1?TW88
  +--> ?PR?_WRITEEEP?I2C
  +--> ?PR?_READEEP?I2C
  +--> ?CO?OSDMENU
  +--> ?PR?_WRITEI2C?I2C

?PR?_CHANGEVIDEODATA?OSDMENU                     -----    -----      0015H    0003H
  +--> ?PR?OSDMENU
  +--> ?PR?_SETVIDEOCONTRAST?OSDMENU
  +--> ?PR?_SETVIDEOBRIGHTNESS?OSDMENU
  +--> ?PR?_SETVIDEOSATURATION?OSDMENU
  +--> ?PR?_SETVIDEOHUE?OSDMENU
  +--> ?PR?_SETVIDEOBACKLIGHT?OSDMENU
  +--> ?PR?_SAVEVIDEODATATOEE?ETC_EEP

?PR?_SETVIDEOBACKLIGHT?OSDMENU                   -----    -----      0018H    0003H
  +--> ?PR?OSDMENU
  +--> ?CO?OSDMENU
  +--> ?PR?_MAPPING1?TW88
  +--> ?PR?_READI2C?I2C
  +--> ?PR?_WRITEI2C?I2C

?PR?_SETVIDEOSHARPNESS?OSDMENU                   -----    -----      0015H    0005H
  +--> ?PR?_READI2C?I2C
  +--> ?CO?OSDMENU
  +--> ?PR?OSDMENU
  +--> ?PR?_MAPPING1?TW88
  +--> ?PR?_WRITEI2C?I2C
  +--> ?PR?_SAVEVIDEODATATOEE?ETC_EEP

?PR?_OSDCURSORMOVE?OSDMENU                       -----    -----      0009H    0004H
  +--> ?PR?OSDMENU
  +--> ?PR?_READEEP?I2C
  +--> ?PR?_GETNEXTCURSORMENUITEM?OSDMENU
  +--> ?PR?_GETLOWERMENUITEM?OSDMENU
  +--> ?PR?CLEARVALUEWIN?OSDMENU
  +--> ?PR?CLEARCURSOR?OSDMENU
  +--> ?PR?_PRINTF?PRINTF
  +--> ?PR?WAITENDOFDISPLAYAREA?OSDBASIC
  +--> ?PR?_GETOSDWINDOWY?OSDBASIC
  +--> ?PR?_SETOSDWINDOWY_TW88?OSDBASIC
  +--> ?PR?_WRITEI2C?I2C
  +--> ?PR?DISPLAYOSDMENU?OSDMENU
  +--> ?PR?_DRAWMENULIST?OSDMENU
  +--> ?PR?DISPLAYCURSOR?OSDMENU

?PR?_GETNEXTCURSORMENUITEM?OSDMENU               -----    -----      000DH    0005H
  +--> ?PR?_GETUPPERMENUITEM?OSDMENU
  +--> ?PR?_GETLOWERMENUITEM?OSDMENU

?PR?CLEARVALUEWIN?OSDMENU                        -----    -----      -----    -----
  +--> ?PR?SAVEVALUE1?OSDMENU

?PR?SAVEVALUE1?OSDMENU                           -----    -----      -----    -----
  +--> ?PR?OSDMENU

BL51 BANKED LINKER/LOCATER V5.03                                                      05/28/2012  11:22:31  PAGE 26


?PR?CLEARCURSOR?OSDMENU                          -----    -----      000DH    0002H
  +--> ?PR?OSDMENU
  +--> ?PR?_DRAWATTRCNT?OSDBASIC

?PR?_GETOSDWINDOWY?OSDBASIC                      -----    -----      000DH    0002H
  +--> ?PR?OSDBASIC
  +--> ?PR?_WRITEI2C?I2C
  +--> ?PR?_READI2C?I2C

?PR?_SETOSDWINDOWY_TW88?OSDBASIC                 -----    -----      000DH    0003H
  +--> ?PR?OSDBASIC
  +--> ?PR?_WRITEI2C?I2C
  +--> ?PR?_READI2C?I2C

?PR?_ACTIONREMO?KEYREMO                          -----    -----      0007H    0002H
  +--> ?PR?SETOSDLASTKEYINTIME?MAIN
  +--> ?PR?GETNEXTINPUTSELECTION?MAIN
  +--> ?PR?_CHANGEINPUT?MAIN
  +--> ?PR?GETDISPLAYEDOSD?DISPINFO
  +--> ?PR?CLEARINPUT?DISPINFO
  +--> ?PR?DISPLAYINPUT?DISPINFO
  +--> ?PR?REMOCHNUP_UPKEY?KEYREMO
  +--> ?PR?REMOCHNDN_DNKEY?KEYREMO
  +--> ?PR?OSDSELECT?OSDMENU
  +--> ?PR?REMOVOLUP_RIGHTKEY?KEYREMO
  +--> ?PR?REMOVOLDN_LEFTKEY?KEYREMO
  +--> ?PR?REMOMENU_MENUKEY?KEYREMO
  +--> ?PR?_DOACTION?OSDMENU
  +--> ?PR?_SETITEMVALUE?OSDMENU

?PR?GETNEXTINPUTSELECTION?MAIN                   -----    -----      -----    -----
  +--> ?PR?MAIN

?PR?REMOCHNUP_UPKEY?KEYREMO                      -----    -----      -----    -----
  +--> ?PR?GETDISPLAYEDOSD?DISPINFO
  +--> ?PR?_OSDCURSORMOVE?OSDMENU

?PR?REMOCHNDN_DNKEY?KEYREMO                      -----    -----      -----    -----
  +--> ?PR?GETDISPLAYEDOSD?DISPINFO
  +--> ?PR?_OSDCURSORMOVE?OSDMENU

?PR?REMOVOLUP_RIGHTKEY?KEYREMO                   -----    -----      -----    -----
  +--> ?PR?GETDISPLAYEDOSD?DISPINFO
  +--> ?PR?_OSDVALUEUPDN?OSDMENU
  +--> ?PR?OSDSELECT?OSDMENU
  +--> ?PR?KEYREMO
  +--> ?PR?_PRINTF?PRINTF
  +--> ?PR?_CHANGEVOL?AUDIO
  +--> ?PR?DISPLAYVOL?DISPINFO

?PR?KEYREMO                                      -----    -----      -----    -----
  +--> ?CO?KEYREMO

?PR?DISPLAYVOL?DISPINFO                          -----    -----      0009H    0002H
  +--> ?CO?DISPINFO
  +--> ?PR?_PRINTF?PRINTF
  +--> ?PR?CLEAROSDINFO?DISPINFO
BL51 BANKED LINKER/LOCATER V5.03                                                      05/28/2012  11:22:31  PAGE 27


  +--> ?PR?_DELAY?CPU
  +--> ?CO?OSDBASIC
  +--> ?PR?_INITOSDWINDOW?OSDBASIC
  +--> ?PR?_CLEARDATACNT?OSDBASIC
  +--> ?PR?_DRAWATTRCNT?OSDBASIC
  +--> ?PR?GETOSDLANG?OSDMENU
  +--> ?CO?OSDMENU
  +--> ?PR?_STRLEN?OSDBASIC
  +--> ?PR?_WRITESTRINGTOADDR?OSDBASIC
  +--> ?PR?_SHOWOSDWINDOW_TW88?OSDBASIC
  +--> ?PR?_SHOWOSDWINDOWALL?OSDBASIC
  +--> ?PR?_DISPLAYVOLUMEBAR?OSDMENU
  +--> ?PR?GETTIME_MS?CPU

?PR?_DISPLAYVOLUMEBAR?OSDMENU                    -----    -----      000BH    0019H
  +--> ?CO?OSDMENU
  +--> ?PR?OSDMENU
  +--> ?PR?_WRITESTRINGTOADDR?OSDBASIC

?PR?REMOVOLDN_LEFTKEY?KEYREMO                    -----    -----      -----    -----
  +--> ?PR?GETDISPLAYEDOSD?DISPINFO
  +--> ?PR?_OSDVALUEUPDN?OSDMENU
  +--> ?PR?OSDHIGHMENU?OSDMENU
  +--> ?PR?_CHANGEVOL?AUDIO
  +--> ?PR?DISPLAYVOL?DISPINFO
  +--> ?CO?KEYREMO
  +--> ?PR?_PRINTF?PRINTF
  +--> ?PR?_ADJUSTAUTODAYNIGHT?MAIN
  +--> ?PR?_DISPLAYINFORMATION?HS_DISPLAYOSD
  +--> ?PR?_WAIT_MS?CPU
  +--> ?PR?CLEARGAUGEINFO?HS_DISPLAYOSD
  +--> ?PR?DISPLAYINPUT?DISPINFO
  +--> ?PR?KEYREMO

?PR?OSDHIGHMENU?OSDMENU                          -----    -----      -----    -----
  +--> ?PR?CLEARVALUEWIN?OSDMENU
  +--> ?PR?_DRAWMENULIST?OSDMENU
  +--> ?PR?DISPLAYCURSOR?OSDMENU
  +--> ?PR?OSDMENU
  +--> ?PR?_DOACTION?OSDMENU
  +--> ?PR?CLEARCURSOR?OSDMENU
  +--> ?PR?OSDHIGHMENU_SUB?OSDMENU

?PR?REMOMENU_MENUKEY?KEYREMO                     -----    -----      -----    -----
  +--> ?PR?GETDISPLAYEDOSD?DISPINFO
  +--> ?PR?OSDHIGHMENU?OSDMENU
  +--> ?PR?OPENOSDMENU?OSDMENU

?PR?OPENOSDMENU?OSDMENU                          -----    -----      0009H    0001H
  +--> ?PR?CLEAROSDINFO?DISPINFO
  +--> ?PR?INITOSDMENU?OSDMENU
  +--> ?PR?_SHOWOSDWINDOW_TW88?OSDBASIC
  +--> ?PR?_SHOWOSDWINDOWALL?OSDBASIC
  +--> ?PR?_SETDISPLAYEDOSD?DISPINFO

?PR?SETSELECTMODE?HS_KEYREMO                     -----    -----      0007H    0001H
  +--> ?PR?HS_KEYREMO
BL51 BANKED LINKER/LOCATER V5.03                                                      05/28/2012  11:22:31  PAGE 28


  +--> ?PR?_PUTS?PRINTF
  +--> ?PR?_SETSOURCEMODE?HS_KEYREMO
  +--> ?PR?_WRITEEEP?I2C

?PR?SETJUMPMODE?HS_KEYREMO                       -----    -----      0007H    0001H
  +--> ?PR?_READEEP?I2C
  +--> ?CO?HS_KEYREMO
  +--> ?PR?_PUTS?PRINTF
  +--> ?PR?HS_KEYREMO
  +--> ?PR?_SETSOURCEMODE?HS_KEYREMO
  +--> ?PR?_WRITEEEP?I2C

?PR?CHECKANDCLEAROSD?DISPINFO                    -----    -----      0004H    0006H
  +--> ?PR?GETDISPLAYEDOSD?DISPINFO
  +--> ?PR?GETOSDLASTKEYINTIME?MAIN
  +--> ?PR?GETTIME_MS?CPU
  +--> ?PR?_DIFFTIME_MS?CPU
  +--> ?PR?CLEARTVINFO?DISPINFO
  +--> ?PR?DISPLAYINPUT?DISPINFO
  +--> ?PR?CLOSEOSDMENU?OSDMENU

?PR?POWEROFF?MAIN                                -----    -----      -----    -----
  +--> ?PR?AUDIOMUTE?AUDIO
  +--> ?PR?LCDPOWEROFF?TW88
  +--> ?PR?_POWERLED?CPU

?PR?AUDIOMUTE?AUDIO                              0022H.4  0000H.1    -----    -----
  +--> ?PR?_WRITEALC106?I2C
  +--> ?PR?_CHANGEVOL?AUDIO

?PR?WAITPOWERON?MAIN                             -----    -----      0003H    0003H
  +--> ?PR?ACCPOWERCONTROL?MAIN
  +--> ?PR?GETDISPLAYEDOSD?DISPINFO
  +--> ?PR?DVRRECEIVEPASER?HS_DVRPROTOCOL
  +--> ?PR?_HS_DVRTXCMDPASER?HS_DVRPROTOCOL
  +--> ?PR?SELECTBOXHANDLER?HS_KEYREMO
  +--> ?PR?CHECKTRIGGER?HS_KEYREMO
  +--> ?PR?_TRIGGERHANDLER?HS_KEYREMO
  +--> ?PR?_LCDPOWERON?TW88
  +--> ?PR?AUDIOMUTE?AUDIO
  +--> ?PR?POWEROFF?MAIN
  +--> ?PR?DISPLAYDVRSTATUS?HS_DISPLAYOSD
  +--> ?PR?_GETKEY?KEYREMO
  +--> ?PR?_WRITEEEP?I2C
  +--> ?PR?_POWERLED?CPU



SYMBOL TABLE OF MODULE:  .\Output\AWT_ML073G (ADC)

  VALUE           TYPE          NAME
  ----------------------------------

  -------         MODULE        ADC
  C:0000H         SYMBOL        _ICE_DUMMY_
  -------         ENDMOD        ADC

BL51 BANKED LINKER/LOCATER V5.03                                                      05/28/2012  11:22:31  PAGE 29


  -------         MODULE        CPU
  C:0000H         SYMBOL        _ICE_DUMMY_
  D:0091H         PUBLIC        P1M0
  C:B79CH         PUBLIC        InitCPU
  D:00B1H         PUBLIC        P3M0
  C:8F8CH         PUBLIC        timer0_int
  X:00FBH         PUBLIC        FormatSDCard
  D:00B2H         PUBLIC        P3M1
  D:00A0H         PUBLIC        P2
  C:C541H         PUBLIC        timer2_int
  D:00E8H         PUBLIC        P4
  X:00FCH         PUBLIC        FormatWait
  C:C661H         PUBLIC        _RS2_tx
  D:0024H         PUBLIC        DVR_buf
  D:0042H         PUBLIC        keytic
  D:00A8H         PUBLIC        IE
  D:0043H         PUBLIC        RS2_in
  B:0021H.5       PUBLIC        RepeatKey
  B:00B0H.4       PUBLIC        P3_4
  B:00A8H.4       PUBLIC        ES
  D:00B8H         PUBLIC        IP
  B:0098H.0       PUBLIC        RI
  B:0098H.1       PUBLIC        TI
  C:C5E5H         PUBLIC        RS_ready
  D:0044H         PUBLIC        tic01
  B:0021H.6       PUBLIC        KeyReady
  C:66C3H         PUBLIC        _TW2835Command
  B:0021H.7       PUBLIC        RS_Xbusy
  X:00FDH         PUBLIC        keyticSec
  D:0045H         PUBLIC        Key
  C:C312H         PUBLIC        _DiffTime_ms
  C:BE2AH         PUBLIC        serial_int
  C:000EH         PUBLIC        ext1_int
  D:0099H         PUBLIC        SBUF
  D:0087H         PUBLIC        PCON
  D:0098H         PUBLIC        SCON
  C:C350H         PUBLIC        InitVars
  D:0089H         PUBLIC        TMOD
  D:0088H         PUBLIC        TCON
  C:B7E4H         PUBLIC        _Wait_ms
  C:46B7H         PUBLIC        PanelInfoStr
  D:00BFH         PUBLIC        CHPCON
  C:8E72H         PUBLIC        main_init
  D:00F6H         PUBLIC        CHPENR
  X:00FEH         PUBLIC        PowerDownWait
  D:0046H         PUBLIC        tm01
  D:0048H         PUBLIC        stopWatch
  D:004AH         SYMBOL        RS_buf
  C:C36EH         PUBLIC        _PowerLED
  B:00A8H.5       PUBLIC        ET2
  B:00C8H.7       PUBLIC        TF2
  D:008CH         PUBLIC        TH0
  D:008DH         PUBLIC        TH1
  B:00A8H.2       PUBLIC        EX1
  D:008AH         PUBLIC        TL0
  C:0003H         PUBLIC        _RS_tx
  C:A033H         PUBLIC        InitTechwell
BL51 BANKED LINKER/LOCATER V5.03                                                      05/28/2012  11:22:31  PAGE 30


  B:0022H.0       PUBLIC        RS2_Xbusy
  B:00C8H.2       PUBLIC        TR2
  D:0052H         PUBLIC        RS_in
  D:0053H         PUBLIC        RS_out
  C:BEF8H         PUBLIC        serial2_int
  D:009AH         PUBLIC        S2BUF
  D:00AAH         PUBLIC        S2CON
  D:00C8H         PUBLIC        T2CON
  D:00BAH         PUBLIC        S2BRT
  C:C49CH         PUBLIC        _delay
  D:0054H         PUBLIC        tm001
  D:00A6H         PUBLIC        AUXR2
  C:BC92H         PUBLIC        GetTime_ms
  D:0055H         PUBLIC        tic_pc
  D:0057H         PUBLIC        RS_buf2
  D:005FH         PUBLIC        SystemClock
  C:4651H         PUBLIC        CommTable
  D:00ADH         PUBLIC        AUXIE
  C:BB5AH         SYMBOL        Com00A0
  C:BB5AH         SYMBOL        L?0161
  C:BB5BH         SYMBOL        L?0162
  C:BB5EH         SYMBOL        L?0163
  C:BB67H         SYMBOL        L?0164
  C:BB67H         SYMBOL        L?0165
  C:BB70H         SYMBOL        L?0166
  C:BB71H         SYMBOL        L?0167
  C:BB72H         SYMBOL        L?0168
  C:BB7BH         SYMBOL        L?0170
  C:BB7BH         SYMBOL        L?0171
  C:BB83H         SYMBOL        L?0172
  C:BB87H         SYMBOL        L?0173
  C:BB8FH         SYMBOL        L?0174
  C:BB92H         SYMBOL        L?0175
  -------         PROC          COM00A0
  -------         ENDPROC       COM00A0
  -------         PROC          MAIN_INIT
  -------         DO            
  X:0003H         SYMBOL        rev
  -------         ENDDO         
  C:8E72H         LINE#         252
  C:8E72H         LINE#         253
  C:8E72H         LINE#         260
  C:8E7BH         LINE#         274
  C:8E82H         LINE#         275
  C:8E94H         LINE#         277
  C:8EA1H         LINE#         278
  C:8EA1H         LINE#         279
  C:8EB4H         LINE#         280
  C:8EBBH         LINE#         281
  C:8EC9H         LINE#         282
  C:8EC9H         LINE#         287
  C:8ED2H         LINE#         288
  C:8ED2H         LINE#         289
  C:8EE0H         LINE#         290
  C:8EE0H         LINE#         291
  C:8EE8H         LINE#         294
  C:8EEDH         LINE#         295
BL51 BANKED LINKER/LOCATER V5.03                                                      05/28/2012  11:22:31  PAGE 31


  C:8EF0H         LINE#         301
  C:8EF2H         LINE#         303
  C:8EF2H         LINE#         304
  C:8EFAH         LINE#         306
  C:8EFAH         LINE#         308
  C:8EFCH         LINE#         310
  C:8EFCH         LINE#         311
  C:8F05H         LINE#         312
  C:8F0EH         LINE#         313
  C:8F14H         LINE#         314
  C:8F19H         LINE#         315
  C:8F21H         LINE#         316
  C:8F24H         LINE#         317
  C:8F29H         LINE#         319
  C:8F29H         LINE#         326
  C:8F35H         LINE#         327
  C:8F37H         LINE#         328
  C:8F3BH         LINE#         330
  C:8F40H         LINE#         331
  C:8F43H         LINE#         334
  C:8F49H         LINE#         335
  C:8F51H         LINE#         339
  C:8F54H         LINE#         342
  C:8F57H         LINE#         345
  C:8F5CH         LINE#         348
  C:8F67H         LINE#         349
  C:8F6EH         LINE#         350
  C:8F79H         LINE#         359
  C:8F82H         LINE#         360
  C:8F8BH         LINE#         362
  -------         ENDPROC       MAIN_INIT
  -------         PROC          INITCPU
  C:B79CH         LINE#         370
  C:B79CH         LINE#         371
  C:B79CH         LINE#         373
  C:B79FH         LINE#         374
  C:B7A2H         LINE#         375
  C:B7A5H         LINE#         376
  C:B7A8H         LINE#         380
  C:B7ABH         LINE#         387
  C:B7AEH         LINE#         389
  C:B7B1H         LINE#         391
  C:B7B4H         LINE#         395
  C:B7BAH         LINE#         397
  C:B7BDH         LINE#         398
  C:B7C0H         LINE#         402
  C:B7C3H         LINE#         405
  C:B7C5H         LINE#         406
  C:B7C7H         LINE#         412
  C:B7C9H         LINE#         413
  C:B7CBH         LINE#         414
  C:B7CDH         LINE#         420
  C:B7D0H         LINE#         421
  C:B7D3H         LINE#         424
  C:B7D6H         LINE#         427
  C:B7D9H         LINE#         429
  C:B7DBH         LINE#         436
BL51 BANKED LINKER/LOCATER V5.03                                                      05/28/2012  11:22:31  PAGE 32


  C:B7DEH         LINE#         440
  C:B7E0H         LINE#         441
  C:B7E3H         LINE#         442
  -------         ENDPROC       INITCPU
  -------         PROC          TIMER0_INT
  C:8F8CH         LINE#         456
  C:8F97H         LINE#         458
  C:8F99H         LINE#         465
  C:8FA3H         LINE#         468
  C:8FABH         LINE#         469
  C:8FAEH         LINE#         470
  C:8FB0H         LINE#         472
  C:8FB9H         LINE#         473
  C:8FB9H         LINE#         474
  C:8FC4H         LINE#         475
  C:8FDCH         LINE#         476
  C:8FDFH         LINE#         478
  C:8FE5H         LINE#         480
  C:8FEEH         LINE#         481
  C:8FF1H         LINE#         483
  C:8FF4H         LINE#         484
  C:8FFAH         LINE#         485
  C:8FFDH         LINE#         486
  C:9003H         LINE#         487
  C:900AH         LINE#         488
  C:900AH         LINE#         489
  C:900CH         LINE#         490
  C:9012H         LINE#         492
  C:9012H         LINE#         494
  C:9019H         LINE#         495
  C:9019H         LINE#         496
  C:901BH         LINE#         497
  C:9021H         LINE#         498
  C:9021H         LINE#         500
  C:9028H         LINE#         501
  C:9028H         LINE#         502
  C:902AH         LINE#         503
  C:9030H         LINE#         504
  C:9030H         LINE#         506
  C:9037H         LINE#         507
  C:903CH         LINE#         509
  C:903EH         LINE#         511
  C:9052H         LINE#         512
  C:9054H         LINE#         516
  C:9054H         LINE#         517
  C:905EH         LINE#         518
  C:9066H         LINE#         521
  C:906DH         LINE#         522
  C:9072H         LINE#         523
  C:9079H         LINE#         524
  C:907BH         LINE#         525
  C:907DH         LINE#         526
  C:907FH         LINE#         527
  C:9084H         LINE#         528
  C:908BH         LINE#         529
  C:908DH         LINE#         530
  C:908FH         LINE#         531
BL51 BANKED LINKER/LOCATER V5.03                                                      05/28/2012  11:22:31  PAGE 33


  C:9092H         LINE#         532
  C:9092H         LINE#         533
  C:9094H         LINE#         534
  C:9096H         LINE#         536
  C:9096H         LINE#         537
  C:9099H         LINE#         538
  C:909CH         LINE#         539
  C:909CH         LINE#         541
  C:909CH         LINE#         542
  -------         ENDPROC       TIMER0_INT
  -------         PROC          INITVARS
  C:C350H         LINE#         546
  C:C350H         LINE#         547
  C:C350H         LINE#         548
  C:C359H         LINE#         557
  C:C35DH         LINE#         562
  C:C362H         LINE#         563
  C:C367H         LINE#         565
  -------         ENDPROC       INITVARS
  C:A0BCH         SYMBOL        L?0159
  C:A0CEH         SYMBOL        L?0169
  -------         PROC          INITTECHWELL
  C:A033H         LINE#         571
  C:A033H         LINE#         572
  C:A033H         LINE#         588
  C:A03CH         LINE#         590
  C:A050H         LINE#         591
  C:A058H         LINE#         592
  C:A060H         LINE#         593
  C:A06BH         LINE#         594
  C:A075H         LINE#         595
  C:A075H         LINE#         597
  C:A07BH         LINE#         600
  C:A085H         LINE#         601
  C:A085H         LINE#         602
  C:A08BH         LINE#         603
  C:A096H         LINE#         604
  C:A096H         LINE#         605
  C:A096H         LINE#         607
  C:A09BH         LINE#         608
  C:A09BH         LINE#         609
  C:A0A9H         LINE#         610
  C:A0A9H         LINE#         611
  C:A0A9H         LINE#         613
  C:A0BCH         LINE#         617
  -------         ENDPROC       INITTECHWELL
  -------         PROC          _POWERLED
  D:0007H         SYMBOL        flag
  C:C36EH         LINE#         621
  C:C36EH         LINE#         622
  C:C36EH         LINE#         626
  C:C372H         LINE#         628
  C:C375H         LINE#         629
  C:C375H         LINE#         631
  C:C377H         LINE#         632
  C:C37AH         LINE#         633
  C:C37AH         LINE#         635
BL51 BANKED LINKER/LOCATER V5.03                                                      05/28/2012  11:22:31  PAGE 34


  C:C37DH         LINE#         636
  C:C380H         LINE#         638
  C:C381H         LINE#         639
  C:C385H         LINE#         640
  C:C385H         LINE#         642
  C:C388H         LINE#         643
  C:C38BH         LINE#         645
  C:C38BH         LINE#         646
  -------         ENDPROC       _POWERLED
  -------         PROC          EXT1_INT
  C:000EH         LINE#         655
  C:000EH         LINE#         657
  C:0010H         LINE#         658
  -------         ENDPROC       EXT1_INT
  -------         PROC          SERIAL_INT
  C:BE2AH         LINE#         773
  C:BE31H         LINE#         779
  C:BE34H         LINE#         780
  C:BE36H         LINE#         781
  C:BE46H         LINE#         783
  C:BE48H         LINE#         784
  C:BE52H         LINE#         785
  C:BE52H         LINE#         787
  C:BE55H         LINE#         788
  C:BE57H         LINE#         789
  C:BE59H         LINE#         790
  C:BE59H         LINE#         791
  -------         ENDPROC       SERIAL_INT
  -------         PROC          SERIAL2_INT
  C:BEF8H         LINE#         795
  C:BEFFH         LINE#         800
  C:BF04H         LINE#         801
  C:BF04H         LINE#         803
  C:BF07H         LINE#         804
  C:BF0EH         LINE#         806
  C:BF10H         LINE#         807
  C:BF1AH         LINE#         808
  C:BF1AH         LINE#         810
  C:BF1FH         LINE#         811
  C:BF1FH         LINE#         812
  C:BF22H         LINE#         813
  C:BF24H         LINE#         814
  C:BF24H         LINE#         815
  -------         ENDPROC       SERIAL2_INT
  -------         PROC          RS_READY
  C:C5E5H         LINE#         822
  C:C5E5H         LINE#         823
  C:C5E5H         LINE#         824
  C:C5EDH         LINE#         825
  C:C5EFH         LINE#         826
  -------         ENDPROC       RS_READY
  -------         PROC          _RS_TX
  D:0007H         SYMBOL        tx_buf
  C:0003H         LINE#         848
  C:0003H         LINE#         849
  C:0003H         LINE#         850
  C:0006H         LINE#         851
BL51 BANKED LINKER/LOCATER V5.03                                                      05/28/2012  11:22:31  PAGE 35


  C:0008H         LINE#         852
  C:000AH         LINE#         853
  -------         ENDPROC       _RS_TX
  -------         PROC          _RS2_TX
  D:0007H         SYMBOL        tx_buf
  C:C661H         LINE#         858
  C:C661H         LINE#         859
  C:C661H         LINE#         868
  C:C664H         LINE#         869
  C:C666H         LINE#         870
  C:C668H         LINE#         871
  -------         ENDPROC       _RS2_TX
  -------         PROC          TIMER2_INT
  C:C541H         LINE#         912
  C:C543H         LINE#         914
  C:C545H         LINE#         916
  C:C54DH         LINE#         1047
  -------         ENDPROC       TIMER2_INT
  -------         PROC          _DELAY
  D:0007H         SYMBOL        cnt
  -------         DO            
  D:0006H         SYMBOL        ttic01
  -------         ENDDO         
  C:C49CH         LINE#         1050
  C:C49CH         LINE#         1051
  C:C49CH         LINE#         1054
  C:C4A7H         LINE#         1055
  C:C4A7H         LINE#         1057
  C:C4B0H         LINE#         1058
  -------         ENDPROC       _DELAY
  -------         PROC          GETTIME_MS
  -------         DO            
  X:0028H         SYMBOL        tms
  -------         ENDDO         
  C:BC92H         LINE#         1065
  C:BC92H         LINE#         1066
  C:BC92H         LINE#         1069
  C:BC9BH         LINE#         1070
  C:BCC6H         LINE#         1071
  C:BCCEH         LINE#         1072
  -------         ENDPROC       GETTIME_MS
  -------         PROC          _DIFFTIME_MS
  D:0006H         SYMBOL        stime
  D:0004H         SYMBOL        etime
  C:C312H         LINE#         1121
  C:C312H         LINE#         1122
  C:C312H         LINE#         1126
  C:C319H         LINE#         1127
  C:C329H         LINE#         1128
  C:C329H         LINE#         1129
  C:C329H         LINE#         1130
  C:C330H         LINE#         1131
  C:C330H         LINE#         1132
  -------         ENDPROC       _DIFFTIME_MS
  -------         PROC          _WAIT_MS
  X:002CH         SYMBOL        Tms
  -------         DO            
BL51 BANKED LINKER/LOCATER V5.03                                                      05/28/2012  11:22:31  PAGE 36


  X:002EH         SYMBOL        count
  -------         ENDDO         
  C:B7E4H         LINE#         1134
  C:B7ECH         LINE#         1135
  C:B7ECH         LINE#         1141
  C:B7F6H         LINE#         1142
  C:B7F6H         LINE#         1143
  C:B81FH         LINE#         1144
  C:B829H         LINE#         1145
  C:B82BH         LINE#         1146
  -------         ENDPROC       _WAIT_MS
  -------         PROC          _TW2835COMMAND
  X:001BH         SYMBOL        _commid
  D:0005H         SYMBOL        _attr0
  D:0003H         SYMBOL        _attr1
  X:001EH         SYMBOL        _attr2
  X:001FH         SYMBOL        _attr3
  -------         DO            
  X:0020H         SYMBOL        AttrBuf
  X:0024H         SYMBOL        i
  X:0025H         SYMBOL        j
  X:0026H         SYMBOL        WaitCnt
  -------         ENDDO         
  C:66C3H         LINE#         1149
  C:66C9H         LINE#         1150
  C:66C9H         LINE#         1155
  C:66CDH         LINE#         1156
  C:66D1H         LINE#         1157
  C:66D8H         LINE#         1158
  C:66DDH         LINE#         1162
  C:674BH         LINE#         1163
  C:674BH         LINE#         1165
  C:674BH         LINE#         1166
  C:674BH         LINE#         1167
  C:674BH         LINE#         1168
  C:674BH         LINE#         1169
  C:674BH         LINE#         1170
  C:674BH         LINE#         1171
  C:674DH         LINE#         1173
  C:674DH         LINE#         1174
  C:674DH         LINE#         1175
  C:674DH         LINE#         1176
  C:6752H         LINE#         1177
  C:6754H         LINE#         1178
  C:6754H         LINE#         1179
  C:6754H         LINE#         1180
  C:6756H         LINE#         1182
  C:6756H         LINE#         1183
  C:6756H         LINE#         1184
  C:6756H         LINE#         1185
  C:6759H         LINE#         1186
  C:675BH         LINE#         1187
  C:675BH         LINE#         1188
  C:675BH         LINE#         1189
  C:675DH         LINE#         1191
  C:675DH         LINE#         1192
  C:675DH         LINE#         1193
BL51 BANKED LINKER/LOCATER V5.03                                                      05/28/2012  11:22:31  PAGE 37


  C:675DH         LINE#         1194
  C:675DH         LINE#         1195
  C:6761H         LINE#         1196
  C:6761H         LINE#         1197
  C:6761H         LINE#         1198
  C:6763H         LINE#         1200
  C:6763H         LINE#         1201
  C:6763H         LINE#         1202
  C:6768H         LINE#         1203
  C:676BH         LINE#         1204
  C:6772H         LINE#         1205
  C:6772H         LINE#         1206
  C:6774H         LINE#         1208
  C:6774H         LINE#         1209
  C:6774H         LINE#         1210
  C:6774H         LINE#         1211
  C:6774H         LINE#         1212
  C:6774H         LINE#         1213
  C:6777H         LINE#         1215
  C:6777H         LINE#         1216
  C:6778H         LINE#         1217
  C:677CH         LINE#         1218
  C:677EH         LINE#         1219
  C:677EH         LINE#         1220
  C:6780H         LINE#         1222
  C:6780H         LINE#         1223
  C:6780H         LINE#         1224
  C:6785H         LINE#         1225
  C:6787H         LINE#         1226
  C:6787H         LINE#         1227
  C:6789H         LINE#         1231
  C:6789H         LINE#         1232
  C:6789H         LINE#         1233
  C:678DH         LINE#         1234
  C:678FH         LINE#         1235
  C:678FH         LINE#         1236
  C:6791H         LINE#         1240
  C:6791H         LINE#         1241
  C:6794H         LINE#         1242
  C:6797H         LINE#         1243
  C:679AH         LINE#         1244
  C:679DH         LINE#         1245
  C:67A0H         LINE#         1252
  C:67A0H         LINE#         1253
  C:67A0H         LINE#         1254
  C:67A5H         LINE#         1255
  C:67A5H         LINE#         1256
  C:67A9H         LINE#         1257
  C:67ACH         LINE#         1258
  C:67AFH         LINE#         1263
  C:67AFH         LINE#         1264
  C:67B4H         LINE#         1265
  C:67B8H         LINE#         1266
  C:67BAH         LINE#         1267
  C:67BAH         LINE#         1268
  C:67BDH         LINE#         1270
  C:67BDH         LINE#         1271
BL51 BANKED LINKER/LOCATER V5.03                                                      05/28/2012  11:22:31  PAGE 38


  C:67BDH         LINE#         1272
  C:67BDH         LINE#         1273
  C:67C2H         LINE#         1274
  C:67C5H         LINE#         1275
  C:67C5H         LINE#         1276
  C:67C8H         LINE#         1278
  C:67C8H         LINE#         1279
  C:67C8H         LINE#         1280
  C:67C8H         LINE#         1281
  C:67CDH         LINE#         1282
  C:67D4H         LINE#         1283
  C:67D4H         LINE#         1284
  C:67D6H         LINE#         1286
  C:67D6H         LINE#         1287
  C:67D6H         LINE#         1288
  C:67DAH         LINE#         1289
  C:67DDH         LINE#         1290
  C:67DDH         LINE#         1291
  C:67E0H         LINE#         1293
  C:67E0H         LINE#         1294
  C:67E0H         LINE#         1295
  C:67E1H         LINE#         1296
  C:67E4H         LINE#         1297
  C:67E7H         LINE#         1298
  C:67E7H         LINE#         1299
  C:67E9H         LINE#         1301
  C:67E9H         LINE#         1302
  C:67EAH         LINE#         1303
  C:67EEH         LINE#         1304
  C:67F1H         LINE#         1305
  C:67F4H         LINE#         1306
  C:67F6H         LINE#         1308
  C:67F6H         LINE#         1309
  C:67FBH         LINE#         1310
  C:67FCH         LINE#         1311
  C:6800H         LINE#         1312
  C:6808H         LINE#         1313
  C:680AH         LINE#         1315
  C:680AH         LINE#         1316
  C:680AH         LINE#         1317
  C:680DH         LINE#         1318
  C:680DH         LINE#         1319
  C:6811H         LINE#         1320
  C:6814H         LINE#         1321
  C:6816H         LINE#         1323
  C:6819H         LINE#         1325
  C:681DH         LINE#         1326
  C:681FH         LINE#         1327
  C:681FH         LINE#         1328
  C:6821H         LINE#         1330
  C:6821H         LINE#         1331
  C:6824H         LINE#         1332
  C:6827H         LINE#         1333
  C:682FH         LINE#         1334
  C:6832H         LINE#         1335
  C:6832H         LINE#         1336
  C:6832H         LINE#         1337
BL51 BANKED LINKER/LOCATER V5.03                                                      05/28/2012  11:22:31  PAGE 39


  C:6852H         LINE#         1338
  C:6857H         LINE#         1339
  C:6857H         LINE#         1340
  C:6899H         LINE#         1341
  C:68A4H         LINE#         1342
  C:68C2H         LINE#         1343
  C:68C2H         LINE#         1344
  C:68D1H         LINE#         1345
  C:68D1H         LINE#         1346
  C:68DAH         LINE#         1347
  C:68DAH         LINE#         1348
  C:68F1H         LINE#         1349
  C:68F4H         LINE#         1350
  C:68F4H         LINE#         1351
  C:68FCH         LINE#         1352
  C:68FCH         LINE#         1353
  C:6903H         LINE#         1354
  C:6912H         LINE#         1355
  C:6914H         LINE#         1357
  -------         ENDPROC       _TW2835COMMAND
  -------         ENDMOD        CPU

  -------         MODULE        DISPINFO
  C:0000H         SYMBOL        _ICE_DUMMY_
  C:B4AAH         PUBLIC        TW8806String
  X:0101H         PUBLIC        DisplayedOSD
  C:9EDDH         PUBLIC        DisplayVol
  C:C550H         PUBLIC        ClearMuteInfo
  C:C6A0H         PUBLIC        _SetDisplayedOSD
  D:006AH         SYMBOL        OSDDisplayedTime
  C:C193H         PUBLIC        ClearTVInfo
  C:C6A7H         PUBLIC        GetDisplayedOSD
  C:B4B7H         PUBLIC        TechwellString
  C:AA68H         PUBLIC        CheckAndClearOSD
  C:C5C1H         PUBLIC        _ClearDisplayedOSD
  C:BBD8H         PUBLIC        ClearOSDInfo
  C:B2B2H         PUBLIC        DisplayLogo
  C:84CFH         PUBLIC        DisplayInput
  C:C699H         PUBLIC        ClearLogo
  C:C486H         PUBLIC        ClearInput
  C:C24EH         SYMBOL        Com002A
  C:C24EH         SYMBOL        L?0043
  C:C24EH         SYMBOL        L?0044
  C:C259H         SYMBOL        L?0045
  C:C268H         SYMBOL        L?0046
  -------         PROC          COM002A
  -------         ENDPROC       COM002A
  -------         PROC          DISPLAYLOGO
  -------         DO            
  X:0005H         SYMBOL        str
  -------         ENDDO         
  C:B2B2H         LINE#         77
  C:B2B2H         LINE#         78
  C:B2B2H         LINE#         86
  C:B2BCH         LINE#         89
  C:B2C5H         LINE#         95
  C:B2CDH         LINE#         97
BL51 BANKED LINKER/LOCATER V5.03                                                      05/28/2012  11:22:31  PAGE 40


  C:B2D7H         LINE#         98
  C:B2E2H         LINE#         100
  C:B2F7H         LINE#         101
  C:B306H         LINE#         103
  -------         ENDPROC       DISPLAYLOGO
  -------         PROC          CLEARLOGO
  C:C699H         LINE#         107
  C:C699H         LINE#         108
  C:C699H         LINE#         109
  -------         ENDPROC       CLEARLOGO
  -------         PROC          _CLEARDISPLAYEDOSD
  D:0007H         SYMBOL        newd
  C:C5C1H         LINE#         116
  C:C5C1H         LINE#         117
  C:C5C1H         LINE#         118
  C:C5CCH         LINE#         119
  -------         ENDPROC       _CLEARDISPLAYEDOSD
  -------         PROC          _SETDISPLAYEDOSD
  D:0007H         SYMBOL        newd
  C:C6A0H         LINE#         121
  C:C6A0H         LINE#         122
  C:C6A0H         LINE#         123
  C:C6A6H         LINE#         124
  -------         ENDPROC       _SETDISPLAYEDOSD
  -------         PROC          GETDISPLAYEDOSD
  C:C6A7H         LINE#         126
  C:C6A7H         LINE#         127
  C:C6A7H         LINE#         128
  C:C6ACH         LINE#         129
  -------         ENDPROC       GETDISPLAYEDOSD
  -------         PROC          CLEAROSDINFO
  -------         DO            
  X:003EH         SYMBOL        dt
  -------         ENDDO         
  C:BBD8H         LINE#         131
  C:BBD8H         LINE#         132
  C:BBD8H         LINE#         135
  C:BBDBH         LINE#         136
  C:BBE3H         LINE#         144
  C:BBEDH         LINE#         146
  C:BBF7H         LINE#         147
  C:BC01H         LINE#         148
  C:BC0BH         LINE#         149
  C:BC15H         LINE#         150
  -------         ENDPROC       CLEAROSDINFO
  -------         PROC          DISPLAYINPUT
  -------         DO            
  C:B4C4H         SYMBOL        Str_CAM_E
  C:B4C8H         SYMBOL        Str_CAM
  X:001CH         SYMBOL        len
  X:001DH         SYMBOL        Str
  X:0020H         SYMBOL        inputs
  X:0021H         SYMBOL        len1
  X:0022H         SYMBOL        len2
  X:0023H         SYMBOL        i
  X:0024H         SYMBOL        SystemAddr
  -------         ENDDO         
BL51 BANKED LINKER/LOCATER V5.03                                                      05/28/2012  11:22:31  PAGE 41


  C:84CFH         LINE#         152
  C:84CFH         LINE#         153
  C:84CFH         LINE#         159
  C:84E3H         LINE#         165
  C:84E9H         LINE#         168
  C:84ECH         LINE#         170
  C:84F5H         LINE#         171
  C:84FEH         LINE#         172
  C:8509H         LINE#         173
  C:8510H         LINE#         175
  C:8518H         LINE#         177
  C:8532H         LINE#         186
  C:854CH         LINE#         189
  C:8550H         LINE#         190
  C:8572H         LINE#         192
  C:857EH         LINE#         195
  C:8594H         LINE#         196
  C:85AEH         LINE#         197
  C:85B6H         LINE#         198
  C:85C0H         LINE#         199
  C:85C0H         LINE#         200
  C:85C6H         LINE#         201
  C:85DAH         LINE#         202
  C:85DCH         LINE#         204
  C:85DCH         LINE#         205
  C:85E0H         LINE#         206
  C:85EDH         LINE#         207
  C:85EDH         LINE#         219
  C:85F4H         LINE#         223
  C:85FEH         LINE#         224
  C:8602H         LINE#         226
  C:8609H         LINE#         229
  C:860EH         LINE#         232
  C:8615H         LINE#         233
  -------         ENDPROC       DISPLAYINPUT
  -------         PROC          CLEARINPUT
  C:C486H         LINE#         237
  C:C486H         LINE#         238
  C:C486H         LINE#         240
  C:C48BH         LINE#         241
  C:C492H         LINE#         244
  C:C499H         LINE#         249
  C:C49BH         LINE#         251
  -------         ENDPROC       CLEARINPUT
  -------         PROC          DISPLAYVOL
  -------         DO            
  X:0009H         SYMBOL        Str
  D:0007H         SYMBOL        len
  -------         ENDDO         
  C:9EDDH         LINE#         253
  C:9EDDH         LINE#         254
  C:9EDDH         LINE#         259
  C:9EE6H         LINE#         262
  C:9EEDH         LINE#         263
  C:9EEDH         LINE#         265
  C:9EF0H         LINE#         269
  C:9EF5H         LINE#         272
BL51 BANKED LINKER/LOCATER V5.03                                                      05/28/2012  11:22:31  PAGE 42


  C:9EFEH         LINE#         274
  C:9F07H         LINE#         275
  C:9F12H         LINE#         276
  C:9F1DH         LINE#         280
  C:9F39H         LINE#         282
  C:9F3EH         LINE#         283
  C:9F56H         LINE#         285
  C:9F5DH         LINE#         286
  C:9F64H         LINE#         287
  C:9F69H         LINE#         289
  C:9F69H         LINE#         291
  C:9F6CH         LINE#         292
  C:9F71H         LINE#         294
  C:9F79H         LINE#         296
  C:9F80H         LINE#         297
  C:9F87H         LINE#         299
  -------         ENDPROC       DISPLAYVOL
  -------         PROC          CLEARMUTEINFO
  C:C550H         LINE#         370
  C:C550H         LINE#         371
  C:C550H         LINE#         372
  C:C557H         LINE#         373
  C:C55EH         LINE#         374
  -------         ENDPROC       CLEARMUTEINFO
  -------         PROC          CHECKANDCLEAROSD
  -------         DO            
  D:0004H         SYMBOL        ctime
  X:0004H         SYMBOL        stime
  X:0006H         SYMBOL        diff
  X:0008H         SYMBOL        dt
  X:0009H         SYMBOL        Result
  -------         ENDDO         
  C:AA68H         LINE#         376
  C:AA68H         LINE#         377
  C:AA68H         LINE#         380
  C:AA6DH         LINE#         382
  C:AA75H         LINE#         383
  C:AA79H         LINE#         385
  C:AA7DH         LINE#         386
  C:AA88H         LINE#         387
  C:AA90H         LINE#         388
  C:AA92H         LINE#         389
  C:AA92H         LINE#         390
  C:AA9CH         LINE#         391
  C:AAA3H         LINE#         392
  C:AAA3H         LINE#         394
  C:AAAAH         LINE#         396
  C:AAC2H         LINE#         400
  C:AACAH         LINE#         401
  C:AACAH         LINE#         405
  C:AAD2H         LINE#         406
  C:AAD5H         LINE#         407
  C:AAD5H         LINE#         409
  C:AADCH         LINE#         410
  C:AADCH         LINE#         414
  C:AAE4H         LINE#         415
  C:AAE7H         LINE#         416
BL51 BANKED LINKER/LOCATER V5.03                                                      05/28/2012  11:22:31  PAGE 43


  C:AAE7H         LINE#         428
  C:AAEAH         LINE#         429
  C:AAEAH         LINE#         430
  C:AAEAH         LINE#         432
  C:AAECH         LINE#         433
  -------         ENDPROC       CHECKANDCLEAROSD
  C:C1AFH         SYMBOL        L?0047
  -------         PROC          CLEARTVINFO
  C:C193H         LINE#         523
  C:C193H         LINE#         524
  C:C193H         LINE#         526
  C:C19AH         LINE#         527
  C:C19CH         LINE#         528
  C:C1A2H         LINE#         529
  C:C1A4H         LINE#         531
  C:C1A4H         LINE#         532
  C:C1A6H         LINE#         533
  C:C1ACH         LINE#         534
  C:C1ACH         LINE#         535
  C:C1AEH         LINE#         536
  -------         ENDPROC       CLEARTVINFO
  -------         ENDMOD        DISPINFO

  -------         MODULE        ETC_EEP
  C:0000H         SYMBOL        _ICE_DUMMY_
  C:C619H         PUBLIC        _SaveWideModeEE
  C:C669H         PUBLIC        GetDebugLevelEE
  C:C681H         PUBLIC        GetOSDLangEE
  C:C679H         PUBLIC        GetPossibleAutoDetectStdEE
  C:A9E0H         PUBLIC        SetPossibleAutoDetectStdEE
  C:C26FH         PUBLIC        _GetVideoDatafromEE
  C:C622H         PUBLIC        _SaveInputSelectionEE
  C:C671H         PUBLIC        GetWideModeEE
  C:C634H         PUBLIC        _SetAudioVolEE
  C:BA55H         PUBLIC        _SaveFWRevEE
  C:C63DH         PUBLIC        _SetPCAudioVolEE
  C:C689H         PUBLIC        GetAudioVolEE
  C:C50EH         PUBLIC        _SaveVideoDatatoEE
  C:C145H         PUBLIC        ClearBasicEE
  C:C610H         PUBLIC        _SaveDebugLevelEE
  C:C62BH         PUBLIC        _SaveOSDLangEE
  C:C691H         PUBLIC        GetPCAudioVolEE
  C:B1F3H         PUBLIC        GetFWRevEE
  -------         PROC          GETFWREVEE
  -------         DO            
  X:0005H         SYMBOL        rev
  -------         ENDDO         
  C:B1F3H         LINE#         21
  C:B1F3H         LINE#         22
  C:B1F3H         LINE#         25
  C:B200H         LINE#         26
  C:B20EH         LINE#         27
  C:B21CH         LINE#         28
  C:B22CH         LINE#         30
  C:B23BH         LINE#         31
  C:B253H         LINE#         33
  C:B253H         LINE#         34
BL51 BANKED LINKER/LOCATER V5.03                                                      05/28/2012  11:22:31  PAGE 44


  -------         ENDPROC       GETFWREVEE
  -------         PROC          _SAVEFWREVEE
  X:0005H         SYMBOL        rev
  C:BA55H         LINE#         36
  C:BA5DH         LINE#         37
  C:BA5DH         LINE#         38
  C:BA65H         LINE#         39
  C:BA6EH         LINE#         40
  C:BA77H         LINE#         41
  C:BA80H         LINE#         43
  C:BA8CH         LINE#         44
  -------         ENDPROC       _SAVEFWREVEE
  -------         PROC          GETDEBUGLEVELEE
  C:C669H         LINE#         47
  C:C669H         LINE#         48
  C:C669H         LINE#         49
  C:C670H         LINE#         50
  -------         ENDPROC       GETDEBUGLEVELEE
  -------         PROC          _SAVEDEBUGLEVELEE
  D:0007H         SYMBOL        dl
  C:C610H         LINE#         52
  C:C610H         LINE#         53
  C:C610H         LINE#         54
  -------         ENDPROC       _SAVEDEBUGLEVELEE
  -------         PROC          GETWIDEMODEEE
  C:C671H         LINE#         59
  C:C671H         LINE#         60
  C:C671H         LINE#         61
  C:C678H         LINE#         62
  -------         ENDPROC       GETWIDEMODEEE
  -------         PROC          _SAVEWIDEMODEEE
  D:0007H         SYMBOL        dl
  C:C619H         LINE#         64
  C:C619H         LINE#         65
  C:C619H         LINE#         66
  -------         ENDPROC       _SAVEWIDEMODEEE
  -------         PROC          GETPOSSIBLEAUTODETECTSTDEE
  -------         DO            
  D:0007H         SYMBOL        val
  -------         ENDDO         
  C:C679H         LINE#         71
  C:C679H         LINE#         72
  C:C679H         LINE#         75
  C:C680H         LINE#         81
  C:C680H         LINE#         82
  -------         ENDPROC       GETPOSSIBLEAUTODETECTSTDEE
  -------         PROC          SETPOSSIBLEAUTODETECTSTDEE
  -------         DO            
  X:0005H         SYMBOL        i
  X:0006H         SYMBOL        val
  -------         ENDDO         
  C:A9E0H         LINE#         84
  C:A9E0H         LINE#         85
  C:A9E0H         LINE#         86
  C:A9E5H         LINE#         89
  C:A9E9H         LINE#         90
  C:AA17H         LINE#         91
BL51 BANKED LINKER/LOCATER V5.03                                                      05/28/2012  11:22:31  PAGE 45


  C:AA17H         LINE#         92
  C:AA23H         LINE#         98
  C:AA23H         LINE#         99
  C:AA2CH         LINE#         100
  C:AA35H         LINE#         101
  C:AA3EH         LINE#         102
  C:AA47H         LINE#         103
  C:AA50H         LINE#         104
  C:AA59H         LINE#         105
  C:AA60H         LINE#         106
  C:AA60H         LINE#         107
  C:AA60H         LINE#         108
  -------         ENDPROC       SETPOSSIBLEAUTODETECTSTDEE
  -------         PROC          _GETVIDEODATAFROMEE
  D:0003H         SYMBOL        offset
  -------         DO            
  D:0007H         SYMBOL        val
  -------         ENDDO         
  C:C26FH         LINE#         134
  C:C271H         LINE#         135
  C:C271H         LINE#         138
  C:C28FH         LINE#         140
  C:C28FH         LINE#         141
  -------         ENDPROC       _GETVIDEODATAFROMEE
  -------         PROC          _SAVEVIDEODATATOEE
  D:0007H         SYMBOL        offset
  D:0005H         SYMBOL        ndata
  -------         DO            
  D:0007H         SYMBOL        tot
  -------         ENDDO         
  C:C50EH         LINE#         143
  C:C50EH         LINE#         144
  C:C50EH         LINE#         147
  C:C51AH         LINE#         149
  -------         ENDPROC       _SAVEVIDEODATATOEE
  -------         PROC          _SAVEINPUTSELECTIONEE
  D:0007H         SYMBOL        val
  C:C622H         LINE#         177
  C:C622H         LINE#         178
  C:C622H         LINE#         179
  -------         ENDPROC       _SAVEINPUTSELECTIONEE
  -------         PROC          GETOSDLANGEE
  -------         DO            
  D:0007H         SYMBOL        val
  -------         ENDDO         
  C:C681H         LINE#         203
  C:C681H         LINE#         204
  C:C681H         LINE#         207
  C:C688H         LINE#         213
  C:C688H         LINE#         214
  -------         ENDPROC       GETOSDLANGEE
  -------         PROC          _SAVEOSDLANGEE
  D:0007H         SYMBOL        val
  C:C62BH         LINE#         216
  C:C62BH         LINE#         217
  C:C62BH         LINE#         218
  -------         ENDPROC       _SAVEOSDLANGEE
BL51 BANKED LINKER/LOCATER V5.03                                                      05/28/2012  11:22:31  PAGE 46


  -------         PROC          GETAUDIOVOLEE
  C:C689H         LINE#         243
  C:C689H         LINE#         244
  C:C689H         LINE#         245
  C:C690H         LINE#         246
  -------         ENDPROC       GETAUDIOVOLEE
  -------         PROC          _SETAUDIOVOLEE
  D:0007H         SYMBOL        vol
  C:C634H         LINE#         248
  C:C634H         LINE#         249
  C:C634H         LINE#         250
  -------         ENDPROC       _SETAUDIOVOLEE
  -------         PROC          GETPCAUDIOVOLEE
  C:C691H         LINE#         253
  C:C691H         LINE#         254
  C:C691H         LINE#         255
  C:C698H         LINE#         256
  -------         ENDPROC       GETPCAUDIOVOLEE
  -------         PROC          _SETPCAUDIOVOLEE
  D:0007H         SYMBOL        vol
  C:C63DH         LINE#         257
  C:C63DH         LINE#         258
  C:C63DH         LINE#         259
  -------         ENDPROC       _SETPCAUDIOVOLEE
  -------         PROC          CLEARBASICEE
  C:C145H         LINE#         424
  C:C145H         LINE#         425
  C:C145H         LINE#         426
  C:C14DH         LINE#         427
  C:C152H         LINE#         429
  C:C159H         LINE#         430
  C:C161H         LINE#         432
  C:C164H         LINE#         438
  C:C167H         LINE#         441
  -------         ENDPROC       CLEARBASICEE
  -------         ENDMOD        ETC_EEP

  -------         MODULE        I2C
  C:0000H         SYMBOL        _ICE_DUMMY_
  D:00E8H         PUBLIC        P4
  B:0090H.0       PUBLIC        P1_0
  B:0090H.1       PUBLIC        P1_1
  C:B989H         PUBLIC        _WriteI2Cn
  C:BD47H         PUBLIC        _ReadI2C
  C:C0F5H         PUBLIC        I2CReadDataWithACK
  C:AF26H         PUBLIC        _I2CWriteData
  C:C1DFH         PUBLIC        _WriteI2C
  C:C4C5H         PUBLIC        I2C_delay
  C:C1B9H         PUBLIC        _ReadEEP
  C:BF8BH         PUBLIC        I2CReadData
  C:C074H         PUBLIC        _ReadALC106
  C:0011H         PUBLIC        dd
  C:B873H         PUBLIC        _WriteEEP
  C:C4D8H         PUBLIC        I2CStart
  C:BDB9H         PUBLIC        _WriteALC106
  C:BB1AH         PUBLIC        _ReadI2CWORD
  C:BA98H         PUBLIC        _WriteI2CnD
BL51 BANKED LINKER/LOCATER V5.03                                                      05/28/2012  11:22:31  PAGE 47


  C:0016H         PUBLIC        I2CStop
  C:BD80H         PUBLIC        _WriteI2Cn_
  C:C38CH         SYMBOL        Com003F
  C:C38CH         SYMBOL        L?0064
  C:C38CH         SYMBOL        L?0065
  C:C396H         SYMBOL        L?0066
  C:C3A3H         SYMBOL        L?0067
  C:C3A3H         SYMBOL        L?0068
  -------         PROC          COM003F
  -------         ENDPROC       COM003F
  -------         PROC          I2C_DELAY
  -------         DO            
  D:0007H         SYMBOL        i
  -------         ENDDO         
  C:C4C5H         LINE#         48
  C:C4C5H         LINE#         49
  C:C4C5H         LINE#         51
  C:C4C7H         LINE#         52
  C:C4C7H         LINE#         53
  C:C4CEH         LINE#         54
  C:C4D0H         LINE#         55
  C:C4D0H         LINE#         56
  C:C4D7H         LINE#         57
  -------         ENDPROC       I2C_DELAY
  -------         PROC          _WRITEEEP
  X:0029H         SYMBOL        index
  X:002BH         SYMBOL        dat
  -------         DO            
  X:002CH         SYMBOL        addr
  -------         ENDDO         
  C:B873H         LINE#         91
  C:B87EH         LINE#         92
  C:B87EH         LINE#         95
  C:B896H         LINE#         97
  C:B899H         LINE#         98
  C:B8A1H         LINE#         99
  C:B8A9H         LINE#         100
  C:B8B1H         LINE#         101
  C:B8B4H         LINE#         107
  -------         ENDPROC       _WRITEEEP
  -------         PROC          _READEEP
  D:0004H         SYMBOL        index
  -------         DO            
  X:0036H         SYMBOL        val
  D:0007H         SYMBOL        addr
  -------         ENDDO         
  C:C1B9H         LINE#         110
  C:C1BDH         LINE#         111
  C:C1BDH         LINE#         115
  C:C1CCH         LINE#         117
  C:C1D4H         LINE#         122
  C:C1D9H         LINE#         123
  C:C1DEH         LINE#         124
  -------         ENDPROC       _READEEP
  -------         PROC          _READI2C
  X:0044H         SYMBOL        addr
  X:0045H         SYMBOL        index
BL51 BANKED LINKER/LOCATER V5.03                                                      05/28/2012  11:22:31  PAGE 48


  -------         DO            
  X:0046H         SYMBOL        val
  -------         ENDDO         
  C:BD47H         LINE#         126
  C:BD4FH         LINE#         127
  C:BD4FH         LINE#         130
  C:BD52H         LINE#         131
  C:BD5AH         LINE#         132
  C:BD62H         LINE#         133
  C:BD65H         LINE#         134
  C:BD6FH         LINE#         135
  C:BD77H         LINE#         136
  C:BD7AH         LINE#         138
  C:BD7FH         LINE#         139
  -------         ENDPROC       _READI2C
  -------         PROC          _WRITEI2C
  X:0058H         SYMBOL        addr
  X:0059H         SYMBOL        index
  X:005AH         SYMBOL        val
  C:C1DFH         LINE#         142
  C:C1E7H         LINE#         143
  C:C1E7H         LINE#         144
  C:C1EAH         LINE#         145
  C:C1F2H         LINE#         146
  C:C1FAH         LINE#         147
  C:C202H         LINE#         148
  -------         ENDPROC       _WRITEI2C
  -------         PROC          _WRITEI2CND
  X:0042H         SYMBOL        addr
  X:0043H         SYMBOL        index
  X:0044H         SYMBOL        val
  X:0045H         SYMBOL        cnt
  -------         DO            
  X:0046H         SYMBOL        i
  -------         ENDDO         
  C:BA98H         LINE#         151
  C:BAA0H         LINE#         152
  C:BAA0H         LINE#         155
  C:BAA3H         LINE#         156
  C:BAABH         LINE#         157
  C:BAB3H         LINE#         159
  C:BAC3H         LINE#         160
  C:BACBH         LINE#         161
  C:BACEH         LINE#         162
  C:BAD6H         LINE#         164
  -------         ENDPROC       _WRITEI2CND
  -------         PROC          _WRITEI2CN
  X:0058H         SYMBOL        addr
  X:0059H         SYMBOL        index
  X:005AH         SYMBOL        val
  X:005DH         SYMBOL        cnt
  -------         DO            
  X:005EH         SYMBOL        i
  -------         ENDDO         
  C:B989H         LINE#         167
  C:B992H         LINE#         168
  C:B992H         LINE#         172
BL51 BANKED LINKER/LOCATER V5.03                                                      05/28/2012  11:22:31  PAGE 49


  C:B995H         LINE#         173
  C:B99DH         LINE#         174
  C:B9A5H         LINE#         176
  C:B9B6H         LINE#         177
  C:B9BFH         LINE#         178
  C:B9C2H         LINE#         179
  C:B9CAH         LINE#         180
  -------         ENDPROC       _WRITEI2CN
  -------         PROC          _WRITEI2CN_
  X:0043H         SYMBOL        addr
  X:0044H         SYMBOL        val
  X:0047H         SYMBOL        cnt
  -------         DO            
  X:0048H         SYMBOL        i
  -------         ENDDO         
  C:BD80H         LINE#         183
  C:BD89H         LINE#         184
  C:BD89H         LINE#         187
  C:BD8CH         LINE#         188
  C:BD94H         LINE#         190
  C:BDA5H         LINE#         191
  C:BDAEH         LINE#         192
  C:BDB6H         LINE#         193
  -------         ENDPROC       _WRITEI2CN_
  -------         PROC          DD
  C:0011H         LINE#         251
  C:0011H         LINE#         252
  C:0011H         LINE#         256
  -------         ENDPROC       DD
  -------         PROC          I2CSTART
  C:C4D8H         LINE#         261
  C:C4D8H         LINE#         262
  C:C4D8H         LINE#         263
  C:C4DDH         LINE#         264
  C:C4E2H         LINE#         265
  C:C4E7H         LINE#         266
  C:C4E9H         LINE#         267
  -------         ENDPROC       I2CSTART
  -------         PROC          I2CSTOP
  C:0016H         LINE#         269
  C:0016H         LINE#         270
  C:0016H         LINE#         271
  C:001BH         LINE#         272
  C:0020H         LINE#         273
  C:0022H         LINE#         274
  -------         ENDPROC       I2CSTOP
  -------         PROC          _I2CWRITEDATA
  D:0007H         SYMBOL        value
  C:AF26H         LINE#         276
  C:AF26H         LINE#         277
  C:AF26H         LINE#         291
  C:AF30H         LINE#         292
  C:AF3BH         LINE#         293
  C:AF46H         LINE#         294
  C:AF51H         LINE#         296
  C:AF5CH         LINE#         297
  C:AF67H         LINE#         298
BL51 BANKED LINKER/LOCATER V5.03                                                      05/28/2012  11:22:31  PAGE 50


  C:AF72H         LINE#         299
  C:AF7DH         LINE#         302
  C:AF80H         LINE#         303
  C:AF82H         LINE#         304
  C:AF84H         LINE#         305
  C:AF86H         LINE#         307
  C:AF88H         LINE#         308
  C:AF8AH         LINE#         309
  C:AF8CH         LINE#         310
  C:AF8EH         LINE#         311
  -------         ENDPROC       _I2CWRITEDATA
  -------         PROC          I2CREADDATA
  -------         DO            
  D:0004H         SYMBOL        i
  D:0007H         SYMBOL        value
  -------         ENDDO         
  C:BF8BH         LINE#         313
  C:BF8BH         LINE#         314
  C:BF8BH         LINE#         316
  C:BF8DH         LINE#         318
  C:BF92H         LINE#         319
  C:BF94H         LINE#         321
  C:BF96H         LINE#         322
  C:BF98H         LINE#         323
  C:BF9CH         LINE#         324
  C:BFA2H         LINE#         325
  C:BFA4H         LINE#         326
  C:BFAFH         LINE#         327
  C:BFB2H         LINE#         329
  C:BFB4H         LINE#         330
  C:BFB6H         LINE#         331
  C:BFB8H         LINE#         332
  C:BFBAH         LINE#         334
  C:BFBAH         LINE#         336
  -------         ENDPROC       I2CREADDATA
  -------         PROC          I2CREADDATAWITHACK
  -------         DO            
  D:0004H         SYMBOL        i
  D:0007H         SYMBOL        value
  -------         ENDDO         
  C:C0F5H         LINE#         338
  C:C0F5H         LINE#         339
  C:C0F5H         LINE#         341
  C:C0F7H         LINE#         343
  C:C0F9H         LINE#         344
  C:C0FBH         LINE#         346
  C:C0FDH         LINE#         347
  C:C0FFH         LINE#         348
  C:C103H         LINE#         349
  C:C109H         LINE#         350
  C:C10BH         LINE#         351
  C:C116H         LINE#         352
  C:C118H         LINE#         353
  C:C11AH         LINE#         354
  C:C11CH         LINE#         356
  C:C11CH         LINE#         357
  -------         ENDPROC       I2CREADDATAWITHACK
BL51 BANKED LINKER/LOCATER V5.03                                                      05/28/2012  11:22:31  PAGE 51


  -------         PROC          _READI2CWORD
  D:0006H         SYMBOL        addr
  D:0005H         SYMBOL        index
  -------         DO            
  X:0007H         SYMBOL        val
  -------         ENDDO         
  C:BB1AH         LINE#         359
  C:BB1CH         LINE#         360
  C:BB1CH         LINE#         363
  C:BB1FH         LINE#         364
  C:BB22H         LINE#         365
  C:BB27H         LINE#         366
  C:BB2AH         LINE#         367
  C:BB31H         LINE#         368
  C:BB3CH         LINE#         369
  C:BB45H         LINE#         370
  C:BB4EH         LINE#         371
  C:BB51H         LINE#         373
  C:BB59H         LINE#         374
  -------         ENDPROC       _READI2CWORD
  -------         PROC          _WRITEALC106
  D:0002H         SYMBOL        index
  D:0004H         SYMBOL        dat
  -------         DO            
  D:0007H         SYMBOL        addr
  D:0005H         SYMBOL        dat1
  D:0001H         SYMBOL        dat2
  -------         ENDDO         
  C:BDB9H         LINE#         375
  C:BDBDH         LINE#         376
  C:BDBDH         LINE#         380
  C:BDBFH         LINE#         381
  C:BDC1H         LINE#         383
  C:BDD2H         LINE#         385
  C:BDD5H         LINE#         386
  C:BDD8H         LINE#         387
  C:BDDDH         LINE#         388
  C:BDE2H         LINE#         389
  C:BDE5H         LINE#         390
  C:BDEAH         LINE#         391
  C:BDEDH         LINE#         397
  -------         ENDPROC       _WRITEALC106
  -------         PROC          _READALC106
  D:0004H         SYMBOL        index
  -------         DO            
  X:0005H         SYMBOL        val
  D:0007H         SYMBOL        addr
  -------         ENDDO         
  C:C074H         LINE#         400
  C:C078H         LINE#         401
  C:C078H         LINE#         405
  C:C087H         LINE#         407
  C:C092H         LINE#         411
  C:C097H         LINE#         412
  C:C09FH         LINE#         413
  -------         ENDPROC       _READALC106
  -------         ENDMOD        I2C
BL51 BANKED LINKER/LOCATER V5.03                                                      05/28/2012  11:22:31  PAGE 52



  -------         MODULE        KEYREMO
  C:0000H         SYMBOL        _ICE_DUMMY_
  D:00E8H         PUBLIC        P4
  B:0023H.1       PUBLIC        CAM_PTZ_RUN_flag
  X:00F6H         PUBLIC        KeyBuffer
  B:00A0H.0       PUBLIC        P2_0
  C:A956H         PUBLIC        RemoVolDn_LeftKey
  B:00B0H.5       PUBLIC        P3_5
  X:00F7H         PUBLIC        DayNightLevel
  C:BB99H         PUBLIC        RemoVolUp_RightKey
  X:00F8H         PUBLIC        lock_keycnt
  X:00F9H         PUBLIC        BookMarkState
  C:C5A7H         PUBLIC        RemoChnDn_DnKey
  C:88A1H         PUBLIC        _GetKey
  X:00FAH         PUBLIC        LockKeyState
  C:6B5FH         PUBLIC        CheckKeyIn
  C:C59AH         PUBLIC        RemoChnUp_UpKey
  C:C58CH         PUBLIC        RemoMenu_MenuKey
  C:9635H         PUBLIC        _ActionRemo
  C:C5F0H         SYMBOL        Com00A1
  C:C5F0H         SYMBOL        L?0162
  -------         PROC          COM00A1
  -------         ENDPROC       COM00A1
  -------         PROC          REMOMENU_MENUKEY
  C:C58CH         LINE#         63
  C:C58CH         LINE#         64
  C:C58CH         LINE#         65
  C:C596H         LINE#         66
  C:C599H         LINE#         67
  -------         ENDPROC       REMOMENU_MENUKEY
  -------         PROC          REMOCHNUP_UPKEY
  C:C59AH         LINE#         69
  C:C59AH         LINE#         70
  C:C59AH         LINE#         79
  C:C5A1H         LINE#         90
  C:C5A6H         LINE#         98
  -------         ENDPROC       REMOCHNUP_UPKEY
  -------         PROC          REMOCHNDN_DNKEY
  C:C5A7H         LINE#         100
  C:C5A7H         LINE#         101
  C:C5A7H         LINE#         110
  C:C5AEH         LINE#         111
  C:C5B3H         LINE#         112
  C:C5B3H         LINE#         119
  -------         ENDPROC       REMOCHNDN_DNKEY
  -------         PROC          REMOVOLUP_RIGHTKEY
  C:BB99H         LINE#         121
  C:BB99H         LINE#         122
  C:BB99H         LINE#         130
  C:BBA0H         LINE#         131
  C:BBA8H         LINE#         132
  C:BBABH         LINE#         133
  C:BBABH         LINE#         135
  C:BBB2H         LINE#         136
  C:BBB2H         LINE#         140
  C:BBBBH         LINE#         141
BL51 BANKED LINKER/LOCATER V5.03                                                      05/28/2012  11:22:31  PAGE 53


  C:BBC0H         LINE#         143
  C:BBC5H         LINE#         144
  C:BBCFH         LINE#         149
  C:BBCFH         LINE#         151
  C:BBCFH         LINE#         152
  C:BBD4H         LINE#         153
  C:BBD7H         LINE#         154
  C:BBD7H         LINE#         156
  -------         ENDPROC       REMOVOLUP_RIGHTKEY
  -------         PROC          REMOVOLDN_LEFTKEY
  C:A956H         LINE#         158
  C:A956H         LINE#         159
  C:A956H         LINE#         167
  C:A95DH         LINE#         168
  C:A95DH         LINE#         169
  C:A960H         LINE#         170
  C:A965H         LINE#         172
  C:A968H         LINE#         173
  C:A968H         LINE#         174
  C:A96FH         LINE#         175
  C:A96FH         LINE#         176
  C:A974H         LINE#         177
  C:A977H         LINE#         178
  C:A977H         LINE#         180
  C:A977H         LINE#         183
  C:A980H         LINE#         184
  C:A980H         LINE#         185
  C:A983H         LINE#         186
  C:A98AH         LINE#         187
  C:A98CH         LINE#         189
  C:A98CH         LINE#         190
  C:A991H         LINE#         191
  C:A99EH         LINE#         192
  C:A99EH         LINE#         194
  C:A9ACH         LINE#         195
  C:A9ACH         LINE#         196
  C:A9ACH         LINE#         198
  C:A9B1H         LINE#         199
  C:A9B3H         LINE#         200
  C:A9B3H         LINE#         201
  C:A9B3H         LINE#         202
  C:A9B3H         LINE#         203
  C:A9B5H         LINE#         204
  C:A9B5H         LINE#         208
  C:A9B7H         LINE#         209
  C:A9B7H         LINE#         210
  C:A9B7H         LINE#         211
  C:A9B7H         LINE#         212
  C:A9B9H         LINE#         213
  C:A9B9H         LINE#         215
  C:A9BEH         LINE#         216
  C:A9C3H         LINE#         217
  C:A9CAH         LINE#         218
  C:A9CDH         LINE#         219
  C:A9D0H         LINE#         220
  C:A9D0H         LINE#         222
  C:A9D0H         LINE#         224
BL51 BANKED LINKER/LOCATER V5.03                                                      05/28/2012  11:22:31  PAGE 54


  C:A9DFH         LINE#         229
  C:A9DFH         LINE#         230
  -------         ENDPROC       REMOVOLDN_LEFTKEY
  -------         PROC          _ACTIONREMO
  X:0007H         SYMBOL        _RemoDataCode
  X:0008H         SYMBOL        AutoKey
  C:9635H         LINE#         236
  C:963DH         LINE#         237
  C:963DH         LINE#         239
  C:9640H         LINE#         259
  C:968AH         LINE#         261
  C:968AH         LINE#         265
  C:9692H         LINE#         266
  C:969BH         LINE#         267
  C:969EH         LINE#         269
  C:969EH         LINE#         282
  C:969EH         LINE#         284
  C:969EH         LINE#         288
  C:96A4H         LINE#         289
  C:96A7H         LINE#         291
  C:96A7H         LINE#         295
  C:96B3H         LINE#         296
  C:96B6H         LINE#         297
  C:96B9H         LINE#         299
  C:96B9H         LINE#         300
  C:96B9H         LINE#         301
  C:96B9H         LINE#         302
  C:96B9H         LINE#         303
  C:96B9H         LINE#         304
  C:96B9H         LINE#         305
  C:96B9H         LINE#         306
  C:96B9H         LINE#         307
  C:96B9H         LINE#         308
  C:96B9H         LINE#         312
  C:96BDH         LINE#         314
  C:96C0H         LINE#         315
  C:96C0H         LINE#         317
  C:96C0H         LINE#         321
  C:96C3H         LINE#         322
  C:96C5H         LINE#         324
  C:96C5H         LINE#         328
  C:96C8H         LINE#         329
  C:96CAH         LINE#         331
  C:96CAH         LINE#         335
  C:96D3H         LINE#         336
  C:96DAH         LINE#         337
  C:96DDH         LINE#         338
  C:96DDH         LINE#         339
  C:96DFH         LINE#         341
  C:96DFH         LINE#         345
  C:96E2H         LINE#         346
  C:96E4H         LINE#         347
  C:96E4H         LINE#         351
  C:96E7H         LINE#         352
  C:96E9H         LINE#         355
  C:96E9H         LINE#         359
  C:96F2H         LINE#         360
BL51 BANKED LINKER/LOCATER V5.03                                                      05/28/2012  11:22:31  PAGE 55


  C:96F5H         LINE#         361
  C:96F7H         LINE#         363
  C:96F7H         LINE#         367
  C:96FEH         LINE#         368
  C:9703H         LINE#         369
  C:9705H         LINE#         382
  C:9705H         LINE#         386
  C:970CH         LINE#         387
  C:970CH         LINE#         389
  C:970CH         LINE#         401
  C:970EH         LINE#         402
  -------         ENDPROC       _ACTIONREMO
  C:6D82H         SYMBOL        L?0159
  C:6D8DH         SYMBOL        L?0160
  -------         PROC          CHECKKEYIN
  -------         DO            
  X:0004H         SYMBOL        ret
  X:0005H         SYMBOL        ikey
  X:0006H         SYMBOL        OSD_LOCK
  -------         ENDDO         
  C:6B5FH         LINE#         405
  C:6B5FH         LINE#         406
  C:6B5FH         LINE#         407
  C:6B65H         LINE#         410
  C:6B73H         LINE#         411
  C:6B73H         LINE#         413
  C:6B8CH         LINE#         414
  C:6B94H         LINE#         415
  C:6B9CH         LINE#         416
  C:6BA4H         LINE#         417
  C:6BACH         LINE#         418
  C:6BB4H         LINE#         419
  C:6BBCH         LINE#         420
  C:6BC5H         LINE#         421
  C:6BC5H         LINE#         424
  C:6BD1H         LINE#         425
  C:6BDFH         LINE#         426
  C:6BDFH         LINE#         427
  C:6BE7H         LINE#         428
  C:6BECH         LINE#         429
  C:6BF3H         LINE#         430
  C:6BF6H         LINE#         432
  C:6BF9H         LINE#         433
  C:6BFEH         LINE#         434
  C:6C03H         LINE#         435
  C:6C03H         LINE#         437
  C:6C15H         LINE#         438
  C:6C15H         LINE#         439
  C:6C17H         LINE#         440
  C:6C1CH         LINE#         441
  C:6C1CH         LINE#         461
  C:6C1FH         LINE#         463
  C:6C42H         LINE#         464
  C:6C42H         LINE#         465
  C:6C4BH         LINE#         466
  C:6C4EH         LINE#         467
  C:6C4EH         LINE#         468
BL51 BANKED LINKER/LOCATER V5.03                                                      05/28/2012  11:22:31  PAGE 56


  C:6C57H         LINE#         469
  C:6C57H         LINE#         471
  C:6C5CH         LINE#         472
  C:6C61H         LINE#         474
  C:6C68H         LINE#         475
  C:6C68H         LINE#         476
  C:6C6BH         LINE#         478
  C:6C6BH         LINE#         479
  C:6C6DH         LINE#         483
  C:6C70H         LINE#         484
  C:6C70H         LINE#         485
  C:6C73H         LINE#         488
  C:6C73H         LINE#         489
  C:6C7CH         LINE#         491
  C:6C7FH         LINE#         492
  C:6C7FH         LINE#         493
  C:6C85H         LINE#         494
  C:6C85H         LINE#         496
  C:6C89H         LINE#         497
  C:6C8EH         LINE#         498
  C:6C91H         LINE#         499
  C:6C94H         LINE#         500
  C:6C9BH         LINE#         501
  C:6C9EH         LINE#         503
  C:6C9EH         LINE#         504
  C:6CA5H         LINE#         505
  C:6CA5H         LINE#         506
  C:6CA8H         LINE#         507
  C:6CABH         LINE#         511
  C:6CAEH         LINE#         512
  C:6CB1H         LINE#         514
  C:6CB1H         LINE#         516
  C:6CBBH         LINE#         517
  C:6CBBH         LINE#         519
  C:6CBCH         LINE#         520
  C:6CBFH         LINE#         522
  C:6CC2H         LINE#         525
  C:6CC7H         LINE#         526
  C:6CC7H         LINE#         529
  C:6CC7H         LINE#         531
  C:6CCAH         LINE#         533
  C:6CCAH         LINE#         534
  C:6CCCH         LINE#         535
  C:6CCCH         LINE#         536
  C:6CCCH         LINE#         538
  C:6CCFH         LINE#         542
  C:6CCFH         LINE#         543
  C:6CD2H         LINE#         544
  C:6CD2H         LINE#         545
  C:6CD9H         LINE#         546
  C:6CD9H         LINE#         547
  C:6CDEH         LINE#         548
  C:6CE0H         LINE#         553
  C:6CE0H         LINE#         554
  C:6CE7H         LINE#         555
  C:6CEBH         LINE#         556
  C:6CEDH         LINE#         557
BL51 BANKED LINKER/LOCATER V5.03                                                      05/28/2012  11:22:31  PAGE 57


  C:6CEDH         LINE#         558
  C:6CEDH         LINE#         560
  C:6CEDH         LINE#         561
  C:6CEFH         LINE#         562
  C:6CEFH         LINE#         564
  C:6CEFH         LINE#         565
  C:6CF1H         LINE#         566
  C:6CF1H         LINE#         567
  C:6CF4H         LINE#         568
  C:6CF4H         LINE#         569
  C:6CFBH         LINE#         570
  C:6CFBH         LINE#         571
  C:6D00H         LINE#         572
  C:6D05H         LINE#         574
  C:6D08H         LINE#         575
  C:6D0AH         LINE#         577
  C:6D0AH         LINE#         578
  C:6D18H         LINE#         579
  C:6D24H         LINE#         580
  C:6D27H         LINE#         581
  C:6D27H         LINE#         582
  C:6D27H         LINE#         584
  C:6D27H         LINE#         585
  C:6D29H         LINE#         586
  C:6D29H         LINE#         588
  C:6D29H         LINE#         589
  C:6D2BH         LINE#         591
  C:6D2BH         LINE#         592
  C:6D2EH         LINE#         593
  C:6D2EH         LINE#         594
  C:6D31H         LINE#         595
  C:6D33H         LINE#         597
  C:6D33H         LINE#         598
  C:6D35H         LINE#         599
  C:6D35H         LINE#         601
  C:6D35H         LINE#         602
  C:6D37H         LINE#         606
  C:6D37H         LINE#         607
  C:6D3AH         LINE#         608
  C:6D3AH         LINE#         609
  C:6D40H         LINE#         610
  C:6D44H         LINE#         612
  C:6D49H         LINE#         614
  C:6D4CH         LINE#         615
  C:6D4EH         LINE#         617
  C:6D4EH         LINE#         618
  C:6D53H         LINE#         619
  C:6D55H         LINE#         621
  C:6D55H         LINE#         622
  C:6D57H         LINE#         625
  C:6D57H         LINE#         626
  C:6D60H         LINE#         627
  C:6D62H         LINE#         629
  C:6D64H         LINE#         631
  C:6D64H         LINE#         635
  C:6D6DH         LINE#         636
  C:6D70H         LINE#         637
BL51 BANKED LINKER/LOCATER V5.03                                                      05/28/2012  11:22:31  PAGE 58


  C:6D70H         LINE#         640
  C:6D77H         LINE#         641
  C:6D77H         LINE#         642
  C:6D7CH         LINE#         659
  C:6D7CH         LINE#         665
  C:6D7CH         LINE#         672
  C:6D7CH         LINE#         674
  C:6D7CH         LINE#         676
  C:6D7CH         LINE#         677
  C:6D81H         LINE#         678
  -------         ENDPROC       CHECKKEYIN
  -------         PROC          _GETKEY
  X:0007H         SYMBOL        repeat
  -------         DO            
  B:0022H.4       SYMBOL        ready
  D:0005H         SYMBOL        KeyBuffer2
  -------         ENDDO         
  C:88A1H         LINE#         684
  C:88A6H         LINE#         685
  C:88A6H         LINE#         689
  C:88AAH         LINE#         690
  C:88ACH         LINE#         692
  C:88CDH         LINE#         693
  C:88CDH         LINE#         694
  C:88CDH         LINE#         696
  C:88DFH         LINE#         697
  C:88DFH         LINE#         698
  C:88E4H         LINE#         699
  C:88E4H         LINE#         700
  C:88E7H         LINE#         701
  C:88EAH         LINE#         702
  C:88EAH         LINE#         703
  C:88F3H         LINE#         704
  C:88FDH         LINE#         705
  C:88FDH         LINE#         706
  C:8902H         LINE#         707
  C:8904H         LINE#         708
  C:8906H         LINE#         709
  C:890DH         LINE#         710
  C:890FH         LINE#         711
  C:8916H         LINE#         712
  C:8918H         LINE#         714
  C:891FH         LINE#         715
  C:8922H         LINE#         716
  C:892BH         LINE#         717
  C:8932H         LINE#         718
  C:893BH         LINE#         719
  C:8944H         LINE#         720
  C:8949H         LINE#         721
  C:894BH         LINE#         722
  C:894DH         LINE#         723
  C:894DH         LINE#         725
  C:894FH         LINE#         727
  C:8955H         LINE#         729
  C:8958H         LINE#         730
  C:8958H         LINE#         731
  C:8958H         LINE#         732
BL51 BANKED LINKER/LOCATER V5.03                                                      05/28/2012  11:22:31  PAGE 59


  C:896BH         LINE#         733
  C:896BH         LINE#         734
  C:896FH         LINE#         735
  C:896FH         LINE#         736
  C:8971H         LINE#         737
  C:8971H         LINE#         738
  C:8977H         LINE#         739
  C:8980H         LINE#         740
  C:8983H         LINE#         741
  C:8983H         LINE#         742
  C:8983H         LINE#         746
  C:8983H         LINE#         747
  C:8983H         LINE#         748
  C:898BH         LINE#         749
  C:898BH         LINE#         750
  C:898EH         LINE#         751
  C:8994H         LINE#         752
  C:8997H         LINE#         753
  C:8997H         LINE#         754
  C:8997H         LINE#         755
  C:8997H         LINE#         756
  C:8997H         LINE#         757
  C:8997H         LINE#         758
  C:899FH         LINE#         759
  C:899FH         LINE#         760
  C:89A2H         LINE#         761
  C:89A2H         LINE#         765
  C:89A4H         LINE#         767
  C:89A4H         LINE#         768
  C:89A4H         LINE#         770
  C:89A4H         LINE#         771
  C:89ABH         LINE#         772
  C:89ADH         LINE#         774
  C:89ADH         LINE#         775
  C:89B2H         LINE#         776
  C:89B4H         LINE#         778
  C:89BBH         LINE#         780
  C:89BEH         LINE#         781
  C:89BEH         LINE#         782
  C:89BEH         LINE#         784
  C:89C4H         LINE#         785
  C:89CDH         LINE#         786
  C:89D3H         LINE#         788
  C:89D5H         LINE#         790
  -------         ENDPROC       _GETKEY
  -------         ENDMOD        KEYREMO

  -------         MODULE        MAIN
  C:0000H         SYMBOL        _ICE_DUMMY_
  D:00E8H         PUBLIC        P4
  C:C331H         PUBLIC        GetNextInputSelection
  B:0020H.0       PUBLIC        Range4Coarse
  C:9A65H         PUBLIC        _AdjustAutoDayNight
  X:00DAH         PUBLIC        Baud_rate
  C:B61FH         PUBLIC        _I2CDeviceInitialize
  X:00DBH         PUBLIC        PowerFlag
  C:C51FH         PUBLIC        IsNoInput
BL51 BANKED LINKER/LOCATER V5.03                                                      05/28/2012  11:22:31  PAGE 60


  X:00DCH         PUBLIC        SelectModeType
  B:00A0H.0       PUBLIC        P2_0
  B:00B0H.2       PUBLIC        P3_2
  B:0090H.4       PUBLIC        P1_4
  C:C64FH         PUBLIC        GetOSDLastKeyInTime
  B:0090H.5       PUBLIC        P1_5
  B:0080H.6       PUBLIC        P0_6
  X:00DDH         PUBLIC        VInputStd
  B:00B0H.4       PUBLIC        P3_4
  B:00B0H.5       PUBLIC        P3_5
  B:0090H.7       PUBLIC        P1_7
  B:00B0H.6       PUBLIC        P3_6
  B:00B0H.7       PUBLIC        P3_7
  C:8808H         PUBLIC        struct_VInputStd
  C:C5CDH         PUBLIC        SetOSDLastKeyInTime
  C:AFF8H         PUBLIC        _SetVInputStd
  X:00DEH         PUBLIC        DVR_AudioRecord
  C:9D6EH         PUBLIC        main
  C:C5B4H         PUBLIC        PowerOff
  C:A0DBH         PUBLIC        CheckDecoderInput
  B:0020H.1       PUBLIC        I2CAutoIncFlagOn
  B:0020H.2       PUBLIC        AccPowerDown
  C:C6ADH         PUBLIC        GetVInputStd
  B:0020H.3       PUBLIC        PowerDownStart
  C:A5FBH         PUBLIC        _ChangeInput
  X:00DFH         PUBLIC        CAMNumber
  C:B8FFH         PUBLIC        ACCPowerControl
  X:00E0H         PUBLIC        InputSelection
  C:7EB8H         PUBLIC        main_loop
  C:C646H         PUBLIC        PowerDown_XTAL
  C:87B3H         PUBLIC        struct_InputSelection
  C:8B06H         PUBLIC        LoadEEPROM
  C:BCCFH         PUBLIC        Hs_InitVars
  B:0020H.4       PUBLIC        Flag4AutoPanelRegs
  C:C22BH         PUBLIC        ReadVInputSTD
  D:0063H         PUBLIC        IHF
  X:00E1H         PUBLIC        PelcoChoiceFLAG
  C:C6B3H         PUBLIC        GetInputSelection
  X:00E2H         PUBLIC        DebugLevel
  D:0067H         PUBLIC        IVF
  C:9B32H         PUBLIC        WaitPowerOn
  X:00E3H         PUBLIC        Priority
  C:B3C3H         PUBLIC        GetVInputStdInx
  B:0020H.5       PUBLIC        DVRReSendDisable
  C:A7B1H         PUBLIC        _InitVideoData
  D:0069H         PUBLIC        PWMLevel
  X:00E4H         PUBLIC        Commanderror
  X:00E5H         PUBLIC        OSDLastKeyInTime
  B:0020H.6       PUBLIC        SDCardCoverDetect
  X:00E7H         PUBLIC        WideScreenMode
  B:0020H.7       PUBLIC        VGAflag
  X:00E8H         PUBLIC        SEQTime
  X:00E9H         PUBLIC        VInputStdDetectMode
  C:BE92H         SYMBOL        Com00CF
  C:BE92H         SYMBOL        L?0208
  C:BE92H         SYMBOL        L?0209
  C:BEA3H         SYMBOL        L?0211
BL51 BANKED LINKER/LOCATER V5.03                                                      05/28/2012  11:22:31  PAGE 61


  C:BEA5H         SYMBOL        L?0212
  C:BEAEH         SYMBOL        L?0216
  C:BEAEH         SYMBOL        L?0217
  C:BEB4H         SYMBOL        L?0218
  C:BEB4H         SYMBOL        L?0219
  C:BEBBH         SYMBOL        L?0220
  -------         PROC          COM00CF
  -------         ENDPROC       COM00CF
  -------         PROC          _I2CDEVICEINITIALIZE
  X:0022H         SYMBOL        RegSet
  -------         DO            
  D:0006H         SYMBOL        cnt
  X:0025H         SYMBOL        addr
  X:0026H         SYMBOL        index
  X:0027H         SYMBOL        val
  -------         ENDDO         
  C:B61FH         LINE#         296
  C:B625H         LINE#         297
  C:B625H         LINE#         298
  C:B627H         LINE#         301
  C:B62EH         LINE#         305
  C:B631H         LINE#         306
  C:B633H         LINE#         308
  C:B646H         LINE#         309
  C:B64CH         LINE#         310
  C:B654H         LINE#         311
  C:B65CH         LINE#         317
  C:B666H         LINE#         318
  C:B668H         LINE#         319
  -------         ENDPROC       _I2CDEVICEINITIALIZE
  -------         PROC          _INITVIDEODATA
  X:0021H         SYMBOL        src
  C:A7B1H         LINE#         338
  C:A7B6H         LINE#         339
  C:A7B6H         LINE#         342
  C:A7C2H         LINE#         350
  C:A7CBH         LINE#         351
  C:A7D1H         LINE#         353
  C:A7ECH         LINE#         356
  C:A7ECH         LINE#         366
  C:A7ECH         LINE#         372
  C:A7ECH         LINE#         373
  C:A7ECH         LINE#         376
  C:A7F5H         LINE#         383
  C:A7F7H         LINE#         387
  C:A7F7H         LINE#         390
  C:A7F7H         LINE#         393
  C:A7F7H         LINE#         395
  C:A7F7H         LINE#         397
  C:A7F7H         LINE#         398
  C:A7FDH         LINE#         399
  C:A7FDH         LINE#         401
  C:A804H         LINE#         402
  C:A804H         LINE#         403
  C:A80CH         LINE#         404
  C:A815H         LINE#         405
  C:A817H         LINE#         407
BL51 BANKED LINKER/LOCATER V5.03                                                      05/28/2012  11:22:31  PAGE 62


  C:A81AH         LINE#         413
  C:A823H         LINE#         415
  C:A82CH         LINE#         419
  C:A836H         LINE#         425
  C:A83CH         LINE#         427
  C:A83EH         LINE#         428
  -------         ENDPROC       _INITVIDEODATA
  -------         PROC          ISNOINPUT
  C:C51FH         LINE#         431
  C:C51FH         LINE#         432
  C:C51FH         LINE#         433
  C:C52DH         LINE#         434
  C:C52FH         LINE#         435
  -------         ENDPROC       ISNOINPUT
  C:A174H         SYMBOL        L?0213
  -------         PROC          CHECKDECODERINPUT
  -------         DO            
  X:001CH         SYMBOL        std1
  X:001DH         SYMBOL        std
  X:001EH         SYMBOL        cnt
  X:001FH         SYMBOL        trycnt
  X:0020H         SYMBOL        ChangedNoinput
  -------         ENDDO         
  C:A0DBH         LINE#         525
  C:A0DBH         LINE#         526
  C:A0DBH         LINE#         669
  C:A0E2H         LINE#         678
  C:A0F2H         LINE#         681
  C:A0F7H         LINE#         682
  C:A0F7H         LINE#         683
  C:A0FFH         LINE#         688
  C:A105H         LINE#         689
  C:A10BH         LINE#         690
  C:A10BH         LINE#         692
  C:A11DH         LINE#         693
  C:A11DH         LINE#         695
  C:A128H         LINE#         696
  C:A12EH         LINE#         698
  C:A12EH         LINE#         699
  C:A133H         LINE#         700
  C:A138H         LINE#         701
  C:A138H         LINE#         703
  C:A141H         LINE#         709
  C:A148H         LINE#         710
  C:A148H         LINE#         712
  C:A14BH         LINE#         713
  C:A151H         LINE#         714
  C:A153H         LINE#         715
  C:A15CH         LINE#         716
  C:A15CH         LINE#         717
  C:A15CH         LINE#         718
  C:A15FH         LINE#         719
  C:A15FH         LINE#         720
  C:A161H         LINE#         722
  C:A161H         LINE#         726
  C:A161H         LINE#         727
  C:A164H         LINE#         728
BL51 BANKED LINKER/LOCATER V5.03                                                      05/28/2012  11:22:31  PAGE 63


  C:A169H         LINE#         730
  C:A16EH         LINE#         731
  C:A16EH         LINE#         736
  C:A173H         LINE#         740
  C:A173H         LINE#         741
  C:A173H         LINE#         742
  C:A173H         LINE#         754
  C:A173H         LINE#         760
  -------         ENDPROC       CHECKDECODERINPUT
  -------         PROC          READVINPUTSTD
  -------         DO            
  D:0007H         SYMBOL        std
  -------         ENDDO         
  C:C22BH         LINE#         762
  C:C22BH         LINE#         763
  C:C22BH         LINE#         766
  C:C234H         LINE#         768
  C:C23FH         LINE#         769
  C:C245H         LINE#         771
  C:C24DH         LINE#         772
  -------         ENDPROC       READVINPUTSTD
  -------         PROC          GETVINPUTSTDINX
  -------         DO            
  D:0007H         SYMBOL        i
  D:0003H         SYMBOL        std
  -------         ENDDO         
  C:B3C3H         LINE#         774
  C:B3C3H         LINE#         775
  C:B3C3H         LINE#         778
  C:B3C8H         LINE#         780
  C:B3DEH         LINE#         782
  C:B3DEH         LINE#         783
  C:B3DEH         LINE#         784
  C:B3DEH         LINE#         785
  C:B3E6H         LINE#         787
  C:B3E6H         LINE#         788
  C:B3E6H         LINE#         789
  C:B3F5H         LINE#         790
  C:B3FCH         LINE#         791
  C:B3FCH         LINE#         793
  C:B3FEH         LINE#         794
  C:B412H         LINE#         795
  C:B413H         LINE#         796
  C:B416H         LINE#         797
  C:B416H         LINE#         798
  C:B419H         LINE#         799
  C:B41BH         LINE#         800
  -------         ENDPROC       GETVINPUTSTDINX
  -------         PROC          GETVINPUTSTD
  C:C6ADH         LINE#         803
  C:C6ADH         LINE#         804
  C:C6ADH         LINE#         805
  C:C6B2H         LINE#         806
  -------         ENDPROC       GETVINPUTSTD
  -------         PROC          _SETVINPUTSTD
  X:0021H         SYMBOL        newd
  C:AFF8H         LINE#         809
BL51 BANKED LINKER/LOCATER V5.03                                                      05/28/2012  11:22:31  PAGE 64


  C:AFFDH         LINE#         810
  C:AFFDH         LINE#         811
  C:B001H         LINE#         815
  C:B026H         LINE#         826
  C:B03FH         LINE#         829
  C:B03FH         LINE#         832
  C:B03FH         LINE#         835
  C:B03FH         LINE#         837
  C:B047H         LINE#         840
  C:B047H         LINE#         843
  C:B047H         LINE#         846
  C:B056H         LINE#         849
  C:B05DH         LINE#         850
  C:B05DH         LINE#         851
  -------         ENDPROC       _SETVINPUTSTD
  -------         PROC          GETINPUTSELECTION
  C:C6B3H         LINE#         853
  C:C6B3H         LINE#         854
  C:C6B3H         LINE#         855
  C:C6B8H         LINE#         856
  -------         ENDPROC       GETINPUTSELECTION
  -------         PROC          GETNEXTINPUTSELECTION
  -------         DO            
  D:0007H         SYMBOL        i
  -------         ENDDO         
  C:C331H         LINE#         858
  C:C331H         LINE#         859
  C:C331H         LINE#         862
  C:C333H         LINE#         863
  C:C343H         LINE#         864
  C:C344H         LINE#         865
  C:C34BH         LINE#         867
  C:C34FH         LINE#         868
  -------         ENDPROC       GETNEXTINPUTSELECTION
  -------         PROC          POWERDOWN_XTAL
  B:0022H.4       SYMBOL        flag
  C:C646H         LINE#         870
  C:C646H         LINE#         871
  C:C646H         LINE#         872
  C:C64CH         LINE#         873
  C:C64EH         LINE#         874
  -------         ENDPROC       POWERDOWN_XTAL
  C:A688H         SYMBOL        L?0214
  -------         PROC          _CHANGEINPUT
  X:001BH         SYMBOL        newsel
  C:A5FBH         LINE#         897
  C:A600H         LINE#         898
  C:A600H         LINE#         909
  C:A60AH         LINE#         912
  C:A60DH         LINE#         914
  C:A610H         LINE#         919
  C:A618H         LINE#         929
  C:A620H         LINE#         931
  C:A62FH         LINE#         951
  C:A62FH         LINE#         952
  C:A632H         LINE#         955
  C:A632H         LINE#         956
BL51 BANKED LINKER/LOCATER V5.03                                                      05/28/2012  11:22:31  PAGE 65


  C:A635H         LINE#         957
  C:A637H         LINE#         958
  C:A639H         LINE#         959
  C:A63BH         LINE#         960
  C:A63BH         LINE#         962
  C:A63EH         LINE#         964
  C:A63EH         LINE#         965
  C:A641H         LINE#         966
  C:A643H         LINE#         967
  C:A645H         LINE#         968
  C:A647H         LINE#         969
  C:A647H         LINE#         971
  C:A64AH         LINE#         973
  C:A64CH         LINE#         974
  C:A651H         LINE#         975
  C:A653H         LINE#         976
  C:A655H         LINE#         977
  C:A655H         LINE#         979
  C:A655H         LINE#         980
  C:A658H         LINE#         981
  C:A660H         LINE#         1015
  C:A660H         LINE#         1026
  C:A660H         LINE#         1027
  C:A665H         LINE#         1028
  C:A668H         LINE#         1029
  C:A668H         LINE#         1039
  C:A668H         LINE#         1047
  C:A66BH         LINE#         1048
  C:A670H         LINE#         1050
  C:A675H         LINE#         1051
  C:A67EH         LINE#         1052
  C:A687H         LINE#         1053
  -------         ENDPROC       _CHANGEINPUT
  -------         PROC          POWEROFF
  C:C5B4H         LINE#         1055
  C:C5B4H         LINE#         1056
  C:C5B4H         LINE#         1061
  C:C5B9H         LINE#         1063
  C:C5BCH         LINE#         1064
  -------         ENDPROC       POWEROFF
  -------         PROC          SETOSDLASTKEYINTIME
  C:C5CDH         LINE#         1067
  C:C5CDH         LINE#         1068
  C:C5CDH         LINE#         1069
  C:C5D8H         LINE#         1070
  -------         ENDPROC       SETOSDLASTKEYINTIME
  -------         PROC          GETOSDLASTKEYINTIME
  C:C64FH         LINE#         1072
  C:C64FH         LINE#         1073
  C:C64FH         LINE#         1074
  C:C657H         LINE#         1075
  -------         ENDPROC       GETOSDLASTKEYINTIME
  -------         PROC          _ADJUSTAUTODAYNIGHT
  D:0007H         SYMBOL        val
  -------         DO            
  X:0009H         SYMBOL        page
  X:000AH         SYMBOL        PWMLevelTemp
BL51 BANKED LINKER/LOCATER V5.03                                                      05/28/2012  11:22:31  PAGE 66


  -------         ENDDO         
  C:9A65H         LINE#         1092
  C:9A65H         LINE#         1093
  C:9A65H         LINE#         1097
  C:9A6AH         LINE#         1099
  C:9A74H         LINE#         1100
  C:9A7BH         LINE#         1101
  C:9A86H         LINE#         1102
  C:9A8EH         LINE#         1103
  C:9A99H         LINE#         1104
  C:9AA1H         LINE#         1105
  C:9AACH         LINE#         1106
  C:9AB4H         LINE#         1107
  C:9AC0H         LINE#         1108
  C:9AC0H         LINE#         1110
  C:9AC6H         LINE#         1114
  C:9AC6H         LINE#         1117
  C:9ACDH         LINE#         1118
  C:9ACDH         LINE#         1119
  C:9AD8H         LINE#         1120
  C:9ADCH         LINE#         1121
  C:9AE2H         LINE#         1122
  C:9AE4H         LINE#         1123
  C:9AE6H         LINE#         1125
  C:9AE6H         LINE#         1126
  C:9AECH         LINE#         1128
  C:9AECH         LINE#         1131
  C:9AF8H         LINE#         1132
  C:9AFEH         LINE#         1133
  C:9B12H         LINE#         1135
  C:9B26H         LINE#         1136
  -------         ENDPROC       _ADJUSTAUTODAYNIGHT
  -------         PROC          HS_INITVARS
  -------         DO            
  D:0007H         SYMBOL        i
  -------         ENDDO         
  C:BCCFH         LINE#         1140
  C:BCCFH         LINE#         1141
  C:BCCFH         LINE#         1143
  C:BCD4H         LINE#         1144
  C:BCD8H         LINE#         1145
  C:BCDEH         LINE#         1146
  C:BCE0H         LINE#         1147
  C:BCE5H         LINE#         1149
  C:BCEAH         LINE#         1151
  C:BCF0H         LINE#         1152
  C:BCF8H         LINE#         1153
  C:BD07H         LINE#         1155
  C:BD0BH         LINE#         1157
  -------         ENDPROC       HS_INITVARS
  C:8C20H         SYMBOL        L?0210
  C:8C28H         SYMBOL        L?0215
  -------         PROC          LOADEEPROM
  -------         DO            
  D:0006H         SYMBOL        val
  -------         ENDDO         
  C:8B06H         LINE#         1159
BL51 BANKED LINKER/LOCATER V5.03                                                      05/28/2012  11:22:31  PAGE 67


  C:8B06H         LINE#         1160
  C:8B06H         LINE#         1163
  C:8B0CH         LINE#         1164
  C:8B18H         LINE#         1165
  C:8B24H         LINE#         1166
  C:8B30H         LINE#         1167
  C:8B3CH         LINE#         1169
  C:8B48H         LINE#         1170
  C:8B54H         LINE#         1171
  C:8B60H         LINE#         1172
  C:8B6CH         LINE#         1173
  C:8B71H         LINE#         1174
  C:8B77H         LINE#         1175
  C:8B77H         LINE#         1176
  C:8B7BH         LINE#         1177
  C:8B82H         LINE#         1178
  C:8B89H         LINE#         1179
  C:8B90H         LINE#         1181
  C:8B92H         LINE#         1184
  C:8B92H         LINE#         1185
  C:8B96H         LINE#         1186
  C:8B9DH         LINE#         1187
  C:8BA4H         LINE#         1188
  C:8BABH         LINE#         1189
  C:8BABH         LINE#         1191
  C:8BB0H         LINE#         1192
  C:8BB6H         LINE#         1193
  C:8BBCH         LINE#         1195
  C:8BC0H         LINE#         1197
  C:8BC5H         LINE#         1198
  C:8BCBH         LINE#         1199
  C:8BD1H         LINE#         1201
  C:8BD5H         LINE#         1203
  C:8BDAH         LINE#         1204
  C:8BE0H         LINE#         1205
  C:8BE6H         LINE#         1207
  C:8BEAH         LINE#         1209
  C:8BF3H         LINE#         1210
  C:8BF9H         LINE#         1211
  C:8BFFH         LINE#         1213
  C:8C03H         LINE#         1219
  C:8C0BH         LINE#         1220
  C:8C13H         LINE#         1221
  C:8C1FH         LINE#         1227
  -------         ENDPROC       LOADEEPROM
  -------         PROC          ACCPOWERCONTROL
  C:B8FFH         LINE#         1229
  C:B8FFH         LINE#         1230
  C:B8FFH         LINE#         1232
  C:B905H         LINE#         1233
  C:B905H         LINE#         1234
  C:B90AH         LINE#         1235
  C:B90CH         LINE#         1236
  C:B90EH         LINE#         1238
  C:B911H         LINE#         1239
  C:B911H         LINE#         1240
  C:B91AH         LINE#         1241
BL51 BANKED LINKER/LOCATER V5.03                                                      05/28/2012  11:22:31  PAGE 68


  C:B91AH         LINE#         1242
  C:B91DH         LINE#         1243
  C:B91DH         LINE#         1245
  C:B91FH         LINE#         1249
  C:B921H         LINE#         1259
  C:B921H         LINE#         1260
  C:B924H         LINE#         1261
  C:B924H         LINE#         1263
  C:B926H         LINE#         1267
  C:B928H         LINE#         1269
  C:B928H         LINE#         1270
  C:B92AH         LINE#         1271
  C:B92FH         LINE#         1272
  C:B931H         LINE#         1273
  C:B931H         LINE#         1274
  C:B931H         LINE#         1275
  C:B931H         LINE#         1279
  C:B941H         LINE#         1280
  C:B943H         LINE#         1282
  -------         ENDPROC       ACCPOWERCONTROL
  -------         PROC          MAIN_LOOP
  -------         DO            
  X:0003H         SYMBOL        val
  -------         ENDDO         
  C:7EB8H         LINE#         1286
  C:7EB8H         LINE#         1287
  C:7EB8H         LINE#         1291
  C:7EC1H         LINE#         1297
  C:7EC1H         LINE#         1299
  C:7EC4H         LINE#         1318
  C:7EC8H         LINE#         1319
  C:7EC8H         LINE#         1320
  C:7ED0H         LINE#         1323
  C:7ED0H         LINE#         1325
  C:7ED3H         LINE#         1326
  C:7ED3H         LINE#         1328
  C:7ED8H         LINE#         1329
  C:7EDDH         LINE#         1331
  C:7EE3H         LINE#         1332
  C:7EE7H         LINE#         1334
  C:7EECH         LINE#         1339
  C:7EEEH         LINE#         1340
  C:7EF1H         LINE#         1341
  C:7EF1H         LINE#         1343
  C:7F02H         LINE#         1344
  C:7F02H         LINE#         1345
  C:7F07H         LINE#         1346
  C:7F09H         LINE#         1347
  C:7F09H         LINE#         1349
  C:7F14H         LINE#         1350
  C:7F14H         LINE#         1351
  C:7F17H         LINE#         1352
  C:7F1BH         LINE#         1354
  C:7F20H         LINE#         1355
  C:7F20H         LINE#         1357
  C:7F2BH         LINE#         1358
  C:7F2EH         LINE#         1360
BL51 BANKED LINKER/LOCATER V5.03                                                      05/28/2012  11:22:31  PAGE 69


  C:7F37H         LINE#         1361
  C:7F37H         LINE#         1362
  C:7F3CH         LINE#         1363
  C:7F4BH         LINE#         1364
  C:7F4BH         LINE#         1366
  C:7F55H         LINE#         1367
  C:7F55H         LINE#         1368
  C:7F5FH         LINE#         1369
  C:7F5FH         LINE#         1370
  C:7F62H         LINE#         1371
  C:7F68H         LINE#         1372
  C:7F6AH         LINE#         1373
  C:7F6CH         LINE#         1375
  C:7F71H         LINE#         1376
  C:7F71H         LINE#         1378
  C:7F7AH         LINE#         1379
  C:7F7FH         LINE#         1381
  C:7F89H         LINE#         1382
  C:7F8BH         LINE#         1387
  C:7F8EH         LINE#         1390
  C:7F97H         LINE#         1392
  C:7F97H         LINE#         1393
  C:7F9FH         LINE#         1394
  C:7FA2H         LINE#         1395
  C:7FA2H         LINE#         1399
  C:7FB2H         LINE#         1400
  C:7FB2H         LINE#         1401
  C:7FB8H         LINE#         1402
  C:7FB8H         LINE#         1403
  C:7FC5H         LINE#         1404
  C:7FC5H         LINE#         1405
  C:7FC8H         LINE#         1406
  C:7FCDH         LINE#         1407
  C:7FCDH         LINE#         1408
  C:7FCDH         LINE#         1409
  C:7FCDH         LINE#         1421
  C:7FDBH         LINE#         1422
  C:7FDBH         LINE#         1423
  C:7FDBH         LINE#         1425
  C:7FDDH         LINE#         1426
  C:7FDFH         LINE#         1427
  C:7FDFH         LINE#         1429
  C:7FEBH         LINE#         1430
  C:7FEBH         LINE#         1431
  C:7FEDH         LINE#         1432
  C:7FEDH         LINE#         1434
  C:7FF2H         LINE#         1436
  C:7FF2H         LINE#         1438
  C:7FF2H         LINE#         1441
  C:7FF8H         LINE#         1443
  C:7FFFH         LINE#         1444
  C:7FFFH         LINE#         1445
  C:8006H         LINE#         1446
  C:800AH         LINE#         1448
  C:800FH         LINE#         1449
  C:800FH         LINE#         1451
  C:8016H         LINE#         1452
BL51 BANKED LINKER/LOCATER V5.03                                                      05/28/2012  11:22:31  PAGE 70


  C:8016H         LINE#         1453
  C:801DH         LINE#         1454
  C:8021H         LINE#         1456
  C:8026H         LINE#         1457
  C:8026H         LINE#         1460
  C:8029H         LINE#         1463
  C:8034H         LINE#         1465
  C:8034H         LINE#         1466
  C:8034H         LINE#         1467
  C:8034H         LINE#         1470
  C:803BH         LINE#         1471
  C:803BH         LINE#         1472
  C:803EH         LINE#         1473
  C:803EH         LINE#         1475
  C:803EH         LINE#         1485
  C:803EH         LINE#         1489
  C:804BH         LINE#         1490
  C:804BH         LINE#         1491
  C:8054H         LINE#         1492
  C:8059H         LINE#         1493
  C:8060H         LINE#         1494
  C:8065H         LINE#         1495
  C:806EH         LINE#         1496
  C:806EH         LINE#         1506
  C:8071H         LINE#         1508
  -------         ENDPROC       MAIN_LOOP
  -------         PROC          MAIN
  -------         DO            
  X:0000H         SYMBOL        i
  X:0001H         SYMBOL        TW2835Check
  -------         ENDDO         
  C:9D6EH         LINE#         1510
  C:9D6EH         LINE#         1511
  C:9D6EH         LINE#         1513
  C:9D75H         LINE#         1515
  C:9D77H         LINE#         1519
  C:9D79H         LINE#         1520
  C:9D7BH         LINE#         1521
  C:9D7DH         LINE#         1523
  C:9D80H         LINE#         1524
  C:9D87H         LINE#         1525
  C:9D89H         LINE#         1526
  C:9D90H         LINE#         1527
  C:9D92H         LINE#         1528
  C:9D95H         LINE#         1532
  C:9D98H         LINE#         1533
  C:9D9BH         LINE#         1534
  C:9D9EH         LINE#         1536
  C:9DA1H         LINE#         1538
  C:9DA4H         LINE#         1540
  C:9DA7H         LINE#         1542
  C:9DA9H         LINE#         1544
  C:9DB0H         LINE#         1546
  C:9DB3H         LINE#         1549
  C:9DB8H         LINE#         1550
  C:9DB8H         LINE#         1551
  C:9DE1H         LINE#         1552
BL51 BANKED LINKER/LOCATER V5.03                                                      05/28/2012  11:22:31  PAGE 71


  C:9DE5H         LINE#         1553
  C:9DE5H         LINE#         1554
  C:9DECH         LINE#         1555
  C:9DF8H         LINE#         1559
  C:9DFDH         LINE#         1561
  C:9E00H         LINE#         1562
  C:9E05H         LINE#         1563
  C:9E0DH         LINE#         1564
  C:9E17H         LINE#         1567
  C:9E17H         LINE#         1568
  C:9E1DH         LINE#         1569
  C:9E20H         LINE#         1571
  C:9E23H         LINE#         1577
  C:9E26H         LINE#         1578
  -------         ENDPROC       MAIN
  -------         PROC          WAITPOWERON
  -------         DO            
  X:0003H         SYMBOL        ikey
  X:0004H         SYMBOL        val
  X:0005H         SYMBOL        VGATrigger
  -------         ENDDO         
  C:9B32H         LINE#         1581
  C:9B32H         LINE#         1582
  C:9B32H         LINE#         1585
  C:9B37H         LINE#         1588
  C:9B37H         LINE#         1589
  C:9B37H         LINE#         1590
  C:9B3AH         LINE#         1591
  C:9B45H         LINE#         1592
  C:9B45H         LINE#         1593
  C:9B48H         LINE#         1594
  C:9B4BH         LINE#         1595
  C:9B4BH         LINE#         1597
  C:9B4EH         LINE#         1598
  C:9B4EH         LINE#         1599
  C:9B53H         LINE#         1600
  C:9B58H         LINE#         1601
  C:9B5DH         LINE#         1603
  C:9B5FH         LINE#         1604
  C:9B5FH         LINE#         1608
  C:9B62H         LINE#         1609
  C:9B6BH         LINE#         1610
  C:9B6BH         LINE#         1611
  C:9B6BH         LINE#         1612
  C:9B6BH         LINE#         1615
  C:9B6DH         LINE#         1617
  C:9B6DH         LINE#         1618
  C:9B75H         LINE#         1619
  C:9B77H         LINE#         1620
  C:9B77H         LINE#         1621
  C:9B7CH         LINE#         1623
  C:9B89H         LINE#         1624
  C:9B89H         LINE#         1625
  C:9B8EH         LINE#         1626
  C:9B93H         LINE#         1627
  C:9B93H         LINE#         1628
  C:9B95H         LINE#         1630
BL51 BANKED LINKER/LOCATER V5.03                                                      05/28/2012  11:22:31  PAGE 72


  C:9B95H         LINE#         1631
  C:9B98H         LINE#         1632
  C:9B9DH         LINE#         1633
  C:9BA5H         LINE#         1634
  C:9BA5H         LINE#         1635
  C:9BA5H         LINE#         1637
  C:9BB6H         LINE#         1638
  C:9BB9H         LINE#         1640
  C:9BC8H         LINE#         1642
  C:9BD9H         LINE#         1643
  C:9BD9H         LINE#         1644
  C:9BDEH         LINE#         1645
  C:9BE6H         LINE#         1646
  C:9BE6H         LINE#         1647
  C:9BE6H         LINE#         1649
  C:9BE6H         LINE#         1658
  C:9BE6H         LINE#         1664
  C:9BEBH         LINE#         1665
  C:9BF0H         LINE#         1667
  -------         ENDPROC       WAITPOWERON
  -------         ENDMOD        MAIN

  -------         MODULE        MEASURE
  C:0000H         SYMBOL        _ICE_DUMMY_
  -------         ENDMOD        MEASURE

  -------         MODULE        OSDBASIC
  C:0000H         SYMBOL        _ICE_DUMMY_
  C:BFEBH         PUBLIC        _ShowOSDWindowAll
  C:92DCH         PUBLIC        Init_Osd_DisplayMuteInfo
  C:9383H         PUBLIC        Init_Osd_BarWindow
  C:B30DH         PUBLIC        Change_OSDColorLookup
  C:8D52H         PUBLIC        _utoa
  C:933AH         PUBLIC        Init_Osd_MainMenu
  C:BEC5H         PUBLIC        _WriteStringToAddr
  D:0010H         PUBLIC        OSDStrInfo
  C:BF29H         PUBLIC        _DrawAttrCnt
  C:B254H         PUBLIC        _DownloadFont
  C:929EH         PUBLIC        FontTestWindow
  C:B4CBH         PUBLIC        _GetOSDWindowY
  C:92EFH         PUBLIC        Init_Osd_DisplayTVChannel
  C:B66EH         PUBLIC        _SetOSDWindowY_TW88
  C:92C9H         PUBLIC        Init_Osd_DisplayVchipWindow
  C:A182H         PUBLIC        _InitOSDWindow
  C:C01AH         PUBLIC        WaitEndofDisplayArea
  C:B82CH         PUBLIC        _ShowOSDWindow_TW88
  C:9315H         PUBLIC        Init_Osd_DisplayInput
  C:92B6H         PUBLIC        Init_Osd_DisplayLogo
  C:C047H         PUBLIC        _ClearDataCnt
  D:0018H         PUBLIC        ptrFont
  C:BDF2H         PUBLIC        DownloadUDFont
  C:C41CH         PUBLIC        _strlen
  C:9302H         PUBLIC        Init_Osd_DisplayPCInfo
  C:AEB6H         SYMBOL        Com0040
  C:AEB6H         SYMBOL        L?0065
  C:AEB9H         SYMBOL        L?0066
  C:AEBAH         SYMBOL        L?0067
BL51 BANKED LINKER/LOCATER V5.03                                                      05/28/2012  11:22:31  PAGE 73


  C:AEC5H         SYMBOL        L?0068
  C:AEDAH         SYMBOL        L?0069
  C:AEECH         SYMBOL        L?0070
  C:AEECH         SYMBOL        L?0071
  C:AEF5H         SYMBOL        L?0072
  C:AEF5H         SYMBOL        L?0073
  C:AEFCH         SYMBOL        L?0074
  C:AEFCH         SYMBOL        L?0075
  C:AF04H         SYMBOL        L?0076
  C:AF10H         SYMBOL        L?0079
  C:AF11H         SYMBOL        L?0080
  C:AF18H         SYMBOL        L?0083
  C:AF18H         SYMBOL        L?0084
  C:AF1FH         SYMBOL        L?0085
  C:AF1FH         SYMBOL        L?0086
  -------         PROC          COM0040
  -------         ENDPROC       COM0040
  C:C03CH         SYMBOL        L?0081
  -------         PROC          WAITENDOFDISPLAYAREA
  -------         DO            
  X:0042H         SYMBOL        ret
  X:0043H         SYMBOL        i
  -------         ENDDO         
  C:C01AH         LINE#         41
  C:C01AH         LINE#         42
  C:C01AH         LINE#         45
  C:C021H         LINE#         47
  C:C024H         LINE#         48
  C:C02FH         LINE#         49
  C:C03BH         LINE#         50
  -------         ENDPROC       WAITENDOFDISPLAYAREA
  C:B35DH         SYMBOL        L?0082
  -------         PROC          CHANGE_OSDCOLORLOOKUP
  -------         DO            
  X:0005H         SYMBOL        i
  X:0006H         SYMBOL        j
  -------         ENDDO         
  C:B30DH         LINE#         55
  C:B30DH         LINE#         56
  C:B30DH         LINE#         58
  C:B312H         LINE#         59
  C:B321H         LINE#         60
  C:B32CH         LINE#         61
  C:B349H         LINE#         62
  C:B350H         LINE#         63
  C:B35CH         LINE#         64
  -------         ENDPROC       CHANGE_OSDCOLORLOOKUP
  C:B2A2H         SYMBOL        L?0077
  C:B2ABH         SYMBOL        L?0087
  -------         PROC          _DOWNLOADFONT
  X:0006H         SYMBOL        cod
  X:0007H         SYMBOL        fontdata
  C:B254H         LINE#         97
  C:B25DH         LINE#         98
  C:B25DH         LINE#         99
  C:B267H         LINE#         100
  C:B270H         LINE#         103
BL51 BANKED LINKER/LOCATER V5.03                                                      05/28/2012  11:22:31  PAGE 74


  C:B282H         LINE#         104
  C:B295H         LINE#         106
  C:B2A2H         LINE#         107
  -------         ENDPROC       _DOWNLOADFONT
  -------         PROC          DOWNLOADUDFONT
  -------         DO            
  X:0005H         SYMBOL        i
  -------         ENDDO         
  C:BDF2H         LINE#         109
  C:BDF2H         LINE#         110
  C:BDF2H         LINE#         113
  C:BDFBH         LINE#         115
  C:BE0FH         LINE#         116
  C:BE21H         LINE#         117
  C:BE29H         LINE#         118
  -------         ENDPROC       DOWNLOADUDFONT
  -------         PROC          _SETOSDWINDOWY_TW88
  D:0007H         SYMBOL        winno
  X:000DH         SYMBOL        y
  -------         DO            
  X:000EH         SYMBOL        tmp
  D:0005H         SYMBOL        dat
  -------         ENDDO         
  C:B66EH         LINE#         193
  C:B673H         LINE#         194
  C:B673H         LINE#         198
  C:B67FH         LINE#         199
  C:B685H         LINE#         201
  C:B695H         LINE#         203
  C:B6A0H         LINE#         204
  C:B6A8H         LINE#         206
  C:B6B0H         LINE#         207
  C:B6BCH         LINE#         208
  -------         ENDPROC       _SETOSDWINDOWY_TW88
  -------         PROC          _SHOWOSDWINDOWALL
  X:0040H         SYMBOL        on
  -------         DO            
  X:0041H         SYMBOL        rd
  -------         ENDDO         
  C:BFEBH         LINE#         213
  C:BFF0H         LINE#         214
  C:BFF0H         LINE#         217
  C:BFF3H         LINE#         218
  C:BFFFH         LINE#         220
  C:C005H         LINE#         221
  C:C00BH         LINE#         223
  C:C019H         LINE#         225
  -------         ENDPROC       _SHOWOSDWINDOWALL
  -------         PROC          _SHOWOSDWINDOW_TW88
  D:0007H         SYMBOL        winno
  X:003FH         SYMBOL        onoff
  -------         DO            
  X:0040H         SYMBOL        rd
  -------         ENDDO         
  C:B82CH         LINE#         226
  C:B831H         LINE#         227
  C:B831H         LINE#         230
BL51 BANKED LINKER/LOCATER V5.03                                                      05/28/2012  11:22:31  PAGE 75


  C:B83DH         LINE#         231
  C:B843H         LINE#         233
  C:B84FH         LINE#         234
  C:B85CH         LINE#         235
  C:B863H         LINE#         237
  C:B866H         LINE#         238
  C:B872H         LINE#         239
  -------         ENDPROC       _SHOWOSDWINDOW_TW88
  -------         PROC          _GETOSDWINDOWY
  D:0007H         SYMBOL        winno
  -------         DO            
  X:000DH         SYMBOL        y
  -------         ENDDO         
  C:B4CBH         LINE#         256
  C:B4CBH         LINE#         257
  C:B4CBH         LINE#         260
  C:B4DBH         LINE#         261
  C:B4E1H         LINE#         263
  C:B4FEH         LINE#         264
  C:B50EH         LINE#         266
  C:B521H         LINE#         267
  -------         ENDPROC       _GETOSDWINDOWY
  -------         PROC          _WRITESTRINGTOADDR
  X:0052H         SYMBOL        addr
  X:0054H         SYMBOL        str
  X:0057H         SYMBOL        cnt
  C:BEC5H         LINE#         907
  C:BECEH         LINE#         908
  C:BECEH         LINE#         910
  C:BED4H         LINE#         912
  C:BEDDH         LINE#         913
  C:BEF2H         LINE#         916
  -------         ENDPROC       _WRITESTRINGTOADDR
  -------         PROC          _DRAWATTRCNT
  X:003EH         SYMBOL        addr
  X:0040H         SYMBOL        color
  X:0041H         SYMBOL        cnt
  C:BF29H         LINE#         930
  C:BF33H         LINE#         931
  C:BF33H         LINE#         932
  C:BF39H         LINE#         933
  C:BF42H         LINE#         934
  C:BF54H         LINE#         936
  -------         ENDPROC       _DRAWATTRCNT
  -------         PROC          _CLEARDATACNT
  X:003EH         SYMBOL        addr
  X:0040H         SYMBOL        cnt
  C:C047H         LINE#         939
  C:C04EH         LINE#         940
  C:C04EH         LINE#         942
  C:C054H         LINE#         943
  C:C05DH         LINE#         944
  C:C06EH         LINE#         947
  -------         ENDPROC       _CLEARDATACNT
  -------         PROC          _UTOA
  X:0052H         SYMBOL        value
  X:0054H         SYMBOL        str
BL51 BANKED LINKER/LOCATER V5.03                                                      05/28/2012  11:22:31  PAGE 76


  X:0057H         SYMBOL        radix
  -------         DO            
  X:0058H         SYMBOL        cnt
  X:0059H         SYMBOL        str1
  X:005CH         SYMBOL        i
  X:005EH         SYMBOL        div
  -------         ENDDO         
  C:8D52H         LINE#         954
  C:8D5BH         LINE#         955
  C:8D5BH         LINE#         963
  C:8D61H         LINE#         964
  C:8D66H         LINE#         965
  C:8D6EH         LINE#         966
  C:8D83H         LINE#         967
  C:8D83H         LINE#         968
  C:8D88H         LINE#         969
  C:8D8EH         LINE#         970
  C:8D94H         LINE#         971
  C:8D96H         LINE#         972
  C:8D9CH         LINE#         973
  C:8DABH         LINE#         975
  C:8DC1H         LINE#         976
  C:8DD7H         LINE#         977
  C:8DE1H         LINE#         978
  C:8DE1H         LINE#         979
  C:8DE4H         LINE#         980
  C:8DEFH         LINE#         981
  C:8E03H         LINE#         982
  C:8E03H         LINE#         983
  C:8E08H         LINE#         984
  C:8E14H         LINE#         985
  C:8E1AH         LINE#         987
  C:8E23H         LINE#         988
  C:8E31H         LINE#         989
  C:8E31H         LINE#         990
  C:8E45H         LINE#         991
  C:8E54H         LINE#         992
  C:8E5AH         LINE#         994
  C:8E65H         LINE#         995
  C:8E6FH         LINE#         996
  C:8E6FH         LINE#         997
  C:8E71H         LINE#         998
  -------         ENDPROC       _UTOA
  -------         PROC          _STRLEN
  X:0052H         SYMBOL        str
  -------         DO            
  D:0007H         SYMBOL        i
  -------         ENDDO         
  C:C41CH         LINE#         999
  C:C422H         LINE#         1000
  C:C422H         LINE#         1001
  C:C424H         LINE#         1003
  C:C436H         LINE#         1004
  C:C436H         LINE#         1005
  -------         ENDPROC       _STRLEN
  C:A216H         SYMBOL        L?0078
  C:A21FH         SYMBOL        L?0088
BL51 BANKED LINKER/LOCATER V5.03                                                      05/28/2012  11:22:31  PAGE 77


  -------         PROC          _INITOSDWINDOW
  X:003EH         SYMBOL        ptr
  -------         DO            
  X:0041H         SYMBOL        i
  X:0042H         SYMBOL        page
  -------         ENDDO         
  C:A182H         LINE#         1011
  C:A188H         LINE#         1012
  C:A188H         LINE#         1015
  C:A194H         LINE#         1016
  C:A19EH         LINE#         1017
  C:A1A3H         LINE#         1018
  C:A1B0H         LINE#         1020
  C:A1B5H         LINE#         1021
  C:A1BBH         LINE#         1022
  C:A1D5H         LINE#         1023
  C:A1F0H         LINE#         1025
  C:A1FBH         LINE#         1026
  C:A1FDH         LINE#         1028
  C:A20AH         LINE#         1029
  C:A216H         LINE#         1030
  -------         ENDPROC       _INITOSDWINDOW
  -------         ENDMOD        OSDBASIC

  -------         MODULE        OSDMENU
  C:0000H         SYMBOL        _ICE_DUMMY_
  C:0D0DH         PUBLIC        Str_Secord
  C:0310H         PUBLIC        Str_Sharpness_F
  X:00BAH         PUBLIC        MenuChild
  C:02CCH         PUBLIC        Str_Saturation_S
  C:0201H         PUBLIC        Str_LCDVersion_E
  C:0D7BH         PUBLIC        RECORDSDCARD_ICON
  X:00BCH         PUBLIC        PW_FirstNumber
  C:0E39H         PUBLIC        FWUpdateSelectMenu
  C:0BC0H         PUBLIC        Str_DVR_DISPLAY
  C:058CH         PUBLIC        Str_UpdateConfig_E
  C:002EH         PUBLIC        OSDHighMenu
  C:B0C4H         PUBLIC        ResetVideoValue
  C:0026H         PUBLIC        IsInputAnalogRGB
  C:0D73H         PUBLIC        VIDEO_ICON
  C:0327H         PUBLIC        Str_Sharpness_K
  D:00E8H         PUBLIC        P4
  C:164FH         PUBLIC        PanelBrightnessRange
  C:12A1H         PUBLIC        RECORDSELECT
  C:0D3DH         PUBLIC        Str_FourthNumber
  C:0CDDH         PUBLIC        Str_FPS
  X:00BDH         PUBLIC        MenuFormat
  C:0CE3H         PUBLIC        Str_RecordMode
  C:0A52H         PUBLIC        Str_Version
  C:0D3AH         PUBLIC        Str_ThirdNumber
  C:0D22H         PUBLIC        Str_RETURNAPPLY
  C:0AC1H         PUBLIC        Str_OSDLang
  C:0881H         PUBLIC        ResolutionChoiceString
  X:00BFH         PUBLIC        BarRange
  C:165BH         PUBLIC        PanelHueRange
  C:0FE9H         PUBLIC        StandardTimeBeginesSelectMenu
  C:0CE0H         PUBLIC        Str_Quality
BL51 BANKED LINKER/LOCATER V5.03                                                      05/28/2012  11:22:31  PAGE 78


  C:0CCBH         PUBLIC        Str_VER
  C:0CC8H         PUBLIC        Str_SPACE
  C:03D9H         PUBLIC        Str_TIMEOUT_STEP_E
  C:0CF5H         PUBLIC        Str_ManualRecordStop
  C:09DEH         PUBLIC        ONOFFChineseChoiceString
  C:042CH         PUBLIC        Str_RecordLength_E
  C:121DH         PUBLIC        DMUtility
  C:0D58H         PUBLIC        Str_WideScreen
  C:0AACH         PUBLIC        CheckPCCableStr
  C:16A7H         PUBLIC        PCColorTempRGB
  C:1679H         PUBLIC        VideoBrightnessRange
  C:0C0BH         PUBLIC        Str_CVBSA
  C:0572H         PUBLIC        Str_TriggerDelay_E
  C:031FH         PUBLIC        Str_Sharpness_S
  C:0D2EH         PUBLIC        Str_YES
  C:0C1AH         PUBLIC        Str_CVBSB
  C:0BDEH         PUBLIC        Str_OSD_LOCK
  D:001AH         SYMBOL        MenuIndexStack
  C:0C29H         PUBLIC        Str_CVBSC
  C:0517H         PUBLIC        Str_SecondNumber_E
  C:C5FBH         PUBLIC        GetOSDLang
  C:1685H         PUBLIC        VideoHueRange
  C:0F65H         PUBLIC        DateTimeSelectMenu
  C:05BCH         PUBLIC        Str_DISTANCE_E
  C:0DB1H         PUBLIC        InputSelectMenu
  C:9396H         PUBLIC        _SetVideoMode
  C:1219H         PUBLIC        UtilityMenu
  C:0D0AH         PUBLIC        Str_Minute
  X:00C1H         PUBLIC        MenuStack
  C:1631H         PUBLIC        UserRange
  C:0DAFH         PUBLIC        NumberOnly
  C:0BEDH         PUBLIC        Str_PASSWORD
  C:09CDH         PUBLIC        bpsChoiceString
  C:029CH         PUBLIC        Str_Contrast_D
  C:16FFH         PUBLIC        WIDE_ADDRESS
  C:14C5H         PUBLIC        TRIGGERSelectMenu
  C:0D34H         PUBLIC        Str_FirstNumber
  C:0C47H         PUBLIC        Str_Auto_Day_Night
  C:04ABH         PUBLIC        Str_TimeBegines_E
  C:0289H         PUBLIC        Str_Contrast_E
  C:022AH         PUBLIC        Str_GETWAY_E
  X:00C9H         PUBLIC        DVR_DataChange
  C:57EBH         PUBLIC        _GetItemValue
  C:BE5EH         PUBLIC        OpenOSDMenu
  C:1369H         PUBLIC        DMUserPicture
  C:08E8H         PUBLIC        RecordLengthChoiceString
  C:0292H         PUBLIC        Str_Contrast_F
  C:BFBBH         PUBLIC        _Get_cursor_item
  C:1661H         PUBLIC        PanelSaturationRange
  C:046DH         PUBLIC        Str_Snapshot_E
  C:B18FH         PUBLIC        InitOSDMenu
  C:1041H         PUBLIC        TimeBeginesSELECT
  C:0D4FH         PUBLIC        Str_Informmation
  C:0456H         PUBLIC        Str_ManualRecordStart_E
  C:AF8FH         PUBLIC        _SetVideoBacklight
  C:04E6H         PUBLIC        Str_AudioRecord_E
  C:020DH         PUBLIC        Str_DVRVersion_E
BL51 BANKED LINKER/LOCATER V5.03                                                      05/28/2012  11:22:31  PAGE 79


  C:1125H         PUBLIC        DMDVRRecallSELECT
  C:10F5H         PUBLIC        DMMonitorRecallSELECT
  C:02AFH         PUBLIC        Str_Contrast_K
  C:01D5H         PUBLIC        AutoAdjustInfo
  C:0CECH         PUBLIC        Str_PostAlarmLength
  C:0CE9H         PUBLIC        Str_PreAlarmLength
  C:C5D9H         PUBLIC        ClearValueWin
  C:0CD4H         PUBLIC        Str_GAUGE_RECALL
  C:0AAFH         PUBLIC        OutOfRangeStr
  C:167FH         PUBLIC        VideoSaturationRange
  C:0D6BH         PUBLIC        INPUT_ICON
  C:0C38H         PUBLIC        Str_CVBSR
  X:00CAH         PUBLIC        MenuTitle
  C:037CH         PUBLIC        Str_MIRROR_E
  C:0E6DH         PUBLIC        ChangePasswordSelectMenu
  C:0D25H         PUBLIC        Str_FormatSD
  C:2DB0H         PUBLIC        _SetItemValue
  C:A41BH         PUBLIC        _ChangeVideoData
  C:1451H         PUBLIC        TRIGGERDELAYMenu
  C:0DB5H         PUBLIC        InputSourceMenu
  C:0CD7H         PUBLIC        Str_PRIORITY
  C:0B1BH         PUBLIC        Str_Reset
  C:1655H         PUBLIC        PanelSharpnessRange
  C:0D46H         PUBLIC        Str_TriggerSet
  C:0765H         PUBLIC        CaptionChoice
  C:02A5H         PUBLIC        Str_Contrast_S
  C:98BDH         PUBLIC        _DrawNum
  C:039EH         PUBLIC        Str_RETURN_E
  C:0221H         PUBLIC        Str_WIFI_MAC_E
  C:A2D0H         PUBLIC        _SetPCColor
  C:0D01H         PUBLIC        Str_Month
  C:0CEFH         PUBLIC        Str_Apply
  C:0CD1H         PUBLIC        Str_GAUGE_STEP
  C:0974H         PUBLIC        AudioRecordChoiceString
  C:0498H         PUBLIC        Str_Secord_E
  C:C606H         PUBLIC        _GetVideoDatawithOffset
  C:1091H         PUBLIC        DaylightSavingSelectMenu
  C:09ECH         PUBLIC        IMAGEChineseString
  C:1195H         PUBLIC        InformationMenu
  C:0DABH         PUBLIC        BookMark_ICON
  C:13F1H         PUBLIC        DMCAMSELECT
  C:0EE5H         PUBLIC        FORMATSDSELECT
  C:0825H         PUBLIC        REARString
  C:05B0H         PUBLIC        Str_DVR_DISPLAY_E
  C:168BH         PUBLIC        VideoSharpnessRange
  C:0D19H         PUBLIC        Str_Week
  C:B70AH         PUBLIC        _SetVideoBrightness
  C:0532H         PUBLIC        Str_FourthNumber_E
  C:0414H         PUBLIC        Str_FPS_E
  C:0420H         PUBLIC        Str_RecordMode_E
  C:0242H         PUBLIC        Str_OSDLang_D
  C:01F9H         PUBLIC        Str_Version_E
  C:10C5H         PUBLIC        DMRecallSELECT
  C:0D1CH         PUBLIC        Str_Time
  C:0525H         PUBLIC        Str_ThirdNumber_E
  C:04CAH         PUBLIC        Str_RETURNAPPLY_E
  C:0232H         PUBLIC        Str_OSDLang_E
BL51 BANKED LINKER/LOCATER V5.03                                                      05/28/2012  11:22:31  PAGE 80


  C:B05EH         PUBLIC        _SetVideoHue
  C:1763H         PUBLIC        WIDEDATA_480i
  C:0CFBH         PUBLIC        Str_DateTime
  C:023BH         PUBLIC        Str_OSDLang_F
  C:9992H         PUBLIC        _DrawStringByLang
  C:0CFEH         PUBLIC        Str_Year
  C:0C7DH         PUBLIC        Str_CAMA
  C:0957H         PUBLIC        TimeBeginesWeekChoiceString
  C:0418H         PUBLIC        Str_Quality_E
  C:03CDH         PUBLIC        Str_VER_E
  C:03CBH         PUBLIC        Str_SPACE_E
  C:A55EH         PUBLIC        OSDHighMenu_sub
  C:0D9BH         PUBLIC        NoGsensor_ICON
  C:0D55H         PUBLIC        Str_SDCARDCOVERDET
  C:0C8CH         PUBLIC        Str_CAMB
  C:0462H         PUBLIC        Str_ManualRecordStop_E
  C:0C9BH         PUBLIC        Str_CAMC
  C:0363H         PUBLIC        Str_WideScreen_E
  C:01A2H         PUBLIC        CheckPCCableStr_E
  C:81FFH         PUBLIC        DisplayInfo_OSD
  C:17B3H         PUBLIC        OSDInfoStr
  C:15B1H         PUBLIC        DMMainMenu
  C:0CB9H         PUBLIC        Str_CAMD
  C:05EAH         PUBLIC        Str_CVBSA_E
  C:05F1H         PUBLIC        Str_CVBSB_E
  C:05CBH         PUBLIC        Str_OSD_LOCK_E
  C:0503H         PUBLIC        Str_YES_E
  C:0251H         PUBLIC        Str_OSDLang_K
  C:9BF5H         PUBLIC        _Set4WideScreen
  C:178BH         PUBLIC        WIDEDATA_576i
  C:12F5H         PUBLIC        SDCARD
  C:05F8H         PUBLIC        Str_CVBSC_E
  C:0D8FH         PUBLIC        NoGPS_ICON
  C:0C65H         PUBLIC        Str_DIR_IMAGE_CAMA
  C:0BB1H         PUBLIC        Str_DISPLAY
  C:0B48H         PUBLIC        Str_SEQ_TIME_STEP
  X:00CCH         SYMBOL        cursor_item
  C:0D6FH         PUBLIC        TV_ICON
  C:0C68H         PUBLIC        Str_DIR_IMAGE_CAMB
  C:0894H         PUBLIC        FPSChoiceString
  C:0C6BH         PUBLIC        Str_DIR_IMAGE_CAMC
  C:08D3H         PUBLIC        RecordModeChoiceString
  C:0494H         PUBLIC        Str_Minute_E
  C:036FH         PUBLIC        Str_WideScreen_K
  C:C3AAH         PUBLIC        _SetLanguage
  C:0ABEH         PUBLIC        StrVolume
  C:05D4H         PUBLIC        Str_PASSWORD_E
  B:0022H.7       PUBLIC        displayOnValueWindow
  X:00CDH         SYMBOL        title_item
  C:B944H         PUBLIC        _GetLowerMenuItem
  C:1649H         PUBLIC        PanelContrastRange
  C:0D31H         PUBLIC        Str_NO
  C:08A8H         PUBLIC        QualityChoiceString
  C:083BH         PUBLIC        JUMPString
  C:0606H         PUBLIC        Str_Auto_Day_Night_E
  C:050AH         PUBLIC        Str_FirstNumber_E
  C:0DA3H         PUBLIC        NoWiFi_ICON
BL51 BANKED LINKER/LOCATER V5.03                                                      05/28/2012  11:22:31  PAGE 81


  C:0D04H         PUBLIC        Str_Day
  C:0C6EH         PUBLIC        Str_REAR_SETUP
  C:024AH         PUBLIC        Str_OSDLang_S
  C:AD57H         PUBLIC        _SetVideoSaturation
  C:C658H         PUBLIC        _GetUpperMenuItem
  C:B41CH         PUBLIC        CheckPanelImage
  C:0D07H         PUBLIC        Str_Hour
  C:0AD0H         PUBLIC        Str_Brightness
  D:001EH         SYMBOL        MenuSP
  C:0580H         PUBLIC        Str_Informmation_E
  C:153DH         PUBLIC        DMCAMERA
  X:00CEH         SYMBOL        val_osdwin
  C:AAEDH         PUBLIC        _SetPCColorTemp
  C:1697H         PUBLIC        Contast_Reg_Addr
  C:0D77H         PUBLIC        SDCARD_ICON
  C:0D40H         PUBLIC        Str_ChangePassword
  C:0B93H         PUBLIC        Str_DVRRECALL
  C:0B84H         PUBLIC        Str_MonitorRECALL
  C:0AFDH         PUBLIC        Str_Hue
  C:B12AH         PUBLIC        _SetRGBContrast
  C:1673H         PUBLIC        TW2835VideoContrastRange
  C:166DH         PUBLIC        VideoContrastRange
  C:0CAAH         PUBLIC        Str_CAMR
  C:0749H         PUBLIC        WideScreenChoice
  C:1365H         PUBLIC        UserPictureMenuType
  C:0C56H         PUBLIC        Str_DIR_IMAGE
  C:0444H         PUBLIC        Str_PostAlarmLength_E
  C:043AH         PUBLIC        Str_PreAlarmLength_E
  X:00CFH         SYMBOL        val_index
  C:03F3H         PUBLIC        Str_GAUGE_RECALL_E
  C:01B2H         PUBLIC        OutOfRangeStr_E
  C:90A5H         PUBLIC        _OSDValueUpDn
  C:16F9H         PUBLIC        Init_DTV_Data
  C:1643H         PUBLIC        PCUserColorTempRange
  C:05FFH         PUBLIC        Str_CVBSR_E
  C:1856H         SYMBOL        _?ix1000
  C:1539H         PUBLIC        CAMERAMenu
  C:0D10H         PUBLIC        Str_DaylightSaving
  C:C11DH         PUBLIC        SaveValue1
  C:189AH         SYMBOL        _?ix1001
  X:00D0H         SYMBOL        cur_osdwin
  C:18A6H         SYMBOL        _?ix1002
  C:0D2BH         PUBLIC        Str_FirmwareUpdate
  C:0A7FH         PUBLIC        Str_WIFI_IP
  C:0787H         PUBLIC        ONOFFChoiceString
  C:04D7H         PUBLIC        Str_FormatSD_E
  C:033DH         PUBLIC        Str_Reset_D
  C:18B2H         SYMBOL        _?ix1003
  C:0B57H         PUBLIC        Str_CAM_OUT
  C:0400H         PUBLIC        Str_PRIORITY_E
  C:0330H         PUBLIC        Str_Reset_E
  C:A229H         PUBLIC        _SetVideoSharpness
  C:0872H         PUBLIC        CAMOUTString
  C:055AH         PUBLIC        Str_TriggerSet_E
  C:0336H         PUBLIC        Str_Reset_F
  C:01BFH         PUBLIC        OutOfRangeStr_K
  C:7CF0H         PUBLIC        _DrawMenulist
BL51 BANKED LINKER/LOCATER V5.03                                                      05/28/2012  11:22:31  PAGE 82


  C:163DH         PUBLIC        OSDMenuXRange
  C:0E3DH         PUBLIC        FWUpdateSELECT
  C:1637H         PUBLIC        OSDMenuYRange
  C:0485H         PUBLIC        Str_Month_E
  C:0450H         PUBLIC        Str_Apply_E
  C:03E7H         PUBLIC        Str_GAUGE_STEP_E
  C:15ADH         PUBLIC        TVMainMenu
  C:0D67H         PUBLIC        UTIL_ICON
  C:12F1H         PUBLIC        SDCARDMenu
  C:0D1FH         PUBLIC        Str_TimeZone
  C:092DH         PUBLIC        PostAlarmLengthChoiceString
  C:0915H         PUBLIC        PreAlarmLengthChoiceString
  C:836CH         PUBLIC        OSDSelect
  C:1455H         PUBLIC        TRIGGERDELAYSELECT
  C:0AEEH         PUBLIC        Str_Saturation
  C:035DH         PUBLIC        Str_Reset_K
  C:16F3H         PUBLIC        Init_Video_Data
  C:0D87H         PUBLIC        SDCardOverWrite_ICON
  C:13EDH         PUBLIC        CAMSelectMenu
  C:0FEDH         PUBLIC        StandardTimeBeginesSELECT
  C:0D7FH         PUBLIC        PC_ADJ_ICON
  C:04B6H         PUBLIC        Str_Week_E
  C:C400H         PUBLIC        _GetNextCursorMenuItem
  C:103DH         PUBLIC        TimeBeginesSelectMenu
  C:0B75H         PUBLIC        Str_RECALL
  C:0D16H         PUBLIC        Str_Standard
  C:04BBH         PUBLIC        Str_Time_E
  C:169DH         PUBLIC        OSDPOSITIONMODE_TABLE
  C:0476H         PUBLIC        Str_DateTime_E
  C:0D49H         PUBLIC        Str_TriggerVGA
  C:0BFCH         PUBLIC        Str_SOURCE_TITLE
  C:064EH         PUBLIC        Str_CAMA_E
  C:0480H         PUBLIC        Str_Year_E
  C:BAD9H         PUBLIC        _GetTargetChild
  C:0654H         PUBLIC        Str_CAMB_E
  C:059AH         PUBLIC        Str_SDCARDCOVERDET_E
  C:034CH         PUBLIC        Str_Reset_S
  C:0F69H         PUBLIC        DateTimeSELECT
  C:065AH         PUBLIC        Str_CAMC_E
  X:00D1H         PUBLIC        PW_SecondNumber
  C:0CDAH         PUBLIC        Str_Resolution
  C:0BA2H         PUBLIC        Str_EXIT
  C:0696H         PUBLIC        ModeChoice
  C:0666H         PUBLIC        Str_CAMD_E
  C:B6BDH         PUBLIC        _CAMOutDSel
  X:00D2H         SYMBOL        OSDMenuX
  C:0B39H         PUBLIC        Str_JUMP
  C:0B0CH         PUBLIC        Str_Sharpness
  X:00D3H         SYMBOL        OSDMenuY
  C:061FH         PUBLIC        Str_DIR_IMAGE_CAMA_E
  C:05A8H         PUBLIC        Str_DISPLAY_E
  C:0388H         PUBLIC        Str_SEQ_TIME_STEP_E
  C:91A3H         PUBLIC        DisplayOSDMenu
  C:C0A0H         PUBLIC        pushMenu
  C:0A61H         PUBLIC        Str_LCDVersion
  C:062BH         PUBLIC        Str_DIR_IMAGE_CAMB_E
  C:0637H         PUBLIC        Str_DIR_IMAGE_CAMC_E
BL51 BANKED LINKER/LOCATER V5.03                                                      05/28/2012  11:22:31  PAGE 83


  C:0D52H         PUBLIC        Str_UpdateConfig
  C:01CCH         PUBLIC        StrVolume_E
  C:BC16H         PUBLIC        _SetVideoContrast
  C:9558H         PUBLIC        DisplayCursor
  C:1199H         PUBLIC        DMINFORMATION
  C:0D83H         PUBLIC        NoSDCard_ICON
  C:0507H         PUBLIC        Str_NO_E
  C:129DH         PUBLIC        RecordSelectMenu
  C:09C5H         PUBLIC        PDChoiceString
  C:0643H         PUBLIC        Str_REAR_SETUP_E
  C:048BH         PUBLIC        Str_Day_E
  C:026FH         PUBLIC        Str_Brightness_D
  C:1691H         PUBLIC        DigitalVideoSaturationRange
  C:0EE1H         PUBLIC        FORMATSDSelectMenu
  C:0DB0H         PUBLIC        DefaultBar
  C:07ABH         PUBLIC        IMAGEString
  C:048FH         PUBLIC        Str_Hour_E
  C:0259H         PUBLIC        Str_Brightness_E
  C:1611H         PUBLIC        DefaultMenu
  C:07C8H         PUBLIC        IMAGE_A_String
  C:0264H         PUBLIC        Str_Brightness_F
  C:07E7H         PUBLIC        IMAGE_B_String
  C:02EDH         PUBLIC        Str_Hue_D
  C:BC54H         PUBLIC        _DVRAodioSel
  C:0D43H         PUBLIC        Str_Str_OverWrite
  C:0CCEH         PUBLIC        Str_TIMEOUT_STEP
  C:0806H         PUBLIC        IMAGE_C_String
  C:0540H         PUBLIC        Str_ChangePassword_E
  C:03BBH         PUBLIC        Str_DVRRECALL_E
  C:03ACH         PUBLIC        Str_MonitorRECALL_E
  C:02E0H         PUBLIC        Str_Hue_E
  B:0023H.0       PUBLIC        OnChangingValue
  C:6915H         PUBLIC        _OSDCursorMove
  C:0CE6H         PUBLIC        Str_RecordLength
  C:0660H         PUBLIC        Str_CAMR_E
  C:02E4H         PUBLIC        Str_Hue_F
  C:0615H         PUBLIC        Str_DIR_IMAGE_E
  C:0E71H         PUBLIC        ChangePasswordSELECT
  C:0D93H         PUBLIC        NoGPS_ICON2
  C:0D4CH         PUBLIC        Str_TriggerDelay
  C:071AH         PUBLIC        VInputStdChoice
  C:0281H         PUBLIC        Str_Brightness_K
  C:066CH         PUBLIC        OSDLangString
  C:C3E4H         PUBLIC        popMenu
  C:0D37H         PUBLIC        Str_SecondNumber
  C:049CH         PUBLIC        Str_DaylightSaving_E
  C:0BCFH         PUBLIC        Str_DISTANCE
  C:02FDH         PUBLIC        Str_Hue_K
  C:0790H         PUBLIC        DayChoiceString
  C:04F3H         PUBLIC        Str_FirmwareUpdate_E
  C:0219H         PUBLIC        Str_WIFI_IP_E
  C:1095H         PUBLIC        DaylightSavingSELECT
  C:0396H         PUBLIC        Str_CAM_OUT_E
  X:00D4H         SYMBOL        OSDLang
  C:B5CFH         PUBLIC        ClearCursor
  C:14C9H         PUBLIC        DMTRIGGERSELECT
  C:16B3H         PUBLIC        VideoModeTable
BL51 BANKED LINKER/LOCATER V5.03                                                      05/28/2012  11:22:31  PAGE 84


  C:0550H         PUBLIC        Str_OverWrite_E
  C:1155H         PUBLIC        RecallMenu
  C:0DA7H         PUBLIC        WiFiLittle_ICON
  C:0D13H         PUBLIC        Str_TimeBegines
  C:0ADFH         PUBLIC        Str_Contrast
  C:0A9DH         PUBLIC        Str_GETWAY
  C:027AH         PUBLIC        Str_Brightness_S
  C:A721H         PUBLIC        _DisplayVolumebar
  C:7B27H         PUBLIC        ResetOSDValue
  C:970FH         PUBLIC        _DisplayViewBar
  C:5466H         PUBLIC        _DisplayOSDMenuOneItem
  C:0D97H         PUBLIC        Gsensor_ICON
  C:0CF8H         PUBLIC        Str_Snapshot
  C:04C0H         PUBLIC        Str_TimeZone_E
  C:02C2H         PUBLIC        Str_Saturation_D
  C:02F3H         PUBLIC        Str_Hue_S
  C:02B7H         PUBLIC        Str_Saturation_E
  X:00D5H         PUBLIC        PW_FourthNumber
  C:137DH         PUBLIC        DMPicture
  C:0CF2H         PUBLIC        Str_ManualRecordStart
  C:1667H         PUBLIC        PanelBacklightRange
  C:0D28H         PUBLIC        Str_AudioRecord
  C:0A70H         PUBLIC        Str_DVRVersion
  C:0945H         PUBLIC        DaylightSavingChoiceString
  X:00D6H         PUBLIC        PW_ThridNumber
  C:1713H         PUBLIC        WIDEDATA_N
  C:0D8BH         PUBLIC        GPS_ICON
  C:03A5H         PUBLIC        Str_RECALL_E
  C:6415H         PUBLIC        _DoAction
  C:173BH         PUBLIC        WIDEDATA_P
  C:07A1H         PUBLIC        ONOFFChoiceString1
  C:04B2H         PUBLIC        Str_Standard_E
  C:02D7H         PUBLIC        Str_Saturation_K
  C:1379H         PUBLIC        PictureMenu
  C:0DB9H         PUBLIC        DMINPUTSOURCE
  C:0B2AH         PUBLIC        Str_MIRROR
  C:05DDH         PUBLIC        Str_SOURCE_TITLE_E
  C:0566H         PUBLIC        Str_TriggerVGA_E
  C:BD0CH         PUBLIC        CloseOSDMenu
  C:01EFH         PUBLIC        Str_Composite_E
  X:00D7H         SYMBOL        OSDItemValue
  X:00D9H         SYMBOL        OSDMenuLevel
  C:0D9FH         PUBLIC        WiFi_ICON
  C:097EH         PUBLIC        TimeZoneChoiceString
  C:0409H         PUBLIC        Str_Resolution_E
  C:03C6H         PUBLIC        Str_EXIT_E
  C:0317H         PUBLIC        Str_Sharpness_D
  C:0B66H         PUBLIC        Str_RETURN
  C:0A8EH         PUBLIC        Str_WIFI_MAC
  C:0A14H         PUBLIC        JUMPChineseString
  C:0383H         PUBLIC        Str_JUMP_E
  C:0306H         PUBLIC        Str_Sharpness_E
  C:50A7H         SYMBOL        Com0459
  C:50A7H         SYMBOL        L?1114
  C:50A7H         SYMBOL        L?1115
  C:50AEH         SYMBOL        L?1116
  C:50B5H         SYMBOL        L?1117
BL51 BANKED LINKER/LOCATER V5.03                                                      05/28/2012  11:22:31  PAGE 85


  C:50B5H         SYMBOL        L?1118
  C:50B7H         SYMBOL        L?1119
  C:50C4H         SYMBOL        L?1123
  C:50C4H         SYMBOL        L?1124
  C:50CBH         SYMBOL        L?1127
  C:50D2H         SYMBOL        L?1128
  C:50D8H         SYMBOL        L?1129
  C:50E1H         SYMBOL        L?1130
  C:50E1H         SYMBOL        L?1131
  C:50E4H         SYMBOL        L?1132
  C:50EDH         SYMBOL        L?1136
  C:5101H         SYMBOL        L?1137
  C:5107H         SYMBOL        L?1138
  C:5114H         SYMBOL        L?1139
  C:511DH         SYMBOL        L?1140
  C:511DH         SYMBOL        L?1141
  C:5123H         SYMBOL        L?1142
  C:512AH         SYMBOL        L?1143
  C:512BH         SYMBOL        L?1144
  C:5131H         SYMBOL        L?1145
  C:5131H         SYMBOL        L?1146
  C:5139H         SYMBOL        L?1148
  C:513DH         SYMBOL        L?1149
  C:5148H         SYMBOL        L?1150
  C:5148H         SYMBOL        L?1151
  C:514BH         SYMBOL        L?1152
  C:5152H         SYMBOL        L?1155
  C:5152H         SYMBOL        L?1156
  C:5159H         SYMBOL        L?1157
  C:5159H         SYMBOL        L?1158
  C:5170H         SYMBOL        L?1159
  C:5176H         SYMBOL        L?1161
  C:5176H         SYMBOL        L?1162
  C:517EH         SYMBOL        L?1165
  C:517EH         SYMBOL        L?1166
  C:5187H         SYMBOL        L?1167
  C:5187H         SYMBOL        L?1168
  C:518AH         SYMBOL        L?1169
  C:5194H         SYMBOL        L?1171
  C:5194H         SYMBOL        L?1172
  C:5197H         SYMBOL        L?1173
  C:519FH         SYMBOL        L?1178
  C:519FH         SYMBOL        L?1179
  C:51A8H         SYMBOL        L?1180
  C:51AAH         SYMBOL        L?1181
  C:51ADH         SYMBOL        L?1182
  C:51B5H         SYMBOL        L?1183
  C:51BEH         SYMBOL        L?1184
  C:51C7H         SYMBOL        L?1190
  C:51CCH         SYMBOL        L?1191
  C:51CFH         SYMBOL        L?1192
  C:51D8H         SYMBOL        L?1193
  C:51D9H         SYMBOL        L?1194
  C:51E1H         SYMBOL        L?1195
  C:51E1H         SYMBOL        L?1196
  C:51E9H         SYMBOL        L?1198
  C:51F0H         SYMBOL        L?1199
BL51 BANKED LINKER/LOCATER V5.03                                                      05/28/2012  11:22:31  PAGE 86


  C:51F7H         SYMBOL        L?1201
  C:51FEH         SYMBOL        L?1202
  C:5200H         SYMBOL        L?1203
  C:5207H         SYMBOL        L?1204
  C:5208H         SYMBOL        L?1205
  C:5219H         SYMBOL        L?1210
  C:5236H         SYMBOL        L?1214
  C:5250H         SYMBOL        L?1215
  C:5250H         SYMBOL        L?1216
  C:5253H         SYMBOL        L?1217
  C:525BH         SYMBOL        L?1218
  C:5266H         SYMBOL        L?1219
  C:5266H         SYMBOL        L?1220
  C:5273H         SYMBOL        L?1222
  C:5289H         SYMBOL        L?1223
  C:529FH         SYMBOL        L?1224
  C:529FH         SYMBOL        L?1225
  C:52A0H         SYMBOL        L?1226
  C:52A7H         SYMBOL        L?1227
  C:52A7H         SYMBOL        L?1228
  C:52B4H         SYMBOL        L?1229
  C:52B4H         SYMBOL        L?1230
  C:52BAH         SYMBOL        L?1232
  C:52BCH         SYMBOL        L?1233
  C:52C5H         SYMBOL        L?1234
  C:52C6H         SYMBOL        L?1235
  C:52CDH         SYMBOL        L?1236
  C:52CDH         SYMBOL        L?1237
  C:52D5H         SYMBOL        L?1238
  C:52D8H         SYMBOL        L?1239
  C:52E0H         SYMBOL        L?1240
  C:52E0H         SYMBOL        L?1241
  C:52E1H         SYMBOL        L?1242
  C:52E8H         SYMBOL        L?1244
  C:52EDH         SYMBOL        L?1245
  C:52F5H         SYMBOL        L?1248
  C:52F7H         SYMBOL        L?1249
  C:52FFH         SYMBOL        L?1250
  C:52FFH         SYMBOL        L?1251
  C:5306H         SYMBOL        L?1252
  C:5309H         SYMBOL        L?1253
  C:5310H         SYMBOL        L?1254
  C:5310H         SYMBOL        L?1255
  C:5318H         SYMBOL        L?1256
  C:5318H         SYMBOL        L?1257
  C:5320H         SYMBOL        L?1258
  C:5320H         SYMBOL        L?1259
  C:5327H         SYMBOL        L?1260
  C:532BH         SYMBOL        L?1261
  C:5333H         SYMBOL        L?1262
  C:5343H         SYMBOL        L?1268
  C:5352H         SYMBOL        L?1271
  C:5360H         SYMBOL        L?1272
  C:536EH         SYMBOL        L?1273
  C:537CH         SYMBOL        L?1274
  C:538AH         SYMBOL        L?1275
  C:538CH         SYMBOL        L?1276
BL51 BANKED LINKER/LOCATER V5.03                                                      05/28/2012  11:22:31  PAGE 87


  C:5394H         SYMBOL        L?1279
  C:5394H         SYMBOL        L?1280
  C:539BH         SYMBOL        L?1281
  C:53A8H         SYMBOL        L?1282
  C:53AAH         SYMBOL        L?1283
  C:53B1H         SYMBOL        L?1284
  C:53B8H         SYMBOL        L?1285
  C:53B8H         SYMBOL        L?1286
  C:53BEH         SYMBOL        L?1287
  C:53CBH         SYMBOL        L?1288
  C:53CBH         SYMBOL        L?1289
  C:53D3H         SYMBOL        L?1290
  C:53D3H         SYMBOL        L?1291
  C:53DBH         SYMBOL        L?1292
  C:53DBH         SYMBOL        L?1293
  C:53E3H         SYMBOL        L?1295
  C:53EEH         SYMBOL        L?1296
  C:53F9H         SYMBOL        L?1297
  C:5404H         SYMBOL        L?1298
  C:540BH         SYMBOL        L?1299
  C:5416H         SYMBOL        L?1301
  C:5420H         SYMBOL        L?1302
  C:542AH         SYMBOL        L?1303
  C:5434H         SYMBOL        L?1304
  C:543EH         SYMBOL        L?1305
  C:543EH         SYMBOL        L?1306
  C:5444H         SYMBOL        L?1307
  C:544EH         SYMBOL        L?1308
  C:5458H         SYMBOL        L?1309
  C:5458H         SYMBOL        L?1310
  C:545FH         SYMBOL        L?1311
  C:545FH         SYMBOL        L?1312
  -------         PROC          COM0459
  -------         ENDPROC       COM0459
  C:7C91H         SYMBOL        L?1170
  C:7C98H         SYMBOL        L?1174
  C:7C9FH         SYMBOL        L?1177
  C:7CA6H         SYMBOL        L?1187
  C:7CAEH         SYMBOL        L?1188
  C:7CB5H         SYMBOL        L?1197
  C:7CBCH         SYMBOL        L?1200
  C:7CC4H         SYMBOL        L?1212
  C:7CCBH         SYMBOL        L?1221
  C:7CD3H         SYMBOL        L?1231
  C:7CDAH         SYMBOL        L?1263
  C:7CE1H         SYMBOL        L?1264
  C:7CE9H         SYMBOL        L?1313
  -------         PROC          RESETOSDVALUE
  C:7B27H         LINE#         247
  C:7B27H         LINE#         248
  C:7B27H         LINE#         250
  C:7B30H         LINE#         251
  C:7B39H         LINE#         257
  C:7B42H         LINE#         259
  C:7B47H         LINE#         260
  C:7B4CH         LINE#         261
  C:7B51H         LINE#         262
BL51 BANKED LINKER/LOCATER V5.03                                                      05/28/2012  11:22:31  PAGE 88


  C:7B56H         LINE#         263
  C:7B5BH         LINE#         264
  C:7B60H         LINE#         265
  C:7B65H         LINE#         266
  C:7B6AH         LINE#         267
  C:7B6FH         LINE#         268
  C:7B74H         LINE#         269
  C:7B79H         LINE#         270
  C:7B82H         LINE#         271
  C:7B8BH         LINE#         272
  C:7B94H         LINE#         274
  C:7B99H         LINE#         275
  C:7B9EH         LINE#         276
  C:7BA3H         LINE#         278
  C:7BA8H         LINE#         279
  C:7BADH         LINE#         280
  C:7BB2H         LINE#         281
  C:7BB7H         LINE#         282
  C:7BBCH         LINE#         284
  C:7BC2H         LINE#         285
  C:7BC2H         LINE#         286
  C:7BC9H         LINE#         287
  C:7BCFH         LINE#         288
  C:7BD1H         LINE#         290
  C:7BD1H         LINE#         291
  C:7BDAH         LINE#         292
  C:7BE2H         LINE#         293
  C:7BE2H         LINE#         294
  C:7BE7H         LINE#         296
  C:7BEFH         LINE#         297
  C:7BF4H         LINE#         298
  C:7BF9H         LINE#         299
  C:7C02H         LINE#         300
  C:7C0BH         LINE#         302
  C:7C10H         LINE#         303
  C:7C15H         LINE#         304
  C:7C1AH         LINE#         305
  C:7C1FH         LINE#         306
  C:7C24H         LINE#         307
  C:7C27H         LINE#         308
  C:7C2CH         LINE#         311
  C:7C35H         LINE#         312
  C:7C41H         LINE#         313
  C:7C46H         LINE#         315
  C:7C4BH         LINE#         316
  C:7C57H         LINE#         317
  C:7C60H         LINE#         318
  C:7C6CH         LINE#         319
  C:7C75H         LINE#         320
  C:7C81H         LINE#         321
  C:7C89H         LINE#         322
  C:7C8EH         LINE#         323
  C:7C91H         LINE#         324
  -------         ENDPROC       RESETOSDVALUE
  -------         PROC          GETOSDLANG
  C:C5FBH         LINE#         358
  C:C5FBH         LINE#         359
BL51 BANKED LINKER/LOCATER V5.03                                                      05/28/2012  11:22:31  PAGE 89


  C:C5FBH         LINE#         360
  C:C602H         LINE#         361
  C:C605H         LINE#         362
  C:C605H         LINE#         363
  -------         ENDPROC       GETOSDLANG
  -------         PROC          _SETLANGUAGE
  D:0007H         SYMBOL        flag
  -------         DO            
  D:0007H         SYMBOL        inc
  -------         ENDDO         
  C:C3AAH         LINE#         365
  C:C3AAH         LINE#         366
  C:C3AAH         LINE#         368
  C:C3B4H         LINE#         369
  C:C3BBH         LINE#         370
  C:C3BEH         LINE#         372
  C:C3C1H         LINE#         374
  C:C3C6H         LINE#         375
  -------         ENDPROC       _SETLANGUAGE
  -------         PROC          _SETRGBCONTRAST
  D:0007H         SYMBOL        temp
  X:0017H         SYMBOL        val
  -------         DO            
  X:0018H         SYMBOL        index
  X:001AH         SYMBOL        i
  X:001BH         SYMBOL        newval
  X:001DH         SYMBOL        toValue
  -------         ENDDO         
  C:B12AH         LINE#         411
  C:B12FH         LINE#         412
  C:B12FH         LINE#         417
  C:B13FH         LINE#         418
  C:B14CH         LINE#         419
  C:B14CH         LINE#         420
  C:B15FH         LINE#         421
  C:B16FH         LINE#         422
  C:B186H         LINE#         423
  C:B18EH         LINE#         424
  -------         ENDPROC       _SETRGBCONTRAST
  -------         PROC          _SETPCCOLORTEMP
  D:0007H         SYMBOL        flag
  -------         DO            
  D:0007H         SYMBOL        val
  X:0015H         SYMBOL        regv
  D:0007H         SYMBOL        inc
  -------         ENDDO         
  C:AAEDH         LINE#         438
  C:AAEDH         LINE#         439
  C:AAEDH         LINE#         446
  C:AAF7H         LINE#         447
  C:AB13H         LINE#         448
  C:AB1AH         LINE#         450
  C:AB23H         LINE#         451
  C:AB2AH         LINE#         452
  C:AB3FH         LINE#         453
  C:AB4CH         LINE#         455
  C:AB5AH         LINE#         456
BL51 BANKED LINKER/LOCATER V5.03                                                      05/28/2012  11:22:31  PAGE 90


  C:AB5EH         LINE#         458
  C:AB67H         LINE#         460
  C:AB6CH         LINE#         461
  -------         ENDPROC       _SETPCCOLORTEMP
  -------         PROC          _SETPCCOLOR
  X:0015H         SYMBOL        color
  D:0005H         SYMBOL        flag
  -------         DO            
  X:0016H         SYMBOL        newval
  X:0018H         SYMBOL        toValue
  X:001AH         SYMBOL        regv
  -------         ENDDO         
  C:A2D0H         LINE#         471
  C:A2D5H         LINE#         472
  C:A2D5H         LINE#         476
  C:A2F8H         LINE#         477
  C:A30CH         LINE#         478
  C:A30FH         LINE#         480
  C:A31AH         LINE#         481
  C:A329H         LINE#         482
  C:A33BH         LINE#         484
  C:A345H         LINE#         485
  C:A359H         LINE#         487
  C:A370H         LINE#         489
  C:A375H         LINE#         490
  -------         ENDPROC       _SETPCCOLOR
  C:B46AH         SYMBOL        L?1207
  -------         PROC          CHECKPANELIMAGE
  C:B41CH         LINE#         548
  C:B41CH         LINE#         549
  C:B41CH         LINE#         570
  C:B41CH         LINE#         571
  C:B42EH         LINE#         572
  C:B430H         LINE#         573
  C:B43AH         LINE#         574
  C:B43CH         LINE#         575
  C:B446H         LINE#         576
  C:B44FH         LINE#         577
  C:B458H         LINE#         578
  C:B46AH         LINE#         579
  C:B46AH         LINE#         581
  -------         ENDPROC       CHECKPANELIMAGE
  -------         PROC          _SETVIDEOMODE
  X:0022H         SYMBOL        mode
  -------         DO            
  X:0023H         SYMBOL        i
  X:0025H         SYMBOL        regv
  -------         DO            
  X:0027H         SYMBOL        userv
  -------         ENDDO         
  -------         ENDDO         
  C:9396H         LINE#         592
  C:939CH         LINE#         593
  C:939CH         LINE#         596
  C:93A3H         LINE#         598
  C:93ABH         LINE#         600
  C:93B0H         LINE#         601
BL51 BANKED LINKER/LOCATER V5.03                                                      05/28/2012  11:22:31  PAGE 91


  C:93F4H         LINE#         603
  C:940FH         LINE#         604
  C:940FH         LINE#         605
  C:940FH         LINE#         607
  C:9411H         LINE#         609
  C:9411H         LINE#         611
  C:9411H         LINE#         615
  C:9419H         LINE#         616
  C:9421H         LINE#         617
  C:942DH         LINE#         618
  C:9439H         LINE#         619
  C:9441H         LINE#         621
  C:944BH         LINE#         622
  C:945FH         LINE#         623
  C:945FH         LINE#         624
  C:9468H         LINE#         625
  C:9478H         LINE#         630
  C:9478H         LINE#         632
  -------         ENDPROC       _SETVIDEOMODE
  -------         PROC          ISINPUTANALOGRGB
  C:0026H         LINE#         634
  C:0026H         LINE#         635
  C:0026H         LINE#         642
  C:0028H         LINE#         643
  -------         ENDPROC       ISINPUTANALOGRGB
  -------         PROC          _GETVIDEODATAWITHOFFSET
  D:0007H         SYMBOL        offset
  C:C606H         LINE#         645
  C:C606H         LINE#         646
  C:C606H         LINE#         647
  C:C60DH         LINE#         649
  C:C60FH         LINE#         650
  -------         ENDPROC       _GETVIDEODATAWITHOFFSET
  -------         PROC          _CHANGEVIDEODATA
  X:0015H         SYMBOL        offset
  D:0005H         SYMBOL        flag
  -------         DO            
  X:0016H         SYMBOL        newv
  D:0006H         SYMBOL        inc
  -------         ENDDO         
  C:A41BH         LINE#         652
  C:A420H         LINE#         653
  C:A420H         LINE#         656
  C:A42EH         LINE#         658
  C:A43DH         LINE#         659
  C:A451H         LINE#         660
  C:A457H         LINE#         661
  C:A457H         LINE#         663
  C:A46FH         LINE#         664
  C:A46FH         LINE#         665
  C:A477H         LINE#         666
  C:A479H         LINE#         667
  C:A481H         LINE#         668
  C:A483H         LINE#         669
  C:A483H         LINE#         670
  C:A483H         LINE#         671
  C:A492H         LINE#         672
BL51 BANKED LINKER/LOCATER V5.03                                                      05/28/2012  11:22:31  PAGE 92


  C:A494H         LINE#         673
  C:A49CH         LINE#         674
  C:A49EH         LINE#         675
  C:A4A6H         LINE#         676
  C:A4A6H         LINE#         677
  C:A4A6H         LINE#         679
  C:A4B3H         LINE#         681
  C:A4B9H         LINE#         682
  C:A4BEH         LINE#         684
  -------         ENDPROC       _CHANGEVIDEODATA
  -------         PROC          _SETVIDEOCONTRAST
  X:0029H         SYMBOL        newv
  -------         DO            
  X:002AH         SYMBOL        regv
  -------         ENDDO         
  C:BC16H         LINE#         686
  C:BC1BH         LINE#         687
  C:BC1BH         LINE#         690
  C:BC25H         LINE#         691
  C:BC31H         LINE#         693
  C:BC41H         LINE#         696
  -------         ENDPROC       _SETVIDEOCONTRAST
  -------         PROC          _SETVIDEOBRIGHTNESS
  X:0029H         SYMBOL        newv
  -------         DO            
  X:002AH         SYMBOL        regv
  -------         ENDDO         
  C:B70AH         LINE#         700
  C:B70FH         LINE#         701
  C:B70FH         LINE#         705
  C:B717H         LINE#         706
  C:B724H         LINE#         707
  C:B72BH         LINE#         708
  C:B72DH         LINE#         709
  C:B72DH         LINE#         710
  C:B73AH         LINE#         712
  C:B743H         LINE#         713
  C:B749H         LINE#         715
  C:B752H         LINE#         716
  C:B752H         LINE#         717
  -------         ENDPROC       _SETVIDEOBRIGHTNESS
  C:AFF1H         SYMBOL        L?1314
  -------         PROC          _SETVIDEOBACKLIGHT
  D:0007H         SYMBOL        newv
  -------         DO            
  X:0018H         SYMBOL        regv
  X:001AH         SYMBOL        page
  -------         ENDDO         
  C:AF8FH         LINE#         718
  C:AF8FH         LINE#         719
  C:AF8FH         LINE#         724
  C:AFA4H         LINE#         735
  C:AFB0H         LINE#         736
  C:AFB6H         LINE#         737
  C:AFC7H         LINE#         738
  C:AFE5H         LINE#         739
  C:AFF1H         LINE#         741
BL51 BANKED LINKER/LOCATER V5.03                                                      05/28/2012  11:22:31  PAGE 93


  -------         ENDPROC       _SETVIDEOBACKLIGHT
  -------         PROC          _SETVIDEOHUE
  X:0029H         SYMBOL        newv
  -------         DO            
  X:002AH         SYMBOL        regv
  -------         ENDDO         
  C:B05EH         LINE#         743
  C:B063H         LINE#         744
  C:B063H         LINE#         748
  C:B06BH         LINE#         749
  C:B07FH         LINE#         750
  C:B092H         LINE#         751
  C:B094H         LINE#         752
  C:B094H         LINE#         753
  C:B0ABH         LINE#         754
  C:B0B4H         LINE#         755
  C:B0BAH         LINE#         757
  C:B0C3H         LINE#         758
  C:B0C3H         LINE#         760
  -------         ENDPROC       _SETVIDEOHUE
  -------         PROC          _SETVIDEOSATURATION
  X:0029H         SYMBOL        svtype
  X:002AH         SYMBOL        newv
  -------         DO            
  X:002BH         SYMBOL        regv
  -------         ENDDO         
  C:AD57H         LINE#         762
  C:AD5FH         LINE#         763
  C:AD5FH         LINE#         767
  C:AD65H         LINE#         768
  C:AD79H         LINE#         769
  C:AD96H         LINE#         770
  C:AD98H         LINE#         771
  C:AD98H         LINE#         773
  C:ADAFH         LINE#         775
  C:ADB9H         LINE#         776
  C:ADBCH         LINE#         777
  C:ADBEH         LINE#         778
  C:ADBEH         LINE#         779
  C:ADCCH         LINE#         780
  C:ADCCH         LINE#         781
  C:ADCCH         LINE#         782
  -------         ENDPROC       _SETVIDEOSATURATION
  -------         PROC          _SETVIDEOSHARPNESS
  X:0015H         SYMBOL        flag
  -------         DO            
  D:0007H         SYMBOL        orgv
  D:0007H         SYMBOL        inc
  X:0016H         SYMBOL        newv
  X:0018H         SYMBOL        regv
  -------         ENDDO         
  C:A229H         LINE#         785
  C:A22EH         LINE#         786
  C:A22EH         LINE#         791
  C:A238H         LINE#         792
  C:A243H         LINE#         793
  C:A250H         LINE#         794
BL51 BANKED LINKER/LOCATER V5.03                                                      05/28/2012  11:22:31  PAGE 94


  C:A25CH         LINE#         795
  C:A27DH         LINE#         797
  C:A283H         LINE#         799
  C:A2A1H         LINE#         801
  C:A2AAH         LINE#         803
  C:A2BAH         LINE#         806
  C:A2C4H         LINE#         807
  C:A2CAH         LINE#         809
  C:A2CFH         LINE#         810
  -------         ENDPROC       _SETVIDEOSHARPNESS
  C:B119H         SYMBOL        L?1246
  -------         PROC          RESETVIDEOVALUE
  -------         DO            
  X:000CH         SYMBOL        i
  X:000DH         SYMBOL        CurInput
  -------         ENDDO         
  C:B0C4H         LINE#         845
  C:B0C4H         LINE#         846
  C:B0C4H         LINE#         852
  C:B0CCH         LINE#         853
  C:B0DCH         LINE#         855
  C:B0E0H         LINE#         856
  C:B0E0H         LINE#         857
  C:B0E5H         LINE#         858
  C:B0ECH         LINE#         859
  C:B0F3H         LINE#         860
  C:B0F3H         LINE#         861
  C:B0F3H         LINE#         862
  C:B0F8H         LINE#         868
  C:B0FFH         LINE#         869
  C:B104H         LINE#         870
  C:B104H         LINE#         871
  C:B10CH         LINE#         872
  C:B114H         LINE#         873
  C:B119H         LINE#         875
  -------         ENDPROC       RESETVIDEOVALUE
  -------         PROC          _SET4WIDESCREEN
  X:0022H         SYMBOL        id
  -------         DO            
  X:0023H         SYMBOL        i
  X:0025H         SYMBOL        WideData
  -------         ENDDO         
  C:9BF5H         LINE#         994
  C:9BFAH         LINE#         995
  C:9BFAH         LINE#         996
  C:9BFFH         LINE#         997
  C:9C04H         LINE#         998
  C:9C0AH         LINE#         999
  C:9C0AH         LINE#         1001
  C:9C12H         LINE#         1034
  C:9C12H         LINE#         1035
  C:9C12H         LINE#         1058
  C:9C38H         LINE#         1065
  C:9C38H         LINE#         1072
  C:9C45H         LINE#         1073
  C:9C47H         LINE#         1074
  C:9C47H         LINE#         1080
BL51 BANKED LINKER/LOCATER V5.03                                                      05/28/2012  11:22:31  PAGE 95


  C:9C5FH         LINE#         1081
  C:9C5FH         LINE#         1082
  C:9C5FH         LINE#         1087
  C:9C62H         LINE#         1088
  C:9C7BH         LINE#         1089
  C:9C9CH         LINE#         1093
  C:9CA2H         LINE#         1094
  C:9CAAH         LINE#         1095
  C:9CAAH         LINE#         1096
  -------         ENDPROC       _SET4WIDESCREEN
  -------         PROC          PUSHMENU
  C:C0A0H         LINE#         115
  C:C0A0H         LINE#         116
  C:C0A0H         LINE#         120
  C:C0A7H         LINE#         133
  C:C0B7H         LINE#         134
  C:C0C6H         LINE#         135
  C:C0C9H         LINE#         136
  C:C0C9H         LINE#         137
  C:C0CBH         LINE#         138
  -------         ENDPROC       PUSHMENU
  -------         PROC          POPMENU
  C:C3E4H         LINE#         140
  C:C3E4H         LINE#         141
  C:C3E4H         LINE#         145
  C:C3E8H         LINE#         146
  C:C3F0H         LINE#         147
  C:C3FAH         LINE#         161
  C:C3FDH         LINE#         162
  C:C3FDH         LINE#         163
  C:C3FFH         LINE#         164
  -------         ENDPROC       POPMENU
  -------         PROC          _GETLOWERMENUITEM
  X:0020H         SYMBOL        DMp
  X:0023H         SYMBOL        itemno
  C:B944H         LINE#         166
  C:B94FH         LINE#         167
  C:B94FH         LINE#         168
  C:B952H         LINE#         169
  C:B955H         LINE#         170
  C:B95BH         LINE#         171
  C:B980H         LINE#         172
  C:B983H         LINE#         173
  C:B988H         LINE#         175
  -------         ENDPROC       _GETLOWERMENUITEM
  -------         PROC          _GETUPPERMENUITEM
  D:0007H         SYMBOL        itemno
  C:C658H         LINE#         177
  C:C658H         LINE#         178
  C:C658H         LINE#         180
  C:C65CH         LINE#         181
  C:C65FH         LINE#         182
  C:C660H         LINE#         183
  C:C660H         LINE#         184
  -------         ENDPROC       _GETUPPERMENUITEM
  -------         PROC          _GETTARGETCHILD
  D:0004H         SYMBOL        tid
BL51 BANKED LINKER/LOCATER V5.03                                                      05/28/2012  11:22:31  PAGE 96


  -------         DO            
  D:0006H         SYMBOL        i
  -------         ENDDO         
  C:BAD9H         LINE#         186
  C:BADBH         LINE#         187
  C:BADBH         LINE#         191
  C:BAE9H         LINE#         192
  C:BAEBH         LINE#         199
  C:BAEFH         LINE#         205
  C:BB07H         LINE#         206
  C:BB0AH         LINE#         207
  C:BB15H         LINE#         208
  C:BB17H         LINE#         210
  C:BB19H         LINE#         211
  -------         ENDPROC       _GETTARGETCHILD
  C:8336H         SYMBOL        L?1176
  C:8353H         SYMBOL        L?1277
  C:8361H         SYMBOL        L?1300
  -------         PROC          DISPLAYINFO_OSD
  -------         DO            
  X:000CH         SYMBOL        i
  X:000DH         SYMBOL        title
  X:000EH         SYMBOL        len
  D:0007H         SYMBOL        inputs
  X:000FH         SYMBOL        mstr
  -------         ENDDO         
  C:81FFH         LINE#         257
  C:81FFH         LINE#         258
  C:81FFH         LINE#         259
  C:8205H         LINE#         262
  C:8208H         LINE#         263
  C:8210H         LINE#         264
  C:8216H         LINE#         266
  C:821CH         LINE#         268
  C:8223H         LINE#         269
  C:8229H         LINE#         271
  C:822EH         LINE#         273
  C:8239H         LINE#         274
  C:8253H         LINE#         275
  C:828FH         LINE#         278
  C:8292H         LINE#         279
  C:8298H         LINE#         280
  C:82B3H         LINE#         281
  C:82B7H         LINE#         282
  C:82D1H         LINE#         293
  C:82D1H         LINE#         294
  C:82D4H         LINE#         295
  C:82EEH         LINE#         296
  C:82EEH         LINE#         310
  C:82F3H         LINE#         311
  C:82F9H         LINE#         312
  C:82FDH         LINE#         313
  C:8302H         LINE#         314
  C:830DH         LINE#         315
  C:8314H         LINE#         316
  C:8317H         LINE#         320
  C:8336H         LINE#         322
BL51 BANKED LINKER/LOCATER V5.03                                                      05/28/2012  11:22:31  PAGE 97


  -------         ENDPROC       DISPLAYINFO_OSD
  -------         PROC          _DISPLAYVOLUMEBAR
  X:000BH         SYMBOL        val
  -------         DO            
  C:184FH         SYMBOL        BAR_ROM_TABLE
  D:0007H         SYMBOL        i
  X:000CH         SYMBOL        Bar_str
  D:0006H         SYMBOL        addr
  -------         ENDDO         
  C:A721H         LINE#         330
  C:A726H         LINE#         331
  C:A726H         LINE#         341
  C:A739H         LINE#         347
  C:A742H         LINE#         348
  C:A742H         LINE#         349
  C:A75AH         LINE#         350
  C:A763H         LINE#         351
  C:A772H         LINE#         352
  C:A772H         LINE#         354
  C:A77CH         LINE#         357
  C:A788H         LINE#         358
  C:A791H         LINE#         359
  C:A798H         LINE#         360
  C:A79EH         LINE#         362
  C:A7A2H         LINE#         364
  -------         ENDPROC       _DISPLAYVOLUMEBAR
  -------         PROC          _GET_CURSOR_ITEM
  D:0007H         SYMBOL        id
  -------         DO            
  X:000BH         SYMBOL        i
  X:000CH         SYMBOL        tid
  -------         ENDDO         
  C:BFBBH         LINE#         368
  C:BFBBH         LINE#         369
  C:BFBBH         LINE#         370
  C:BFC1H         LINE#         377
  C:BFC6H         LINE#         378
  C:BFCEH         LINE#         379
  C:BFD0H         LINE#         381
  C:BFD3H         LINE#         382
  C:BFD3H         LINE#         384
  C:BFE0H         LINE#         386
  C:BFE3H         LINE#         388
  C:BFE5H         LINE#         389
  C:BFE5H         LINE#         395
  C:BFEAH         LINE#         396
  -------         ENDPROC       _GET_CURSOR_ITEM
  C:56EDH         SYMBOL        L?1120
  C:571CH         SYMBOL        L?1121
  C:575BH         SYMBOL        L?1122
  C:579AH         SYMBOL        L?1154
  C:57B6H         SYMBOL        L?1186
  C:57C7H         SYMBOL        L?1247
  C:57D4H         SYMBOL        L?1265
  C:57DCH         SYMBOL        L?1269
  -------         PROC          _DISPLAYOSDMENUONEITEM
  X:0020H         SYMBOL        winno
BL51 BANKED LINKER/LOCATER V5.03                                                      05/28/2012  11:22:31  PAGE 98


  X:0022H         SYMBOL        DMp
  X:0025H         SYMBOL        x
  X:0026H         SYMBOL        y
  X:0027H         SYMBOL        NOTViewflag
  -------         DO            
  D:0007H         SYMBOL        i
  X:0028H         SYMBOL        j
  X:0029H         SYMBOL        k
  X:002AH         SYMBOL        IconColor
  X:002BH         SYMBOL        addr
  X:002DH         SYMBOL        Str
  C:186EH         SYMBOL        RightSign_str
  C:187AH         SYMBOL        SpaceStr
  C:1886H         SYMBOL        Dot
  C:1888H         SYMBOL        Colon
  -------         DO            
  X:0030H         SYMBOL        ptr
  X:0030H         SYMBOL        ptr
  X:0030H         SYMBOL        ptr
  -------         ENDDO         
  -------         DO            
  X:0030H         SYMBOL        ptr
  X:0030H         SYMBOL        ptr
  -------         ENDDO         
  -------         DO            
  X:0030H         SYMBOL        ptr
  -------         ENDDO         
  -------         ENDDO         
  C:5466H         LINE#         402
  C:546FH         LINE#         403
  C:546FH         LINE#         416
  C:547FH         LINE#         417
  C:5485H         LINE#         419
  C:54ABH         LINE#         425
  C:54B8H         LINE#         428
  C:54C0H         LINE#         430
  C:54C8H         LINE#         431
  C:54CCH         LINE#         432
  C:54D2H         LINE#         434
  C:54D9H         LINE#         435
  C:54D9H         LINE#         437
  C:54E5H         LINE#         439
  C:54EBH         LINE#         440
  C:54EEH         LINE#         442
  C:54FCH         LINE#         443
  C:551BH         LINE#         449
  C:5521H         LINE#         451
  C:5531H         LINE#         452
  C:554BH         LINE#         454
  C:5555H         LINE#         456
  C:5555H         LINE#         458
  C:555EH         LINE#         459
  C:5569H         LINE#         469
  C:5594H         LINE#         470
  C:5594H         LINE#         471
  C:55A3H         LINE#         472
  C:55A3H         LINE#         474
BL51 BANKED LINKER/LOCATER V5.03                                                      05/28/2012  11:22:31  PAGE 99


  C:55A3H         LINE#         475
  C:55A3H         LINE#         477
  C:55A3H         LINE#         478
  C:55AAH         LINE#         484
  C:55AAH         LINE#         485
  C:55BBH         LINE#         486
  C:55BEH         LINE#         487
  C:55BEH         LINE#         488
  C:55BEH         LINE#         489
  C:55BEH         LINE#         491
  C:55BEH         LINE#         492
  C:55BEH         LINE#         494
  C:55BEH         LINE#         495
  C:55D5H         LINE#         496
  C:55D5H         LINE#         497
  C:55D5H         LINE#         498
  C:55DBH         LINE#         499
  C:55DBH         LINE#         500
  C:55E6H         LINE#         501
  C:55E6H         LINE#         502
  C:55ECH         LINE#         503
  C:55ECH         LINE#         504
  C:55F5H         LINE#         505
  C:55F8H         LINE#         507
  C:55F8H         LINE#         508
  C:5601H         LINE#         509
  C:5606H         LINE#         510
  C:5614H         LINE#         511
  C:5619H         LINE#         512
  C:562AH         LINE#         513
  C:563AH         LINE#         514
  C:564CH         LINE#         515
  C:565EH         LINE#         516
  C:5673H         LINE#         517
  C:567FH         LINE#         518
  C:5691H         LINE#         519
  C:5694H         LINE#         521
  C:5694H         LINE#         522
  C:569AH         LINE#         523
  C:569AH         LINE#         524
  C:56A5H         LINE#         525
  C:56A5H         LINE#         526
  C:56ABH         LINE#         527
  C:56ABH         LINE#         528
  C:56B7H         LINE#         529
  C:56B7H         LINE#         530
  C:56B7H         LINE#         531
  C:56B7H         LINE#         532
  C:56B7H         LINE#         534
  C:56B7H         LINE#         535
  C:56B7H         LINE#         538
  C:56B7H         LINE#         539
  C:56D2H         LINE#         541
  C:56D2H         LINE#         542
  C:56D2H         LINE#         544
  C:56D2H         LINE#         545
  C:56D2H         LINE#         546
BL51 BANKED LINKER/LOCATER V5.03                                                      05/28/2012  11:22:31  PAGE 100


  C:56D2H         LINE#         547
  C:56D2H         LINE#         548
  C:56DBH         LINE#         549
  C:56DDH         LINE#         550
  C:56DDH         LINE#         551
  C:56ECH         LINE#         552
  C:56ECH         LINE#         554
  C:56ECH         LINE#         556
  -------         ENDPROC       _DISPLAYOSDMENUONEITEM
  -------         PROC          CLEARCURSOR
  -------         DO            
  D:0007H         SYMBOL        cursor_y
  X:000DH         SYMBOL        addr
  -------         ENDDO         
  C:B5CFH         LINE#         558
  C:B5CFH         LINE#         559
  C:B5CFH         LINE#         564
  C:B5D7H         LINE#         568
  C:B5E9H         LINE#         569
  C:B5F9H         LINE#         570
  C:B602H         LINE#         571
  C:B611H         LINE#         572
  C:B61EH         LINE#         574
  -------         ENDPROC       CLEARCURSOR
  -------         PROC          DISPLAYCURSOR
  -------         DO            
  X:000DH         SYMBOL        cursor_y
  X:000EH         SYMBOL        i
  X:000FH         SYMBOL        addr
  -------         ENDDO         
  C:9558H         LINE#         576
  C:9558H         LINE#         577
  C:9558H         LINE#         578
  C:955DH         LINE#         581
  C:9567H         LINE#         584
  C:9576H         LINE#         585
  C:9576H         LINE#         586
  C:957BH         LINE#         587
  C:957EH         LINE#         588
  C:958CH         LINE#         589
  C:9599H         LINE#         590
  C:95A1H         LINE#         593
  C:95C2H         LINE#         595
  C:95D3H         LINE#         596
  C:95D6H         LINE#         598
  C:95E2H         LINE#         600
  C:95E6H         LINE#         601
  C:95F4H         LINE#         603
  C:95F4H         LINE#         604
  C:95F7H         LINE#         605
  C:95F7H         LINE#         606
  C:9610H         LINE#         607
  C:9614H         LINE#         608
  C:9616H         LINE#         610
  C:9616H         LINE#         611
  C:961FH         LINE#         612
  C:9634H         LINE#         613
BL51 BANKED LINKER/LOCATER V5.03                                                      05/28/2012  11:22:31  PAGE 101


  C:9634H         LINE#         614
  C:9634H         LINE#         616
  -------         ENDPROC       DISPLAYCURSOR
  C:5AD4H         SYMBOL        L?1125
  C:5ADEH         SYMBOL        L?1126
  C:5AE8H         SYMBOL        L?1133
  C:5AF2H         SYMBOL        L?1134
  C:5AFCH         SYMBOL        L?1135
  C:5B06H         SYMBOL        L?1147
  C:5B10H         SYMBOL        L?1153
  C:5B1AH         SYMBOL        L?1160
  C:5B24H         SYMBOL        L?1163
  C:5B2EH         SYMBOL        L?1175
  C:5B38H         SYMBOL        L?1189
  C:5B42H         SYMBOL        L?1213
  C:5B4CH         SYMBOL        L?1266
  -------         PROC          _GETITEMVALUE
  X:0033H         SYMBOL        id
  -------         DO            
  X:0034H         SYMBOL        val
  -------         ENDDO         
  C:57EBH         LINE#         624
  C:57F0H         LINE#         625
  C:57F0H         LINE#         626
  C:57F5H         LINE#         632
  C:58C0H         LINE#         644
  C:58C8H         LINE#         662
  C:58CCH         LINE#         664
  C:58CCH         LINE#         665
  C:58CCH         LINE#         666
  C:58CCH         LINE#         667
  C:58CCH         LINE#         668
  C:58CCH         LINE#         669
  C:58CCH         LINE#         670
  C:58D8H         LINE#         671
  C:58D8H         LINE#         673
  C:58DBH         LINE#         674
  C:58E0H         LINE#         676
  C:58E5H         LINE#         677
  C:58E7H         LINE#         688
  C:58F5H         LINE#         689
  C:58F8H         LINE#         692
  C:58F8H         LINE#         693
  C:5904H         LINE#         695
  C:5904H         LINE#         697
  C:590AH         LINE#         698
  C:590DH         LINE#         699
  C:590DH         LINE#         700
  C:5912H         LINE#         701
  C:5915H         LINE#         702
  C:5915H         LINE#         703
  C:591AH         LINE#         704
  C:591DH         LINE#         705
  C:591DH         LINE#         706
  C:5922H         LINE#         707
  C:5925H         LINE#         708
  C:5925H         LINE#         709
BL51 BANKED LINKER/LOCATER V5.03                                                      05/28/2012  11:22:31  PAGE 102


  C:592AH         LINE#         710
  C:592DH         LINE#         711
  C:592DH         LINE#         712
  C:5932H         LINE#         713
  C:5935H         LINE#         714
  C:5935H         LINE#         715
  C:593AH         LINE#         716
  C:593DH         LINE#         717
  C:593DH         LINE#         718
  C:5942H         LINE#         719
  C:5945H         LINE#         720
  C:5945H         LINE#         721
  C:594AH         LINE#         722
  C:594DH         LINE#         723
  C:594DH         LINE#         724
  C:5952H         LINE#         725
  C:5955H         LINE#         726
  C:5955H         LINE#         727
  C:595AH         LINE#         728
  C:595DH         LINE#         729
  C:595DH         LINE#         730
  C:5962H         LINE#         731
  C:5965H         LINE#         732
  C:5965H         LINE#         733
  C:596AH         LINE#         734
  C:596DH         LINE#         735
  C:596DH         LINE#         736
  C:5972H         LINE#         737
  C:5975H         LINE#         738
  C:5975H         LINE#         739
  C:597AH         LINE#         740
  C:597DH         LINE#         741
  C:597DH         LINE#         742
  C:5982H         LINE#         743
  C:5985H         LINE#         745
  C:5985H         LINE#         746
  C:598AH         LINE#         747
  C:598DH         LINE#         748
  C:598DH         LINE#         749
  C:5992H         LINE#         750
  C:5995H         LINE#         751
  C:5995H         LINE#         752
  C:599AH         LINE#         753
  C:599DH         LINE#         754
  C:599DH         LINE#         755
  C:59A2H         LINE#         756
  C:59A5H         LINE#         757
  C:59A5H         LINE#         758
  C:59AAH         LINE#         759
  C:59ADH         LINE#         760
  C:59ADH         LINE#         761
  C:59B2H         LINE#         762
  C:59B5H         LINE#         763
  C:59B5H         LINE#         764
  C:59BAH         LINE#         765
  C:59BDH         LINE#         766
  C:59BDH         LINE#         767
BL51 BANKED LINKER/LOCATER V5.03                                                      05/28/2012  11:22:31  PAGE 103


  C:59C2H         LINE#         769
  C:59C5H         LINE#         770
  C:59C5H         LINE#         771
  C:59CAH         LINE#         773
  C:59CDH         LINE#         777
  C:59CDH         LINE#         778
  C:59D3H         LINE#         779
  C:59D6H         LINE#         780
  C:59D6H         LINE#         781
  C:59DCH         LINE#         782
  C:59DFH         LINE#         783
  C:59DFH         LINE#         784
  C:59E5H         LINE#         785
  C:59E8H         LINE#         786
  C:59E8H         LINE#         787
  C:59EEH         LINE#         788
  C:59F1H         LINE#         789
  C:59F1H         LINE#         790
  C:59F7H         LINE#         791
  C:59FAH         LINE#         792
  C:59FAH         LINE#         793
  C:5A00H         LINE#         794
  C:5A03H         LINE#         795
  C:5A03H         LINE#         796
  C:5A09H         LINE#         797
  C:5A0CH         LINE#         799
  C:5A0CH         LINE#         800
  C:5A12H         LINE#         801
  C:5A15H         LINE#         803
  C:5A15H         LINE#         804
  C:5A1BH         LINE#         805
  C:5A1EH         LINE#         806
  C:5A1EH         LINE#         807
  C:5A24H         LINE#         808
  C:5A27H         LINE#         809
  C:5A27H         LINE#         810
  C:5A2DH         LINE#         811
  C:5A30H         LINE#         812
  C:5A30H         LINE#         813
  C:5A36H         LINE#         814
  C:5A39H         LINE#         815
  C:5A39H         LINE#         816
  C:5A3FH         LINE#         817
  C:5A42H         LINE#         819
  C:5A42H         LINE#         820
  C:5A48H         LINE#         821
  C:5A4BH         LINE#         822
  C:5A4BH         LINE#         823
  C:5A51H         LINE#         824
  C:5A54H         LINE#         825
  C:5A54H         LINE#         826
  C:5A5AH         LINE#         827
  C:5A5DH         LINE#         828
  C:5A5DH         LINE#         829
  C:5A63H         LINE#         830
  C:5A66H         LINE#         831
  C:5A66H         LINE#         832
BL51 BANKED LINKER/LOCATER V5.03                                                      05/28/2012  11:22:31  PAGE 104


  C:5A6CH         LINE#         833
  C:5A6EH         LINE#         834
  C:5A6EH         LINE#         835
  C:5A74H         LINE#         836
  C:5A76H         LINE#         837
  C:5A76H         LINE#         838
  C:5A7CH         LINE#         839
  C:5A7EH         LINE#         841
  C:5A7EH         LINE#         842
  C:5A84H         LINE#         843
  C:5A86H         LINE#         845
  C:5A86H         LINE#         846
  C:5A8CH         LINE#         847
  C:5A8EH         LINE#         849
  C:5A8EH         LINE#         850
  C:5A94H         LINE#         851
  C:5A96H         LINE#         853
  C:5A96H         LINE#         854
  C:5A9CH         LINE#         855
  C:5A9EH         LINE#         857
  C:5A9EH         LINE#         858
  C:5AA4H         LINE#         859
  C:5AA6H         LINE#         861
  C:5AA6H         LINE#         862
  C:5AACH         LINE#         863
  C:5AAEH         LINE#         867
  C:5AAEH         LINE#         868
  C:5AB3H         LINE#         869
  C:5AB5H         LINE#         870
  C:5AB5H         LINE#         871
  C:5ABAH         LINE#         872
  C:5ABCH         LINE#         874
  C:5ABCH         LINE#         875
  C:5ACBH         LINE#         878
  C:5ACBH         LINE#         880
  C:5AD3H         LINE#         881
  -------         ENDPROC       _GETITEMVALUE
  C:3DF0H         SYMBOL        L?1105
  C:3E02H         SYMBOL        L?1106
  C:3E14H         SYMBOL        L?1107
  C:3E26H         SYMBOL        L?1108
  C:3E38H         SYMBOL        L?1109
  C:3E4AH         SYMBOL        L?1110
  C:3E5CH         SYMBOL        L?1111
  C:3E6EH         SYMBOL        L?1112
  C:3E80H         SYMBOL        L?1164
  C:3E8BH         SYMBOL        L?1185
  C:3E96H         SYMBOL        L?1211
  C:3EA1H         SYMBOL        L?1243
  C:3EAFH         SYMBOL        L?1270
  -------         PROC          _SETITEMVALUE
  X:0011H         SYMBOL        id
  X:0012H         SYMBOL        flag
  -------         DO            
  X:0013H         SYMBOL        val
  -------         ENDDO         
  C:2DB0H         LINE#         886
BL51 BANKED LINKER/LOCATER V5.03                                                      05/28/2012  11:22:31  PAGE 105


  C:2DBAH         LINE#         887
  C:2DBAH         LINE#         888
  C:2DBDH         LINE#         891
  C:2DC9H         LINE#         892
  C:2EA0H         LINE#         911
  C:2EABH         LINE#         925
  C:2EB6H         LINE#         927
  C:2EC3H         LINE#         928
  C:2ED0H         LINE#         929
  C:2EDDH         LINE#         931
  C:2EDFH         LINE#         932
  C:2EEAH         LINE#         933
  C:2EEDH         LINE#         934
  C:2EEDH         LINE#         935
  C:2EF3H         LINE#         937
  C:2F01H         LINE#         938
  C:2F05H         LINE#         940
  C:2F0EH         LINE#         941
  C:2F11H         LINE#         943
  C:2F11H         LINE#         944
  C:2F11H         LINE#         945
  C:2F11H         LINE#         946
  C:2F17H         LINE#         947
  C:2F1FH         LINE#         948
  C:2F2CH         LINE#         949
  C:2F2FH         LINE#         951
  C:2F3AH         LINE#         952
  C:2F3AH         LINE#         955
  C:2F4CH         LINE#         965
  C:2F4FH         LINE#         966
  C:2F5AH         LINE#         967
  C:2F5DH         LINE#         968
  C:2F5DH         LINE#         969
  C:2F63H         LINE#         970
  C:2F66H         LINE#         972
  C:2F66H         LINE#         975
  C:2F6DH         LINE#         976
  C:2F6DH         LINE#         977
  C:2F7BH         LINE#         978
  C:2F80H         LINE#         979
  C:2F82H         LINE#         981
  C:2F82H         LINE#         982
  C:2F90H         LINE#         983
  C:2F96H         LINE#         984
  C:2F96H         LINE#         985
  C:2FA0H         LINE#         992
  C:2FA3H         LINE#         993
  C:2FA3H         LINE#         994
  C:2FA5H         LINE#         995
  C:2FABH         LINE#         996
  C:2FBEH         LINE#         998
  C:2FD3H         LINE#         999
  C:2FD8H         LINE#         1000
  C:2FE5H         LINE#         1001
  C:2FE5H         LINE#         1002
  C:2FE9H         LINE#         1003
  C:2FF0H         LINE#         1004
BL51 BANKED LINKER/LOCATER V5.03                                                      05/28/2012  11:22:31  PAGE 106


  C:2FF7H         LINE#         1005
  C:2FFEH         LINE#         1007
  C:3000H         LINE#         1009
  C:3000H         LINE#         1010
  C:3004H         LINE#         1011
  C:300BH         LINE#         1012
  C:3012H         LINE#         1013
  C:3019H         LINE#         1014
  C:3019H         LINE#         1015
  C:3024H         LINE#         1016
  C:3024H         LINE#         1018
  C:3027H         LINE#         1020
  C:3027H         LINE#         1021
  C:3029H         LINE#         1022
  C:302FH         LINE#         1023
  C:3042H         LINE#         1025
  C:3057H         LINE#         1026
  C:305EH         LINE#         1027
  C:3061H         LINE#         1029
  C:3061H         LINE#         1030
  C:3063H         LINE#         1031
  C:3069H         LINE#         1032
  C:307CH         LINE#         1034
  C:3091H         LINE#         1035
  C:3098H         LINE#         1036
  C:309BH         LINE#         1037
  C:309BH         LINE#         1038
  C:309DH         LINE#         1039
  C:30A3H         LINE#         1040
  C:30B6H         LINE#         1042
  C:30CBH         LINE#         1043
  C:30D2H         LINE#         1044
  C:30D5H         LINE#         1045
  C:30D5H         LINE#         1046
  C:30D7H         LINE#         1047
  C:30DDH         LINE#         1048
  C:30F0H         LINE#         1050
  C:3105H         LINE#         1052
  C:310DH         LINE#         1053
  C:310FH         LINE#         1054
  C:310FH         LINE#         1055
  C:3116H         LINE#         1056
  C:311AH         LINE#         1057
  C:311CH         LINE#         1059
  C:311CH         LINE#         1060
  C:3125H         LINE#         1061
  C:312DH         LINE#         1063
  C:3136H         LINE#         1064
  C:3136H         LINE#         1065
  C:3139H         LINE#         1066
  C:313CH         LINE#         1067
  C:3148H         LINE#         1068
  C:3148H         LINE#         1069
  C:3148H         LINE#         1071
  C:314FH         LINE#         1072
  C:3152H         LINE#         1073
  C:3152H         LINE#         1075
BL51 BANKED LINKER/LOCATER V5.03                                                      05/28/2012  11:22:31  PAGE 107


  C:3152H         LINE#         1076
  C:3154H         LINE#         1077
  C:315AH         LINE#         1078
  C:316DH         LINE#         1080
  C:3182H         LINE#         1081
  C:3187H         LINE#         1083
  C:3194H         LINE#         1084
  C:319AH         LINE#         1086
  C:319EH         LINE#         1088
  C:31A4H         LINE#         1089
  C:31A7H         LINE#         1091
  C:31A7H         LINE#         1093
  C:31AAH         LINE#         1095
  C:31AAH         LINE#         1096
  C:31ACH         LINE#         1097
  C:31B2H         LINE#         1098
  C:31C5H         LINE#         1100
  C:31DAH         LINE#         1101
  C:31DFH         LINE#         1103
  C:31ECH         LINE#         1104
  C:31F2H         LINE#         1106
  C:31F6H         LINE#         1108
  C:31FCH         LINE#         1109
  C:31FFH         LINE#         1111
  C:31FFH         LINE#         1113
  C:3202H         LINE#         1115
  C:3202H         LINE#         1116
  C:3204H         LINE#         1117
  C:320AH         LINE#         1118
  C:321DH         LINE#         1120
  C:3232H         LINE#         1121
  C:3237H         LINE#         1123
  C:3244H         LINE#         1124
  C:324AH         LINE#         1126
  C:324EH         LINE#         1128
  C:3254H         LINE#         1129
  C:3256H         LINE#         1131
  C:3256H         LINE#         1133
  C:3258H         LINE#         1135
  C:3258H         LINE#         1136
  C:325AH         LINE#         1137
  C:3260H         LINE#         1138
  C:3273H         LINE#         1140
  C:3288H         LINE#         1141
  C:328DH         LINE#         1143
  C:329AH         LINE#         1144
  C:32A0H         LINE#         1146
  C:32A4H         LINE#         1148
  C:32AAH         LINE#         1149
  C:32B0H         LINE#         1151
  C:32CFH         LINE#         1153
  C:32D2H         LINE#         1156
  C:32D2H         LINE#         1157
  C:32D4H         LINE#         1158
  C:32DAH         LINE#         1159
  C:32DAH         LINE#         1160
  C:32E8H         LINE#         1161
BL51 BANKED LINKER/LOCATER V5.03                                                      05/28/2012  11:22:31  PAGE 108


  C:32EBH         LINE#         1162
  C:32EDH         LINE#         1164
  C:32EDH         LINE#         1165
  C:32FBH         LINE#         1166
  C:3301H         LINE#         1167
  C:3301H         LINE#         1168
  C:3308H         LINE#         1169
  C:330BH         LINE#         1171
  C:330BH         LINE#         1172
  C:330DH         LINE#         1173
  C:3313H         LINE#         1174
  C:3313H         LINE#         1175
  C:3321H         LINE#         1176
  C:3324H         LINE#         1177
  C:3326H         LINE#         1179
  C:3326H         LINE#         1180
  C:3334H         LINE#         1181
  C:333AH         LINE#         1182
  C:333AH         LINE#         1183
  C:3341H         LINE#         1184
  C:3344H         LINE#         1186
  C:3344H         LINE#         1187
  C:3346H         LINE#         1188
  C:334CH         LINE#         1189
  C:334CH         LINE#         1190
  C:335AH         LINE#         1191
  C:335DH         LINE#         1192
  C:335FH         LINE#         1194
  C:335FH         LINE#         1195
  C:336DH         LINE#         1196
  C:3373H         LINE#         1197
  C:3373H         LINE#         1198
  C:337AH         LINE#         1199
  C:337DH         LINE#         1201
  C:337DH         LINE#         1202
  C:337FH         LINE#         1203
  C:3385H         LINE#         1204
  C:3385H         LINE#         1205
  C:3393H         LINE#         1206
  C:3396H         LINE#         1207
  C:3398H         LINE#         1209
  C:3398H         LINE#         1210
  C:33A6H         LINE#         1211
  C:33ACH         LINE#         1212
  C:33ACH         LINE#         1213
  C:33B3H         LINE#         1214
  C:33B6H         LINE#         1216
  C:33B6H         LINE#         1217
  C:33B8H         LINE#         1218
  C:33BEH         LINE#         1219
  C:33BEH         LINE#         1220
  C:33CCH         LINE#         1221
  C:33CFH         LINE#         1222
  C:33D1H         LINE#         1224
  C:33D1H         LINE#         1225
  C:33DFH         LINE#         1226
  C:33E5H         LINE#         1227
BL51 BANKED LINKER/LOCATER V5.03                                                      05/28/2012  11:22:31  PAGE 109


  C:33E5H         LINE#         1228
  C:33ECH         LINE#         1229
  C:33EFH         LINE#         1230
  C:33EFH         LINE#         1231
  C:33F1H         LINE#         1232
  C:33F7H         LINE#         1233
  C:340AH         LINE#         1235
  C:341FH         LINE#         1236
  C:3426H         LINE#         1238
  C:3429H         LINE#         1240
  C:3429H         LINE#         1241
  C:3430H         LINE#         1242
  C:3436H         LINE#         1243
  C:3436H         LINE#         1244
  C:3444H         LINE#         1245
  C:3447H         LINE#         1246
  C:3449H         LINE#         1248
  C:3449H         LINE#         1249
  C:3457H         LINE#         1250
  C:345DH         LINE#         1251
  C:345DH         LINE#         1252
  C:3464H         LINE#         1253
  C:3467H         LINE#         1255
  C:3467H         LINE#         1256
  C:346EH         LINE#         1257
  C:3474H         LINE#         1258
  C:3474H         LINE#         1259
  C:3482H         LINE#         1260
  C:3485H         LINE#         1261
  C:3487H         LINE#         1263
  C:3487H         LINE#         1264
  C:3495H         LINE#         1265
  C:349BH         LINE#         1266
  C:349BH         LINE#         1267
  C:34A2H         LINE#         1268
  C:34A5H         LINE#         1270
  C:34A5H         LINE#         1271
  C:34ACH         LINE#         1272
  C:34B2H         LINE#         1273
  C:34B2H         LINE#         1274
  C:34C0H         LINE#         1275
  C:34C3H         LINE#         1276
  C:34C5H         LINE#         1278
  C:34C5H         LINE#         1279
  C:34D3H         LINE#         1280
  C:34D9H         LINE#         1281
  C:34D9H         LINE#         1282
  C:34E0H         LINE#         1283
  C:34E3H         LINE#         1285
  C:34E3H         LINE#         1286
  C:34EAH         LINE#         1287
  C:34F0H         LINE#         1288
  C:34F0H         LINE#         1289
  C:34FEH         LINE#         1290
  C:3501H         LINE#         1291
  C:3503H         LINE#         1293
  C:3503H         LINE#         1294
BL51 BANKED LINKER/LOCATER V5.03                                                      05/28/2012  11:22:31  PAGE 110


  C:3511H         LINE#         1295
  C:3517H         LINE#         1296
  C:3517H         LINE#         1297
  C:351EH         LINE#         1298
  C:3521H         LINE#         1300
  C:3521H         LINE#         1301
  C:3528H         LINE#         1302
  C:352EH         LINE#         1303
  C:352EH         LINE#         1304
  C:353CH         LINE#         1305
  C:353FH         LINE#         1306
  C:3541H         LINE#         1308
  C:3541H         LINE#         1309
  C:354FH         LINE#         1310
  C:3555H         LINE#         1311
  C:3555H         LINE#         1312
  C:355CH         LINE#         1313
  C:355FH         LINE#         1315
  C:355FH         LINE#         1316
  C:3566H         LINE#         1317
  C:356CH         LINE#         1318
  C:356CH         LINE#         1319
  C:357EH         LINE#         1320
  C:3581H         LINE#         1321
  C:3583H         LINE#         1323
  C:3583H         LINE#         1324
  C:3591H         LINE#         1325
  C:3597H         LINE#         1326
  C:3597H         LINE#         1328
  C:359CH         LINE#         1329
  C:35B6H         LINE#         1330
  C:35B6H         LINE#         1331
  C:35BAH         LINE#         1332
  C:35BDH         LINE#         1333
  C:35C3H         LINE#         1334
  C:35C8H         LINE#         1335
  C:35C8H         LINE#         1337
  C:35CBH         LINE#         1338
  C:35CBH         LINE#         1339
  C:35D7H         LINE#         1340
  C:35DCH         LINE#         1341
  C:35E3H         LINE#         1342
  C:35E3H         LINE#         1343
  C:35F1H         LINE#         1344
  C:35F4H         LINE#         1345
  C:35F6H         LINE#         1347
  C:35F6H         LINE#         1348
  C:3604H         LINE#         1349
  C:360AH         LINE#         1350
  C:360AH         LINE#         1351
  C:360FH         LINE#         1352
  C:3617H         LINE#         1353
  C:361AH         LINE#         1354
  C:361AH         LINE#         1355
  C:3621H         LINE#         1356
  C:3627H         LINE#         1357
  C:3627H         LINE#         1358
BL51 BANKED LINKER/LOCATER V5.03                                                      05/28/2012  11:22:31  PAGE 111


  C:3637H         LINE#         1359
  C:3639H         LINE#         1361
  C:3639H         LINE#         1362
  C:3649H         LINE#         1363
  C:3649H         LINE#         1364
  C:364EH         LINE#         1365
  C:3656H         LINE#         1366
  C:3659H         LINE#         1368
  C:3659H         LINE#         1369
  C:3660H         LINE#         1370
  C:3666H         LINE#         1371
  C:3679H         LINE#         1373
  C:368EH         LINE#         1375
  C:369CH         LINE#         1376
  C:36A5H         LINE#         1377
  C:36ABH         LINE#         1378
  C:36B0H         LINE#         1380
  C:36B3H         LINE#         1382
  C:36B3H         LINE#         1383
  C:36B6H         LINE#         1384
  C:36BCH         LINE#         1385
  C:36BCH         LINE#         1386
  C:36CAH         LINE#         1387
  C:36CFH         LINE#         1388
  C:36D1H         LINE#         1390
  C:36D1H         LINE#         1391
  C:36E2H         LINE#         1392
  C:36E8H         LINE#         1393
  C:36E8H         LINE#         1394
  C:36EFH         LINE#         1395
  C:36EFH         LINE#         1396
  C:36F2H         LINE#         1398
  C:36F2H         LINE#         1399
  C:36F5H         LINE#         1400
  C:36FBH         LINE#         1401
  C:36FBH         LINE#         1402
  C:3709H         LINE#         1403
  C:370EH         LINE#         1404
  C:3710H         LINE#         1406
  C:3710H         LINE#         1407
  C:3721H         LINE#         1408
  C:3727H         LINE#         1409
  C:3727H         LINE#         1410
  C:372EH         LINE#         1411
  C:372EH         LINE#         1412
  C:3731H         LINE#         1414
  C:3731H         LINE#         1415
  C:3734H         LINE#         1416
  C:373AH         LINE#         1417
  C:373AH         LINE#         1418
  C:374CH         LINE#         1419
  C:3751H         LINE#         1420
  C:3753H         LINE#         1422
  C:3753H         LINE#         1423
  C:3764H         LINE#         1424
  C:376AH         LINE#         1425
  C:376AH         LINE#         1426
BL51 BANKED LINKER/LOCATER V5.03                                                      05/28/2012  11:22:31  PAGE 112


  C:3771H         LINE#         1427
  C:3771H         LINE#         1428
  C:3774H         LINE#         1430
  C:3774H         LINE#         1431
  C:3777H         LINE#         1432
  C:377DH         LINE#         1433
  C:377DH         LINE#         1434
  C:378BH         LINE#         1435
  C:3790H         LINE#         1436
  C:3792H         LINE#         1438
  C:3792H         LINE#         1439
  C:37A3H         LINE#         1440
  C:37A9H         LINE#         1441
  C:37A9H         LINE#         1442
  C:37B0H         LINE#         1443
  C:37B0H         LINE#         1444
  C:37B3H         LINE#         1446
  C:37B3H         LINE#         1447
  C:37B6H         LINE#         1448
  C:37BCH         LINE#         1449
  C:37BCH         LINE#         1450
  C:37CAH         LINE#         1451
  C:37CFH         LINE#         1452
  C:37D1H         LINE#         1454
  C:37D1H         LINE#         1455
  C:37E2H         LINE#         1456
  C:37E8H         LINE#         1457
  C:37E8H         LINE#         1458
  C:37EFH         LINE#         1459
  C:37EFH         LINE#         1460
  C:37F2H         LINE#         1462
  C:37F2H         LINE#         1463
  C:37F5H         LINE#         1464
  C:37FBH         LINE#         1465
  C:37FBH         LINE#         1466
  C:380DH         LINE#         1467
  C:3812H         LINE#         1468
  C:3814H         LINE#         1470
  C:3814H         LINE#         1471
  C:3825H         LINE#         1472
  C:382BH         LINE#         1473
  C:382BH         LINE#         1474
  C:3832H         LINE#         1475
  C:3832H         LINE#         1476
  C:3835H         LINE#         1478
  C:3835H         LINE#         1479
  C:3838H         LINE#         1480
  C:383EH         LINE#         1481
  C:383EH         LINE#         1482
  C:384CH         LINE#         1483
  C:3851H         LINE#         1484
  C:3853H         LINE#         1486
  C:3853H         LINE#         1487
  C:3864H         LINE#         1488
  C:386AH         LINE#         1489
  C:386AH         LINE#         1490
  C:3871H         LINE#         1491
BL51 BANKED LINKER/LOCATER V5.03                                                      05/28/2012  11:22:31  PAGE 113


  C:3871H         LINE#         1492
  C:3874H         LINE#         1494
  C:3874H         LINE#         1495
  C:3877H         LINE#         1496
  C:387DH         LINE#         1497
  C:387DH         LINE#         1498
  C:388BH         LINE#         1499
  C:388EH         LINE#         1500
  C:3890H         LINE#         1502
  C:3890H         LINE#         1503
  C:389EH         LINE#         1504
  C:38A4H         LINE#         1505
  C:38A4H         LINE#         1507
  C:38ADH         LINE#         1508
  C:38B0H         LINE#         1509
  C:38B7H         LINE#         1511
  C:38BAH         LINE#         1515
  C:38BAH         LINE#         1516
  C:38BDH         LINE#         1517
  C:38C3H         LINE#         1518
  C:38C3H         LINE#         1519
  C:38D5H         LINE#         1520
  C:38D8H         LINE#         1521
  C:38DAH         LINE#         1523
  C:38DAH         LINE#         1524
  C:38E8H         LINE#         1525
  C:38EEH         LINE#         1526
  C:38EEH         LINE#         1527
  C:38F5H         LINE#         1528
  C:38F5H         LINE#         1529
  C:38F8H         LINE#         1531
  C:38F8H         LINE#         1532
  C:38FBH         LINE#         1533
  C:3901H         LINE#         1534
  C:3901H         LINE#         1535
  C:390FH         LINE#         1536
  C:3914H         LINE#         1537
  C:3916H         LINE#         1539
  C:3916H         LINE#         1540
  C:3927H         LINE#         1541
  C:392DH         LINE#         1542
  C:392DH         LINE#         1543
  C:3934H         LINE#         1544
  C:3934H         LINE#         1545
  C:3937H         LINE#         1547
  C:3937H         LINE#         1548
  C:393AH         LINE#         1549
  C:3940H         LINE#         1550
  C:3940H         LINE#         1551
  C:3952H         LINE#         1552
  C:3957H         LINE#         1553
  C:3959H         LINE#         1555
  C:3959H         LINE#         1556
  C:396AH         LINE#         1557
  C:3970H         LINE#         1558
  C:3970H         LINE#         1559
  C:3977H         LINE#         1560
BL51 BANKED LINKER/LOCATER V5.03                                                      05/28/2012  11:22:31  PAGE 114


  C:3977H         LINE#         1561
  C:397AH         LINE#         1563
  C:397AH         LINE#         1564
  C:397DH         LINE#         1565
  C:3983H         LINE#         1566
  C:3983H         LINE#         1567
  C:3991H         LINE#         1568
  C:3994H         LINE#         1569
  C:3996H         LINE#         1571
  C:3996H         LINE#         1572
  C:39A7H         LINE#         1573
  C:39ADH         LINE#         1574
  C:39ADH         LINE#         1575
  C:39B4H         LINE#         1576
  C:39B4H         LINE#         1577
  C:39B7H         LINE#         1579
  C:39B7H         LINE#         1580
  C:39BAH         LINE#         1581
  C:39C0H         LINE#         1582
  C:39C0H         LINE#         1583
  C:39D2H         LINE#         1584
  C:39D5H         LINE#         1585
  C:39D7H         LINE#         1587
  C:39D7H         LINE#         1588
  C:39E5H         LINE#         1589
  C:39EBH         LINE#         1590
  C:39EBH         LINE#         1591
  C:39F2H         LINE#         1592
  C:39F2H         LINE#         1593
  C:39F5H         LINE#         1595
  C:39F5H         LINE#         1596
  C:39F8H         LINE#         1597
  C:39FEH         LINE#         1598
  C:39FEH         LINE#         1599
  C:3A10H         LINE#         1600
  C:3A15H         LINE#         1601
  C:3A17H         LINE#         1603
  C:3A17H         LINE#         1604
  C:3A28H         LINE#         1605
  C:3A2EH         LINE#         1606
  C:3A2EH         LINE#         1607
  C:3A35H         LINE#         1608
  C:3A35H         LINE#         1609
  C:3A38H         LINE#         1611
  C:3A38H         LINE#         1612
  C:3A3BH         LINE#         1613
  C:3A41H         LINE#         1614
  C:3A41H         LINE#         1615
  C:3A4FH         LINE#         1616
  C:3A54H         LINE#         1617
  C:3A56H         LINE#         1619
  C:3A56H         LINE#         1620
  C:3A67H         LINE#         1621
  C:3A6DH         LINE#         1622
  C:3A6DH         LINE#         1623
  C:3A74H         LINE#         1624
  C:3A74H         LINE#         1625
BL51 BANKED LINKER/LOCATER V5.03                                                      05/28/2012  11:22:31  PAGE 115


  C:3A77H         LINE#         1627
  C:3A77H         LINE#         1628
  C:3A7AH         LINE#         1629
  C:3A80H         LINE#         1630
  C:3A80H         LINE#         1631
  C:3A8EH         LINE#         1632
  C:3A93H         LINE#         1633
  C:3A95H         LINE#         1635
  C:3A95H         LINE#         1636
  C:3AA6H         LINE#         1637
  C:3AACH         LINE#         1638
  C:3AACH         LINE#         1639
  C:3AB3H         LINE#         1640
  C:3AB3H         LINE#         1641
  C:3AB6H         LINE#         1643
  C:3AB6H         LINE#         1644
  C:3AB9H         LINE#         1645
  C:3ABFH         LINE#         1646
  C:3ABFH         LINE#         1647
  C:3ACDH         LINE#         1648
  C:3AD2H         LINE#         1649
  C:3AD4H         LINE#         1651
  C:3AD4H         LINE#         1652
  C:3AE5H         LINE#         1653
  C:3AEBH         LINE#         1654
  C:3AEBH         LINE#         1655
  C:3AF2H         LINE#         1656
  C:3AF2H         LINE#         1657
  C:3AF5H         LINE#         1658
  C:3AF5H         LINE#         1659
  C:3AF8H         LINE#         1660
  C:3AFEH         LINE#         1661
  C:3AFEH         LINE#         1662
  C:3B0CH         LINE#         1663
  C:3B0FH         LINE#         1664
  C:3B11H         LINE#         1666
  C:3B11H         LINE#         1667
  C:3B1FH         LINE#         1668
  C:3B25H         LINE#         1669
  C:3B25H         LINE#         1670
  C:3B2CH         LINE#         1671
  C:3B2CH         LINE#         1672
  C:3B2FH         LINE#         1673
  C:3B2FH         LINE#         1674
  C:3B32H         LINE#         1675
  C:3B38H         LINE#         1676
  C:3B38H         LINE#         1677
  C:3B46H         LINE#         1678
  C:3B4BH         LINE#         1679
  C:3B4DH         LINE#         1681
  C:3B4DH         LINE#         1682
  C:3B5EH         LINE#         1683
  C:3B64H         LINE#         1684
  C:3B64H         LINE#         1685
  C:3B6BH         LINE#         1686
  C:3B6BH         LINE#         1687
  C:3B6EH         LINE#         1688
BL51 BANKED LINKER/LOCATER V5.03                                                      05/28/2012  11:22:31  PAGE 116


  C:3B6EH         LINE#         1689
  C:3B71H         LINE#         1690
  C:3B77H         LINE#         1691
  C:3B77H         LINE#         1692
  C:3B85H         LINE#         1693
  C:3B8AH         LINE#         1694
  C:3B8CH         LINE#         1696
  C:3B8CH         LINE#         1697
  C:3B9DH         LINE#         1698
  C:3BA3H         LINE#         1699
  C:3BA3H         LINE#         1700
  C:3BAAH         LINE#         1701
  C:3BAAH         LINE#         1702
  C:3BADH         LINE#         1703
  C:3BADH         LINE#         1704
  C:3BB0H         LINE#         1705
  C:3BB6H         LINE#         1706
  C:3BB6H         LINE#         1707
  C:3BC4H         LINE#         1708
  C:3BC7H         LINE#         1709
  C:3BC9H         LINE#         1711
  C:3BC9H         LINE#         1712
  C:3BDAH         LINE#         1713
  C:3BE0H         LINE#         1714
  C:3BE0H         LINE#         1715
  C:3BE7H         LINE#         1716
  C:3BE7H         LINE#         1717
  C:3BEAH         LINE#         1719
  C:3BEAH         LINE#         1720
  C:3BEDH         LINE#         1721
  C:3BF3H         LINE#         1722
  C:3BF3H         LINE#         1723
  C:3C01H         LINE#         1724
  C:3C04H         LINE#         1725
  C:3C06H         LINE#         1727
  C:3C06H         LINE#         1728
  C:3C14H         LINE#         1729
  C:3C1AH         LINE#         1730
  C:3C1AH         LINE#         1731
  C:3C22H         LINE#         1732
  C:3C25H         LINE#         1734
  C:3C25H         LINE#         1735
  C:3C28H         LINE#         1736
  C:3C2EH         LINE#         1737
  C:3C2EH         LINE#         1738
  C:3C3CH         LINE#         1739
  C:3C3FH         LINE#         1740
  C:3C41H         LINE#         1742
  C:3C41H         LINE#         1743
  C:3C4FH         LINE#         1744
  C:3C55H         LINE#         1745
  C:3C55H         LINE#         1746
  C:3C5DH         LINE#         1747
  C:3C60H         LINE#         1749
  C:3C60H         LINE#         1750
  C:3C63H         LINE#         1751
  C:3C69H         LINE#         1752
BL51 BANKED LINKER/LOCATER V5.03                                                      05/28/2012  11:22:31  PAGE 117


  C:3C69H         LINE#         1753
  C:3C77H         LINE#         1754
  C:3C7AH         LINE#         1755
  C:3C7CH         LINE#         1757
  C:3C7CH         LINE#         1758
  C:3C8AH         LINE#         1759
  C:3C90H         LINE#         1760
  C:3C90H         LINE#         1761
  C:3C98H         LINE#         1762
  C:3C9BH         LINE#         1764
  C:3C9BH         LINE#         1765
  C:3C9EH         LINE#         1766
  C:3CA4H         LINE#         1767
  C:3CA4H         LINE#         1768
  C:3CB2H         LINE#         1769
  C:3CB5H         LINE#         1770
  C:3CB7H         LINE#         1772
  C:3CB7H         LINE#         1773
  C:3CC5H         LINE#         1774
  C:3CCBH         LINE#         1775
  C:3CCBH         LINE#         1776
  C:3CD3H         LINE#         1777
  C:3CD6H         LINE#         1779
  C:3CD6H         LINE#         1780
  C:3CDDH         LINE#         1781
  C:3CE3H         LINE#         1782
  C:3CE3H         LINE#         1783
  C:3CF5H         LINE#         1784
  C:3CF8H         LINE#         1785
  C:3CFAH         LINE#         1787
  C:3CFAH         LINE#         1788
  C:3D08H         LINE#         1789
  C:3D0EH         LINE#         1790
  C:3D0EH         LINE#         1791
  C:3D17H         LINE#         1792
  C:3D19H         LINE#         1793
  C:3D1CH         LINE#         1795
  C:3D1CH         LINE#         1796
  C:3D23H         LINE#         1797
  C:3D29H         LINE#         1798
  C:3D3CH         LINE#         1800
  C:3D51H         LINE#         1801
  C:3D5AH         LINE#         1802
  C:3D5CH         LINE#         1803
  C:3D5EH         LINE#         1805
  C:3D5EH         LINE#         1806
  C:3D65H         LINE#         1807
  C:3D6BH         LINE#         1808
  C:3D6BH         LINE#         1809
  C:3D79H         LINE#         1810
  C:3D7CH         LINE#         1811
  C:3D7EH         LINE#         1813
  C:3D7EH         LINE#         1814
  C:3D8CH         LINE#         1815
  C:3D92H         LINE#         1816
  C:3D92H         LINE#         1817
  C:3D9BH         LINE#         1818
BL51 BANKED LINKER/LOCATER V5.03                                                      05/28/2012  11:22:31  PAGE 118


  C:3DA2H         LINE#         1819
  C:3DA4H         LINE#         1821
  C:3DA4H         LINE#         1822
  C:3DA7H         LINE#         1823
  C:3DADH         LINE#         1824
  C:3DADH         LINE#         1825
  C:3DBBH         LINE#         1826
  C:3DC0H         LINE#         1827
  C:3DC2H         LINE#         1829
  C:3DC2H         LINE#         1830
  C:3DD3H         LINE#         1831
  C:3DD9H         LINE#         1832
  C:3DD9H         LINE#         1833
  C:3DE1H         LINE#         1834
  C:3DE7H         LINE#         1835
  C:3DE7H         LINE#         1838
  C:3DE7H         LINE#         1840
  C:3DEFH         LINE#         1841
  -------         ENDPROC       _SETITEMVALUE
  -------         PROC          _DISPLAYVIEWBAR
  X:0033H         SYMBOL        addr
  X:0035H         SYMBOL        val
  -------         DO            
  C:188AH         SYMBOL        BAR_ROM_TABLE
  X:0036H         SYMBOL        i
  X:0037H         SYMBOL        Bar_str
  -------         ENDDO         
  C:970FH         LINE#         1844
  C:9717H         LINE#         1845
  C:9717H         LINE#         1854
  C:971AH         LINE#         1855
  C:972CH         LINE#         1858
  C:972CH         LINE#         1859
  C:9735H         LINE#         1860
  C:9735H         LINE#         1861
  C:974FH         LINE#         1862
  C:975FH         LINE#         1863
  C:9775H         LINE#         1864
  C:9775H         LINE#         1866
  C:977FH         LINE#         1867
  C:977FH         LINE#         1870
  C:9795H         LINE#         1871
  C:97A6H         LINE#         1872
  C:97AEH         LINE#         1873
  C:97BBH         LINE#         1875
  C:97C5H         LINE#         1876
  C:97DAH         LINE#         1878
  -------         ENDPROC       _DISPLAYVIEWBAR
  -------         PROC          _DRAWNUM
  X:0033H         SYMBOL        addr
  X:0035H         SYMBOL        nptr
  X:0038H         SYMBOL        val
  -------         DO            
  X:003AH         SYMBOL        x
  X:003BH         SYMBOL        i
  X:003CH         SYMBOL        j
  X:003DH         SYMBOL        k
BL51 BANKED LINKER/LOCATER V5.03                                                      05/28/2012  11:22:31  PAGE 119


  D:0007H         SYMBOL        len
  X:003EH         SYMBOL        mstr
  X:0043H         SYMBOL        Num_str
  X:004FH         SYMBOL        str
  -------         ENDDO         
  C:98BDH         LINE#         1882
  C:98C6H         LINE#         1883
  C:98C6H         LINE#         1885
  C:98D1H         LINE#         1888
  C:98D7H         LINE#         1889
  C:98E6H         LINE#         1890
  C:98EBH         LINE#         1891
  C:98F4H         LINE#         1894
  C:98F7H         LINE#         1895
  C:990AH         LINE#         1896
  C:991AH         LINE#         1898
  C:992EH         LINE#         1899
  C:9934H         LINE#         1900
  C:993DH         LINE#         1901
  C:994BH         LINE#         1902
  C:995DH         LINE#         1905
  C:9963H         LINE#         1906
  C:9972H         LINE#         1907
  C:9985H         LINE#         1908
  -------         ENDPROC       _DRAWNUM
  C:9A47H         SYMBOL        L?1208
  -------         PROC          _DRAWSTRINGBYLANG
  X:0033H         SYMBOL        addr
  X:0035H         SYMBOL        yptr
  X:0038H         SYMBOL        val
  -------         DO            
  X:003AH         SYMBOL        j
  D:0005H         SYMBOL        l
  X:003BH         SYMBOL        Size_val
  X:003CH         SYMBOL        Buf
  X:0048H         SYMBOL        Str
  -------         ENDDO         
  C:9992H         LINE#         1912
  C:999BH         LINE#         1913
  C:999BH         LINE#         1916
  C:99A6H         LINE#         1919
  C:99B0H         LINE#         1920
  C:99B9H         LINE#         1922
  C:99C7H         LINE#         1923
  C:99C7H         LINE#         1924
  C:99E6H         LINE#         1925
  C:99EBH         LINE#         1926
  C:99EBH         LINE#         1928
  C:99F5H         LINE#         1929
  C:9A0DH         LINE#         1930
  C:9A12H         LINE#         1931
  C:9A12H         LINE#         1933
  C:9A26H         LINE#         1935
  C:9A31H         LINE#         1937
  C:9A47H         LINE#         1939
  -------         ENDPROC       _DRAWSTRINGBYLANG
  -------         PROC          _DRAWMENULIST
BL51 BANKED LINKER/LOCATER V5.03                                                      05/28/2012  11:22:31  PAGE 120


  X:0014H         SYMBOL        NOTViewflag
  -------         DO            
  X:0015H         SYMBOL        i
  X:0016H         SYMBOL        j
  X:0017H         SYMBOL        k
  X:0018H         SYMBOL        x
  X:0019H         SYMBOL        y
  D:0001H         SYMBOL        DMp
  X:001AH         SYMBOL        Desc
  X:001DH         SYMBOL        Max_y
  X:001EH         SYMBOL        addr
  -------         ENDDO         
  C:7CF0H         LINE#         1967
  C:7CF5H         LINE#         1968
  C:7CF5H         LINE#         1969
  C:7CFCH         LINE#         1977
  C:7D0BH         LINE#         1983
  C:7D1EH         LINE#         1984
  C:7D27H         LINE#         1985
  C:7D2FH         LINE#         1987
  C:7D46H         LINE#         1988
  C:7D6AH         LINE#         1991
  C:7D7EH         LINE#         1992
  C:7D93H         LINE#         1994
  C:7DA3H         LINE#         1995
  C:7DBBH         LINE#         1997
  C:7DC1H         LINE#         1998
  C:7DC1H         LINE#         2000
  C:7DD2H         LINE#         2001
  C:7DD8H         LINE#         2004
  C:7DEBH         LINE#         2005
  C:7DFFH         LINE#         2006
  C:7E16H         LINE#         2008
  C:7E1CH         LINE#         2009
  C:7E1EH         LINE#         2010
  C:7E27H         LINE#         2011
  C:7E27H         LINE#         2013
  C:7E34H         LINE#         2015
  C:7E3CH         LINE#         2016
  C:7E6EH         LINE#         2017
  C:7E7EH         LINE#         2018
  C:7E80H         LINE#         2019
  C:7E80H         LINE#         2020
  C:7E8CH         LINE#         2021
  C:7E8CH         LINE#         2022
  C:7E9EH         LINE#         2024
  C:7EA7H         LINE#         2026
  C:7EADH         LINE#         2027
  C:7EAFH         LINE#         2028
  C:7EB7H         LINE#         2029
  C:7EB7H         LINE#         2031
  -------         ENDPROC       _DRAWMENULIST
  C:9296H         SYMBOL        L?1294
  -------         PROC          DISPLAYOSDMENU
  C:91A3H         LINE#         2036
  C:91A3H         LINE#         2037
  C:91A3H         LINE#         2045
BL51 BANKED LINKER/LOCATER V5.03                                                      05/28/2012  11:22:31  PAGE 121


  C:91ADH         LINE#         2046
  C:91B4H         LINE#         2047
  C:91D1H         LINE#         2048
  C:91D7H         LINE#         2050
  C:91D7H         LINE#         2051
  C:9217H         LINE#         2053
  C:9217H         LINE#         2054
  C:921EH         LINE#         2055
  C:9224H         LINE#         2056
  C:9226H         LINE#         2058
  C:9231H         LINE#         2060
  C:9231H         LINE#         2062
  C:923CH         LINE#         2064
  C:9241H         LINE#         2067
  C:9246H         LINE#         2068
  C:9246H         LINE#         2069
  C:9249H         LINE#         2070
  C:924FH         LINE#         2071
  C:9253H         LINE#         2073
  C:9266H         LINE#         2074
  C:9269H         LINE#         2075
  C:926FH         LINE#         2077
  C:9274H         LINE#         2079
  C:9277H         LINE#         2080
  C:928AH         LINE#         2081
  C:928DH         LINE#         2082
  C:9293H         LINE#         2083
  C:9293H         LINE#         2089
  C:9296H         LINE#         2090
  -------         ENDPROC       DISPLAYOSDMENU
  -------         PROC          OSDHIGHMENU_SUB
  -------         DO            
  X:000CH         SYMBOL        temp_cursor
  -------         ENDDO         
  C:A55EH         LINE#         2092
  C:A55EH         LINE#         2093
  C:A55EH         LINE#         2099
  C:A566H         LINE#         2100
  C:A570H         LINE#         2101
  C:A578H         LINE#         2103
  C:A57EH         LINE#         2104
  C:A581H         LINE#         2106
  C:A581H         LINE#         2107
  C:A587H         LINE#         2108
  C:A58EH         LINE#         2109
  C:A596H         LINE#         2117
  C:A596H         LINE#         2120
  C:A5A3H         LINE#         2123
  C:A5C7H         LINE#         2125
  C:A5CDH         LINE#         2127
  C:A5D1H         LINE#         2128
  C:A5D7H         LINE#         2129
  C:A5DAH         LINE#         2130
  C:A5DCH         LINE#         2132
  C:A5DCH         LINE#         2133
  C:A5E1H         LINE#         2134
  C:A5E4H         LINE#         2135
BL51 BANKED LINKER/LOCATER V5.03                                                      05/28/2012  11:22:31  PAGE 122


  C:A5E4H         LINE#         2138
  C:A5EBH         LINE#         2139
  C:A5F1H         LINE#         2140
  C:A5FAH         LINE#         2141
  C:A5FAH         LINE#         2144
  -------         ENDPROC       OSDHIGHMENU_SUB
  C:668AH         SYMBOL        L?1209
  C:66A8H         SYMBOL        L?1267
  C:66B0H         SYMBOL        L?1278
  C:66B9H         SYMBOL        L?1315
  -------         PROC          _DOACTION
  D:0007H         SYMBOL        id
  -------         DO            
  X:000BH         SYMBOL        ret
  -------         ENDDO         
  C:6415H         LINE#         2147
  C:6415H         LINE#         2148
  C:6415H         LINE#         2149
  C:641BH         LINE#         2154
  C:6453H         LINE#         2156
  C:6453H         LINE#         2157
  C:6453H         LINE#         2158
  C:6453H         LINE#         2169
  C:645AH         LINE#         2170
  C:645DH         LINE#         2204
  C:645DH         LINE#         2208
  C:645DH         LINE#         2209
  C:6460H         LINE#         2211
  C:6460H         LINE#         2212
  C:6460H         LINE#         2213
  C:6460H         LINE#         2214
  C:6462H         LINE#         2216
  C:6462H         LINE#         2217
  C:6462H         LINE#         2219
  C:6462H         LINE#         2220
  C:6465H         LINE#         2222
  C:6468H         LINE#         2224
  C:646BH         LINE#         2225
  C:6475H         LINE#         2226
  C:6478H         LINE#         2228
  C:647BH         LINE#         2233
  C:647EH         LINE#         2234
  C:6483H         LINE#         2235
  C:6483H         LINE#         2236
  C:6486H         LINE#         2248
  C:6486H         LINE#         2249
  C:6489H         LINE#         2251
  C:6490H         LINE#         2252
  C:6490H         LINE#         2253
  C:6495H         LINE#         2254
  C:649AH         LINE#         2255
  C:649AH         LINE#         2256
  C:649AH         LINE#         2257
  C:649DH         LINE#         2259
  C:64A4H         LINE#         2260
  C:64A4H         LINE#         2261
  C:64A9H         LINE#         2262
BL51 BANKED LINKER/LOCATER V5.03                                                      05/28/2012  11:22:31  PAGE 123


  C:64AEH         LINE#         2263
  C:64AEH         LINE#         2264
  C:64AEH         LINE#         2265
  C:64B1H         LINE#         2267
  C:64B1H         LINE#         2268
  C:64B4H         LINE#         2269
  C:64B6H         LINE#         2270
  C:64B9H         LINE#         2271
  C:64BCH         LINE#         2272
  C:64BFH         LINE#         2273
  C:64BFH         LINE#         2274
  C:64BFH         LINE#         2275
  C:64BFH         LINE#         2276
  C:64BFH         LINE#         2281
  C:64C2H         LINE#         2336
  C:64C2H         LINE#         2337
  C:64CCH         LINE#         2338
  C:64CCH         LINE#         2339
  C:652BH         LINE#         2344
  C:652BH         LINE#         2345
  C:6531H         LINE#         2346
  C:6533H         LINE#         2347
  C:6533H         LINE#         2348
  C:6536H         LINE#         2349
  C:653BH         LINE#         2352
  C:654DH         LINE#         2353
  C:655AH         LINE#         2354
  C:6569H         LINE#         2355
  C:6578H         LINE#         2357
  C:6581H         LINE#         2358
  C:6581H         LINE#         2359
  C:6585H         LINE#         2360
  C:6588H         LINE#         2363
  C:658FH         LINE#         2364
  C:658FH         LINE#         2365
  C:6596H         LINE#         2366
  C:6596H         LINE#         2367
  C:659BH         LINE#         2371
  C:659BH         LINE#         2372
  C:659BH         LINE#         2373
  C:659BH         LINE#         2374
  C:659EH         LINE#         2375
  C:659EH         LINE#         2376
  C:659EH         LINE#         2377
  C:659EH         LINE#         2378
  C:659EH         LINE#         2380
  C:65A4H         LINE#         2381
  C:65A4H         LINE#         2382
  C:65A9H         LINE#         2386
  C:65A9H         LINE#         2387
  C:65A9H         LINE#         2388
  C:65A9H         LINE#         2389
  C:65A9H         LINE#         2390
  C:65A9H         LINE#         2391
  C:65ACH         LINE#         2392
  C:65ACH         LINE#         2393
  C:65ACH         LINE#         2394
BL51 BANKED LINKER/LOCATER V5.03                                                      05/28/2012  11:22:31  PAGE 124


  C:65ACH         LINE#         2395
  C:65ACH         LINE#         2397
  C:65AEH         LINE#         2399
  C:65AEH         LINE#         2400
  C:65B3H         LINE#         2401
  C:65B4H         LINE#         2402
  C:65B4H         LINE#         2403
  C:65B4H         LINE#         2404
  C:65B7H         LINE#         2409
  C:65B7H         LINE#         2411
  C:65B7H         LINE#         2412
  C:65BAH         LINE#         2414
  C:65BAH         LINE#         2415
  C:65C4H         LINE#         2416
  C:65C4H         LINE#         2417
  C:65C6H         LINE#         2418
  C:65C6H         LINE#         2419
  C:65C9H         LINE#         2421
  C:65CEH         LINE#         2424
  C:65D7H         LINE#         2425
  C:65D7H         LINE#         2426
  C:65DBH         LINE#         2427
  C:65DEH         LINE#         2430
  C:65E5H         LINE#         2431
  C:65E5H         LINE#         2432
  C:65ECH         LINE#         2433
  C:65ECH         LINE#         2435
  C:65F1H         LINE#         2438
  C:65F1H         LINE#         2440
  C:65F1H         LINE#         2441
  C:65F1H         LINE#         2442
  C:65F1H         LINE#         2444
  C:65F7H         LINE#         2445
  C:65F7H         LINE#         2447
  C:65FCH         LINE#         2450
  C:65FCH         LINE#         2451
  C:65FCH         LINE#         2452
  C:65FCH         LINE#         2453
  C:65FCH         LINE#         2454
  C:65FCH         LINE#         2455
  C:65FCH         LINE#         2457
  C:65FCH         LINE#         2458
  C:65FEH         LINE#         2460
  C:65FEH         LINE#         2462
  C:65FEH         LINE#         2463
  C:6603H         LINE#         2464
  C:6605H         LINE#         2465
  C:6608H         LINE#         2468
  C:660DH         LINE#         2470
  C:6616H         LINE#         2471
  C:6616H         LINE#         2472
  C:661AH         LINE#         2473
  C:661DH         LINE#         2476
  C:6624H         LINE#         2477
  C:6624H         LINE#         2478
  C:662BH         LINE#         2479
  C:662BH         LINE#         2480
BL51 BANKED LINKER/LOCATER V5.03                                                      05/28/2012  11:22:31  PAGE 125


  C:6630H         LINE#         2483
  C:6630H         LINE#         2484
  C:6630H         LINE#         2485
  C:6630H         LINE#         2486
  C:6630H         LINE#         2488
  C:6636H         LINE#         2489
  C:6636H         LINE#         2490
  C:663BH         LINE#         2493
  C:663BH         LINE#         2494
  C:663BH         LINE#         2495
  C:663BH         LINE#         2496
  C:663BH         LINE#         2497
  C:663BH         LINE#         2498
  C:663EH         LINE#         2500
  C:663EH         LINE#         2501
  C:6640H         LINE#         2504
  C:6640H         LINE#         2517
  C:6648H         LINE#         2518
  C:6650H         LINE#         2519
  C:665CH         LINE#         2520
  C:6668H         LINE#         2521
  C:6668H         LINE#         2522
  C:6668H         LINE#         2523
  C:6668H         LINE#         2524
  C:666BH         LINE#         2526
  C:666EH         LINE#         2528
  C:6670H         LINE#         2530
  C:6670H         LINE#         2531
  C:6673H         LINE#         2532
  C:6675H         LINE#         2534
  C:667CH         LINE#         2535
  C:6681H         LINE#         2536
  C:6684H         LINE#         2538
  C:6684H         LINE#         2540
  C:6684H         LINE#         2541
  C:6689H         LINE#         2542
  -------         ENDPROC       _DOACTION
  -------         PROC          _GETNEXTCURSORMENUITEM
  D:0001H         SYMBOL        DMp
  D:0005H         SYMBOL        itemno
  X:0011H         SYMBOL        flag
  -------         DO            
  D:0006H         SYMBOL        new_cursor
  -------         ENDDO         
  C:C400H         LINE#         2545
  C:C400H         LINE#         2546
  C:C400H         LINE#         2549
  C:C40BH         LINE#         2550
  C:C414H         LINE#         2551
  C:C419H         LINE#         2552
  C:C419H         LINE#         2553
  C:C41BH         LINE#         2554
  -------         ENDPROC       _GETNEXTCURSORMENUITEM
  -------         PROC          SAVEVALUE1
  C:C11DH         LINE#         2559
  C:C11DH         LINE#         2560
  C:C11DH         LINE#         2563
BL51 BANKED LINKER/LOCATER V5.03                                                      05/28/2012  11:22:31  PAGE 126


  C:C137H         LINE#         2565
  C:C137H         LINE#         2566
  C:C142H         LINE#         2570
  C:C142H         LINE#         2572
  C:C142H         LINE#         2574
  C:C142H         LINE#         2575
  C:C142H         LINE#         2577
  C:C144H         LINE#         2578
  -------         ENDPROC       SAVEVALUE1
  -------         PROC          CLEARVALUEWIN
  C:C5D9H         LINE#         2580
  C:C5D9H         LINE#         2581
  C:C5D9H         LINE#         2582
  C:C5DCH         LINE#         2584
  C:C5E2H         LINE#         2585
  C:C5E4H         LINE#         2586
  -------         ENDPROC       CLEARVALUEWIN
  -------         PROC          _OSDCURSORMOVE
  X:0009H         SYMBOL        flag
  -------         DO            
  X:000AH         SYMBOL        new_cursor
  X:000BH         SYMBOL        old_cursor
  D:0002H         SYMBOL        dat
  -------         DO            
  X:000CH         SYMBOL        i
  -------         ENDDO         
  -------         ENDDO         
  C:6915H         LINE#         2588
  C:691AH         LINE#         2589
  C:691AH         LINE#         2597
  C:6920H         LINE#         2599
  C:6944H         LINE#         2602
  C:6968H         LINE#         2604
  C:6980H         LINE#         2606
  C:6983H         LINE#         2608
  C:698BH         LINE#         2609
  C:6998H         LINE#         2610
  C:699EH         LINE#         2611
  C:69AEH         LINE#         2613
  C:69AEH         LINE#         2616
  C:69B3H         LINE#         2617
  C:69B3H         LINE#         2619
  C:69B6H         LINE#         2620
  C:69B9H         LINE#         2621
  C:69B9H         LINE#         2622
  C:69BEH         LINE#         2623
  C:69C1H         LINE#         2633
  C:6A12H         LINE#         2638
  C:6A12H         LINE#         2639
  C:6A18H         LINE#         2640
  C:6A1AH         LINE#         2642
  C:6A1AH         LINE#         2643
  C:6A3CH         LINE#         2645
  C:6A3CH         LINE#         2647
  C:6A3FH         LINE#         2648
  C:6A3FH         LINE#         2650
  C:6A5DH         LINE#         2652
BL51 BANKED LINKER/LOCATER V5.03                                                      05/28/2012  11:22:31  PAGE 127


  C:6A5DH         LINE#         2654
  C:6A60H         LINE#         2655
  C:6A60H         LINE#         2656
  C:6A60H         LINE#         2661
  C:6A67H         LINE#         2662
  C:6A67H         LINE#         2663
  C:6A89H         LINE#         2665
  C:6A89H         LINE#         2666
  C:6A8BH         LINE#         2667
  C:6A8BH         LINE#         2669
  C:6AA9H         LINE#         2671
  C:6AA9H         LINE#         2672
  C:6AACH         LINE#         2673
  C:6AACH         LINE#         2674
  C:6AACH         LINE#         2678
  C:6AAFH         LINE#         2679
  C:6AAFH         LINE#         2680
  C:6AC5H         LINE#         2682
  C:6AC5H         LINE#         2683
  C:6AC8H         LINE#         2684
  C:6ACEH         LINE#         2685
  C:6ACEH         LINE#         2687
  C:6AE0H         LINE#         2689
  C:6AE0H         LINE#         2690
  C:6AE3H         LINE#         2691
  C:6AE9H         LINE#         2692
  C:6AE9H         LINE#         2693
  C:6AE9H         LINE#         2696
  C:6AF1H         LINE#         2697
  C:6AF9H         LINE#         2698
  C:6AFEH         LINE#         2699
  C:6AFEH         LINE#         2700
  C:6B01H         LINE#         2701
  C:6B0AH         LINE#         2702
  C:6B23H         LINE#         2703
  C:6B2AH         LINE#         2704
  C:6B30H         LINE#         2705
  C:6B3EH         LINE#         2707
  C:6B41H         LINE#         2709
  C:6B41H         LINE#         2710
  C:6B41H         LINE#         2712
  C:6B56H         LINE#         2713
  C:6B5BH         LINE#         2714
  C:6B5EH         LINE#         2715
  C:6B5EH         LINE#         2716
  -------         ENDPROC       _OSDCURSORMOVE
  C:9184H         SYMBOL        L?1206
  -------         PROC          _OSDVALUEUPDN
  X:0009H         SYMBOL        flag
  -------         DO            
  X:000AH         SYMBOL        ptr
  X:000DH         SYMBOL        val
  X:000FH         SYMBOL        addr
  -------         ENDDO         
  C:90A5H         LINE#         2718
  C:90AAH         LINE#         2719
  C:90AAH         LINE#         2725
BL51 BANKED LINKER/LOCATER V5.03                                                      05/28/2012  11:22:31  PAGE 128


  C:90B0H         LINE#         2726
  C:90DCH         LINE#         2728
  C:90F8H         LINE#         2730
  C:90F8H         LINE#         2731
  C:9117H         LINE#         2732
  C:9127H         LINE#         2733
  C:9127H         LINE#         2735
  C:9127H         LINE#         2736
  C:9136H         LINE#         2737
  C:9149H         LINE#         2744
  C:9149H         LINE#         2745
  C:9149H         LINE#         2746
  C:9153H         LINE#         2747
  C:9153H         LINE#         2748
  C:9153H         LINE#         2750
  C:9153H         LINE#         2772
  C:9153H         LINE#         2773
  C:9162H         LINE#         2774
  C:9175H         LINE#         2775
  C:9183H         LINE#         2776
  C:9183H         LINE#         2778
  C:9183H         LINE#         2779
  C:9183H         LINE#         2780
  -------         ENDPROC       _OSDVALUEUPDN
  -------         PROC          CLOSEOSDMENU
  -------         DO            
  X:003FH         SYMBOL        i
  -------         ENDDO         
  C:BD0CH         LINE#         2782
  C:BD0CH         LINE#         2783
  C:BD0CH         LINE#         2787
  C:BD11H         LINE#         2790
  C:BD14H         LINE#         2791
  C:BD24H         LINE#         2792
  C:BD24H         LINE#         2793
  C:BD2EH         LINE#         2794
  C:BD37H         LINE#         2795
  C:BD3FH         LINE#         2797
  C:BD44H         LINE#         2814
  C:BD46H         LINE#         2815
  -------         ENDPROC       CLOSEOSDMENU
  -------         PROC          OPENOSDMENU
  -------         DO            
  X:0009H         SYMBOL        i
  -------         ENDDO         
  C:BE5EH         LINE#         2843
  C:BE5EH         LINE#         2844
  C:BE5EH         LINE#         2848
  C:BE61H         LINE#         2849
  C:BE61H         LINE#         2850
  C:BE64H         LINE#         2854
  C:BE64H         LINE#         2856
  C:BE74H         LINE#         2857
  C:BE79H         LINE#         2858
  C:BE81H         LINE#         2862
  C:BE88H         LINE#         2863
  C:BE8DH         LINE#         2864
BL51 BANKED LINKER/LOCATER V5.03                                                      05/28/2012  11:22:31  PAGE 129


  -------         ENDPROC       OPENOSDMENU
  -------         PROC          INITOSDMENU
  -------         DO            
  X:000CH         SYMBOL        i
  -------         ENDDO         
  C:B18FH         LINE#         2923
  C:B18FH         LINE#         2924
  C:B18FH         LINE#         2926
  C:B194H         LINE#         2929
  C:B19CH         LINE#         2931
  C:B19FH         LINE#         2949
  C:B19FH         LINE#         2955
  C:B1A9H         LINE#         2956
  C:B1A9H         LINE#         2957
  C:B1A9H         LINE#         2959
  C:B1ACH         LINE#         2960
  C:B1B0H         LINE#         2961
  C:B1C9H         LINE#         2963
  C:B1CFH         LINE#         2964
  C:B1D4H         LINE#         2966
  C:B1D7H         LINE#         2967
  C:B1DCH         LINE#         2969
  C:B1E2H         LINE#         2970
  C:B1E5H         LINE#         2971
  C:B1E7H         LINE#         2979
  C:B1F0H         LINE#         2993
  -------         ENDPROC       INITOSDMENU
  -------         PROC          OSDHIGHMENU
  C:002EH         LINE#         2997
  C:002EH         LINE#         2998
  C:002EH         LINE#         2999
  C:0031H         LINE#         3000
  C:0031H         LINE#         3002
  C:0034H         LINE#         3004
  C:0039H         LINE#         3005
  C:003CH         LINE#         3008
  C:003CH         LINE#         3010
  C:003EH         LINE#         3011
  C:0057H         LINE#         3013
  C:005FH         LINE#         3014
  C:0062H         LINE#         3016
  -------         ENDPROC       OSDHIGHMENU
  -------         PROC          OSDSELECT
  -------         DO            
  D:0007H         SYMBOL        ret
  X:0009H         SYMBOL        addr
  -------         ENDDO         
  C:836CH         LINE#         3019
  C:836CH         LINE#         3020
  C:836CH         LINE#         3024
  C:8377H         LINE#         3025
  C:8392H         LINE#         3027
  C:83BAH         LINE#         3031
  C:83D3H         LINE#         3032
  C:83D9H         LINE#         3034
  C:8407H         LINE#         3035
  C:8407H         LINE#         3036
BL51 BANKED LINKER/LOCATER V5.03                                                      05/28/2012  11:22:31  PAGE 130


  C:8416H         LINE#         3039
  C:8416H         LINE#         3040
  C:8416H         LINE#         3041
  C:8418H         LINE#         3042
  C:841BH         LINE#         3043
  C:8431H         LINE#         3046
  C:8431H         LINE#         3047
  C:8433H         LINE#         3049
  C:8446H         LINE#         3050
  C:8446H         LINE#         3051
  C:8446H         LINE#         3054
  C:8449H         LINE#         3055
  C:8449H         LINE#         3058
  C:8449H         LINE#         3059
  C:8449H         LINE#         3060
  C:844EH         LINE#         3061
  C:8468H         LINE#         3064
  C:846EH         LINE#         3065
  C:8477H         LINE#         3066
  C:8477H         LINE#         3068
  C:847DH         LINE#         3070
  C:8480H         LINE#         3071
  C:8480H         LINE#         3072
  C:8487H         LINE#         3074
  C:849EH         LINE#         3075
  C:84A6H         LINE#         3076
  C:84BCH         LINE#         3078
  C:84C3H         LINE#         3079
  C:84C8H         LINE#         3081
  C:84CBH         LINE#         3083
  C:84CEH         LINE#         3084
  C:84CEH         LINE#         3085
  C:84CEH         LINE#         3088
  -------         ENDPROC       OSDSELECT
  -------         PROC          _CAMOUTDSEL
  X:0015H         SYMBOL        val
  C:B6BDH         LINE#         3106
  C:B6C2H         LINE#         3107
  C:B6C2H         LINE#         3108
  C:B6C4H         LINE#         3109
  C:B6CCH         LINE#         3110
  C:B6D3H         LINE#         3111
  C:B6DBH         LINE#         3112
  C:B6E2H         LINE#         3113
  C:B6EAH         LINE#         3114
  C:B6F1H         LINE#         3115
  C:B6F9H         LINE#         3116
  C:B700H         LINE#         3117
  C:B709H         LINE#         3118
  -------         ENDPROC       _CAMOUTDSEL
  -------         PROC          _DVRAODIOSEL
  X:0015H         SYMBOL        val
  C:BC54H         LINE#         3124
  C:BC59H         LINE#         3125
  C:BC59H         LINE#         3127
  C:BC5BH         LINE#         3128
  C:BC63H         LINE#         3129
BL51 BANKED LINKER/LOCATER V5.03                                                      05/28/2012  11:22:31  PAGE 131


  C:BC6AH         LINE#         3130
  C:BC72H         LINE#         3131
  C:BC79H         LINE#         3132
  C:BC81H         LINE#         3133
  C:BC88H         LINE#         3134
  C:BC91H         LINE#         3136
  -------         ENDPROC       _DVRAODIOSEL
  -------         ENDMOD        OSDMENU

  -------         MODULE        PC_EEP
  C:0000H         SYMBOL        _ICE_DUMMY_
  -------         ENDMOD        PC_EEP

  -------         MODULE        PRINTF
  C:0000H         SYMBOL        _ICE_DUMMY_
  D:00E8H         PUBLIC        P4
  C:C437H         PUBLIC        _Puts
  C:5B56H         PUBLIC        _DoPrint
  C:C530H         PUBLIC        Hex
  D:0099H         PUBLIC        SBUF
  C:C16CH         PUBLIC        _Printf
  C:B368H         SYMBOL        Com005D
  C:B368H         SYMBOL        L?0094
  C:B368H         SYMBOL        L?0095
  C:B36BH         SYMBOL        L?0096
  C:B36CH         SYMBOL        L?0097
  C:B375H         SYMBOL        L?0098
  C:B375H         SYMBOL        L?0099
  C:B378H         SYMBOL        L?0100
  C:B386H         SYMBOL        L?0101
  C:B386H         SYMBOL        L?0102
  C:B38CH         SYMBOL        L?0103
  C:B392H         SYMBOL        L?0104
  C:B3A1H         SYMBOL        L?0105
  C:B3A7H         SYMBOL        L?0106
  C:B3A7H         SYMBOL        L?0107
  C:B3ADH         SYMBOL        L?0108
  C:B3B0H         SYMBOL        L?0109
  C:B3B7H         SYMBOL        L?0110
  C:B3B7H         SYMBOL        L?0111
  C:B3BDH         SYMBOL        L?0112
  C:B3BDH         SYMBOL        L?0113
  -------         PROC          COM005D
  -------         ENDPROC       COM005D
  -------         PROC          _DOPRINT
  X:005DH         SYMBOL        fmt
  X:0060H         SYMBOL        ap
  -------         DO            
  X:0063H         SYMBOL        ch
  X:0064H         SYMBOL        i
  X:0065H         SYMBOL        value
  B:0022H.5       SYMBOL        fl_zero
  B:0022H.6       SYMBOL        fl_num
  X:0069H         SYMBOL        fl_len
  X:006AH         SYMBOL        cnt
  X:006BH         SYMBOL        mask
  X:006FH         SYMBOL        ptr
BL51 BANKED LINKER/LOCATER V5.03                                                      05/28/2012  11:22:31  PAGE 132


  -------         ENDDO         
  C:5B56H         LINE#         17
  C:5B5CH         LINE#         18
  C:5B5CH         LINE#         26
  C:5B66H         LINE#         32
  C:5B66H         LINE#         36
  C:5B76H         LINE#         37
  C:5B76H         LINE#         38
  C:5B7FH         LINE#         39
  C:5B89H         LINE#         40
  C:5B92H         LINE#         41
  C:5B92H         LINE#         42
  C:5B92H         LINE#         46
  C:5B94H         LINE#         47
  C:5B96H         LINE#         48
  C:5B9BH         LINE#         50
  C:5BA5H         LINE#         52
  C:5BAAH         LINE#         53
  C:5BACH         LINE#         54
  C:5BB3H         LINE#         55
  C:5BB4H         LINE#         56
  C:5BB4H         LINE#         57
  C:5BB6H         LINE#         58
  C:5BCAH         LINE#         59
  C:5BD1H         LINE#         60
  C:5BD8H         LINE#         61
  C:5BD8H         LINE#         65
  C:5BDEH         LINE#         67
  C:5BF2H         LINE#         68
  C:5BF2H         LINE#         69
  C:5C01H         LINE#         70
  C:5C01H         LINE#         71
  C:5C0EH         LINE#         72
  C:5C0EH         LINE#         76
  C:5C3AH         LINE#         78
  C:5C3AH         LINE#         79
  C:5C3AH         LINE#         81
  C:5C4AH         LINE#         82
  C:5C4AH         LINE#         83
  C:5C5DH         LINE#         84
  C:5C65H         LINE#         85
  C:5C67H         LINE#         87
  C:5C67H         LINE#         88
  C:5C7CH         LINE#         89
  C:5C82H         LINE#         90
  C:5C84H         LINE#         92
  C:5C84H         LINE#         93
  C:5C88H         LINE#         94
  C:5C91H         LINE#         95
  C:5C91H         LINE#         96
  C:5C91H         LINE#         98
  C:5C98H         LINE#         99
  C:5CA0H         LINE#         100
  C:5CAFH         LINE#         101
  C:5CAFH         LINE#         103
  C:5CB5H         LINE#         104
  C:5CC9H         LINE#         106
BL51 BANKED LINKER/LOCATER V5.03                                                      05/28/2012  11:22:31  PAGE 133


  C:5CD6H         LINE#         107
  C:5CE7H         LINE#         108
  C:5CEAH         LINE#         109
  C:5CF4H         LINE#         110
  C:5CF4H         LINE#         112
  C:5D24H         LINE#         114
  C:5D24H         LINE#         115
  C:5D32H         LINE#         116
  C:5D4FH         LINE#         117
  C:5D51H         LINE#         118
  C:5D5CH         LINE#         120
  C:5D6DH         LINE#         121
  C:5D7FH         LINE#         123
  C:5D8DH         LINE#         124
  C:5D90H         LINE#         125
  C:5D90H         LINE#         126
  C:5D90H         LINE#         128
  C:5D90H         LINE#         129
  C:5D90H         LINE#         131
  C:5DA0H         LINE#         132
  C:5DADH         LINE#         133
  C:5DB5H         LINE#         134
  C:5DBEH         LINE#         135
  C:5DBEH         LINE#         137
  C:5DCCH         LINE#         139
  C:5DECH         LINE#         140
  C:5E1CH         LINE#         141
  C:5E24H         LINE#         142
  C:5E24H         LINE#         144
  C:5E24H         LINE#         155
  C:5E33H         LINE#         156
  C:5E3EH         LINE#         157
  C:5E4DH         LINE#         158
  C:5E4DH         LINE#         163
  C:5E4DH         LINE#         164
  C:5E59H         LINE#         165
  C:5E67H         LINE#         166
  C:5E67H         LINE#         168
  C:5E67H         LINE#         169
  C:5E70H         LINE#         170
  C:5E73H         LINE#         171
  C:5E73H         LINE#         172
  C:5E73H         LINE#         173
  -------         ENDPROC       _DOPRINT
  -------         PROC          _PRINTF
  X:002FH         SYMBOL        fmt
  -------         DO            
  X:0032H         SYMBOL        ellipsis_40
  X:005AH         SYMBOL        ap
  -------         ENDDO         
  C:C16CH         LINE#         180
  C:C172H         LINE#         181
  C:C172H         LINE#         184
  C:C17EH         LINE#         185
  -------         ENDPROC       _PRINTF
  -------         PROC          _PUTS
  X:001CH         SYMBOL        ptr
BL51 BANKED LINKER/LOCATER V5.03                                                      05/28/2012  11:22:31  PAGE 134


  C:C437H         LINE#         189
  C:C43DH         LINE#         190
  C:C43DH         LINE#         191
  C:C445H         LINE#         192
  C:C451H         LINE#         193
  -------         ENDPROC       _PUTS
  -------         ENDMOD        PRINTF

  -------         MODULE        TABLE
  C:0000H         SYMBOL        _ICE_DUMMY_
  C:8C30H         PUBLIC        NTSC_Regs
  C:8D3AH         PUBLIC        PAL_Regs
  -------         ENDMOD        TABLE

  -------         MODULE        TW88
  C:0000H         SYMBOL        _ICE_DUMMY_
  C:C2B1H         PUBLIC        COMPOSITE3Input
  D:00E8H         PUBLIC        P4
  C:C56EH         PUBLIC        GetLCDPowerState
  C:B579H         PUBLIC        DetectDecoderInput
  C:0012H         PUBLIC        ON_LVDS
  C:BF5AH         PUBLIC        LCDPowerOFF
  C:C2D2H         PUBLIC        SetAutoDetectStd
  C:A376H         PUBLIC        _Mapping1
  C:AE42H         PUBLIC        _LCDPowerON
  X:0102H         SYMBOL        m_cStandard
  C:C3C7H         PUBLIC        _ClearAutoDetectStd
  C:0029H         PUBLIC        OFF_LVDS
  C:C55FH         PUBLIC        COMPOSITE1Input
  C:C290H         PUBLIC        COMPOSITE2Input
  C:B522H         SYMBOL        Com001C
  C:B522H         SYMBOL        L?0029
  C:B529H         SYMBOL        L?0030
  C:B52CH         SYMBOL        L?0031
  C:B52FH         SYMBOL        L?0032
  C:B535H         SYMBOL        L?0033
  C:B558H         SYMBOL        L?0034
  C:B568H         SYMBOL        L?0038
  C:B568H         SYMBOL        L?0039
  C:B56FH         SYMBOL        L?0040
  -------         PROC          COM001C
  -------         ENDPROC       COM001C
  -------         PROC          SETAUTODETECTSTD
  -------         DO            
  D:0007H         SYMBOL        val
  -------         ENDDO         
  C:C2D2H         LINE#         30
  C:C2D2H         LINE#         31
  C:C2D2H         LINE#         37
  C:C2D8H         LINE#         38
  C:C2E0H         LINE#         39
  C:C2E7H         LINE#         40
  -------         ENDPROC       SETAUTODETECTSTD
  -------         PROC          _CLEARAUTODETECTSTD
  X:0022H         SYMBOL        std
  -------         DO            
  D:0007H         SYMBOL        val
BL51 BANKED LINKER/LOCATER V5.03                                                      05/28/2012  11:22:31  PAGE 135


  -------         ENDDO         
  C:C3C7H         LINE#         43
  C:C3CCH         LINE#         44
  C:C3CCH         LINE#         51
  C:C3D3H         LINE#         52
  C:C3DCH         LINE#         53
  -------         ENDPROC       _CLEARAUTODETECTSTD
  C:B5C4H         SYMBOL        L?0037
  -------         PROC          DETECTDECODERINPUT
  -------         DO            
  X:0021H         SYMBOL        std
  X:0022H         SYMBOL        val
  -------         ENDDO         
  C:B579H         LINE#         87
  C:B579H         LINE#         88
  C:B579H         LINE#         93
  C:B57EH         LINE#         94
  C:B584H         LINE#         95
  C:B589H         LINE#         96
  C:B58BH         LINE#         97
  C:B58BH         LINE#         99
  C:B590H         LINE#         100
  C:B595H         LINE#         104
  C:B598H         LINE#         105
  C:B59DH         LINE#         106
  C:B59FH         LINE#         107
  C:B59FH         LINE#         108
  C:B5A8H         LINE#         109
  C:B5AEH         LINE#         110
  C:B5B5H         LINE#         111
  C:B5B5H         LINE#         112
  C:B5C1H         LINE#         125
  C:B5C3H         LINE#         126
  -------         ENDPROC       DETECTDECODERINPUT
  -------         PROC          COMPOSITE1INPUT
  C:C55FH         LINE#         133
  C:C55FH         LINE#         134
  C:C55FH         LINE#         135
  C:C568H         LINE#         136
  -------         ENDPROC       COMPOSITE1INPUT
  -------         PROC          COMPOSITE2INPUT
  C:C290H         LINE#         139
  C:C290H         LINE#         140
  C:C290H         LINE#         141
  C:C299H         LINE#         142
  C:C29FH         LINE#         143
  -------         ENDPROC       COMPOSITE2INPUT
  -------         PROC          COMPOSITE3INPUT
  C:C2B1H         LINE#         146
  C:C2B1H         LINE#         147
  C:C2B1H         LINE#         148
  C:C2BAH         LINE#         149
  C:C2C0H         LINE#         150
  -------         ENDPROC       COMPOSITE3INPUT
  -------         PROC          GETLCDPOWERSTATE
  -------         DO            
  D:0007H         SYMBOL        val
BL51 BANKED LINKER/LOCATER V5.03                                                      05/28/2012  11:22:31  PAGE 136


  -------         ENDDO         
  C:C56EH         LINE#         231
  C:C56EH         LINE#         232
  C:C56EH         LINE#         235
  C:C575H         LINE#         236
  C:C578H         LINE#         237
  C:C57CH         LINE#         238
  C:C57CH         LINE#         239
  -------         ENDPROC       GETLCDPOWERSTATE
  -------         PROC          ON_LVDS
  C:0012H         LINE#         323
  C:0012H         LINE#         324
  C:0012H         LINE#         334
  -------         ENDPROC       ON_LVDS
  -------         PROC          OFF_LVDS
  C:0029H         LINE#         336
  C:0029H         LINE#         337
  C:0029H         LINE#         348
  -------         ENDPROC       OFF_LVDS
  C:AEA9H         SYMBOL        L?0035
  -------         PROC          _LCDPOWERON
  X:0000H         SYMBOL        mute
  C:AE42H         LINE#         350
  C:AE42H         LINE#         351
  C:AE42H         LINE#         352
  C:AE42H         LINE#         353
  C:AE54H         LINE#         355
  C:AE59H         LINE#         358
  C:AE5FH         LINE#         359
  C:AE5FH         LINE#         361
  C:AE62H         LINE#         363
  C:AE65H         LINE#         365
  C:AE6AH         LINE#         367
  C:AE6CH         LINE#         368
  C:AE6FH         LINE#         370
  C:AE71H         LINE#         377
  C:AE74H         LINE#         378
  C:AE77H         LINE#         382
  C:AE80H         LINE#         410
  C:AE85H         LINE#         416
  C:AE8CH         LINE#         417
  C:AE8FH         LINE#         418
  C:AE98H         LINE#         419
  C:AE9FH         LINE#         420
  C:AEA8H         LINE#         421
  C:AEA8H         LINE#         424
  -------         ENDPROC       _LCDPOWERON
  C:BF7EH         SYMBOL        L?0036
  -------         PROC          LCDPOWEROFF
  C:BF5AH         LINE#         440
  C:BF5AH         LINE#         441
  C:BF5AH         LINE#         448
  C:BF5CH         LINE#         449
  C:BF5FH         LINE#         450
  C:BF61H         LINE#         451
  C:BF64H         LINE#         452
  C:BF6DH         LINE#         454
BL51 BANKED LINKER/LOCATER V5.03                                                      05/28/2012  11:22:31  PAGE 137


  C:BF70H         LINE#         467
  C:BF73H         LINE#         468
  C:BF7AH         LINE#         469
  C:BF7DH         LINE#         473
  -------         ENDPROC       LCDPOWEROFF
  -------         PROC          _MAPPING1
  X:002DH         SYMBOL        fromValue
  X:002FH         SYMBOL        fromRange
  X:0032H         SYMBOL        toValue
  X:0035H         SYMBOL        toRange
  -------         DO            
  X:0038H         SYMBOL        a
  X:003AH         SYMBOL        b
  -------         ENDDO         
  C:A376H         LINE#         1720
  C:A382H         LINE#         1721
  C:A382H         LINE#         1728
  C:A394H         LINE#         1729
  C:A3A8H         LINE#         1730
  C:A3BAH         LINE#         1732
  C:A3C1H         LINE#         1734
  C:A3D1H         LINE#         1735
  C:A3D4H         LINE#         1736
  C:A3D4H         LINE#         1737
  C:A3DDH         LINE#         1738
  C:A3E3H         LINE#         1740
  C:A3EAH         LINE#         1742
  C:A418H         LINE#         1743
  C:A418H         LINE#         1750
  C:A41AH         LINE#         1752
  -------         ENDPROC       _MAPPING1
  -------         ENDMOD        TW88

  -------         MODULE        UDFONT
  C:0000H         SYMBOL        _ICE_DUMMY_
  C:18BEH         PUBLIC        OSD_Color_LookUp_Data_Table
  C:18CEH         PUBLIC        RAMFONTDATA
  -------         ENDMOD        UDFONT

  -------         MODULE        HS_KEYREMO
  C:0000H         SYMBOL        _ICE_DUMMY_
  D:00E8H         PUBLIC        P4
  C:8AD8H         PUBLIC        JumpTable
  C:B753H         PUBLIC        _SetSourceMode
  B:0022H.1       PUBLIC        ParkFlag
  B:0080H.0       PUBLIC        P0_0
  B:0080H.1       PUBLIC        P0_1
  B:0080H.2       PUBLIC        P0_2
  B:0080H.3       PUBLIC        P0_3
  B:0022H.2       PUBLIC        AVFlag
  B:0080H.4       PUBLIC        P0_4
  B:0080H.5       PUBLIC        P0_5
  X:00EAH         PUBLIC        SelectBoxMode
  C:ACE0H         PUBLIC        SetSelectMode
  D:00C6H         PUBLIC        ADCV
  C:C452H         PUBLIC        SetRightSource
  C:BA11H         PUBLIC        SetRearSource
BL51 BANKED LINKER/LOCATER V5.03                                                      05/28/2012  11:22:31  PAGE 138


  X:00EBH         PUBLIC        TimeStep
  C:C0CCH         PUBLIC        SetLeftSource
  C:9E28H         PUBLIC        CheckTrigger
  X:00ECH         PUBLIC        Attr_A
  X:00EDH         PUBLIC        Attr_B
  C:C46CH         PUBLIC        SetTriggerCSource
  X:00EEH         PUBLIC        Attr_C
  X:00EFH         PUBLIC        NowModeState
  X:00F0H         PUBLIC        Attr_R
  C:7958H         PUBLIC        SelectBoxHandler
  C:B8B9H         PUBLIC        SetJumpMode
  B:0022H.3       PUBLIC        VGAAudio
  C:8B01H         PUBLIC        SEQTable
  X:00F1H         PUBLIC        TriggerFlag
  X:00F2H         PUBLIC        SelectBoxADC
  X:00F3H         PUBLIC        TriggerMode
  X:00F4H         PUBLIC        SEQIndex
  X:00F5H         PUBLIC        SEQFlag
  C:8AFAH         PUBLIC        TriggerC_Table
  D:00C5H         PUBLIC        ADCTL
  C:B9CDH         PUBLIC        SetNowMode
  C:8AF3H         PUBLIC        RightTable
  C:C2F2H         PUBLIC        SEQMode
  C:8AE7H         PUBLIC        RearTable
  C:8AECH         PUBLIC        LeftTable
  C:8AB9H         PUBLIC        ParkTable
  C:759EH         PUBLIC        _TriggerHandler
  C:ABEBH         SYMBOL        Com009A
  C:ABEBH         SYMBOL        L?0155
  C:ABEFH         SYMBOL        L?0156
  C:ABF0H         SYMBOL        L?0157
  C:ABF1H         SYMBOL        L?0158
  C:AC08H         SYMBOL        L?0159
  C:AC17H         SYMBOL        L?0160
  C:AC29H         SYMBOL        L?0161
  C:AC31H         SYMBOL        L?0166
  C:AC34H         SYMBOL        L?0167
  C:AC35H         SYMBOL        L?0168
  C:AC3CH         SYMBOL        L?0169
  C:AC44H         SYMBOL        L?0171
  C:AC44H         SYMBOL        L?0172
  C:AC4BH         SYMBOL        L?0175
  C:AC55H         SYMBOL        L?0176
  C:AC5FH         SYMBOL        L?0177
  C:AC5FH         SYMBOL        L?0178
  -------         PROC          COM009A
  -------         ENDPROC       COM009A
  -------         PROC          _SETSOURCEMODE
  D:0007H         SYMBOL        Index
  D:0005H         SYMBOL        attr0
  D:0003H         SYMBOL        attr1
  X:0019H         SYMBOL        attr2
  X:001AH         SYMBOL        attr3
  C:B753H         LINE#         128
  C:B753H         LINE#         129
  C:B753H         LINE#         131
  C:B765H         LINE#         132
BL51 BANKED LINKER/LOCATER V5.03                                                      05/28/2012  11:22:31  PAGE 139


  C:B765H         LINE#         133
  C:B765H         LINE#         134
  C:B765H         LINE#         135
  C:B765H         LINE#         136
  C:B765H         LINE#         137
  C:B765H         LINE#         138
  C:B765H         LINE#         139
  C:B765H         LINE#         140
  C:B765H         LINE#         141
  C:B765H         LINE#         142
  C:B765H         LINE#         143
  C:B765H         LINE#         144
  C:B765H         LINE#         145
  C:B765H         LINE#         146
  C:B765H         LINE#         147
  C:B765H         LINE#         148
  C:B765H         LINE#         149
  C:B765H         LINE#         150
  C:B765H         LINE#         151
  C:B765H         LINE#         152
  C:B765H         LINE#         153
  C:B765H         LINE#         154
  C:B765H         LINE#         155
  C:B765H         LINE#         156
  C:B765H         LINE#         157
  C:B765H         LINE#         158
  C:B765H         LINE#         159
  C:B765H         LINE#         160
  C:B765H         LINE#         162
  C:B77EH         LINE#         163
  C:B780H         LINE#         167
  C:B782H         LINE#         176
  C:B782H         LINE#         177
  C:B784H         LINE#         181
  C:B786H         LINE#         182
  C:B786H         LINE#         183
  C:B78BH         LINE#         187
  C:B78BH         LINE#         188
  C:B78BH         LINE#         189
  C:B790H         LINE#         190
  C:B793H         LINE#         191
  C:B79BH         LINE#         192
  C:B79BH         LINE#         193
  C:B79BH         LINE#         194
  -------         ENDPROC       _SETSOURCEMODE
  -------         PROC          SETSELECTMODE
  -------         DO            
  X:0007H         SYMBOL        Maxsource
  -------         ENDDO         
  C:ACE0H         LINE#         197
  C:ACE0H         LINE#         198
  C:ACE0H         LINE#         201
  C:ACE9H         LINE#         202
  C:ACEEH         LINE#         204
  C:ACF1H         LINE#         206
  C:ACF6H         LINE#         207
  C:ACF6H         LINE#         208
BL51 BANKED LINKER/LOCATER V5.03                                                      05/28/2012  11:22:31  PAGE 140


  C:ACFCH         LINE#         230
  C:ACFFH         LINE#         231
  C:ACFFH         LINE#         232
  C:AD02H         LINE#         233
  C:AD02H         LINE#         234
  C:AD07H         LINE#         235
  C:AD09H         LINE#         236
  C:AD0BH         LINE#         238
  C:AD0BH         LINE#         239
  C:AD13H         LINE#         240
  C:AD17H         LINE#         241
  C:AD1DH         LINE#         242
  C:AD21H         LINE#         259
  C:AD21H         LINE#         260
  C:AD28H         LINE#         261
  C:AD2DH         LINE#         263
  C:AD33H         LINE#         264
  C:AD33H         LINE#         268
  C:AD3DH         LINE#         269
  C:AD4AH         LINE#         270
  C:AD51H         LINE#         271
  -------         ENDPROC       SETSELECTMODE
  -------         PROC          SEQMODE
  C:C2F2H         LINE#         278
  C:C2F2H         LINE#         279
  C:C2F2H         LINE#         281
  C:C2FFH         LINE#         282
  C:C308H         LINE#         283
  C:C30CH         LINE#         285
  C:C311H         LINE#         286
  -------         ENDPROC       SEQMODE
  -------         PROC          SETJUMPMODE
  -------         DO            
  X:0007H         SYMBOL        val
  -------         ENDDO         
  C:B8B9H         LINE#         287
  C:B8B9H         LINE#         288
  C:B8B9H         LINE#         291
  C:B8C1H         LINE#         292
  C:B8C1H         LINE#         294
  C:B8CCH         LINE#         295
  C:B8D1H         LINE#         296
  C:B8D7H         LINE#         298
  C:B8DEH         LINE#         299
  C:B8E6H         LINE#         300
  C:B8E8H         LINE#         302
  C:B8E8H         LINE#         304
  C:B8E9H         LINE#         306
  C:B8EFH         LINE#         308
  C:B8F9H         LINE#         309
  C:B8F9H         LINE#         310
  -------         ENDPROC       SETJUMPMODE
  -------         PROC          SETNOWMODE
  -------         DO            
  X:0015H         SYMBOL        val
  -------         ENDDO         
  C:B9CDH         LINE#         313
BL51 BANKED LINKER/LOCATER V5.03                                                      05/28/2012  11:22:31  PAGE 141


  C:B9CDH         LINE#         314
  C:B9CDH         LINE#         317
  C:B9D3H         LINE#         318
  C:B9D3H         LINE#         319
  C:B9D9H         LINE#         320
  C:B9E3H         LINE#         321
  C:B9E8H         LINE#         322
  C:B9E9H         LINE#         324
  C:B9E9H         LINE#         325
  C:B9F5H         LINE#         326
  C:B9FAH         LINE#         327
  C:BA00H         LINE#         329
  C:BA07H         LINE#         330
  C:BA10H         LINE#         331
  C:BA10H         LINE#         333
  -------         ENDPROC       SETNOWMODE
  C:BA4EH         SYMBOL        L?0179
  -------         PROC          SETREARSOURCE
  -------         DO            
  D:0007H         SYMBOL        rev
  -------         ENDDO         
  C:BA11H         LINE#         334
  C:BA11H         LINE#         335
  C:BA11H         LINE#         337
  C:BA13H         LINE#         338
  C:BA3AH         LINE#         339
  C:BA4AH         LINE#         340
  C:BA4DH         LINE#         342
  -------         ENDPROC       SETREARSOURCE
  -------         PROC          SETLEFTSOURCE
  -------         DO            
  D:0007H         SYMBOL        rev
  -------         ENDDO         
  C:C0CCH         LINE#         344
  C:C0CCH         LINE#         345
  C:C0CCH         LINE#         348
  C:C0D3H         LINE#         352
  -------         ENDPROC       SETLEFTSOURCE
  -------         PROC          SETRIGHTSOURCE
  -------         DO            
  D:0007H         SYMBOL        rev
  -------         ENDDO         
  C:C452H         LINE#         355
  C:C452H         LINE#         356
  C:C452H         LINE#         359
  C:C459H         LINE#         363
  -------         ENDPROC       SETRIGHTSOURCE
  -------         PROC          SETTRIGGERCSOURCE
  -------         DO            
  D:0007H         SYMBOL        rev
  -------         ENDDO         
  C:C46CH         LINE#         366
  C:C46CH         LINE#         367
  C:C46CH         LINE#         369
  C:C473H         LINE#         371
  -------         ENDPROC       SETTRIGGERCSOURCE
  C:9EC1H         SYMBOL        L?0165
BL51 BANKED LINKER/LOCATER V5.03                                                      05/28/2012  11:22:31  PAGE 142


  C:9EC9H         SYMBOL        L?0173
  C:9ED1H         SYMBOL        L?0174
  -------         PROC          CHECKTRIGGER
  C:9E28H         LINE#         377
  C:9E28H         LINE#         378
  C:9E28H         LINE#         379
  C:9E2DH         LINE#         381
  C:9E2FH         LINE#         382
  C:9E32H         LINE#         383
  C:9E32H         LINE#         384
  C:9E3DH         LINE#         385
  C:9E40H         LINE#         386
  C:9E43H         LINE#         387
  C:9E4AH         LINE#         388
  C:9E4AH         LINE#         390
  C:9E4CH         LINE#         391
  C:9E4FH         LINE#         392
  C:9E4FH         LINE#         393
  C:9E52H         LINE#         394
  C:9E55H         LINE#         395
  C:9E5CH         LINE#         396
  C:9E5CH         LINE#         398
  C:9E5EH         LINE#         399
  C:9E61H         LINE#         400
  C:9E61H         LINE#         401
  C:9E64H         LINE#         402
  C:9E67H         LINE#         403
  C:9E6EH         LINE#         404
  C:9E6EH         LINE#         406
  C:9E70H         LINE#         407
  C:9E73H         LINE#         408
  C:9E73H         LINE#         409
  C:9E76H         LINE#         410
  C:9E79H         LINE#         411
  C:9E7BH         LINE#         412
  C:9E7DH         LINE#         414
  C:9E7FH         LINE#         424
  C:9E81H         LINE#         425
  C:9E84H         LINE#         426
  C:9E84H         LINE#         427
  C:9E8BH         LINE#         428
  C:9E8EH         LINE#         429
  C:9E95H         LINE#         430
  C:9E95H         LINE#         432
  C:9E97H         LINE#         433
  C:9E9AH         LINE#         434
  C:9E9AH         LINE#         435
  C:9EA1H         LINE#         436
  C:9EA4H         LINE#         437
  C:9EABH         LINE#         438
  C:9EABH         LINE#         439
  C:9EB2H         LINE#         440
  C:9EBBH         LINE#         441
  C:9EC0H         LINE#         442
  -------         ENDPROC       CHECKTRIGGER
  C:776DH         SYMBOL        L?0164
  C:777EH         SYMBOL        L?0180
BL51 BANKED LINKER/LOCATER V5.03                                                      05/28/2012  11:22:31  PAGE 143


  -------         PROC          _TRIGGERHANDLER
  X:0006H         SYMBOL        T_Flag
  -------         DO            
  X:0007H         SYMBOL        i
  X:0008H         SYMBOL        j
  D:0006H         SYMBOL        ReverseMask
  X:0009H         SYMBOL        LeftMask
  X:000AH         SYMBOL        RightMask
  X:000BH         SYMBOL        CamCMask
  X:000CH         SYMBOL        CamDMask
  X:000DH         SYMBOL        VGAMask
  X:000EH         SYMBOL        delaytrigger
  -------         ENDDO         
  C:759EH         LINE#         444
  C:75A3H         LINE#         445
  C:75A3H         LINE#         452
  C:75A5H         LINE#         453
  C:75ABH         LINE#         454
  C:75AFH         LINE#         455
  C:75B3H         LINE#         456
  C:75B7H         LINE#         457
  C:75BBH         LINE#         469
  C:75C2H         LINE#         470
  C:75C2H         LINE#         471
  C:75CDH         LINE#         472
  C:75CDH         LINE#         473
  C:75D7H         LINE#         474
  C:75DDH         LINE#         475
  C:75E0H         LINE#         476
  C:75E5H         LINE#         477
  C:75E5H         LINE#         478
  C:75E8H         LINE#         480
  C:75E8H         LINE#         482
  C:75F9H         LINE#         483
  C:75F9H         LINE#         484
  C:7604H         LINE#         485
  C:7604H         LINE#         486
  C:760BH         LINE#         487
  C:760BH         LINE#         488
  C:7611H         LINE#         489
  C:7614H         LINE#         490
  C:7619H         LINE#         491
  C:7619H         LINE#         492
  C:761CH         LINE#         494
  C:761CH         LINE#         495
  C:762DH         LINE#         496
  C:762DH         LINE#         497
  C:7638H         LINE#         498
  C:7638H         LINE#         499
  C:763CH         LINE#         500
  C:763CH         LINE#         501
  C:7642H         LINE#         502
  C:7645H         LINE#         503
  C:764AH         LINE#         504
  C:764AH         LINE#         505
  C:764CH         LINE#         507
  C:764CH         LINE#         510
BL51 BANKED LINKER/LOCATER V5.03                                                      05/28/2012  11:22:31  PAGE 144


  C:765DH         LINE#         511
  C:765DH         LINE#         512
  C:7668H         LINE#         513
  C:7668H         LINE#         514
  C:766CH         LINE#         515
  C:766CH         LINE#         516
  C:7671H         LINE#         517
  C:7677H         LINE#         518
  C:767AH         LINE#         520
  C:7680H         LINE#         521
  C:7685H         LINE#         522
  C:7685H         LINE#         524
  C:7685H         LINE#         526
  C:7696H         LINE#         527
  C:7696H         LINE#         528
  C:76A1H         LINE#         529
  C:76A1H         LINE#         530
  C:76A8H         LINE#         531
  C:76A8H         LINE#         532
  C:76AEH         LINE#         533
  C:76B6H         LINE#         534
  C:76B6H         LINE#         536
  C:76B6H         LINE#         556
  C:76C1H         LINE#         557
  C:76C1H         LINE#         558
  C:76CBH         LINE#         559
  C:76D1H         LINE#         560
  C:76D1H         LINE#         561
  C:76E6H         LINE#         562
  C:76E6H         LINE#         563
  C:76E6H         LINE#         564
  C:76E8H         LINE#         565
  C:76EAH         LINE#         567
  C:76EAH         LINE#         568
  C:76ECH         LINE#         569
  C:76EEH         LINE#         571
  C:76EEH         LINE#         572
  C:76F0H         LINE#         573
  C:76F2H         LINE#         575
  C:76F2H         LINE#         576
  C:76F4H         LINE#         577
  C:76F6H         LINE#         579
  C:76F6H         LINE#         580
  C:7702H         LINE#         581
  C:7704H         LINE#         583
  C:7704H         LINE#         584
  C:7704H         LINE#         585
  C:7704H         LINE#         586
  C:7704H         LINE#         587
  C:7709H         LINE#         588
  C:7709H         LINE#         590
  C:7709H         LINE#         592
  C:771BH         LINE#         593
  C:771BH         LINE#         594
  C:7720H         LINE#         595
  C:7720H         LINE#         596
  C:7723H         LINE#         597
BL51 BANKED LINKER/LOCATER V5.03                                                      05/28/2012  11:22:31  PAGE 145


  C:7729H         LINE#         599
  C:7730H         LINE#         600
  C:773CH         LINE#         601
  C:7744H         LINE#         602
  C:7744H         LINE#         603
  C:774AH         LINE#         604
  C:774DH         LINE#         605
  C:7750H         LINE#         610
  C:7753H         LINE#         611
  C:7753H         LINE#         613
  C:7756H         LINE#         614
  C:7756H         LINE#         615
  C:7758H         LINE#         616
  C:775EH         LINE#         617
  C:775EH         LINE#         618
  C:7769H         LINE#         619
  C:776CH         LINE#         620
  C:776CH         LINE#         621
  C:776CH         LINE#         625
  -------         ENDPROC       _TRIGGERHANDLER
  C:7B00H         SYMBOL        L?0162
  C:7B0BH         SYMBOL        L?0163
  C:7B1CH         SYMBOL        L?0170
  -------         PROC          SELECTBOXHANDLER
  -------         DO            
  X:0006H         SYMBOL        val
  -------         ENDDO         
  C:7958H         LINE#         628
  C:7958H         LINE#         629
  C:7958H         LINE#         634
  C:795BH         LINE#         635
  C:7963H         LINE#         636
  C:796AH         LINE#         637
  C:7970H         LINE#         642
  C:7975H         LINE#         645
  C:797AH         LINE#         646
  C:797AH         LINE#         647
  C:7985H         LINE#         648
  C:7985H         LINE#         649
  C:798CH         LINE#         650
  C:7992H         LINE#         652
  C:7997H         LINE#         653
  C:799EH         LINE#         654
  C:799FH         LINE#         656
  C:799FH         LINE#         659
  C:79ABH         LINE#         660
  C:79ABH         LINE#         661
  C:79B6H         LINE#         662
  C:79B6H         LINE#         663
  C:79BDH         LINE#         664
  C:79C3H         LINE#         666
  C:79C6H         LINE#         667
  C:79CBH         LINE#         668
  C:79CBH         LINE#         669
  C:79CEH         LINE#         671
  C:79CEH         LINE#         674
  C:79DAH         LINE#         675
BL51 BANKED LINKER/LOCATER V5.03                                                      05/28/2012  11:22:31  PAGE 146


  C:79DAH         LINE#         676
  C:79E5H         LINE#         677
  C:79E5H         LINE#         678
  C:79E9H         LINE#         679
  C:79E9H         LINE#         680
  C:79EFH         LINE#         682
  C:79F2H         LINE#         683
  C:79F7H         LINE#         684
  C:79F7H         LINE#         685
  C:79F9H         LINE#         687
  C:79F9H         LINE#         690
  C:7A05H         LINE#         691
  C:7A05H         LINE#         692
  C:7A10H         LINE#         693
  C:7A10H         LINE#         694
  C:7A14H         LINE#         695
  C:7A14H         LINE#         696
  C:7A1AH         LINE#         698
  C:7A1DH         LINE#         699
  C:7A22H         LINE#         700
  C:7A22H         LINE#         701
  C:7A24H         LINE#         703
  C:7A24H         LINE#         706
  C:7A30H         LINE#         707
  C:7A30H         LINE#         708
  C:7A3BH         LINE#         709
  C:7A3BH         LINE#         710
  C:7A42H         LINE#         711
  C:7A45H         LINE#         712
  C:7A4AH         LINE#         714
  C:7A50H         LINE#         715
  C:7A53H         LINE#         716
  C:7A59H         LINE#         717
  C:7A5EH         LINE#         718
  C:7A5EH         LINE#         720
  C:7A5EH         LINE#         722
  C:7A6AH         LINE#         723
  C:7A6AH         LINE#         724
  C:7A75H         LINE#         725
  C:7A75H         LINE#         726
  C:7A7CH         LINE#         727
  C:7A7FH         LINE#         728
  C:7A85H         LINE#         730
  C:7A91H         LINE#         731
  C:7A96H         LINE#         732
  C:7A9CH         LINE#         734
  C:7AA3H         LINE#         736
  C:7AACH         LINE#         740
  C:7AACH         LINE#         742
  C:7AACH         LINE#         746
  C:7AB5H         LINE#         747
  C:7AB5H         LINE#         748
  C:7ABBH         LINE#         749
  C:7ABBH         LINE#         750
  C:7AC9H         LINE#         797
  C:7AD1H         LINE#         798
  C:7AD1H         LINE#         800
BL51 BANKED LINKER/LOCATER V5.03                                                      05/28/2012  11:22:31  PAGE 147


  C:7AD7H         LINE#         801
  C:7AD7H         LINE#         802
  C:7AE2H         LINE#         803
  C:7AE5H         LINE#         804
  C:7AE8H         LINE#         805
  C:7AEBH         LINE#         806
  C:7AEDH         LINE#         808
  C:7AF3H         LINE#         809
  C:7AF3H         LINE#         810
  C:7AFAH         LINE#         811
  C:7AFFH         LINE#         813
  C:7AFFH         LINE#         814
  C:7AFFH         LINE#         816
  -------         ENDPROC       SELECTBOXHANDLER
  -------         ENDMOD        HS_KEYREMO

  -------         MODULE        HS_DISPLAYOSD
  C:0000H         SYMBOL        _ICE_DUMMY_
  C:C57DH         PUBLIC        ClearGAUGEINFO
  C:78D9H         PUBLIC        GaugeString1
  C:78DDH         PUBLIC        GaugeString2
  C:78E1H         PUBLIC        GaugeString3
  C:78E5H         PUBLIC        GaugeString4
  C:78E9H         PUBLIC        GaugeString5
  C:7902H         PUBLIC        GaugeString6
  C:8616H         PUBLIC        _DisplayNumber
  C:97E7H         PUBLIC        DisplayGaugeOSD
  C:791FH         PUBLIC        Init_Osd_DisplayGAUGEWindow
  C:7932H         SYMBOL        _?ix1000
  C:7938H         SYMBOL        _?ix1001
  C:793EH         SYMBOL        _?ix1002
  C:7944H         SYMBOL        _?ix1003
  C:7946H         SYMBOL        _?ix1004
  C:6D97H         PUBLIC        _DisplayInformation
  C:73AFH         PUBLIC        DisplayDVRStatus
  C:9F88H         PUBLIC        DisplayFWVersion
  B:0023H.2       PUBLIC        Init_DisplayInput
  C:78C2H         PUBLIC        GaugeString
  C:A4BFH         SYMBOL        Com005E
  C:A4BFH         SYMBOL        L?0095
  C:A4C2H         SYMBOL        L?0096
  C:A4D6H         SYMBOL        L?0097
  C:A4DFH         SYMBOL        L?0098
  C:A4E8H         SYMBOL        L?0103
  C:A4ECH         SYMBOL        L?0104
  C:A4EEH         SYMBOL        L?0105
  C:A4F5H         SYMBOL        L?0107
  C:A4F7H         SYMBOL        L?0108
  C:A4FEH         SYMBOL        L?0110
  C:A501H         SYMBOL        L?0111
  C:A50DH         SYMBOL        L?0112
  C:A519H         SYMBOL        L?0114
  C:A51DH         SYMBOL        L?0115
  C:A51FH         SYMBOL        L?0116
  C:A526H         SYMBOL        L?0119
  C:A52AH         SYMBOL        L?0120
  C:A531H         SYMBOL        L?0122
BL51 BANKED LINKER/LOCATER V5.03                                                      05/28/2012  11:22:31  PAGE 148


  C:A538H         SYMBOL        L?0125
  C:A53FH         SYMBOL        L?0126
  C:A53FH         SYMBOL        L?0127
  C:A546H         SYMBOL        L?0128
  C:A546H         SYMBOL        L?0129
  C:A54EH         SYMBOL        L?0131
  C:A54EH         SYMBOL        L?0132
  C:A555H         SYMBOL        L?0133
  -------         PROC          COM005E
  -------         ENDPROC       COM005E
  -------         PROC          DISPLAYGAUGEOSD
  -------         DO            
  X:000FH         SYMBOL        i
  -------         ENDDO         
  C:97E7H         LINE#         81
  C:97E7H         LINE#         82
  C:97E7H         LINE#         85
  C:97EAH         LINE#         86
  C:97F0H         LINE#         87
  C:97F8H         LINE#         88
  C:9801H         LINE#         91
  C:9824H         LINE#         93
  C:982EH         LINE#         94
  C:983EH         LINE#         95
  C:984EH         LINE#         97
  C:9859H         LINE#         98
  C:9863H         LINE#         99
  C:9871H         LINE#         100
  C:9881H         LINE#         102
  C:988CH         LINE#         103
  C:9896H         LINE#         104
  C:98A6H         LINE#         107
  C:98ABH         LINE#         109
  C:98B2H         LINE#         110
  C:98B7H         LINE#         111
  -------         ENDPROC       DISPLAYGAUGEOSD
  -------         PROC          CLEARGAUGEINFO
  C:C57DH         LINE#         116
  C:C57DH         LINE#         117
  C:C57DH         LINE#         118
  C:C584H         LINE#         119
  C:C58BH         LINE#         120
  -------         ENDPROC       CLEARGAUGEINFO
  C:8746H         SYMBOL        L?0113
  -------         PROC          _DISPLAYNUMBER
  X:0007H         SYMBOL        addr
  X:0008H         SYMBOL        val
  X:000AH         SYMBOL        type
  -------         DO            
  X:000BH         SYMBOL        Bar_str
  X:0011H         SYMBOL        Bar_str_AC
  X:0017H         SYMBOL        Bar_str_Battery
  X:001DH         SYMBOL        Num_str
  -------         ENDDO         
  C:8616H         LINE#         126
  C:8624H         LINE#         127
  C:8624H         LINE#         135
BL51 BANKED LINKER/LOCATER V5.03                                                      05/28/2012  11:22:31  PAGE 149


  C:862FH         LINE#         136
  C:863AH         LINE#         137
  C:8649H         LINE#         138
  C:8656H         LINE#         143
  C:8671H         LINE#         144
  C:8671H         LINE#         146
  C:8671H         LINE#         150
  C:8677H         LINE#         151
  C:867DH         LINE#         152
  C:868CH         LINE#         153
  C:8694H         LINE#         154
  C:869AH         LINE#         155
  C:86ACH         LINE#         157
  C:86ACH         LINE#         158
  C:86B5H         LINE#         161
  C:86B8H         LINE#         163
  C:86B8H         LINE#         165
  C:86C1H         LINE#         166
  C:86CAH         LINE#         167
  C:86D0H         LINE#         168
  C:86D7H         LINE#         170
  C:86D7H         LINE#         171
  C:86E0H         LINE#         174
  C:86E3H         LINE#         176
  C:86E3H         LINE#         180
  C:86ECH         LINE#         181
  C:86F5H         LINE#         182
  C:86FBH         LINE#         183
  C:8703H         LINE#         184
  C:8709H         LINE#         187
  C:8713H         LINE#         188
  C:8721H         LINE#         190
  C:8723H         LINE#         193
  C:8723H         LINE#         196
  C:872CH         LINE#         197
  C:8733H         LINE#         201
  C:8745H         LINE#         203
  C:8745H         LINE#         208
  C:8745H         LINE#         209
  -------         ENDPROC       _DISPLAYNUMBER
  C:6F38H         SYMBOL        L?0099
  C:6F45H         SYMBOL        L?0100
  C:6F52H         SYMBOL        L?0101
  C:6F5FH         SYMBOL        L?0102
  C:6F6CH         SYMBOL        L?0106
  C:6F79H         SYMBOL        L?0109
  C:6F86H         SYMBOL        L?0117
  C:6F93H         SYMBOL        L?0121
  C:6F9EH         SYMBOL        L?0124
  -------         PROC          _DISPLAYINFORMATION
  X:000CH         SYMBOL        info
  C:6D97H         LINE#         213
  C:6D9CH         LINE#         214
  C:6D9CH         LINE#         216
  C:6DA2H         LINE#         218
  C:6DA5H         LINE#         219
  C:6DADH         LINE#         223
BL51 BANKED LINKER/LOCATER V5.03                                                      05/28/2012  11:22:31  PAGE 150


  C:6DF1H         LINE#         224
  C:6DF1H         LINE#         225
  C:6DF1H         LINE#         226
  C:6DF1H         LINE#         227
  C:6DF8H         LINE#         228
  C:6DFAH         LINE#         230
  C:6DFAH         LINE#         231
  C:6DFAH         LINE#         232
  C:6E06H         LINE#         233
  C:6E09H         LINE#         235
  C:6E09H         LINE#         236
  C:6E09H         LINE#         237
  C:6E10H         LINE#         238
  C:6E12H         LINE#         240
  C:6E12H         LINE#         241
  C:6E12H         LINE#         242
  C:6E19H         LINE#         243
  C:6E1BH         LINE#         245
  C:6E1BH         LINE#         246
  C:6E1BH         LINE#         247
  C:6E27H         LINE#         248
  C:6E29H         LINE#         250
  C:6E29H         LINE#         251
  C:6E29H         LINE#         252
  C:6E35H         LINE#         253
  C:6E38H         LINE#         255
  C:6E38H         LINE#         256
  C:6E38H         LINE#         257
  C:6E47H         LINE#         258
  C:6E4AH         LINE#         260
  C:6E4AH         LINE#         261
  C:6E4AH         LINE#         262
  C:6E59H         LINE#         263
  C:6E5CH         LINE#         265
  C:6E5CH         LINE#         266
  C:6E5CH         LINE#         267
  C:6E6BH         LINE#         268
  C:6E6EH         LINE#         270
  C:6E6EH         LINE#         271
  C:6E6EH         LINE#         272
  C:6E7DH         LINE#         273
  C:6E80H         LINE#         275
  C:6E80H         LINE#         276
  C:6E80H         LINE#         277
  C:6E8FH         LINE#         278
  C:6E92H         LINE#         280
  C:6E92H         LINE#         281
  C:6E92H         LINE#         282
  C:6EA1H         LINE#         283
  C:6EA4H         LINE#         285
  C:6EA4H         LINE#         286
  C:6EA7H         LINE#         287
  C:6EB2H         LINE#         288
  C:6EB5H         LINE#         290
  C:6EB5H         LINE#         291
  C:6EB5H         LINE#         292
  C:6EC4H         LINE#         293
BL51 BANKED LINKER/LOCATER V5.03                                                      05/28/2012  11:22:31  PAGE 151


  C:6EC7H         LINE#         295
  C:6EC7H         LINE#         296
  C:6EC7H         LINE#         297
  C:6ED6H         LINE#         298
  C:6ED8H         LINE#         300
  C:6ED8H         LINE#         301
  C:6EDBH         LINE#         302
  C:6EE9H         LINE#         303
  C:6EEBH         LINE#         305
  C:6EEBH         LINE#         306
  C:6EEEH         LINE#         307
  C:6EF7H         LINE#         308
  C:6EF9H         LINE#         310
  C:6EF9H         LINE#         311
  C:6EFCH         LINE#         312
  C:6F07H         LINE#         313
  C:6F09H         LINE#         315
  C:6F09H         LINE#         316
  C:6F13H         LINE#         317
  C:6F26H         LINE#         318
  C:6F26H         LINE#         319
  C:6F26H         LINE#         321
  C:6F2DH         LINE#         322
  C:6F32H         LINE#         323
  C:6F38H         LINE#         324
  -------         ENDPROC       _DISPLAYINFORMATION
  -------         PROC          DISPLAYFWVERSION
  -------         DO            
  D:0007H         SYMBOL        i
  X:002CH         SYMBOL        Str_DVRVersion
  -------         ENDDO         
  C:9F88H         LINE#         326
  C:9F88H         LINE#         327
  C:9F88H         LINE#         330
  C:9F95H         LINE#         333
  C:9FA1H         LINE#         334
  C:9FA1H         LINE#         335
  C:9FB9H         LINE#         336
  C:9FBCH         LINE#         338
  C:9FBFH         LINE#         339
  C:9FC5H         LINE#         340
  C:9FCDH         LINE#         341
  C:9FD7H         LINE#         342
  C:9FE4H         LINE#         343
  C:9FF7H         LINE#         345
  C:A007H         LINE#         346
  C:A01CH         LINE#         354
  C:A021H         LINE#         355
  C:A028H         LINE#         356
  C:A02DH         LINE#         357
  -------         ENDPROC       DISPLAYFWVERSION
  C:7578H         SYMBOL        L?0118
  C:7582H         SYMBOL        L?0123
  C:758CH         SYMBOL        L?0130
  C:7594H         SYMBOL        L?0134
  -------         PROC          DISPLAYDVRSTATUS
  -------         DO            
BL51 BANKED LINKER/LOCATER V5.03                                                      05/28/2012  11:22:31  PAGE 152


  X:0006H         SYMBOL        RecordStatus
  -------         ENDDO         
  C:73AFH         LINE#         362
  C:73AFH         LINE#         363
  C:73AFH         LINE#         380
  C:73B4H         LINE#         382
  C:73B7H         LINE#         383
  C:73B7H         LINE#         384
  C:73C0H         LINE#         385
  C:73D8H         LINE#         386
  C:73DBH         LINE#         387
  C:73E4H         LINE#         388
  C:73EEH         LINE#         389
  C:73F5H         LINE#         390
  C:73F7H         LINE#         391
  C:7405H         LINE#         392
  C:7405H         LINE#         394
  C:7410H         LINE#         395
  C:741BH         LINE#         396
  C:7426H         LINE#         397
  C:742EH         LINE#         398
  C:7436H         LINE#         399
  C:7440H         LINE#         400
  C:7448H         LINE#         401
  C:7452H         LINE#         402
  C:745AH         LINE#         403
  C:7462H         LINE#         404
  C:746AH         LINE#         406
  C:7471H         LINE#         407
  C:7483H         LINE#         409
  C:748CH         LINE#         416
  C:7493H         LINE#         417
  C:7493H         LINE#         419
  C:749AH         LINE#         420
  C:749AH         LINE#         422
  C:749FH         LINE#         423
  C:749FH         LINE#         424
  C:74A3H         LINE#         427
  C:74A5H         LINE#         429
  C:74AFH         LINE#         432
  C:74AFH         LINE#         433
  C:74B1H         LINE#         435
  C:74B1H         LINE#         436
  C:74BDH         LINE#         439
  C:74BDH         LINE#         494
  C:74BFH         LINE#         496
  C:74BFH         LINE#         497
  C:74CFH         LINE#         498
  C:74D5H         LINE#         501
  C:74D5H         LINE#         505
  C:74DEH         LINE#         506
  C:74E4H         LINE#         508
  C:74F2H         LINE#         517
  C:74FBH         LINE#         518
  C:7501H         LINE#         520
  C:750FH         LINE#         522
  C:7516H         LINE#         523
BL51 BANKED LINKER/LOCATER V5.03                                                      05/28/2012  11:22:31  PAGE 153


  C:7516H         LINE#         524
  C:751BH         LINE#         525
  C:7521H         LINE#         527
  C:7525H         LINE#         528
  C:7527H         LINE#         530
  C:7537H         LINE#         532
  C:753DH         LINE#         533
  C:754FH         LINE#         535
  C:7558H         LINE#         538
  C:7562H         LINE#         539
  C:7566H         LINE#         541
  C:756DH         LINE#         543
  C:7572H         LINE#         544
  C:7578H         LINE#         546
  -------         ENDPROC       DISPLAYDVRSTATUS
  -------         ENDMOD        HS_DISPLAYOSD

  -------         MODULE        AUDIO
  C:0000H         SYMBOL        _ICE_DUMMY_
  D:00E8H         PUBLIC        P4
  C:C4B1H         PUBLIC        AudioMute
  X:00FFH         PUBLIC        AudioVol
  X:0100H         PUBLIC        PCAudioVol
  C:9479H         PUBLIC        _ChangeVol
  -------         PROC          AUDIOMUTE
  B:0022H.4       SYMBOL        mute
  C:C4B1H         LINE#         291
  C:C4B1H         LINE#         292
  C:C4B1H         LINE#         303
  C:C4B4H         LINE#         304
  C:C4B4H         LINE#         305
  C:C4BFH         LINE#         307
  C:C4BFH         LINE#         309
  C:C4BFH         LINE#         310
  C:C4C4H         LINE#         312
  C:C4C4H         LINE#         319
  -------         ENDPROC       AUDIOMUTE
  -------         PROC          _CHANGEVOL
  D:0007H         SYMBOL        amount
  -------         DO            
  D:0006H         SYMBOL        chg
  X:001CH         SYMBOL        AudioTemp
  D:0005H         SYMBOL        AudioTemp2
  X:001DH         SYMBOL        ALC106Volume
  -------         ENDDO         
  C:9479H         LINE#         321
  C:9479H         LINE#         322
  C:9479H         LINE#         324
  C:947BH         LINE#         328
  C:947EH         LINE#         329
  C:947EH         LINE#         330
  C:9481H         LINE#         331
  C:9483H         LINE#         333
  C:9483H         LINE#         334
  C:948BH         LINE#         335
  C:948BH         LINE#         342
  C:9493H         LINE#         343
BL51 BANKED LINKER/LOCATER V5.03                                                      05/28/2012  11:22:31  PAGE 154


  C:9493H         LINE#         344
  C:94B5H         LINE#         345
  C:94B7H         LINE#         346
  C:94B9H         LINE#         348
  C:94B9H         LINE#         349
  C:94D0H         LINE#         350
  C:94D2H         LINE#         351
  C:94D2H         LINE#         353
  C:94D5H         LINE#         354
  C:94D5H         LINE#         355
  C:94DBH         LINE#         356
  C:94DBH         LINE#         361
  C:94E9H         LINE#         362
  C:94EEH         LINE#         363
  C:94F0H         LINE#         364
  C:94FCH         LINE#         365
  C:9507H         LINE#         366
  C:9512H         LINE#         367
  C:9519H         LINE#         368
  C:9531H         LINE#         370
  C:9539H         LINE#         371
  C:9539H         LINE#         372
  C:953DH         LINE#         373
  C:9540H         LINE#         374
  C:9542H         LINE#         376
  C:9542H         LINE#         377
  C:9546H         LINE#         378
  C:9549H         LINE#         379
  C:9549H         LINE#         383
  C:954CH         LINE#         384
  C:9552H         LINE#         386
  C:9557H         LINE#         388
  -------         ENDPROC       _CHANGEVOL
  -------         ENDMOD        AUDIO

  -------         MODULE        DEBUG
  C:0000H         SYMBOL        _ICE_DUMMY_
  D:00E8H         PUBLIC        P4
  -------         ENDMOD        DEBUG

  -------         MODULE        HS_DVRPROTOCOL
  C:0000H         SYMBOL        _ICE_DUMMY_
  X:0072H         PUBLIC        PresetMode
  B:0021H.0       PUBLIC        FormatStart
  X:0073H         PUBLIC        second
  X:0074H         PUBLIC        UpdateOK
  B:0021H.1       PUBLIC        SpeedDomeMode
  D:00E8H         PUBLIC        P4
  X:0075H         PUBLIC        DVR_Resolution
  X:0076H         PUBLIC        DVR_timebeginesmonth
  C:6156H         PUBLIC        _Hs_DvrTxCmdPaser
  X:0077H         PUBLIC        Information
  X:0085H         PUBLIC        DVR_timebeginesweek
  B:00B0H.2       PUBLIC        P3_2
  X:0086H         PUBLIC        minute
  B:0080H.6       PUBLIC        P0_6
  X:0087H         PUBLIC        DVR_RecordLength
BL51 BANKED LINKER/LOCATER V5.03                                                      05/28/2012  11:22:31  PAGE 155


  B:00B0H.6       PUBLIC        P3_6
  B:0021H.2       PUBLIC        DoorState
  X:0088H         PUBLIC        CommandBuffer
  X:008AH         PUBLIC        month
  X:008BH         PUBLIC        InformationLen
  C:6FA9H         PUBLIC        _CAM_TxCommand_toRS485
  B:0021H.3       PUBLIC        GetDVRStatusflag
  X:008CH         PUBLIC        DVR_daylightsaving
  X:008DH         PUBLIC        DVR_FPS
  X:008EH         PUBLIC        DVR_RecordMode
  X:008FH         PUBLIC        DVR_RecordStatus
  X:0090H         PUBLIC        DVR_Quality
  X:0091H         PUBLIC        day
  X:0092H         PUBLIC        hour
  B:0021H.4       PUBLIC        DVR_Ready
  X:0093H         PUBLIC        DVR_standardtimebeginesWeek
  X:0094H         PUBLIC        DVR_standardtimebeginesTime
  C:ADCDH         PUBLIC        Send_PelcoD_Command
  X:0095H         PUBLIC        DVR_PostAlarmLength
  X:0096H         PUBLIC        DVR_PreAlarmLength
  D:008DH         PUBLIC        TH1
  X:0097H         PUBLIC        DVR_sandardtimebeginesMonth
  X:0098H         PUBLIC        SerialNumber
  X:0099H         PUBLIC        DVR_System
  C:AB6DH         PUBLIC        Send_PelcoP_Command
  X:009AH         PUBLIC        DVRVersion
  X:00ABH         PUBLIC        TriggerStatus
  X:00ACH         PUBLIC        PresetNumber
  X:00ADH         PUBLIC        year1
  X:00AEH         PUBLIC        year2
  X:00AFH         PUBLIC        DVR_SDCardAvailable
  C:AC66H         PUBLIC        Hs_Protocol_Init
  D:00BAH         PUBLIC        S2BRT
  X:00B0H         PUBLIC        GPSState
  X:00B1H         PUBLIC        DVR_Busy
  X:00B2H         PUBLIC        DVR_timebeginesTime
  C:4C3BH         PUBLIC        DvrReceivePaser
  X:00B3H         PUBLIC        FormatStatus
  C:A690H         PUBLIC        DVRCommandReSend
  C:A8CBH         PUBLIC        _Hs_Send_DVR_Command
  X:00B4H         PUBLIC        DVRVersionLen
  X:00B5H         PUBLIC        gb_P_Com
  X:00B7H         PUBLIC        DVR_OverWrite
  X:00B8H         PUBLIC        gb_PTZ_Speed
  X:00B9H         PUBLIC        DVR_TimeZone
  C:71B5H         SYMBOL        Com0104
  C:71B5H         SYMBOL        L?0261
  C:71B5H         SYMBOL        L?0262
  C:71EDH         SYMBOL        L?0263
  C:71F8H         SYMBOL        L?0264
  C:71F8H         SYMBOL        L?0265
  C:7214H         SYMBOL        L?0266
  C:7260H         SYMBOL        L?0267
  C:7269H         SYMBOL        L?0268
  C:7269H         SYMBOL        L?0269
  C:7274H         SYMBOL        L?0270
  C:727CH         SYMBOL        L?0271
BL51 BANKED LINKER/LOCATER V5.03                                                      05/28/2012  11:22:31  PAGE 156


  C:727FH         SYMBOL        L?0272
  C:7280H         SYMBOL        L?0273
  C:728AH         SYMBOL        L?0276
  C:7292H         SYMBOL        L?0277
  C:7292H         SYMBOL        L?0278
  C:7299H         SYMBOL        L?0279
  C:72A1H         SYMBOL        L?0280
  C:72A1H         SYMBOL        L?0281
  C:72AAH         SYMBOL        L?0282
  C:72B7H         SYMBOL        L?0283
  C:72C0H         SYMBOL        L?0284
  C:72C8H         SYMBOL        L?0286
  C:72CCH         SYMBOL        L?0287
  C:72D3H         SYMBOL        L?0288
  C:72D3H         SYMBOL        L?0289
  C:72D6H         SYMBOL        L?0290
  C:72DEH         SYMBOL        L?0291
  C:72E6H         SYMBOL        L?0292
  C:72E9H         SYMBOL        L?0293
  C:72F2H         SYMBOL        L?0294
  C:72F2H         SYMBOL        L?0295
  C:72F5H         SYMBOL        L?0296
  C:72FDH         SYMBOL        L?0297
  C:7300H         SYMBOL        L?0298
  C:730BH         SYMBOL        L?0299
  C:7312H         SYMBOL        L?0300
  C:7312H         SYMBOL        L?0301
  C:731BH         SYMBOL        L?0302
  C:732CH         SYMBOL        L?0303
  C:732CH         SYMBOL        L?0304
  C:7333H         SYMBOL        L?0305
  C:7343H         SYMBOL        L?0306
  C:7352H         SYMBOL        L?0307
  C:7357H         SYMBOL        L?0308
  C:735EH         SYMBOL        L?0309
  C:7367H         SYMBOL        L?0310
  C:736BH         SYMBOL        L?0311
  C:7372H         SYMBOL        L?0312
  C:7372H         SYMBOL        L?0313
  C:737BH         SYMBOL        L?0314
  C:7382H         SYMBOL        L?0315
  C:738FH         SYMBOL        L?0316
  C:738FH         SYMBOL        L?0317
  C:7396H         SYMBOL        L?0318
  C:7396H         SYMBOL        L?0319
  C:739CH         SYMBOL        L?0320
  C:73A5H         SYMBOL        L?0321
  -------         PROC          COM0104
  -------         ENDPROC       COM0104
  -------         PROC          HS_PROTOCOL_INIT
  C:AC66H         LINE#         126
  C:AC66H         LINE#         127
  C:AC66H         LINE#         129
  C:AC6BH         LINE#         130
  C:AC6FH         LINE#         131
  C:AC71H         LINE#         132
  C:AC75H         LINE#         133
BL51 BANKED LINKER/LOCATER V5.03                                                      05/28/2012  11:22:31  PAGE 157


  C:AC79H         LINE#         134
  C:AC7BH         LINE#         135
  C:AC7FH         LINE#         136
  C:AC83H         LINE#         138
  C:AC88H         LINE#         139
  C:AC8CH         LINE#         140
  C:AC90H         LINE#         141
  C:AC94H         LINE#         142
  C:AC98H         LINE#         143
  C:AC9CH         LINE#         144
  C:ACA0H         LINE#         145
  C:ACA4H         LINE#         146
  C:ACA8H         LINE#         147
  C:ACACH         LINE#         148
  C:ACB0H         LINE#         149
  C:ACB4H         LINE#         150
  C:ACB8H         LINE#         151
  C:ACBCH         LINE#         152
  C:ACBEH         LINE#         153
  C:ACC3H         LINE#         154
  C:ACC8H         LINE#         155
  C:ACCDH         LINE#         156
  C:ACCFH         LINE#         157
  C:ACD3H         LINE#         158
  C:ACD5H         LINE#         159
  C:ACDAH         LINE#         160
  C:ACDFH         LINE#         161
  -------         ENDPROC       HS_PROTOCOL_INIT
  -------         PROC          _HS_DVRTXCMDPASER
  D:0007H         SYMBOL        Cmd_Id
  -------         DO            
  D:0006H         SYMBOL        j
  X:0015H         SYMBOL        Check_GM8126
  X:0016H         SYMBOL        DVR_Com
  -------         ENDDO         
  C:6156H         LINE#         164
  C:6156H         LINE#         165
  C:6156H         LINE#         169
  C:6156H         LINE#         170
  C:6162H         LINE#         172
  C:6168H         LINE#         173
  C:616CH         LINE#         174
  C:6170H         LINE#         175
  C:6178H         LINE#         178
  C:61B9H         LINE#         179
  C:61B9H         LINE#         180
  C:61B9H         LINE#         181
  C:61BFH         LINE#         182
  C:61C3H         LINE#         183
  C:61CBH         LINE#         184
  C:61D3H         LINE#         185
  C:61DBH         LINE#         186
  C:61E3H         LINE#         187
  C:61EBH         LINE#         188
  C:61F3H         LINE#         189
  C:61FBH         LINE#         190
  C:6203H         LINE#         192
BL51 BANKED LINKER/LOCATER V5.03                                                      05/28/2012  11:22:31  PAGE 158


  C:620AH         LINE#         194
  C:6210H         LINE#         196
  C:6213H         LINE#         198
  C:6213H         LINE#         199
  C:6215H         LINE#         200
  C:6218H         LINE#         201
  C:621FH         LINE#         203
  C:6225H         LINE#         205
  C:6228H         LINE#         207
  C:6228H         LINE#         208
  C:622EH         LINE#         209
  C:6232H         LINE#         210
  C:623AH         LINE#         211
  C:6242H         LINE#         212
  C:624AH         LINE#         213
  C:6252H         LINE#         214
  C:625AH         LINE#         215
  C:6262H         LINE#         216
  C:626AH         LINE#         217
  C:6272H         LINE#         218
  C:627AH         LINE#         219
  C:6282H         LINE#         220
  C:628AH         LINE#         221
  C:6292H         LINE#         222
  C:629AH         LINE#         223
  C:62A2H         LINE#         224
  C:62AAH         LINE#         225
  C:62B1H         LINE#         227
  C:62B7H         LINE#         229
  C:62BAH         LINE#         232
  C:62BAH         LINE#         233
  C:62BCH         LINE#         234
  C:62BFH         LINE#         235
  C:62C6H         LINE#         237
  C:62CCH         LINE#         239
  C:62CFH         LINE#         241
  C:62CFH         LINE#         242
  C:62D1H         LINE#         243
  C:62D4H         LINE#         244
  C:62D7H         LINE#         245
  C:62DEH         LINE#         247
  C:62E4H         LINE#         249
  C:62E6H         LINE#         251
  C:62E6H         LINE#         252
  C:62E8H         LINE#         253
  C:62EBH         LINE#         254
  C:62F2H         LINE#         256
  C:62F8H         LINE#         258
  C:62FAH         LINE#         260
  C:62FAH         LINE#         261
  C:62FCH         LINE#         262
  C:62FFH         LINE#         264
  C:6305H         LINE#         266
  C:6308H         LINE#         268
  C:6308H         LINE#         269
  C:630AH         LINE#         270
  C:630DH         LINE#         272
BL51 BANKED LINKER/LOCATER V5.03                                                      05/28/2012  11:22:31  PAGE 159


  C:6313H         LINE#         274
  C:6316H         LINE#         276
  C:6316H         LINE#         277
  C:6318H         LINE#         278
  C:631BH         LINE#         280
  C:6321H         LINE#         282
  C:6324H         LINE#         284
  C:6324H         LINE#         285
  C:6326H         LINE#         286
  C:6329H         LINE#         287
  C:6330H         LINE#         289
  C:6337H         LINE#         291
  C:633AH         LINE#         293
  C:633AH         LINE#         294
  C:633CH         LINE#         295
  C:633FH         LINE#         296
  C:6347H         LINE#         297
  C:634EH         LINE#         299
  C:6355H         LINE#         301
  C:6358H         LINE#         303
  C:6358H         LINE#         304
  C:635AH         LINE#         305
  C:635AH         LINE#         306
  C:635FH         LINE#         308
  C:6367H         LINE#         310
  C:636AH         LINE#         312
  C:636AH         LINE#         313
  C:636CH         LINE#         314
  C:636FH         LINE#         316
  C:6375H         LINE#         318
  C:637DH         LINE#         320
  C:6380H         LINE#         322
  C:6380H         LINE#         323
  C:6386H         LINE#         324
  C:638AH         LINE#         325
  C:638DH         LINE#         327
  C:6393H         LINE#         329
  C:6396H         LINE#         331
  C:6396H         LINE#         332
  C:6398H         LINE#         333
  C:6398H         LINE#         334
  C:639DH         LINE#         336
  C:63A5H         LINE#         339
  C:63A7H         LINE#         341
  C:63A7H         LINE#         342
  C:63ACH         LINE#         343
  C:63ACH         LINE#         344
  C:63B1H         LINE#         347
  C:63B9H         LINE#         349
  C:63BBH         LINE#         351
  C:63BBH         LINE#         352
  C:63C0H         LINE#         353
  C:63C0H         LINE#         354
  C:63C5H         LINE#         357
  C:63CDH         LINE#         359
  C:63CFH         LINE#         361
  C:63CFH         LINE#         362
BL51 BANKED LINKER/LOCATER V5.03                                                      05/28/2012  11:22:31  PAGE 160


  C:63D1H         LINE#         363
  C:63D1H         LINE#         364
  C:63D4H         LINE#         365
  C:63DDH         LINE#         367
  C:63DFH         LINE#         369
  C:63E5H         LINE#         371
  C:63E7H         LINE#         373
  C:63E7H         LINE#         374
  C:63E9H         LINE#         375
  C:63E9H         LINE#         376
  C:63ECH         LINE#         377
  C:63F5H         LINE#         378
  C:63F7H         LINE#         380
  C:6404H         LINE#         382
  C:6404H         LINE#         385
  C:6404H         LINE#         389
  C:6407H         LINE#         390
  -------         ENDPROC       _HS_DVRTXCMDPASER
  -------         PROC          _HS_SEND_DVR_COMMAND
  X:002FH         SYMBOL        DVR_Com
  X:0032H         SYMBOL        len
  -------         DO            
  X:0033H         SYMBOL        ii
  X:0034H         SYMBOL        j
  -------         ENDDO         
  C:A8CBH         LINE#         410
  C:A8D6H         LINE#         411
  C:A8D6H         LINE#         415
  C:A8E7H         LINE#         418
  C:A8FEH         LINE#         419
  C:A92CH         LINE#         425
  C:A940H         LINE#         426
  C:A940H         LINE#         427
  C:A94DH         LINE#         428
  C:A955H         LINE#         439
  -------         ENDPROC       _HS_SEND_DVR_COMMAND
  C:5077H         SYMBOL        L?0274
  C:5087H         SYMBOL        L?0275
  C:5097H         SYMBOL        L?0285
  -------         PROC          DVRRECEIVEPASER
  -------         DO            
  X:000CH         SYMBOL        i
  X:000DH         SYMBOL        j
  D:0007H         SYMBOL        CheckSum
  X:000EH         SYMBOL        DVR_Com
  -------         ENDDO         
  C:4C3BH         LINE#         441
  C:4C3BH         LINE#         442
  C:4C3BH         LINE#         455
  C:4C4AH         LINE#         456
  C:4C4AH         LINE#         457
  C:4C52H         LINE#         458
  C:4C52H         LINE#         459
  C:4C5BH         LINE#         460
  C:4C5BH         LINE#         461
  C:4C5BH         LINE#         462
  C:4C63H         LINE#         477
BL51 BANKED LINKER/LOCATER V5.03                                                      05/28/2012  11:22:31  PAGE 161


  C:4C6CH         LINE#         479
  C:4C8AH         LINE#         480
  C:4C97H         LINE#         482
  C:4CB0H         LINE#         483
  C:4CB3H         LINE#         485
  C:4D0AH         LINE#         486
  C:4D0AH         LINE#         487
  C:4D0AH         LINE#         488
  C:4D0AH         LINE#         490
  C:4D11H         LINE#         492
  C:4D14H         LINE#         494
  C:4D14H         LINE#         495
  C:4D14H         LINE#         497
  C:4D1BH         LINE#         499
  C:4D1EH         LINE#         501
  C:4D1EH         LINE#         502
  C:4D1EH         LINE#         504
  C:4D25H         LINE#         506
  C:4D28H         LINE#         508
  C:4D28H         LINE#         509
  C:4D28H         LINE#         511
  C:4D2FH         LINE#         513
  C:4D32H         LINE#         515
  C:4D32H         LINE#         516
  C:4D32H         LINE#         518
  C:4D39H         LINE#         520
  C:4D3CH         LINE#         522
  C:4D3CH         LINE#         529
  C:4D3CH         LINE#         530
  C:4D3CH         LINE#         532
  C:4D43H         LINE#         534
  C:4D46H         LINE#         536
  C:4D46H         LINE#         537
  C:4D46H         LINE#         538
  C:4D4CH         LINE#         539
  C:4D4FH         LINE#         540
  C:4D4FH         LINE#         541
  C:4D5AH         LINE#         542
  C:4D5DH         LINE#         543
  C:4D60H         LINE#         544
  C:4D66H         LINE#         546
  C:4D66H         LINE#         548
  C:4D6DH         LINE#         550
  C:4D70H         LINE#         553
  C:4D70H         LINE#         554
  C:4D70H         LINE#         555
  C:4D70H         LINE#         556
  C:4D70H         LINE#         557
  C:4D70H         LINE#         558
  C:4D70H         LINE#         559
  C:4D70H         LINE#         560
  C:4D7BH         LINE#         561
  C:4D80H         LINE#         562
  C:4D83H         LINE#         563
  C:4D86H         LINE#         564
  C:4D86H         LINE#         566
  C:4D8DH         LINE#         568
BL51 BANKED LINKER/LOCATER V5.03                                                      05/28/2012  11:22:31  PAGE 162


  C:4D90H         LINE#         570
  C:4D90H         LINE#         571
  C:4D90H         LINE#         572
  C:4D90H         LINE#         573
  C:4D90H         LINE#         574
  C:4D90H         LINE#         575
  C:4D90H         LINE#         576
  C:4D90H         LINE#         577
  C:4D93H         LINE#         578
  C:4D93H         LINE#         579
  C:4D93H         LINE#         580
  C:4D93H         LINE#         581
  C:4D93H         LINE#         582
  C:4D93H         LINE#         583
  C:4D93H         LINE#         584
  C:4D93H         LINE#         585
  C:4D9DH         LINE#         586
  C:4D9DH         LINE#         588
  C:4DA4H         LINE#         590
  C:4DA7H         LINE#         592
  C:4DA7H         LINE#         593
  C:4DA7H         LINE#         594
  C:4DA7H         LINE#         595
  C:4DA7H         LINE#         596
  C:4DA7H         LINE#         597
  C:4DA7H         LINE#         598
  C:4DA7H         LINE#         599
  C:4DADH         LINE#         600
  C:4DB4H         LINE#         601
  C:4DB8H         LINE#         602
  C:4DBBH         LINE#         604
  C:4DC3H         LINE#         605
  C:4DC8H         LINE#         607
  C:4DC8H         LINE#         608
  C:4DC8H         LINE#         609
  C:4DC8H         LINE#         610
  C:4DC8H         LINE#         611
  C:4DCDH         LINE#         612
  C:4DCDH         LINE#         613
  C:4DD0H         LINE#         615
  C:4DDBH         LINE#         616
  C:4DE6H         LINE#         618
  C:4DE9H         LINE#         620
  C:4DE9H         LINE#         621
  C:4DE9H         LINE#         622
  C:4DF3H         LINE#         623
  C:4DF7H         LINE#         624
  C:4DF7H         LINE#         625
  C:4E02H         LINE#         626
  C:4E0BH         LINE#         627
  C:4E0FH         LINE#         628
  C:4E15H         LINE#         631
  C:4E1DH         LINE#         632
  C:4E22H         LINE#         634
  C:4E22H         LINE#         635
  C:4E22H         LINE#         636
  C:4E22H         LINE#         637
BL51 BANKED LINKER/LOCATER V5.03                                                      05/28/2012  11:22:31  PAGE 163


  C:4E22H         LINE#         638
  C:4E27H         LINE#         639
  C:4E27H         LINE#         640
  C:4E2AH         LINE#         642
  C:4E34H         LINE#         644
  C:4E37H         LINE#         646
  C:4E37H         LINE#         648
  C:4E37H         LINE#         649
  C:4E37H         LINE#         650
  C:4E37H         LINE#         651
  C:4E37H         LINE#         652
  C:4E37H         LINE#         653
  C:4E37H         LINE#         654
  C:4E3AH         LINE#         655
  C:4E3AH         LINE#         656
  C:4E3AH         LINE#         657
  C:4E3AH         LINE#         658
  C:4E3AH         LINE#         659
  C:4E3AH         LINE#         660
  C:4E3AH         LINE#         661
  C:4E3AH         LINE#         662
  C:4E44H         LINE#         664
  C:4E4CH         LINE#         665
  C:4E51H         LINE#         667
  C:4E51H         LINE#         668
  C:4E51H         LINE#         669
  C:4E51H         LINE#         670
  C:4E51H         LINE#         671
  C:4E56H         LINE#         672
  C:4E56H         LINE#         673
  C:4E59H         LINE#         675
  C:4E60H         LINE#         677
  C:4E63H         LINE#         679
  C:4E63H         LINE#         680
  C:4E6DH         LINE#         681
  C:4E72H         LINE#         683
  C:4E72H         LINE#         684
  C:4E72H         LINE#         685
  C:4E72H         LINE#         686
  C:4E72H         LINE#         687
  C:4E78H         LINE#         688
  C:4E7CH         LINE#         689
  C:4E7FH         LINE#         690
  C:4E8AH         LINE#         692
  C:4E91H         LINE#         694
  C:4E94H         LINE#         696
  C:4E94H         LINE#         697
  C:4E94H         LINE#         699
  C:4E94H         LINE#         700
  C:4E94H         LINE#         702
  C:4E94H         LINE#         703
  C:4E94H         LINE#         705
  C:4E94H         LINE#         706
  C:4E9EH         LINE#         707
  C:4EA3H         LINE#         711
  C:4EA6H         LINE#         712
  C:4EA6H         LINE#         714
BL51 BANKED LINKER/LOCATER V5.03                                                      05/28/2012  11:22:31  PAGE 164


  C:4EA8H         LINE#         718
  C:4EAAH         LINE#         720
  C:4EAAH         LINE#         721
  C:4EAAH         LINE#         722
  C:4EAAH         LINE#         723
  C:4EAAH         LINE#         724
  C:4EAAH         LINE#         725
  C:4EB0H         LINE#         726
  C:4EB3H         LINE#         727
  C:4EB3H         LINE#         728
  C:4EBEH         LINE#         729
  C:4EC0H         LINE#         730
  C:4EC5H         LINE#         731
  C:4EC7H         LINE#         732
  C:4EC7H         LINE#         734
  C:4ECEH         LINE#         737
  C:4ED1H         LINE#         741
  C:4ED1H         LINE#         743
  C:4EDBH         LINE#         744
  C:4EE0H         LINE#         746
  C:4EE0H         LINE#         747
  C:4EE0H         LINE#         748
  C:4EE0H         LINE#         749
  C:4EE0H         LINE#         750
  C:4EE5H         LINE#         751
  C:4EE5H         LINE#         752
  C:4EE8H         LINE#         753
  C:4EEEH         LINE#         754
  C:4EEEH         LINE#         755
  C:4EEEH         LINE#         757
  C:4EF8H         LINE#         759
  C:4EFBH         LINE#         761
  C:4EFBH         LINE#         765
  C:4F02H         LINE#         767
  C:4F0AH         LINE#         768
  C:4F0FH         LINE#         770
  C:4F0FH         LINE#         771
  C:4F0FH         LINE#         772
  C:4F0FH         LINE#         773
  C:4F0FH         LINE#         774
  C:4F14H         LINE#         775
  C:4F14H         LINE#         776
  C:4F17H         LINE#         777
  C:4F1CH         LINE#         778
  C:4F1CH         LINE#         780
  C:4F26H         LINE#         782
  C:4F29H         LINE#         785
  C:4F29H         LINE#         787
  C:4F34H         LINE#         788
  C:4F44H         LINE#         789
  C:4F44H         LINE#         790
  C:4F52H         LINE#         791
  C:4F57H         LINE#         793
  C:4F5AH         LINE#         794
  C:4F5AH         LINE#         796
  C:4F64H         LINE#         798
  C:4F67H         LINE#         800
BL51 BANKED LINKER/LOCATER V5.03                                                      05/28/2012  11:22:31  PAGE 165


  C:4F67H         LINE#         802
  C:4F72H         LINE#         803
  C:4F82H         LINE#         804
  C:4F82H         LINE#         805
  C:4F90H         LINE#         806
  C:4F95H         LINE#         808
  C:4F95H         LINE#         809
  C:4F95H         LINE#         810
  C:4F95H         LINE#         811
  C:4F95H         LINE#         812
  C:4F9AH         LINE#         813
  C:4F9AH         LINE#         814
  C:4F9DH         LINE#         821
  C:4FA7H         LINE#         823
  C:4FAAH         LINE#         825
  C:4FAAH         LINE#         827
  C:4FB4H         LINE#         828
  C:4FB9H         LINE#         830
  C:4FB9H         LINE#         831
  C:4FB9H         LINE#         832
  C:4FB9H         LINE#         833
  C:4FB9H         LINE#         834
  C:4FBEH         LINE#         835
  C:4FBEH         LINE#         836
  C:4FC6H         LINE#         837
  C:4FCCH         LINE#         838
  C:4FD4H         LINE#         840
  C:4FD4H         LINE#         842
  C:4FDEH         LINE#         844
  C:4FE1H         LINE#         846
  C:4FE1H         LINE#         848
  C:4FE8H         LINE#         850
  C:4FF0H         LINE#         851
  C:4FF5H         LINE#         853
  C:4FF5H         LINE#         854
  C:4FF5H         LINE#         855
  C:4FF5H         LINE#         856
  C:4FF5H         LINE#         857
  C:4FFAH         LINE#         858
  C:4FFAH         LINE#         859
  C:5002H         LINE#         862
  C:5009H         LINE#         863
  C:5009H         LINE#         864
  C:500BH         LINE#         865
  C:5012H         LINE#         866
  C:5014H         LINE#         867
  C:5014H         LINE#         869
  C:501EH         LINE#         871
  C:5020H         LINE#         873
  C:5020H         LINE#         874
  C:5020H         LINE#         876
  C:502AH         LINE#         878
  C:502CH         LINE#         880
  C:502CH         LINE#         881
  C:502EH         LINE#         882
  C:502EH         LINE#         884
  C:5038H         LINE#         886
BL51 BANKED LINKER/LOCATER V5.03                                                      05/28/2012  11:22:31  PAGE 166


  C:503AH         LINE#         888
  C:503AH         LINE#         889
  C:503CH         LINE#         890
  C:503CH         LINE#         892
  C:504AH         LINE#         894
  C:504AH         LINE#         897
  C:504AH         LINE#         901
  C:5059H         LINE#         902
  C:5064H         LINE#         905
  C:506AH         LINE#         907
  C:506DH         LINE#         909
  C:5070H         LINE#         910
  C:5070H         LINE#         911
  C:5072H         LINE#         912
  C:5074H         LINE#         913
  C:5074H         LINE#         917
  C:5076H         LINE#         919
  -------         ENDPROC       DVRRECEIVEPASER
  -------         PROC          DVRCOMMANDRESEND
  C:A690H         LINE#         921
  C:A690H         LINE#         922
  C:A690H         LINE#         924
  C:A697H         LINE#         925
  C:A69CH         LINE#         927
  C:A6A3H         LINE#         928
  C:A6A8H         LINE#         930
  C:A6AFH         LINE#         931
  C:A6B4H         LINE#         933
  C:A6BBH         LINE#         934
  C:A6C0H         LINE#         936
  C:A6C7H         LINE#         937
  C:A6CCH         LINE#         939
  C:A6D3H         LINE#         940
  C:A6D8H         LINE#         942
  C:A6DFH         LINE#         943
  C:A6E4H         LINE#         945
  C:A6EBH         LINE#         946
  C:A6F0H         LINE#         948
  C:A6F7H         LINE#         949
  C:A6FCH         LINE#         951
  C:A703H         LINE#         952
  C:A708H         LINE#         954
  C:A70FH         LINE#         955
  C:A714H         LINE#         957
  C:A71BH         LINE#         958
  C:A720H         LINE#         962
  -------         ENDPROC       DVRCOMMANDRESEND
  -------         PROC          _CAM_TXCOMMAND_TORS485
  X:000CH         SYMBOL        Com_ID
  -------         DO            
  X:000DH         SYMBOL        j
  -------         ENDDO         
  C:6FA9H         LINE#         1024
  C:6FAEH         LINE#         1025
  C:6FAEH         LINE#         1031
  C:6FBEH         LINE#         1032
  C:6FBEH         LINE#         1033
BL51 BANKED LINKER/LOCATER V5.03                                                      05/28/2012  11:22:31  PAGE 167


  C:6FBEH         LINE#         1035
  C:6FCDH         LINE#         1036
  C:6FDAH         LINE#         1037
  C:6FE0H         LINE#         1039
  C:6FE9H         LINE#         1040
  C:6FEFH         LINE#         1042
  C:701BH         LINE#         1043
  C:701BH         LINE#         1056
  C:701BH         LINE#         1057
  C:701BH         LINE#         1058
  C:7020H         LINE#         1059
  C:7020H         LINE#         1060
  C:7020H         LINE#         1061
  C:7020H         LINE#         1062
  C:7022H         LINE#         1070
  C:7022H         LINE#         1071
  C:7027H         LINE#         1072
  C:7027H         LINE#         1073
  C:7027H         LINE#         1074
  C:7027H         LINE#         1075
  C:7027H         LINE#         1076
  C:702AH         LINE#         1078
  C:702AH         LINE#         1079
  C:702AH         LINE#         1080
  C:7030H         LINE#         1081
  C:7031H         LINE#         1082
  C:7031H         LINE#         1083
  C:7031H         LINE#         1084
  C:7034H         LINE#         1142
  C:7034H         LINE#         1143
  C:7034H         LINE#         1144
  C:7039H         LINE#         1145
  C:7039H         LINE#         1149
  C:7039H         LINE#         1150
  C:7039H         LINE#         1151
  C:703BH         LINE#         1152
  C:703BH         LINE#         1153
  C:703BH         LINE#         1154
  C:7040H         LINE#         1155
  C:7040H         LINE#         1159
  C:7043H         LINE#         1160
  C:7043H         LINE#         1161
  C:7045H         LINE#         1162
  C:7045H         LINE#         1163
  C:7045H         LINE#         1164
  C:704BH         LINE#         1165
  C:704EH         LINE#         1166
  C:7054H         LINE#         1168
  C:7057H         LINE#         1169
  C:7058H         LINE#         1170
  C:7058H         LINE#         1171
  C:705AH         LINE#         1172
  C:705AH         LINE#         1173
  C:705AH         LINE#         1174
  C:7060H         LINE#         1175
  C:7063H         LINE#         1176
  C:7069H         LINE#         1178
BL51 BANKED LINKER/LOCATER V5.03                                                      05/28/2012  11:22:31  PAGE 168


  C:706CH         LINE#         1179
  C:7070H         LINE#         1180
  C:7070H         LINE#         1181
  C:7072H         LINE#         1182
  C:7072H         LINE#         1183
  C:7072H         LINE#         1184
  C:7078H         LINE#         1185
  C:707BH         LINE#         1186
  C:707EH         LINE#         1187
  C:7084H         LINE#         1189
  C:7087H         LINE#         1190
  C:7087H         LINE#         1191
  C:7089H         LINE#         1192
  C:7089H         LINE#         1193
  C:7089H         LINE#         1194
  C:708FH         LINE#         1195
  C:7092H         LINE#         1196
  C:7095H         LINE#         1197
  C:709BH         LINE#         1199
  C:709EH         LINE#         1200
  C:709EH         LINE#         1201
  C:70A0H         LINE#         1202
  C:70A0H         LINE#         1203
  C:70A0H         LINE#         1204
  C:70A3H         LINE#         1205
  C:70A3H         LINE#         1206
  C:70A7H         LINE#         1207
  C:70A7H         LINE#         1208
  C:70A9H         LINE#         1209
  C:70A9H         LINE#         1210
  C:70AFH         LINE#         1211
  C:70B2H         LINE#         1212
  C:70B4H         LINE#         1213
  C:70B6H         LINE#         1214
  C:70B9H         LINE#         1215
  C:70B9H         LINE#         1246
  C:70B9H         LINE#         1247
  C:70B9H         LINE#         1248
  C:70B9H         LINE#         1250
  C:70C8H         LINE#         1251
  C:70D5H         LINE#         1252
  C:70DBH         LINE#         1254
  C:70E3H         LINE#         1256
  C:710FH         LINE#         1257
  C:710FH         LINE#         1270
  C:710FH         LINE#         1271
  C:710FH         LINE#         1272
  C:7114H         LINE#         1273
  C:7114H         LINE#         1274
  C:7114H         LINE#         1275
  C:7114H         LINE#         1276
  C:7116H         LINE#         1284
  C:7116H         LINE#         1285
  C:711BH         LINE#         1286
  C:711BH         LINE#         1287
  C:711BH         LINE#         1288
  C:711BH         LINE#         1289
BL51 BANKED LINKER/LOCATER V5.03                                                      05/28/2012  11:22:31  PAGE 169


  C:711BH         LINE#         1290
  C:711EH         LINE#         1292
  C:711EH         LINE#         1293
  C:711EH         LINE#         1294
  C:7124H         LINE#         1295
  C:7125H         LINE#         1296
  C:7125H         LINE#         1297
  C:7125H         LINE#         1298
  C:7128H         LINE#         1350
  C:7128H         LINE#         1351
  C:7128H         LINE#         1352
  C:712EH         LINE#         1353
  C:7131H         LINE#         1354
  C:7137H         LINE#         1356
  C:713AH         LINE#         1357
  C:713AH         LINE#         1358
  C:713AH         LINE#         1359
  C:713CH         LINE#         1360
  C:713CH         LINE#         1361
  C:713CH         LINE#         1362
  C:7142H         LINE#         1363
  C:7145H         LINE#         1364
  C:714BH         LINE#         1366
  C:714EH         LINE#         1367
  C:714FH         LINE#         1368
  C:714FH         LINE#         1369
  C:7151H         LINE#         1370
  C:7151H         LINE#         1371
  C:7151H         LINE#         1372
  C:7157H         LINE#         1373
  C:715AH         LINE#         1374
  C:715DH         LINE#         1375
  C:7163H         LINE#         1377
  C:7166H         LINE#         1378
  C:7166H         LINE#         1379
  C:7168H         LINE#         1380
  C:7168H         LINE#         1381
  C:7168H         LINE#         1382
  C:716EH         LINE#         1383
  C:7171H         LINE#         1384
  C:7174H         LINE#         1385
  C:717AH         LINE#         1387
  C:717DH         LINE#         1388
  C:717DH         LINE#         1389
  C:717FH         LINE#         1390
  C:717FH         LINE#         1391
  C:717FH         LINE#         1392
  C:7184H         LINE#         1393
  C:7184H         LINE#         1397
  C:718BH         LINE#         1398
  C:718BH         LINE#         1399
  C:718DH         LINE#         1400
  C:718DH         LINE#         1401
  C:718DH         LINE#         1402
  C:7192H         LINE#         1403
  C:7192H         LINE#         1407
  C:7199H         LINE#         1408
BL51 BANKED LINKER/LOCATER V5.03                                                      05/28/2012  11:22:31  PAGE 170


  C:7199H         LINE#         1409
  C:719BH         LINE#         1410
  C:719BH         LINE#         1411
  C:719BH         LINE#         1412
  C:719EH         LINE#         1413
  C:719EH         LINE#         1414
  C:71A2H         LINE#         1415
  C:71A2H         LINE#         1416
  C:71A4H         LINE#         1417
  C:71A4H         LINE#         1418
  C:71AAH         LINE#         1419
  C:71ADH         LINE#         1420
  C:71AFH         LINE#         1421
  C:71B1H         LINE#         1422
  C:71B4H         LINE#         1423
  C:71B4H         LINE#         1454
  C:71B4H         LINE#         1455
  C:71B4H         LINE#         1528
  C:71B4H         LINE#         1530
  -------         ENDPROC       _CAM_TXCOMMAND_TORS485
  -------         PROC          SEND_PELCOP_COMMAND
  -------         DO            
  X:000EH         SYMBOL        ii
  D:0004H         SYMBOL        j
  -------         ENDDO         
  C:AB6DH         LINE#         1538
  C:AB6DH         LINE#         1539
  C:AB6DH         LINE#         1543
  C:AB75H         LINE#         1544
  C:AB77H         LINE#         1545
  C:AB8FH         LINE#         1551
  C:AB9DH         LINE#         1552
  C:AB9DH         LINE#         1553
  C:AB9DH         LINE#         1554
  C:ABA0H         LINE#         1555
  C:ABA2H         LINE#         1556
  C:ABA2H         LINE#         1557
  C:ABA5H         LINE#         1558
  C:ABA7H         LINE#         1559
  C:ABA7H         LINE#         1560
  C:ABAAH         LINE#         1561
  C:ABAAH         LINE#         1562
  C:ABAAH         LINE#         1564
  C:ABBAH         LINE#         1565
  C:ABC1H         LINE#         1566
  C:ABD0H         LINE#         1567
  C:ABD0H         LINE#         1568
  C:ABD8H         LINE#         1569
  C:ABE0H         LINE#         1570
  C:ABE7H         LINE#         1571
  C:ABEAH         LINE#         1576
  -------         ENDPROC       SEND_PELCOP_COMMAND
  -------         PROC          SEND_PELCOD_COMMAND
  -------         DO            
  X:000EH         SYMBOL        ii
  D:0007H         SYMBOL        j
  -------         ENDDO         
BL51 BANKED LINKER/LOCATER V5.03                                                      05/28/2012  11:22:31  PAGE 171


  C:ADCDH         LINE#         1584
  C:ADCDH         LINE#         1585
  C:ADCDH         LINE#         1589
  C:ADD5H         LINE#         1590
  C:ADD7H         LINE#         1591
  C:ADE7H         LINE#         1593
  C:ADF5H         LINE#         1594
  C:ADF5H         LINE#         1595
  C:ADF5H         LINE#         1596
  C:ADF8H         LINE#         1597
  C:ADFAH         LINE#         1598
  C:ADFAH         LINE#         1599
  C:ADFDH         LINE#         1600
  C:ADFFH         LINE#         1601
  C:ADFFH         LINE#         1602
  C:AE02H         LINE#         1603
  C:AE02H         LINE#         1604
  C:AE02H         LINE#         1606
  C:AE11H         LINE#         1607
  C:AE18H         LINE#         1610
  C:AE27H         LINE#         1611
  C:AE27H         LINE#         1612
  C:AE2FH         LINE#         1613
  C:AE37H         LINE#         1615
  C:AE3EH         LINE#         1616
  C:AE41H         LINE#         1619
  -------         ENDPROC       SEND_PELCOD_COMMAND
  -------         ENDMOD        HS_DVRPROTOCOL

  -------         MODULE        ?C?COPY
  C:47BEH         PUBLIC        ?C?COPY
  -------         ENDMOD        ?C?COPY

  -------         MODULE        ?C?CLDPTR
  C:47E4H         PUBLIC        ?C?CLDPTR
  -------         ENDMOD        ?C?CLDPTR

  -------         MODULE        ?C?CLDOPTR
  C:47FDH         PUBLIC        ?C?CLDOPTR
  -------         ENDMOD        ?C?CLDOPTR

  -------         MODULE        ?C?CSTPTR
  C:482AH         PUBLIC        ?C?CSTPTR
  -------         ENDMOD        ?C?CSTPTR

  -------         MODULE        ?C?CSTOPTR
  C:483CH         PUBLIC        ?C?CSTOPTR
  -------         ENDMOD        ?C?CSTOPTR

  -------         MODULE        ?C?IMUL
  C:485EH         PUBLIC        ?C?IMUL
  -------         ENDMOD        ?C?IMUL

  -------         MODULE        ?C?UIDIV
  C:4870H         PUBLIC        ?C?UIDIV
  -------         ENDMOD        ?C?UIDIV

BL51 BANKED LINKER/LOCATER V5.03                                                      05/28/2012  11:22:31  PAGE 172


  -------         MODULE        ?C?SIDIV
  C:48C5H         PUBLIC        ?C?SIDIV
  -------         ENDMOD        ?C?SIDIV

  -------         MODULE        ?C?IILDX
  C:48FBH         PUBLIC        ?C?IILDX
  -------         ENDMOD        ?C?IILDX

  -------         MODULE        ?C?ILDPTR
  C:4911H         PUBLIC        ?C?ILDPTR
  -------         ENDMOD        ?C?ILDPTR

  -------         MODULE        ?C?ILDOPTR
  C:493CH         PUBLIC        ?C?ILDOPTR
  -------         ENDMOD        ?C?ILDOPTR

  -------         MODULE        ?C?ISTPTR
  C:4974H         PUBLIC        ?C?ISTPTR
  -------         ENDMOD        ?C?ISTPTR

  -------         MODULE        ?C?LMUL
  C:4993H         PUBLIC        ?C?LMUL
  -------         ENDMOD        ?C?LMUL

  -------         MODULE        ?C?ULDIV
  C:4A1EH         PUBLIC        ?C?ULDIV
  -------         ENDMOD        ?C?ULDIV

  -------         MODULE        ?C?ULCMP
  C:4AB0H         PUBLIC        ?C?ULCMP
  -------         ENDMOD        ?C?ULCMP

  -------         MODULE        ?C?SLSHR
  C:4AC1H         PUBLIC        ?C?SLSHR
  -------         ENDMOD        ?C?SLSHR

  -------         MODULE        ?C?LLDPTR
  C:4AD5H         PUBLIC        ?C?LLDPTR
  -------         ENDMOD        ?C?LLDPTR

  -------         MODULE        ?C?LLDXDATA
  C:4AF5H         PUBLIC        ?C?LLDXDATA
  -------         ENDMOD        ?C?LLDXDATA

  -------         MODULE        ?C?LLDXDATA0
  C:4B01H         PUBLIC        ?C?LLDXDATA0
  -------         ENDMOD        ?C?LLDXDATA0

  -------         MODULE        ?C?LSTXDATA
  C:4B0DH         PUBLIC        ?C?LSTXDATA
  -------         ENDMOD        ?C?LSTXDATA

  -------         MODULE        ?C?LSTKXDATA
  C:4B19H         PUBLIC        ?C?LSTKXDATA
  -------         ENDMOD        ?C?LSTKXDATA

  -------         MODULE        ?C?OFFXADD
BL51 BANKED LINKER/LOCATER V5.03                                                      05/28/2012  11:22:31  PAGE 173


  C:4B4AH         PUBLIC        ?C?OFFXADD
  -------         ENDMOD        ?C?OFFXADD

  -------         MODULE        ?C?PLDXDATA
  C:4B56H         PUBLIC        ?C?PLDXDATA
  -------         ENDMOD        ?C?PLDXDATA

  -------         MODULE        ?C?PLDIXDATA
  C:4B5FH         PUBLIC        ?C?PLDIXDATA
  -------         ENDMOD        ?C?PLDIXDATA

  -------         MODULE        ?C?PSTXDATA
  C:4B76H         PUBLIC        ?C?PSTXDATA
  -------         ENDMOD        ?C?PSTXDATA

  -------         MODULE        ?C?PLDCODE
  C:4B7FH         PUBLIC        ?C?PLDCODE
  -------         ENDMOD        ?C?PLDCODE

  -------         MODULE        ?C?PLDPTR
  C:4B8BH         PUBLIC        ?C?PLDPTR
  -------         ENDMOD        ?C?PLDPTR

  -------         MODULE        ?C?PLDOPTR
  C:4BABH         PUBLIC        ?C?PLDOPTR
  -------         ENDMOD        ?C?PLDOPTR

  -------         MODULE        ?C?CCASE
  C:4BDBH         PUBLIC        ?C?CCASE
  -------         ENDMOD        ?C?CCASE

  -------         MODULE        ABS
  C:C4FCH         PUBLIC        _abs
  -------         ENDMOD        ABS

  -------         MODULE        ?C?LLDIDATA
  C:4C01H         PUBLIC        ?C?LLDIDATA
  -------         ENDMOD        ?C?LLDIDATA

  -------         MODULE        ?C?LLDPDATA
  C:4C0DH         PUBLIC        ?C?LLDPDATA
  -------         ENDMOD        ?C?LLDPDATA

  -------         MODULE        ?C?LLDCODE
  C:4C19H         PUBLIC        ?C?LLDCODE
  -------         ENDMOD        ?C?LLDCODE

  -------         MODULE        ?C?PLDIDATA
  C:4C29H         PUBLIC        ?C?PLDIDATA
  -------         ENDMOD        ?C?PLDIDATA

  -------         MODULE        ?C?PLDPDATA
  C:4C32H         PUBLIC        ?C?PLDPDATA
  -------         ENDMOD        ?C?PLDPDATA

Program Size: data=107.3 xdata=259 code=50872
LINK/LOCATE RUN COMPLETE.  0 WARNING(S),  0 ERROR(S)
