BL51 BANKED LINKER/LOCATER V5.03                                                        01/25/2013  13:44:25  PAGE 1


BL51 BANKED LINKER/LOCATER V5.03, INVOKED BY:
C:\KEIL\C51\BIN\BL51.EXE .\Output\adc.obj, .\Output\cpu.obj, .\Output\dispinfo.obj, .\Output\etc_eep.obj, .\Output\I2c.o
>> bj, .\Output\keyremo.obj, .\Output\Main.obj, .\Output\Measure.obj, .\Output\Osdbasic.obj, .\Output\osdmenu.obj, .\Out
>> put\pc_eep.obj, .\Output\Printf.obj, .\Output\table.obj, .\Output\TW88.obj, .\Output\udfont.obj, .\Output\HS_keyremo.
>> obj, .\Output\HS_DisplayOSD.obj, .\Output\audio.obj, .\Output\Debug.obj, .\Output\HS_DVRProtocol.obj, .\Output\monito
>> r.obj TO .\Output\AWT_ML074Q PRINT (.\Source\AWT_ML074Q.m51) RAMSIZE (256) XDATA (0X0000-0X03FF)


MEMORY MODEL: LARGE


INPUT MODULES INCLUDED:
  .\Output\adc.obj (ADC)
  .\Output\cpu.obj (CPU)
  .\Output\dispinfo.obj (DISPINFO)
  .\Output\etc_eep.obj (ETC_EEP)
  .\Output\I2c.obj (I2C)
  .\Output\keyremo.obj (KEYREMO)
  .\Output\Main.obj (MAIN)
  .\Output\Measure.obj (MEASURE)
  .\Output\Osdbasic.obj (OSDBASIC)
  .\Output\osdmenu.obj (OSDMENU)
  .\Output\pc_eep.obj (PC_EEP)
  .\Output\Printf.obj (PRINTF)
  .\Output\table.obj (TABLE)
  .\Output\TW88.obj (TW88)
  .\Output\udfont.obj (UDFONT)
  .\Output\HS_keyremo.obj (HS_KEYREMO)
  .\Output\HS_DisplayOSD.obj (HS_DISPLAYOSD)
  .\Output\audio.obj (AUDIO)
  .\Output\Debug.obj (DEBUG)
  .\Output\HS_DVRProtocol.obj (HS_DVRPROTOCOL)
  .\Output\monitor.obj (MONITOR)
  C:\KEIL\C51\LIB\C51L.LIB (?C_STARTUP)
  C:\KEIL\C51\LIB\C51L.LIB (?C?COPY)
  C:\KEIL\C51\LIB\C51L.LIB (?C?CLDPTR)
  C:\KEIL\C51\LIB\C51L.LIB (?C?CLDOPTR)
  C:\KEIL\C51\LIB\C51L.LIB (?C?CSTPTR)
  C:\KEIL\C51\LIB\C51L.LIB (?C?CSTOPTR)
  C:\KEIL\C51\LIB\C51L.LIB (?C?IMUL)
  C:\KEIL\C51\LIB\C51L.LIB (?C?UIDIV)
  C:\KEIL\C51\LIB\C51L.LIB (?C?SIDIV)
  C:\KEIL\C51\LIB\C51L.LIB (?C?IILDX)
  C:\KEIL\C51\LIB\C51L.LIB (?C?ILDPTR)
  C:\KEIL\C51\LIB\C51L.LIB (?C?ILDOPTR)
  C:\KEIL\C51\LIB\C51L.LIB (?C?ISTPTR)
  C:\KEIL\C51\LIB\C51L.LIB (?C?LADD)
  C:\KEIL\C51\LIB\C51L.LIB (?C?LMUL)
  C:\KEIL\C51\LIB\C51L.LIB (?C?ULDIV)
  C:\KEIL\C51\LIB\C51L.LIB (?C?ULCMP)
  C:\KEIL\C51\LIB\C51L.LIB (?C?SLSHR)
  C:\KEIL\C51\LIB\C51L.LIB (?C?LLDPTR)
  C:\KEIL\C51\LIB\C51L.LIB (?C?LLDXDATA)
  C:\KEIL\C51\LIB\C51L.LIB (?C?LLDXDATA0)
  C:\KEIL\C51\LIB\C51L.LIB (?C?LSTXDATA)
  C:\KEIL\C51\LIB\C51L.LIB (?C?LSTKXDATA)
  C:\KEIL\C51\LIB\C51L.LIB (?C?OFFXADD)
  C:\KEIL\C51\LIB\C51L.LIB (?C?PLDXDATA)
BL51 BANKED LINKER/LOCATER V5.03                                                      01/25/2013  13:44:25  PAGE 2


  C:\KEIL\C51\LIB\C51L.LIB (?C?PLDIXDATA)
  C:\KEIL\C51\LIB\C51L.LIB (?C?PSTXDATA)
  C:\KEIL\C51\LIB\C51L.LIB (?C?PLDCODE)
  C:\KEIL\C51\LIB\C51L.LIB (?C?PLDPTR)
  C:\KEIL\C51\LIB\C51L.LIB (?C?PLDOPTR)
  C:\KEIL\C51\LIB\C51L.LIB (?C?CCASE)
  C:\KEIL\C51\LIB\C51L.LIB (ABS)
  C:\KEIL\C51\LIB\C51L.LIB (?C_INIT)
  C:\KEIL\C51\LIB\C51L.LIB (?C?LLDIDATA)
  C:\KEIL\C51\LIB\C51L.LIB (?C?LLDPDATA)
  C:\KEIL\C51\LIB\C51L.LIB (?C?LLDCODE)
  C:\KEIL\C51\LIB\C51L.LIB (?C?PLDIDATA)
  C:\KEIL\C51\LIB\C51L.LIB (?C?PLDPDATA)


LINK MAP OF MODULE:  .\Output\AWT_ML074Q (ADC)


            TYPE    BASE      LENGTH    RELOCATION   SEGMENT NAME
            -----------------------------------------------------

            * * * * * * *   D A T A   M E M O R Y   * * * * * * *
            REG     0000H     0008H     ABSOLUTE     "REG BANK 0"
            REG     0008H     0008H     ABSOLUTE     "REG BANK 1"
            DATA    0010H     000AH     UNIT         ?DT?OSDBASIC
            DATA    001AH     0005H     UNIT         ?DT?OSDMENU
            DATA    001FH     0001H     UNIT         ?DT?MONITOR
            BIT     0020H.0   0001H.0   UNIT         ?BI?MAIN
            BIT     0021H.0   0000H.5   UNIT         ?BI?HS_DVRPROTOCOL
            BIT     0021H.5   0000H.4   UNIT         ?BI?CPU
            BIT     0022H.1   0000H.3   UNIT         ?BI?HS_KEYREMO
            BIT     0022H.4   0000H.3   UNIT         ?BI?MONITOR
            BIT     0022H.7   0000H.2   UNIT         ?BI?OSDMENU
            BIT     0023H.1   0000H.2   UNIT         _BIT_GROUP_
            BIT     0023H.3   0000H.1   UNIT         ?BI?KEYREMO
            BIT     0023H.4   0000H.1   UNIT         ?BI?HS_DISPLAYOSD
                    0023H.5   0000H.3                *** GAP ***
            DATA    0024H     003FH     UNIT         ?DT?CPU
            DATA    0063H     0007H     UNIT         ?DT?MAIN
            DATA    006AH     0002H     UNIT         ?DT?DISPINFO
            IDATA   006CH     0001H     UNIT         ?STACK

            * * * * * * *  X D A T A   M E M O R Y  * * * * * * *
            XDATA   0000H     0071H     UNIT         _XDATA_GROUP_
            XDATA   0071H     0048H     UNIT         ?XD?HS_DVRPROTOCOL
            XDATA   00B9H     003AH     UNIT         ?XD?MONITOR
            XDATA   00F3H     0021H     UNIT         ?XD?OSDMENU
            XDATA   0114H     0012H     UNIT         ?XD?MAIN
            XDATA   0126H     000CH     UNIT         ?XD?HS_KEYREMO
            XDATA   0132H     0005H     UNIT         ?XD?KEYREMO
            XDATA   0137H     0004H     UNIT         ?XD?CPU
            XDATA   013BH     0002H     UNIT         ?XD?DISPINFO
            XDATA   013DH     0002H     UNIT         ?XD?TW88
            XDATA   013FH     0002H     UNIT         ?XD?AUDIO
            XDATA   0141H     0001H     UNIT         ?XD?SELECTBOXHANDLER?HS_KEYREMO

            * * * * * * *   C O D E   M E M O R Y   * * * * * * *
BL51 BANKED LINKER/LOCATER V5.03                                                      01/25/2013  13:44:25  PAGE 3


            CODE    0000H     0003H     ABSOLUTE     
            CODE    0003H     0008H     UNIT         ?PR?_RS_TX?CPU
            CODE    000BH     0003H     ABSOLUTE     
            CODE    000EH     0004H     UNIT         ?PR?GETOSDPOSITIONMODE?OSDMENU
            CODE    0012H     0001H     UNIT         ?PR?DD?I2C
            CODE    0013H     0003H     ABSOLUTE     
            CODE    0016H     000DH     UNIT         ?PR?I2CSTOP?I2C
            CODE    0023H     0003H     ABSOLUTE     
            CODE    0026H     0003H     UNIT         ?PR?EXT1_INT?CPU
            CODE    0029H     0001H     UNIT         ?PR?ON_LVDS?TW88
            CODE    002AH     0001H     UNIT         ?PR?OFF_LVDS?TW88
            CODE    002BH     0003H     ABSOLUTE     
            CODE    002EH     0035H     UNIT         ?PR?OSDHIGHMENU?OSDMENU
            CODE    0063H     0003H     ABSOLUTE     
            CODE    0066H     1800H     UNIT         ?CO?OSDMENU
            CODE    1866H     14F2H     UNIT         ?CO?UDFONT
            CODE    2D58H     10F2H     UNIT         ?PR?_SETITEMVALUE?OSDMENU
            CODE    3E4AH     082CH     UNIT         ?CO?CPU
            CODE    4676H     059FH     UNIT         ?CO?MONITOR
            CODE    4C15H     055AH     UNIT         ?C?LIB_CODE
            CODE    516FH     041CH     UNIT         ?PR?DVRRECEIVEPASER?HS_DVRPROTOCOL
            CODE    558BH     0415H     UNIT         ?PR?OSDMENU
            CODE    59A0H     040EH     UNIT         ?PR?MONITOR?MONITOR
            CODE    5DAEH     03C5H     UNIT         ?PR?_DISPLAYOSDMENUONEITEM?OSDMENU
            CODE    6173H     036DH     UNIT         ?PR?_GETITEMVALUE?OSDMENU
            CODE    64E0H     031EH     UNIT         ?PR?_DOPRINT?PRINTF
            CODE    67FEH     02EAH     UNIT         ?PR?CHECKKEYIN?KEYREMO
            CODE    6AE8H     02D5H     UNIT         ?CO?HS_DVRPROTOCOL
            CODE    6DBDH     02BFH     UNIT         ?PR?_HS_DVRTXCMDPASER?HS_DVRPROTOCOL
            CODE    707CH     02B7H     UNIT         ?PR?_DOACTION?OSDMENU
            CODE    7333H     02A0H     UNIT         ?CO?TABLE
            CODE    75D3H     0252H     UNIT         ?PR?_TW2835COMMAND?CPU
            CODE    7825H     0218H     UNIT         ?CO?HS_DISPLAYOSD
            CODE    7A3DH     0213H     UNIT         ?PR?_DISPLAYINFORMATION?HS_DISPLAYOSD
            CODE    7C50H     020CH     UNIT         ?PR?_CAM_TXCOMMAND_TORS485?HS_DVRPROTOCOL
            CODE    7E5CH     01FAH     UNIT         ?PR?HS_DVRPROTOCOL
            CODE    8056H     01EFH     UNIT         ?PR?DISPLAYDVRSTATUS?HS_DISPLAYOSD
            CODE    8245H     01E6H     UNIT         ?PR?RESETOSDVALUE?OSDMENU
            CODE    842BH     01CFH     UNIT         ?PR?SELECTBOXHANDLER?HS_KEYREMO
            CODE    85FAH     01C6H     UNIT         ?PR?_DRAWMENULIST?OSDMENU
            CODE    87C0H     01B1H     UNIT         ?PR?_TRIGGERHANDLER?HS_KEYREMO
            CODE    8971H     01AFH     UNIT         ?PR?MONGETCOMMAND?MONITOR
            CODE    8B20H     016DH     UNIT         ?PR?DISPLAYINFO_OSD?OSDMENU
            CODE    8C8DH     0169H     UNIT         ?PR?_SETOSDPOSITIONMODE?OSDMENU
            CODE    8DF6H     0164H     UNIT         ?CO?MAIN
            CODE    8F5AH     0163H     UNIT         ?PR?OSDSELECT?OSDMENU
            CODE    90BDH     015AH     UNIT         ?PR?MONITOR
            CODE    9217H     0146H     UNIT         ?PR?_DISPLAYNUMBER?HS_DISPLAYOSD
            CODE    935DH     013CH     UNIT         ?PR?LOADEEPROM?MAIN
            CODE    9499H     0139H     UNIT         ?CO?OSDBASIC
            CODE    95D2H     0138H     UNIT         ?PR?MAIN_INIT?CPU
            CODE    970AH     0127H     UNIT         ?PR?_DISPLAYRAMFONT?OSDBASIC
            CODE    9831H     0126H     UNIT         ?PR?_OSDCURSORMOVE?OSDMENU
            CODE    9957H     0120H     UNIT         ?PR?_UTOA?OSDBASIC
            CODE    9A77H     011BH     UNIT         ?PR?_CHANGEVOL?AUDIO
            CODE    9B92H     0119H     UNIT         ?PR?TIMER0_INT?CPU
            CODE    9CABH     0118H     UNIT         ?CO?HS_KEYREMO
BL51 BANKED LINKER/LOCATER V5.03                                                      01/25/2013  13:44:25  PAGE 4


            CODE    9DC3H     0108H     UNIT         ?CO?KEYREMO
            CODE    9ECBH     0104H     UNIT         ?PR?DISPLAYOSDMENU?OSDMENU
            CODE    9FCFH     0103H     UNIT         ?PR?_DISPLAYROMFONT?OSDBASIC
            CODE    A0D2H     00FEH     UNIT         ?PR?_OSDVALUEUPDN?OSDMENU
            CODE    A1D0H     00FDH     UNIT         ?PR?DISPLAYINPUT?DISPINFO
            CODE    A2CDH     00F2H     UNIT         ?PR?MONWRITEBIT?MONITOR
            CODE    A3BFH     00E5H     UNIT         ?PR?DISPLAYGAUGEOSD?HS_DISPLAYOSD
            CODE    A4A4H     00E3H     UNIT         ?PR?_SETVIDEOMODE?OSDMENU
            CODE    A587H     00E2H     UNIT         ?PR?DISPLAYCURSOR?OSDMENU
            CODE    A669H     00DCH     UNIT         ?PR?_ACTIONREMO?KEYREMO
            CODE    A745H     00DCH     UNIT         ?PR?MONDUMPI2C?MONITOR
            CODE    A821H     00DBH     UNIT         ?C_INITSEG
            CODE    A8FCH     00D8H     UNIT         ?PR?_DISPLAYVIEWBAR?OSDMENU
            CODE    A9D4H     00D5H     UNIT         ?PR?_DRAWNUM?OSDMENU
            CODE    AAA9H     00D3H     UNIT         ?PR?_DRAWSTRINGBYLANG?OSDMENU
            CODE    AB7CH     00D2H     UNIT         ?PR?_ADJUSTAUTODAYNIGHT?MAIN
            CODE    AC4EH     00CFH     UNIT         ?PR?DISPLAYVOL?DISPINFO
            CODE    AD1DH     00C7H     UNIT         ?PR?_CHANGEINPUT?MAIN
            CODE    ADE4H     00BEH     UNIT         ?PR?MONNEWDUMPI2C?MONITOR
            CODE    AEA2H     00BDH     UNIT         ?PR?_SET4WIDESCREEN?OSDMENU
            CODE    AF5FH     00B9H     UNIT         ?PR?MAIN?MAIN
            CODE    B018H     00B7H     UNIT         ?PR?MAIN_LOOP?MAIN
            CODE    B0CFH     00B4H     UNIT         ?CO?DISPINFO
            CODE    B183H     00A8H     UNIT         ?PR?INITTECHWELL?CPU
            CODE    B22BH     00A7H     UNIT         ?PR?CHECKDECODERINPUT?MAIN
            CODE    B2D2H     00A7H     UNIT         ?PR?OSDBASIC
            CODE    B379H     00A7H     UNIT         ?PR?_SETVIDEOSHARPNESS?OSDMENU
            CODE    B420H     00A6H     UNIT         ?PR?_SETPCCOLOR?OSDMENU
            CODE    B4C6H     00A5H     UNIT         ?PR?_MAPPING1?TW88
            CODE    B56BH     00A4H     UNIT         ?PR?_CHANGEVIDEODATA?OSDMENU
            CODE    B60FH     00A2H     UNIT         ?PR?_INITOSDWINDOW?OSDBASIC
            CODE    B6B1H     00A2H     UNIT         ?PR?MONHELP?MONITOR
            CODE    B753H     009FH     UNIT         ?PR?CHECKTRIGGER?HS_KEYREMO
            CODE    B7F2H     009DH     UNIT         ?PR?OSDHIGHMENU_SUB?OSDMENU
            CODE    B88FH     0098H     UNIT         ?PR?HS_DISPLAYOSD
            CODE    B927H     0091H     UNIT         ?PR?DVRCOMMANDRESEND?HS_DVRPROTOCOL
            CODE    B9B8H     0090H     UNIT         ?PR?_DISPLAYVOLUMEBAR?OSDMENU
            CODE    BA48H     008EH     UNIT         ?PR?_INITVIDEODATA?MAIN
            CODE    BAD6H     008CH     UNIT         ?PR?_INITOSDMENU?OSDMENU
            CODE    BB62H     008CH     UNIT         ?C_C51STARTUP
            CODE    BBEEH     008BH     UNIT         ?PR?_HS_SEND_DVR_COMMAND?HS_DVRPROTOCOL
            CODE    BC79H     0088H     UNIT         ?PR?SETPOSSIBLEAUTODETECTSTDEE?ETC_EEP
            CODE    BD01H     0086H     UNIT         ?PR?DISPLAYFWVERSION?HS_DISPLAYOSD
            CODE    BD87H     0085H     UNIT         ?PR?CHECKANDCLEAROSD?DISPINFO
            CODE    BE0CH     0083H     UNIT         ?PR?WAITPOWERON?MAIN
            CODE    BE8FH     0080H     UNIT         ?PR?_SETPCCOLORTEMP?OSDMENU
            CODE    BF0FH     007EH     UNIT         ?PR?SEND_PELCOP_COMMAND?HS_DVRPROTOCOL
            CODE    BF8DH     007DH     UNIT         ?PR?MONWRITEI2C?MONITOR
            CODE    C00AH     007CH     UNIT         ?PR?_LCDPOWERON?TW88
            CODE    C086H     007CH     UNIT         ?PR?_MONINCDECI2C?MONITOR
            CODE    C102H     007AH     UNIT         ?PR?HS_PROTOCOL_INIT?HS_DVRPROTOCOL
            CODE    C17CH     0077H     UNIT         ?PR?SETSELECTMODE?HS_KEYREMO
            CODE    C1F3H     0076H     UNIT         ?PR?_SETVIDEOSATURATION?OSDMENU
            CODE    C269H     0075H     UNIT         ?PR?SEND_PELCOD_COMMAND?HS_DVRPROTOCOL
            CODE    C2DEH     0073H     UNIT         ?PR?HS_KEYREMO
            CODE    C351H     0072H     UNIT         ?PR?_A2I?MONITOR
            CODE    C3C3H     0069H     UNIT         ?PR?_I2CWRITEDATA?I2C
BL51 BANKED LINKER/LOCATER V5.03                                                      01/25/2013  13:44:25  PAGE 5


            CODE    C42CH     0069H     UNIT         ?PR?_SETVIDEOBACKLIGHT?OSDMENU
            CODE    C495H     0066H     UNIT         ?PR?_SETVINPUTSTD?MAIN
            CODE    C4FBH     0066H     UNIT         ?PR?_SETVIDEOHUE?OSDMENU
            CODE    C561H     0066H     UNIT         ?PR?RESETVIDEOVALUE?OSDMENU
            CODE    C5C7H     0066H     UNIT         ?PR?INITOSDMENUXY?OSDMENU
            CODE    C62DH     0065H     UNIT         ?PR?_SETRGBCONTRAST?OSDMENU
            CODE    C692H     0061H     UNIT         ?PR?GETFWREVEE?ETC_EEP
            CODE    C6F3H     0060H     UNIT         ?PR?TW88
            CODE    C753H     005EH     UNIT         ?PR?_DOWNLOADFONT?OSDBASIC
            CODE    C7B1H     005BH     UNIT         ?PR?DISPLAYLOGO?DISPINFO
            CODE    C80CH     005BH     UNIT         ?PR?CHANGE_OSDCOLORLOOKUP?OSDBASIC
            CODE    C867H     005BH     UNIT         ?PR?PRINTF
            CODE    C8C2H     0059H     UNIT         ?PR?GETVINPUTSTDINX?MAIN
            CODE    C91BH     0058H     UNIT         ?PR?CHECKPANELIMAGE?OSDMENU
            CODE    C973H     0057H     UNIT         ?PR?_GETOSDWINDOWY?OSDBASIC
            CODE    C9CAH     0056H     UNIT         ?PR?DETECTDECODERINPUT?TW88
            CODE    CA20H     0055H     UNIT         ?PR?MONNEWWRITEI2C?MONITOR
            CODE    CA75H     004FH     UNIT         ?PR?_I2CDEVICEINITIALIZE?MAIN
            CODE    CAC4H     004EH     UNIT         ?PR?MONREADI2C?MONITOR
            CODE    CB12H     004DH     UNIT         ?PR?CLEARCURSOR?OSDMENU
            CODE    CB5FH     004DH     UNIT         ?PR?_CAMOUTDSEL?OSDMENU
            CODE    CBACH     004BH     UNIT         ?PR?INITCPU?CPU
            CODE    CBF7H     004BH     UNIT         ?PR?_GETOSDWINDOWX?OSDBASIC
            CODE    CC42H     004BH     UNIT         ?PR?MONNEWREADI2C?MONITOR
            CODE    CC8DH     0049H     UNIT         ?PR?_SETVIDEOBRIGHTNESS?OSDMENU
            CODE    CCD6H     0048H     UNIT         ?PR?_WAIT_MS?CPU
            CODE    CD1EH     0046H     UNIT         ?PR?_WRITEEEP?I2C
            CODE    CD64H     0046H     UNIT         ?PR?SETJUMPMODE?HS_KEYREMO
            CODE    CDAAH     0045H     UNIT         ?PR?ACCPOWERCONTROL?MAIN
            CODE    CDEFH     0045H     UNIT         ?PR?_GETLOWERMENUITEM?OSDMENU
            CODE    CE34H     0044H     UNIT         ?PR?_SHOWOSDWINDOW_TW88?OSDBASIC
            CODE    CE78H     0044H     UNIT         ?PR?SETNOWMODE?HS_KEYREMO
            CODE    CEBCH     0043H     UNIT         ?PR?_SAVEFWREVEE?ETC_EEP
            CODE    CEFFH     0042H     UNIT         ?PR?_SETSOURCEMODE?HS_KEYREMO
            CODE    CF41H     0041H     UNIT         ?PR?_WRITEI2CN?I2C
            CODE    CF82H     0041H     UNIT         ?PR?_SETOSDWINDOWY_TW88?OSDBASIC
            CODE    CFC3H     0041H     UNIT         ?PR?_GETTARGETCHILD?OSDMENU
            CODE    D004H     0040H     UNIT         ?PR?_READI2CWORD?I2C
            CODE    D044H     003FH     UNIT         ?PR?CPU
            CODE    D083H     003FH     UNIT         ?CO?TW88
            CODE    D0C2H     003EH     UNIT         ?PR?CLEAROSDINFO?DISPINFO
            CODE    D100H     003EH     UNIT         ?PR?_WRITEI2CND?I2C
            CODE    D13EH     003EH     UNIT         ?PR?_SETOSDWINDOWX_TW88?OSDBASIC
            CODE    D17CH     003EH     UNIT         ?PR?_SETVIDEOCONTRAST?OSDMENU
            CODE    D1BAH     003EH     UNIT         ?PR?_OPENOSDMENU?OSDMENU
            CODE    D1F8H     003EH     UNIT         ?PR?_DVRAODIOSEL?OSDMENU
            CODE    D236H     003DH     UNIT         ?PR?GETTIME_MS?CPU
            CODE    D273H     003DH     UNIT         ?PR?HS_INITVARS?MAIN
            CODE    D2B0H     003CH     UNIT         ?PR?_STRICMP?MONITOR
            CODE    D2ECH     003CH     UNIT         ?PR?MONTXDUMP?MONITOR
            CODE    D328H     003BH     UNIT         ?PR?CLOSEOSDMENU?OSDMENU
            CODE    D363H     003AH     UNIT         ?PR?LCDPOWEROFF?TW88
            CODE    D39DH     003AH     UNIT         ?PR?SETREARSOURCE?HS_KEYREMO
            CODE    D3D7H     0039H     UNIT         ?PR?_READI2C?I2C
            CODE    D410H     0039H     UNIT         ?PR?_WRITEI2CN_?I2C
            CODE    D449H     0039H     UNIT         ?PR?_WRITEALC106?I2C
            CODE    D482H     0039H     UNIT         ?PR?_ASC2BIN?MONITOR
BL51 BANKED LINKER/LOCATER V5.03                                                      01/25/2013  13:44:25  PAGE 6


            CODE    D4BBH     0038H     UNIT         ?PR?DOWNLOADUDFONT?OSDBASIC
            CODE    D4F3H     0038H     UNIT         ?PR?LCDPOWER?TW88
            CODE    D52BH     0034H     UNIT         ?PR?SERIAL_INT?CPU
            CODE    D55FH     0033H     UNIT         ?PR?MAIN
            CODE    D592H     0033H     UNIT         ?PR?_WRITESTRINGTOADDR?OSDBASIC
            CODE    D5C5H     0033H     UNIT         ?PR?_ASC1BIN?MONITOR
            CODE    D5F8H     0031H     UNIT         ?PR?SERIAL2_INT?CPU
            CODE    D629H     0031H     UNIT         ?PR?_DRAWATTRCNT?OSDBASIC
            CODE    D65AH     0030H     UNIT         ?PR?I2CREADDATA?I2C
            CODE    D68AH     0030H     UNIT         ?PR?_GET_CURSOR_ITEM?OSDMENU
            CODE    D6BAH     002FH     UNIT         ?PR?_SHOWOSDWINDOWALL?OSDBASIC
            CODE    D6E9H     002DH     UNIT         ?PR?WAITENDOFDISPLAYAREA?OSDBASIC
            CODE    D716H     002DH     UNIT         ?PR?_CLEARDATACNT?OSDBASIC
            CODE    D743H     002CH     UNIT         ?PR?_READALC106?I2C
            CODE    D76FH     002CH     UNIT         ?PR?PUSHMENU?OSDMENU
            CODE    D79BH     0029H     UNIT         ?PR?SETRIGHTSOURCE?HS_KEYREMO
            CODE    D7C4H     0028H     UNIT         ?PR?I2CREADDATAWITHACK?I2C
            CODE    D7ECH     0028H     UNIT         ?PR?SAVEVALUE1?OSDMENU
            CODE    D814H     0027H     UNIT         ?PR?CLEARBASICEE?ETC_EEP
            CODE    D83BH     0027H     UNIT         ?PR?_PRINTF?PRINTF
            CODE    D862H     0026H     UNIT         ?PR?CLEARTVINFO?DISPINFO
            CODE    D888H     0026H     UNIT         ?PR?_READEEP?I2C
            CODE    D8AEH     0026H     UNIT         ?PR?_WRITEI2C?I2C
            CODE    D8D4H     0023H     UNIT         ?PR?READVINPUTSTD?MAIN
            CODE    D8F7H     0022H     UNIT         ?PR?SETLEFTSOURCE?HS_KEYREMO
            CODE    D919H     0021H     UNIT         ?PR?_GETVIDEODATAFROMEE?ETC_EEP
            CODE    D93AH     0020H     UNIT         ?PR?SETAUTODETECTSTD?TW88
            CODE    D95AH     0020H     UNIT         ?PR?SEQMODE?HS_KEYREMO
            CODE    D97AH     001FH     UNIT         ?PR?_DIFFTIME_MS?CPU
            CODE    D999H     001FH     UNIT         ?PR?GETNEXTINPUTSELECTION?MAIN
            CODE    D9B8H     001FH     UNIT         ?PR?PROMPT?MONITOR
            CODE    D9D7H     001EH     UNIT         ?PR?INITVARS?CPU
            CODE    D9F5H     001EH     UNIT         ?PR?_POWERLED?CPU
            CODE    DA13H     001EH     UNIT         ?PR?I2C
            CODE    DA31H     001DH     UNIT         ?PR?_SETLANGUAGE?OSDMENU
            CODE    DA4EH     001DH     UNIT         ?PR?_CLEARAUTODETECTSTD?TW88
            CODE    DA6BH     001CH     UNIT         ?PR?POPMENU?OSDMENU
            CODE    DA87H     001CH     UNIT         ?PR?_GETNEXTCURSORMENUITEM?OSDMENU
            CODE    DAA3H     001CH     UNIT         ?PR?COMPOSITE1INPUT?TW88
            CODE    DABFH     001CH     UNIT         ?PR?COMPOSITE2INPUT?TW88
            CODE    DADBH     001CH     UNIT         ?PR?COMPOSITE3INPUT?TW88
            CODE    DAF7H     001CH     UNIT         ?PR?COMPOSITE4INPUT?TW88
            CODE    DB13H     001CH     UNIT         ?PR?_TOUPPER?MONITOR
            CODE    DB2FH     001BH     UNIT         ?PR?REMOVOLUP_RIGHTKEY?KEYREMO
            CODE    DB4AH     001BH     UNIT         ?PR?REMOVOLDN_LEFTKEY?KEYREMO
            CODE    DB65H     001BH     UNIT         ?PR?_GETKEY?KEYREMO
            CODE    DB80H     001BH     UNIT         ?PR?_STRLEN?OSDBASIC
            CODE    DB9BH     001BH     UNIT         ?PR?_PUTS?PRINTF
            CODE    DBB6H     0019H     UNIT         ?CO?AUDIO
            CODE    DBCFH     0018H     UNIT         ?PR?RS_RX?CPU
            CODE    DBE7H     0016H     UNIT         ?PR?CLEARINPUT?DISPINFO
            CODE    DBFDH     0016H     UNIT         ?PR?DISPINFO
            CODE    DC13H     0015H     UNIT         ?PR?_DELAY?CPU
            CODE    DC28H     0015H     UNIT         ?PR?_REMOMENU_MENUKEY?KEYREMO
            CODE    DC3DH     0014H     UNIT         ?PR?SETTRIGGERCSOURCE?HS_KEYREMO
            CODE    DC51H     0012H     UNIT         ?PR?I2CSTART?I2C
            CODE    DC63H     0012H     UNIT         ?PR?_ABS?ABS
BL51 BANKED LINKER/LOCATER V5.03                                                      01/25/2013  13:44:25  PAGE 7


            CODE    DC75H     0011H     UNIT         ?PR?_SAVEVIDEODATATOEE?ETC_EEP
            CODE    DC86H     0011H     UNIT         ?PR?ISNOINPUT?MAIN
            CODE    DC97H     0011H     UNIT         ?PR?GETOSDLANG?OSDMENU
            CODE    DCA8H     0011H     UNIT         ?CO?PRINTF
            CODE    DCB9H     000FH     UNIT         ?PR?TIMER2_INT?CPU
            CODE    DCC8H     000FH     UNIT         ?PR?CLEARMUTEINFO?DISPINFO
            CODE    DCD7H     000FH     UNIT         ?PR?GETLCDPOWERSTATE?TW88
            CODE    DCE6H     000FH     UNIT         ?PR?CLEARGAUGEINFO?HS_DISPLAYOSD
            CODE    DCF5H     000DH     UNIT         ?PR?REMOCHNUP_UPKEY?KEYREMO
            CODE    DD02H     000DH     UNIT         ?PR?REMOCHNDN_DNKEY?KEYREMO
            CODE    DD0FH     000DH     UNIT         ?PR?POWEROFF?MAIN
            CODE    DD1CH     000DH     UNIT         ?PR?CHKOSDMENU_TOPWIN?OSDMENU
            CODE    DD29H     000DH     UNIT         ?PR?CHKOSDMENU_WINDOW?OSDMENU
            CODE    DD36H     000DH     UNIT         ?PR?CHKOSDMENU?OSDMENU
            CODE    DD43H     000CH     UNIT         ?PR?_CLEARDISPLAYEDOSD?DISPINFO
            CODE    DD4FH     000CH     UNIT         ?PR?SETOSDLASTKEYINTIME?MAIN
            CODE    DD5BH     000CH     UNIT         ?PR?CLEARVALUEWIN?OSDMENU
            CODE    DD67H     000BH     UNIT         ?PR?RS_READY?CPU
            CODE    DD72H     000AH     UNIT         ?PR?_GETVIDEODATAWITHOFFSET?OSDMENU
            CODE    DD7CH     0009H     UNIT         ?PR?_SAVEDEBUGLEVELEE?ETC_EEP
            CODE    DD85H     0009H     UNIT         ?PR?_SAVEWIDEMODEEE?ETC_EEP
            CODE    DD8EH     0009H     UNIT         ?PR?_SAVEOSDPOSITIONMODEEE?ETC_EEP
            CODE    DD97H     0009H     UNIT         ?PR?_SAVEINPUTSELECTIONEE?ETC_EEP
            CODE    DDA0H     0009H     UNIT         ?PR?_SAVEOSDLANGEE?ETC_EEP
            CODE    DDA9H     0009H     UNIT         ?PR?_SETAUDIOVOLEE?ETC_EEP
            CODE    DDB2H     0009H     UNIT         ?PR?_SETPCAUDIOVOLEE?ETC_EEP
            CODE    DDBBH     0009H     UNIT         ?PR?POWERDOWN_XTAL?MAIN
            CODE    DDC4H     0009H     UNIT         ?PR?GETOSDLASTKEYINTIME?MAIN
            CODE    DDCDH     0009H     UNIT         ?PR?_GETUPPERMENUITEM?OSDMENU
            CODE    DDD6H     0009H     UNIT         ?PR?AUDIOMUTE?AUDIO
            CODE    DDDFH     0008H     UNIT         ?PR?_RS2_TX?CPU
            CODE    DDE7H     0008H     UNIT         ?PR?GETDEBUGLEVELEE?ETC_EEP
            CODE    DDEFH     0008H     UNIT         ?PR?GETWIDEMODEEE?ETC_EEP
            CODE    DDF7H     0008H     UNIT         ?PR?GETPOSSIBLEAUTODETECTSTDEE?ETC_EEP
            CODE    DDFFH     0008H     UNIT         ?PR?GETOSDPOSITIONMODEEE?ETC_EEP
            CODE    DE07H     0008H     UNIT         ?PR?GETOSDLANGEE?ETC_EEP
            CODE    DE0FH     0008H     UNIT         ?PR?GETAUDIOVOLEE?ETC_EEP
            CODE    DE17H     0008H     UNIT         ?PR?GETPCAUDIOVOLEE?ETC_EEP
            CODE    DE1FH     0007H     UNIT         ?PR?CLEARLOGO?DISPINFO
            CODE    DE26H     0007H     UNIT         ?PR?_SETDISPLAYEDOSD?DISPINFO
            CODE    DE2DH     0006H     UNIT         ?PR?GETDISPLAYEDOSD?DISPINFO
            CODE    DE33H     0006H     UNIT         ?PR?GETVINPUTSTD?MAIN
            CODE    DE39H     0006H     UNIT         ?PR?GETINPUTSELECTION?MAIN
            CODE    DE3FH     0003H     UNIT         ?PR?ISINPUTANALOGRGB?OSDMENU
            CODE    DE42H     0003H     UNIT         ?PR?_MON_TX?MONITOR
            CODE    DE45H     0003H     UNIT         ?PR?_SETMONADDRESS?MONITOR



OVERLAY MAP OF MODULE:   .\Output\AWT_ML074Q (ADC)


SEGMENT                                             BIT_GROUP          XDATA_GROUP
  +--> CALLED SEGMENT                            START    LENGTH     START    LENGTH
------------------------------------------------------------------------------------
?C_C51STARTUP                                    -----    -----      -----    -----
  +--> ?PR?MAIN?MAIN
BL51 BANKED LINKER/LOCATER V5.03                                                      01/25/2013  13:44:25  PAGE 8


  +--> ?C_INITSEG

?PR?MAIN?MAIN                                    -----    -----      0000H    0003H
  +--> ?PR?_WAIT_MS?CPU
  +--> ?PR?INITCPU?CPU
  +--> ?PR?_SETMONADDRESS?MONITOR
  +--> ?PR?INITVARS?CPU
  +--> ?PR?HS_INITVARS?MAIN
  +--> ?PR?INITTECHWELL?CPU
  +--> ?PR?LCDPOWEROFF?TW88
  +--> ?PR?MAIN_INIT?CPU
  +--> ?PR?LOADEEPROM?MAIN
  +--> ?PR?_TW2835COMMAND?CPU
  +--> ?PR?SETNOWMODE?HS_KEYREMO
  +--> ?PR?_CHANGEVOL?AUDIO
  +--> ?PR?_DVRAODIOSEL?OSDMENU
  +--> ?PR?_READEEP?I2C
  +--> ?PR?_CAMOUTDSEL?OSDMENU
  +--> ?PR?MAIN_LOOP?MAIN
  +--> ?PR?POWEROFF?MAIN
  +--> ?PR?WAITPOWERON?MAIN

?PR?_WAIT_MS?CPU                                 -----    -----      0028H    0004H

?PR?INITVARS?CPU                                 -----    -----      -----    -----
  +--> ?PR?_DELAY?CPU
  +--> ?PR?POWERDOWN_XTAL?MAIN

?PR?POWERDOWN_XTAL?MAIN                          0023H.1  0000H.1    -----    -----

?PR?INITTECHWELL?CPU                             -----    -----      -----    -----
  +--> ?CO?CPU
  +--> ?PR?_PUTS?PRINTF
  +--> ?PR?_READI2C?I2C
  +--> ?PR?_PRINTF?PRINTF
  +--> ?PR?RS_READY?CPU
  +--> ?PR?_DELAY?CPU
  +--> ?PR?CPU

?PR?_PUTS?PRINTF                                 -----    -----      001CH    0003H
  +--> ?PR?PRINTF
  +--> ?PR?_RS_TX?CPU

?PR?_READI2C?I2C                                 -----    -----      0044H    0003H
  +--> ?PR?I2CSTART?I2C
  +--> ?PR?_I2CWRITEDATA?I2C
  +--> ?PR?I2CREADDATA?I2C
  +--> ?PR?I2CSTOP?I2C

?PR?I2CSTART?I2C                                 -----    -----      -----    -----
  +--> ?PR?DD?I2C

?PR?_I2CWRITEDATA?I2C                            -----    -----      -----    -----
  +--> ?PR?I2C

?PR?I2C                                          -----    -----      -----    -----
  +--> ?PR?DD?I2C
BL51 BANKED LINKER/LOCATER V5.03                                                      01/25/2013  13:44:25  PAGE 9



?PR?I2CREADDATA?I2C                              -----    -----      -----    -----
  +--> ?PR?DD?I2C

?PR?I2CSTOP?I2C                                  -----    -----      -----    -----
  +--> ?PR?DD?I2C

?PR?_PRINTF?PRINTF                               -----    -----      002EH    002EH
  +--> ?PR?_DOPRINT?PRINTF

?PR?_DOPRINT?PRINTF                              0023H.1  0000H.2    005CH    0015H
  +--> ?PR?PRINTF
  +--> ?CO?PRINTF

?PR?LCDPOWEROFF?TW88                             -----    -----      -----    -----
  +--> ?PR?_WRITEI2C?I2C
  +--> ?PR?OFF_LVDS?TW88
  +--> ?PR?_WAIT_MS?CPU
  +--> ?PR?_DELAY?CPU

?PR?_WRITEI2C?I2C                                -----    -----      005AH    0003H
  +--> ?PR?I2C
  +--> ?PR?I2CSTART?I2C
  +--> ?PR?_I2CWRITEDATA?I2C
  +--> ?PR?I2CSTOP?I2C

?PR?MAIN_INIT?CPU                                -----    -----      0003H    0002H
  +--> ?PR?_WRITEI2C?I2C
  +--> ?PR?GETFWREVEE?ETC_EEP
  +--> ?PR?CPU
  +--> ?CO?CPU
  +--> ?PR?_PRINTF?PRINTF
  +--> ?PR?_SAVEFWREVEE?ETC_EEP
  +--> ?PR?_SAVEDEBUGLEVELEE?ETC_EEP
  +--> ?PR?_SAVEINPUTSELECTIONEE?ETC_EEP
  +--> ?PR?CLEARBASICEE?ETC_EEP
  +--> ?PR?GETDEBUGLEVELEE?ETC_EEP
  +--> ?PR?_SETVINPUTSTD?MAIN
  +--> ?PR?_INITVIDEODATA?MAIN
  +--> ?PR?DISPLAYLOGO?DISPINFO
  +--> ?PR?_LCDPOWERON?TW88
  +--> ?PR?_READEEP?I2C
  +--> ?PR?SETPOSSIBLEAUTODETECTSTDEE?ETC_EEP
  +--> ?PR?CHANGE_OSDCOLORLOOKUP?OSDBASIC
  +--> ?PR?DOWNLOADUDFONT?OSDBASIC
  +--> ?PR?_DELAY?CPU
  +--> ?PR?_WRITEALC106?I2C
  +--> ?PR?_READALC106?I2C
  +--> ?PR?PROMPT?MONITOR

?PR?GETFWREVEE?ETC_EEP                           -----    -----      0005H    0002H
  +--> ?PR?_READEEP?I2C

?PR?_READEEP?I2C                                 -----    -----      0038H    0001H
  +--> ?PR?_READI2C?I2C
  +--> ?PR?_DELAY?CPU

BL51 BANKED LINKER/LOCATER V5.03                                                      01/25/2013  13:44:25  PAGE 10


?PR?_SAVEFWREVEE?ETC_EEP                         -----    -----      0005H    0002H
  +--> ?PR?_WRITEEEP?I2C

?PR?_WRITEEEP?I2C                                -----    -----      002BH    0004H
  +--> ?PR?I2CSTART?I2C
  +--> ?PR?_I2CWRITEDATA?I2C
  +--> ?PR?I2CSTOP?I2C
  +--> ?PR?_DELAY?CPU

?PR?_SAVEDEBUGLEVELEE?ETC_EEP                    -----    -----      -----    -----
  +--> ?PR?_WRITEEEP?I2C

?PR?_SAVEINPUTSELECTIONEE?ETC_EEP                -----    -----      -----    -----
  +--> ?PR?_WRITEEEP?I2C

?PR?CLEARBASICEE?ETC_EEP                         -----    -----      -----    -----
  +--> ?PR?_WRITEEEP?I2C
  +--> ?PR?RESETOSDVALUE?OSDMENU
  +--> ?PR?RESETVIDEOVALUE?OSDMENU
  +--> ?PR?_SET4WIDESCREEN?OSDMENU

?PR?RESETOSDVALUE?OSDMENU                        -----    -----      -----    -----
  +--> ?CO?OSDMENU
  +--> ?PR?_SAVEOSDPOSITIONMODEEE?ETC_EEP
  +--> ?PR?_READEEP?I2C
  +--> ?PR?_WRITEEEP?I2C
  +--> ?PR?_CHANGEVOL?AUDIO
  +--> ?PR?_CAMOUTDSEL?OSDMENU
  +--> ?PR?_PUTS?PRINTF
  +--> ?PR?_CLEARDATACNT?OSDBASIC
  +--> ?PR?LOADEEPROM?MAIN
  +--> ?PR?_SAVEOSDLANGEE?ETC_EEP
  +--> ?PR?_HS_DVRTXCMDPASER?HS_DVRPROTOCOL
  +--> ?PR?_INITOSDMENU?OSDMENU

?PR?_SAVEOSDPOSITIONMODEEE?ETC_EEP               -----    -----      -----    -----
  +--> ?PR?_WRITEEEP?I2C

?PR?_CHANGEVOL?AUDIO                             -----    -----      001CH    0005H
  +--> ?PR?AUDIOMUTE?AUDIO
  +--> ?CO?OSDMENU
  +--> ?PR?_WRITEI2C?I2C
  +--> ?CO?AUDIO
  +--> ?PR?_SETPCAUDIOVOLEE?ETC_EEP
  +--> ?PR?_SETAUDIOVOLEE?ETC_EEP
  +--> ?PR?_PRINTF?PRINTF

?PR?AUDIOMUTE?AUDIO                              0023H.1  0000H.1    -----    -----

?PR?_SETPCAUDIOVOLEE?ETC_EEP                     -----    -----      -----    -----
  +--> ?PR?_WRITEEEP?I2C

?PR?_SETAUDIOVOLEE?ETC_EEP                       -----    -----      -----    -----
  +--> ?PR?_WRITEEEP?I2C

?PR?_CAMOUTDSEL?OSDMENU                          -----    -----      0015H    0001H
  +--> ?CO?OSDMENU
BL51 BANKED LINKER/LOCATER V5.03                                                      01/25/2013  13:44:25  PAGE 11


  +--> ?PR?_PUTS?PRINTF

?PR?_CLEARDATACNT?OSDBASIC                       -----    -----      003EH    0003H
  +--> ?PR?OSDBASIC
  +--> ?PR?_WRITEI2C?I2C
  +--> ?PR?_WRITEI2CND?I2C

?PR?OSDBASIC                                     -----    -----      -----    -----
  +--> ?CO?OSDBASIC

?PR?_WRITEI2CND?I2C                              -----    -----      0042H    0005H
  +--> ?PR?I2C
  +--> ?PR?I2CSTART?I2C
  +--> ?PR?_I2CWRITEDATA?I2C
  +--> ?PR?I2CSTOP?I2C

?PR?LOADEEPROM?MAIN                              -----    -----      -----    -----
  +--> ?PR?_READEEP?I2C
  +--> ?PR?GETAUDIOVOLEE?ETC_EEP
  +--> ?PR?GETPCAUDIOVOLEE?ETC_EEP

?PR?GETAUDIOVOLEE?ETC_EEP                        -----    -----      -----    -----
  +--> ?PR?_READEEP?I2C

?PR?GETPCAUDIOVOLEE?ETC_EEP                      -----    -----      -----    -----
  +--> ?PR?_READEEP?I2C

?PR?_SAVEOSDLANGEE?ETC_EEP                       -----    -----      -----    -----
  +--> ?PR?_WRITEEEP?I2C

?PR?_HS_DVRTXCMDPASER?HS_DVRPROTOCOL             -----    -----      0015H    0019H
  +--> ?CO?HS_DVRPROTOCOL
  +--> ?PR?HS_DVRPROTOCOL
  +--> ?PR?_PRINTF?PRINTF
  +--> ?PR?_HS_SEND_DVR_COMMAND?HS_DVRPROTOCOL

?PR?_HS_SEND_DVR_COMMAND?HS_DVRPROTOCOL          -----    -----      002EH    0006H
  +--> ?PR?HS_DVRPROTOCOL
  +--> ?PR?_RS2_TX?CPU

?PR?_INITOSDMENU?OSDMENU                         -----    -----      000CH    0002H
  +--> ?PR?GETOSDLANGEE?ETC_EEP
  +--> ?PR?GETINPUTSELECTION?MAIN
  +--> ?CO?OSDMENU
  +--> ?PR?OSDMENU
  +--> ?CO?OSDBASIC
  +--> ?PR?_INITOSDWINDOW?OSDBASIC
  +--> ?PR?_CLEARDATACNT?OSDBASIC
  +--> ?PR?GETOSDPOSITIONMODEEE?ETC_EEP
  +--> ?PR?INITOSDMENUXY?OSDMENU
  +--> ?PR?DISPLAYOSDMENU?OSDMENU

?PR?GETOSDLANGEE?ETC_EEP                         -----    -----      -----    -----
  +--> ?PR?_READEEP?I2C

?PR?OSDMENU                                      -----    -----      -----    -----
  +--> ?CO?OSDMENU
BL51 BANKED LINKER/LOCATER V5.03                                                      01/25/2013  13:44:25  PAGE 12


  +--> ?CO?MAIN

?PR?_INITOSDWINDOW?OSDBASIC                      -----    -----      003EH    0005H
  +--> ?PR?_READI2C?I2C
  +--> ?PR?_WRITEI2C?I2C
  +--> ?PR?OSDBASIC
  +--> ?PR?_WRITEI2CN_?I2C

?PR?_WRITEI2CN_?I2C                              -----    -----      0043H    0006H
  +--> ?PR?I2CSTART?I2C
  +--> ?PR?_I2CWRITEDATA?I2C
  +--> ?PR?I2C
  +--> ?PR?I2CSTOP?I2C

?PR?GETOSDPOSITIONMODEEE?ETC_EEP                 -----    -----      -----    -----
  +--> ?PR?_READEEP?I2C

?PR?INITOSDMENUXY?OSDMENU                        -----    -----      000EH    0007H
  +--> ?CO?OSDMENU
  +--> ?PR?OSDMENU
  +--> ?PR?_GETOSDWINDOWX?OSDBASIC
  +--> ?PR?_SETOSDWINDOWX_TW88?OSDBASIC
  +--> ?PR?_GETOSDWINDOWY?OSDBASIC
  +--> ?PR?_SETOSDWINDOWY_TW88?OSDBASIC

?PR?_GETOSDWINDOWX?OSDBASIC                      -----    -----      002BH    0002H
  +--> ?PR?OSDBASIC
  +--> ?PR?_WRITEI2C?I2C
  +--> ?PR?_READI2C?I2C

?PR?_SETOSDWINDOWX_TW88?OSDBASIC                 -----    -----      0015H    0003H
  +--> ?PR?OSDBASIC
  +--> ?PR?_WRITEI2C?I2C
  +--> ?PR?_READI2C?I2C

?PR?_GETOSDWINDOWY?OSDBASIC                      -----    -----      002BH    0002H
  +--> ?PR?OSDBASIC
  +--> ?PR?_WRITEI2C?I2C
  +--> ?PR?_READI2C?I2C

?PR?_SETOSDWINDOWY_TW88?OSDBASIC                 -----    -----      0015H    0003H
  +--> ?PR?OSDBASIC
  +--> ?PR?_WRITEI2C?I2C
  +--> ?PR?_READI2C?I2C

?PR?DISPLAYOSDMENU?OSDMENU                       -----    -----      000EH    0004H
  +--> ?PR?_CLEARDATACNT?OSDBASIC
  +--> ?PR?_DRAWATTRCNT?OSDBASIC
  +--> ?PR?OSDMENU
  +--> ?PR?GETINPUTSELECTION?MAIN
  +--> ?PR?_READEEP?I2C
  +--> ?PR?_DRAWMENULIST?OSDMENU
  +--> ?PR?PUSHMENU?OSDMENU
  +--> ?PR?POPMENU?OSDMENU
  +--> ?PR?DISPLAYCURSOR?OSDMENU

?PR?_DRAWATTRCNT?OSDBASIC                        -----    -----      003EH    0004H
BL51 BANKED LINKER/LOCATER V5.03                                                      01/25/2013  13:44:25  PAGE 13


  +--> ?PR?OSDBASIC
  +--> ?PR?_WRITEI2C?I2C
  +--> ?PR?_WRITEI2CND?I2C

?PR?_DRAWMENULIST?OSDMENU                        -----    -----      0014H    000CH
  +--> ?PR?OSDMENU
  +--> ?PR?_STRLEN?OSDBASIC
  +--> ?PR?_DRAWATTRCNT?OSDBASIC
  +--> ?PR?_WRITESTRINGTOADDR?OSDBASIC
  +--> ?PR?_CLEARDATACNT?OSDBASIC
  +--> ?PR?_WRITEI2C?I2C
  +--> ?PR?_DISPLAYOSDMENUONEITEM?OSDMENU
  +--> ?PR?_GETLOWERMENUITEM?OSDMENU

?PR?_STRLEN?OSDBASIC                             -----    -----      0054H    0003H

?PR?_WRITESTRINGTOADDR?OSDBASIC                  -----    -----      0054H    0006H
  +--> ?PR?OSDBASIC
  +--> ?PR?_WRITEI2C?I2C
  +--> ?PR?_WRITEI2CN?I2C

?PR?_WRITEI2CN?I2C                               -----    -----      005AH    0007H
  +--> ?PR?I2C
  +--> ?PR?I2CSTART?I2C
  +--> ?PR?_I2CWRITEDATA?I2C
  +--> ?PR?I2CSTOP?I2C

?PR?_DISPLAYOSDMENUONEITEM?OSDMENU               -----    -----      0020H    0015H
  +--> ?PR?OSDMENU
  +--> ?PR?_DRAWATTRCNT?OSDBASIC
  +--> ?PR?_CLEARDATACNT?OSDBASIC
  +--> ?PR?_GETITEMVALUE?OSDMENU
  +--> ?PR?_DISPLAYVIEWBAR?OSDMENU
  +--> ?PR?_DRAWNUM?OSDMENU
  +--> ?CO?OSDMENU
  +--> ?PR?_WRITESTRINGTOADDR?OSDBASIC
  +--> ?PR?_DRAWSTRINGBYLANG?OSDMENU
  +--> ?PR?_STRLEN?OSDBASIC

?PR?_GETITEMVALUE?OSDMENU                        -----    -----      0035H    0003H
  +--> ?PR?GETOSDPOSITIONMODE?OSDMENU
  +--> ?PR?_READEEP?I2C
  +--> ?PR?_GETVIDEODATAWITHOFFSET?OSDMENU
  +--> ?PR?OSDMENU

?PR?GETOSDPOSITIONMODE?OSDMENU                   -----    -----      -----    -----
  +--> ?PR?GETOSDPOSITIONMODEEE?ETC_EEP

?PR?_GETVIDEODATAWITHOFFSET?OSDMENU              -----    -----      -----    -----
  +--> ?PR?_GETVIDEODATAFROMEE?ETC_EEP
  +--> ?PR?OSDMENU

?PR?_GETVIDEODATAFROMEE?ETC_EEP                  -----    -----      -----    -----
  +--> ?PR?_READEEP?I2C

?PR?_DISPLAYVIEWBAR?OSDMENU                      -----    -----      0035H    0010H
  +--> ?PR?OSDMENU
BL51 BANKED LINKER/LOCATER V5.03                                                      01/25/2013  13:44:25  PAGE 14


  +--> ?CO?OSDMENU
  +--> ?PR?_WRITESTRINGTOADDR?OSDBASIC

?PR?_DRAWNUM?OSDMENU                             -----    -----      0035H    001FH
  +--> ?PR?OSDMENU
  +--> ?CO?OSDMENU
  +--> ?PR?_UTOA?OSDBASIC
  +--> ?PR?_STRLEN?OSDBASIC
  +--> ?PR?_WRITESTRINGTOADDR?OSDBASIC

?PR?_UTOA?OSDBASIC                               -----    -----      0054H    000EH
  +--> ?PR?OSDBASIC

?PR?_DRAWSTRINGBYLANG?OSDMENU                    -----    -----      0035H    0018H
  +--> ?PR?OSDMENU
  +--> ?CO?OSDMENU
  +--> ?PR?_WRITESTRINGTOADDR?OSDBASIC
  +--> ?PR?_STRLEN?OSDBASIC

?PR?_GETLOWERMENUITEM?OSDMENU                    -----    -----      0020H    0004H

?PR?PUSHMENU?OSDMENU                             -----    -----      -----    -----
  +--> ?PR?OSDMENU

?PR?POPMENU?OSDMENU                              -----    -----      -----    -----
  +--> ?PR?OSDMENU

?PR?DISPLAYCURSOR?OSDMENU                        -----    -----      0012H    0007H
  +--> ?PR?OSDMENU
  +--> ?PR?_DRAWATTRCNT?OSDBASIC
  +--> ?PR?_GETITEMVALUE?OSDMENU

?PR?RESETVIDEOVALUE?OSDMENU                      -----    -----      000CH    0002H
  +--> ?CO?OSDMENU
  +--> ?PR?_SETVIDEOMODE?OSDMENU
  +--> ?PR?_SAVEVIDEODATATOEE?ETC_EEP

?PR?_SETVIDEOMODE?OSDMENU                        -----    -----      0022H    0007H
  +--> ?PR?_WRITEEEP?I2C
  +--> ?CO?OSDMENU
  +--> ?PR?_WRITEI2C?I2C
  +--> ?PR?OSDMENU
  +--> ?PR?_GETVIDEODATAWITHOFFSET?OSDMENU
  +--> ?PR?_SETVIDEOCONTRAST?OSDMENU
  +--> ?PR?_SETVIDEOBRIGHTNESS?OSDMENU
  +--> ?PR?_SETVIDEOSATURATION?OSDMENU
  +--> ?PR?_SETVIDEOHUE?OSDMENU
  +--> ?PR?_MAPPING1?TW88
  +--> ?PR?_READI2C?I2C

?PR?_SETVIDEOCONTRAST?OSDMENU                    -----    -----      0029H    0003H
  +--> ?PR?GETINPUTSELECTION?MAIN
  +--> ?PR?OSDMENU
  +--> ?CO?OSDMENU
  +--> ?PR?_MAPPING1?TW88
  +--> ?PR?_WRITEI2C?I2C

BL51 BANKED LINKER/LOCATER V5.03                                                      01/25/2013  13:44:25  PAGE 15


?PR?_MAPPING1?TW88                               -----    -----      002DH    000FH
  +--> ?PR?TW88

?PR?_SETVIDEOBRIGHTNESS?OSDMENU                  -----    -----      0029H    0003H
  +--> ?PR?OSDMENU
  +--> ?CO?OSDMENU
  +--> ?PR?_MAPPING1?TW88
  +--> ?PR?ISINPUTANALOGRGB?OSDMENU
  +--> ?PR?_WRITEI2C?I2C

?PR?_SETVIDEOSATURATION?OSDMENU                  -----    -----      0029H    0004H
  +--> ?PR?ISINPUTANALOGRGB?OSDMENU
  +--> ?PR?OSDMENU
  +--> ?CO?OSDMENU
  +--> ?PR?_MAPPING1?TW88
  +--> ?PR?_READI2C?I2C
  +--> ?PR?_WRITEI2C?I2C

?PR?_SETVIDEOHUE?OSDMENU                         -----    -----      0029H    0003H
  +--> ?PR?OSDMENU
  +--> ?CO?OSDMENU
  +--> ?PR?_MAPPING1?TW88
  +--> ?PR?_READI2C?I2C
  +--> ?PR?ISINPUTANALOGRGB?OSDMENU
  +--> ?PR?_WRITEI2C?I2C

?PR?_SAVEVIDEODATATOEE?ETC_EEP                   -----    -----      -----    -----
  +--> ?PR?_WRITEEEP?I2C

?PR?_SET4WIDESCREEN?OSDMENU                      -----    -----      0022H    0006H
  +--> ?PR?GETVINPUTSTD?MAIN
  +--> ?CO?OSDMENU
  +--> ?PR?WAITENDOFDISPLAYAREA?OSDBASIC
  +--> ?PR?OSDMENU
  +--> ?PR?_WRITEI2C?I2C
  +--> ?PR?_SAVEWIDEMODEEE?ETC_EEP

?PR?WAITENDOFDISPLAYAREA?OSDBASIC                -----    -----      0042H    0002H
  +--> ?PR?_READI2C?I2C

?PR?_SAVEWIDEMODEEE?ETC_EEP                      -----    -----      -----    -----
  +--> ?PR?_WRITEEEP?I2C

?PR?GETDEBUGLEVELEE?ETC_EEP                      -----    -----      -----    -----
  +--> ?PR?_READEEP?I2C

?PR?_SETVINPUTSTD?MAIN                           -----    -----      0021H    0001H
  +--> ?PR?GETVINPUTSTDINX?MAIN
  +--> ?CO?MAIN
  +--> ?PR?MAIN
  +--> ?PR?_PRINTF?PRINTF

?PR?GETVINPUTSTDINX?MAIN                         -----    -----      -----    -----
  +--> ?PR?READVINPUTSTD?MAIN
  +--> ?PR?MAIN
  +--> ?CO?MAIN

BL51 BANKED LINKER/LOCATER V5.03                                                      01/25/2013  13:44:25  PAGE 16


?PR?READVINPUTSTD?MAIN                           -----    -----      -----    -----
  +--> ?PR?ISNOINPUT?MAIN
  +--> ?PR?_READI2C?I2C

?PR?ISNOINPUT?MAIN                               -----    -----      -----    -----
  +--> ?PR?_READI2C?I2C

?PR?MAIN                                         -----    -----      -----    -----
  +--> ?CO?MAIN

?PR?_INITVIDEODATA?MAIN                          -----    -----      0021H    0001H
  +--> ?CO?MAIN
  +--> ?PR?MAIN
  +--> ?PR?_PRINTF?PRINTF
  +--> ?CO?TABLE
  +--> ?PR?_I2CDEVICEINITIALIZE?MAIN
  +--> ?PR?_WRITEI2C?I2C
  +--> ?PR?_CLEARAUTODETECTSTD?TW88
  +--> ?PR?SETAUTODETECTSTD?TW88
  +--> ?PR?_READEEP?I2C
  +--> ?PR?_SETVIDEOMODE?OSDMENU
  +--> ?PR?GETWIDEMODEEE?ETC_EEP
  +--> ?PR?_SET4WIDESCREEN?OSDMENU

?PR?_I2CDEVICEINITIALIZE?MAIN                    -----    -----      0022H    0006H
  +--> ?PR?MAIN
  +--> ?PR?_WRITEI2C?I2C

?PR?_CLEARAUTODETECTSTD?TW88                     -----    -----      0022H    0001H
  +--> ?PR?_READI2C?I2C
  +--> ?PR?_WRITEI2C?I2C

?PR?SETAUTODETECTSTD?TW88                        -----    -----      -----    -----
  +--> ?PR?GETPOSSIBLEAUTODETECTSTDEE?ETC_EEP
  +--> ?PR?_WRITEI2C?I2C
  +--> ?PR?_READI2C?I2C

?PR?GETPOSSIBLEAUTODETECTSTDEE?ETC_EEP           -----    -----      -----    -----
  +--> ?PR?_READEEP?I2C

?PR?GETWIDEMODEEE?ETC_EEP                        -----    -----      -----    -----
  +--> ?PR?_READEEP?I2C

?PR?DISPLAYLOGO?DISPINFO                         -----    -----      0005H    0002H
  +--> ?CO?DISPINFO
  +--> ?CO?OSDBASIC
  +--> ?PR?_INITOSDWINDOW?OSDBASIC
  +--> ?PR?_CLEARDATACNT?OSDBASIC
  +--> ?PR?_DRAWATTRCNT?OSDBASIC
  +--> ?PR?DISPINFO
  +--> ?PR?_WRITESTRINGTOADDR?OSDBASIC
  +--> ?PR?_SHOWOSDWINDOW_TW88?OSDBASIC

?PR?DISPINFO                                     -----    -----      -----    -----
  +--> ?CO?MAIN

?PR?_SHOWOSDWINDOW_TW88?OSDBASIC                 -----    -----      003FH    0002H
BL51 BANKED LINKER/LOCATER V5.03                                                      01/25/2013  13:44:25  PAGE 17


  +--> ?PR?OSDBASIC
  +--> ?PR?_WRITEI2C?I2C
  +--> ?PR?_READI2C?I2C
  +--> ?PR?WAITENDOFDISPLAYAREA?OSDBASIC

?PR?_LCDPOWERON?TW88                             -----    -----      -----    -----
  +--> ?PR?CHECKTRIGGER?HS_KEYREMO
  +--> ?PR?_POWERLED?CPU
  +--> ?PR?GETLCDPOWERSTATE?TW88
  +--> ?PR?OFF_LVDS?TW88
  +--> ?PR?_WAIT_MS?CPU
  +--> ?PR?_DELAY?CPU
  +--> ?PR?ON_LVDS?TW88
  +--> ?PR?_WRITEI2C?I2C
  +--> ?CO?TW88
  +--> ?PR?_PUTS?PRINTF

?PR?CHECKTRIGGER?HS_KEYREMO                      -----    -----      -----    -----
  +--> ?CO?HS_KEYREMO
  +--> ?PR?_WAIT_MS?CPU
  +--> ?PR?_PRINTF?PRINTF

?PR?GETLCDPOWERSTATE?TW88                        -----    -----      -----    -----
  +--> ?PR?_READI2C?I2C

?PR?SETPOSSIBLEAUTODETECTSTDEE?ETC_EEP           -----    -----      0005H    0002H
  +--> ?CO?MAIN
  +--> ?PR?_WRITEEEP?I2C

?PR?CHANGE_OSDCOLORLOOKUP?OSDBASIC               -----    -----      0005H    0002H
  +--> ?CO?UDFONT
  +--> ?PR?_WRITEI2C?I2C

?PR?DOWNLOADUDFONT?OSDBASIC                      -----    -----      0008H    0001H
  +--> ?PR?_WRITEI2C?I2C
  +--> ?CO?UDFONT
  +--> ?PR?_DOWNLOADFONT?OSDBASIC

?PR?_DOWNLOADFONT?OSDBASIC                       -----    -----      0009H    0004H
  +--> ?PR?_READI2C?I2C
  +--> ?PR?_WRITEI2C?I2C
  +--> ?PR?_WRITEI2CN?I2C

?PR?_WRITEALC106?I2C                             -----    -----      -----    -----
  +--> ?PR?I2CSTART?I2C
  +--> ?PR?_I2CWRITEDATA?I2C
  +--> ?PR?DD?I2C
  +--> ?PR?I2CSTOP?I2C
  +--> ?PR?_DELAY?CPU

?PR?_READALC106?I2C                              -----    -----      0005H    0002H
  +--> ?PR?_READI2CWORD?I2C
  +--> ?PR?_DELAY?CPU

?PR?_READI2CWORD?I2C                             -----    -----      0007H    0002H
  +--> ?PR?I2CSTART?I2C
  +--> ?PR?_I2CWRITEDATA?I2C
BL51 BANKED LINKER/LOCATER V5.03                                                      01/25/2013  13:44:25  PAGE 18


  +--> ?PR?I2CREADDATAWITHACK?I2C
  +--> ?PR?I2CREADDATA?I2C
  +--> ?PR?I2CSTOP?I2C

?PR?PROMPT?MONITOR                               -----    -----      -----    -----
  +--> ?CO?MONITOR
  +--> ?PR?MONITOR
  +--> ?PR?_PRINTF?PRINTF

?PR?MONITOR                                      -----    -----      -----    -----
  +--> ?CO?MONITOR
  +--> ?PR?_ASC2BIN?MONITOR

?PR?_ASC2BIN?MONITOR                             -----    -----      -----    -----
  +--> ?PR?_ASC1BIN?MONITOR

?PR?_TW2835COMMAND?CPU                           -----    -----      001BH    000DH
  +--> ?PR?CPU
  +--> ?CO?CPU
  +--> ?PR?_PRINTF?PRINTF
  +--> ?PR?GETTIME_MS?CPU
  +--> ?PR?_ABS?ABS
  +--> ?PR?_WAIT_MS?CPU

?PR?GETTIME_MS?CPU                               -----    -----      0028H    0002H

?PR?SETNOWMODE?HS_KEYREMO                        -----    -----      0015H    0001H
  +--> ?PR?HS_KEYREMO
  +--> ?PR?_PUTS?PRINTF
  +--> ?PR?_SETSOURCEMODE?HS_KEYREMO
  +--> ?PR?_READEEP?I2C
  +--> ?CO?HS_KEYREMO

?PR?HS_KEYREMO                                   -----    -----      -----    -----
  +--> ?CO?HS_KEYREMO

?PR?_SETSOURCEMODE?HS_KEYREMO                    -----    -----      0016H    0005H
  +--> ?CO?HS_KEYREMO
  +--> ?PR?_TW2835COMMAND?CPU
  +--> ?PR?_CHANGEINPUT?MAIN

?PR?_CHANGEINPUT?MAIN                            -----    -----      001BH    0001H
  +--> ?PR?CLEAROSDINFO?DISPINFO
  +--> ?PR?LCDPOWEROFF?TW88
  +--> ?PR?_INITVIDEODATA?MAIN
  +--> ?PR?COMPOSITE1INPUT?TW88
  +--> ?CO?MAIN
  +--> ?PR?COMPOSITE3INPUT?TW88
  +--> ?PR?COMPOSITE2INPUT?TW88
  +--> ?PR?COMPOSITE4INPUT?TW88
  +--> ?PR?MAIN
  +--> ?PR?_PRINTF?PRINTF
  +--> ?PR?CHECKPANELIMAGE?OSDMENU
  +--> ?PR?_SAVEINPUTSELECTIONEE?ETC_EEP
  +--> ?PR?_DELAY?CPU
  +--> ?PR?CHECKDECODERINPUT?MAIN
  +--> ?PR?DISPLAYINPUT?DISPINFO
BL51 BANKED LINKER/LOCATER V5.03                                                      01/25/2013  13:44:25  PAGE 19


  +--> ?PR?_LCDPOWERON?TW88
  +--> ?PR?_WRITEI2C?I2C
  +--> ?PR?_CHANGEVOL?AUDIO

?PR?CLEAROSDINFO?DISPINFO                        -----    -----      003EH    0001H
  +--> ?PR?CLEARLOGO?DISPINFO
  +--> ?PR?GETDISPLAYEDOSD?DISPINFO
  +--> ?PR?CLEARTVINFO?DISPINFO
  +--> ?PR?CLEARMUTEINFO?DISPINFO
  +--> ?PR?CLEARINPUT?DISPINFO
  +--> ?PR?CLOSEOSDMENU?OSDMENU
  +--> ?PR?CLEARGAUGEINFO?HS_DISPLAYOSD

?PR?CLEARLOGO?DISPINFO                           -----    -----      -----    -----
  +--> ?PR?_SHOWOSDWINDOW_TW88?OSDBASIC

?PR?CLEARTVINFO?DISPINFO                         -----    -----      -----    -----
  +--> ?PR?_SHOWOSDWINDOW_TW88?OSDBASIC

?PR?CLEARMUTEINFO?DISPINFO                       -----    -----      -----    -----
  +--> ?PR?_SHOWOSDWINDOW_TW88?OSDBASIC

?PR?CLEARINPUT?DISPINFO                          -----    -----      -----    -----
  +--> ?PR?_SHOWOSDWINDOWALL?OSDBASIC
  +--> ?PR?_SHOWOSDWINDOW_TW88?OSDBASIC

?PR?_SHOWOSDWINDOWALL?OSDBASIC                   -----    -----      0040H    0002H
  +--> ?PR?WAITENDOFDISPLAYAREA?OSDBASIC
  +--> ?PR?_READI2C?I2C
  +--> ?PR?_WRITEI2C?I2C

?PR?CLOSEOSDMENU?OSDMENU                         -----    -----      003FH    0001H
  +--> ?PR?_SHOWOSDWINDOWALL?OSDBASIC
  +--> ?PR?WAITENDOFDISPLAYAREA?OSDBASIC
  +--> ?PR?_WRITEI2C?I2C
  +--> ?PR?_CLEARDISPLAYEDOSD?DISPINFO

?PR?CLEARGAUGEINFO?HS_DISPLAYOSD                 -----    -----      -----    -----
  +--> ?PR?_SHOWOSDWINDOW_TW88?OSDBASIC

?PR?COMPOSITE1INPUT?TW88                         -----    -----      -----    -----
  +--> ?PR?_WRITEI2C?I2C
  +--> ?PR?TW88
  +--> ?PR?_READI2C?I2C

?PR?COMPOSITE3INPUT?TW88                         -----    -----      -----    -----
  +--> ?PR?_WRITEI2C?I2C
  +--> ?PR?TW88
  +--> ?PR?_READI2C?I2C

?PR?COMPOSITE2INPUT?TW88                         -----    -----      -----    -----
  +--> ?PR?_WRITEI2C?I2C
  +--> ?PR?TW88
  +--> ?PR?_READI2C?I2C

?PR?COMPOSITE4INPUT?TW88                         -----    -----      -----    -----
  +--> ?PR?_WRITEI2C?I2C
BL51 BANKED LINKER/LOCATER V5.03                                                      01/25/2013  13:44:25  PAGE 20


  +--> ?PR?TW88
  +--> ?PR?_READI2C?I2C

?PR?CHECKPANELIMAGE?OSDMENU                      -----    -----      -----    -----
  +--> ?PR?_READI2C?I2C
  +--> ?PR?_WRITEI2C?I2C

?PR?CHECKDECODERINPUT?MAIN                       -----    -----      001CH    0005H
  +--> ?PR?DETECTDECODERINPUT?TW88
  +--> ?PR?_SETVINPUTSTD?MAIN
  +--> ?PR?_DELAY?CPU
  +--> ?PR?_INITVIDEODATA?MAIN

?PR?DETECTDECODERINPUT?TW88                      -----    -----      0021H    0002H
  +--> ?PR?_DELAY?CPU
  +--> ?PR?_READI2C?I2C

?PR?DISPLAYINPUT?DISPINFO                        -----    -----      001CH    0009H
  +--> ?PR?GETDISPLAYEDOSD?DISPINFO
  +--> ?CO?DISPINFO
  +--> ?PR?_PRINTF?PRINTF
  +--> ?PR?CLEAROSDINFO?DISPINFO
  +--> ?CO?OSDBASIC
  +--> ?PR?_INITOSDWINDOW?OSDBASIC
  +--> ?PR?_CLEARDATACNT?OSDBASIC
  +--> ?PR?_DRAWATTRCNT?OSDBASIC
  +--> ?PR?_WRITESTRINGTOADDR?OSDBASIC
  +--> ?PR?GETINPUTSELECTION?MAIN
  +--> ?PR?GETVINPUTSTDINX?MAIN
  +--> ?CO?MAIN
  +--> ?PR?_STRLEN?OSDBASIC
  +--> ?PR?_READEEP?I2C
  +--> ?PR?DISPINFO
  +--> ?PR?_SHOWOSDWINDOW_TW88?OSDBASIC
  +--> ?PR?_SHOWOSDWINDOWALL?OSDBASIC
  +--> ?PR?GETTIME_MS?CPU

?PR?_DVRAODIOSEL?OSDMENU                         -----    -----      0015H    0001H
  +--> ?CO?OSDMENU
  +--> ?PR?_PUTS?PRINTF

?PR?MAIN_LOOP?MAIN                               -----    -----      0003H    0001H
  +--> ?CO?MAIN
  +--> ?PR?_PUTS?PRINTF
  +--> ?PR?RS_READY?CPU
  +--> ?PR?MONITOR?MONITOR
  +--> ?PR?CHECKTRIGGER?HS_KEYREMO
  +--> ?PR?_TRIGGERHANDLER?HS_KEYREMO
  +--> ?PR?SEQMODE?HS_KEYREMO
  +--> ?PR?_READI2C?I2C
  +--> ?PR?_ADJUSTAUTODAYNIGHT?MAIN
  +--> ?PR?CHECKKEYIN?KEYREMO
  +--> ?PR?CHECKANDCLEAROSD?DISPINFO
  +--> ?PR?GETINPUTSELECTION?MAIN
  +--> ?PR?GETDISPLAYEDOSD?DISPINFO
  +--> ?PR?CHECKDECODERINPUT?MAIN
  +--> ?PR?_WRITEI2C?I2C
BL51 BANKED LINKER/LOCATER V5.03                                                      01/25/2013  13:44:25  PAGE 21


  +--> ?PR?_POWERLED?CPU
  +--> ?PR?_WAIT_MS?CPU

?PR?MONITOR?MONITOR                              -----    -----      0004H    0001H
  +--> ?PR?MONGETCOMMAND?MONITOR
  +--> ?CO?MONITOR
  +--> ?PR?MONWRITEI2C?MONITOR
  +--> ?PR?MONNEWWRITEI2C?MONITOR
  +--> ?PR?MONREADI2C?MONITOR
  +--> ?PR?MONNEWREADI2C?MONITOR
  +--> ?PR?_PUTS?PRINTF
  +--> ?PR?MONDUMPI2C?MONITOR
  +--> ?PR?MONNEWDUMPI2C?MONITOR
  +--> ?PR?MONWRITEBIT?MONITOR
  +--> ?PR?_ASC2BIN?MONITOR
  +--> ?PR?MONHELP?MONITOR
  +--> ?PR?_PRINTF?PRINTF
  +--> ?PR?LCDPOWER?TW88
  +--> ?PR?_SAVEDEBUGLEVELEE?ETC_EEP
  +--> ?PR?MONITOR
  +--> ?PR?DISPLAYLOGO?DISPINFO
  +--> ?PR?RS_READY?CPU
  +--> ?PR?_READI2C?I2C
  +--> ?PR?DISPLAYINPUT?DISPINFO
  +--> ?PR?_SHOWOSDWINDOWALL?OSDBASIC
  +--> ?PR?MONTXDUMP?MONITOR
  +--> ?PR?_STRICMP?MONITOR
  +--> ?PR?_DISPLAYRAMFONT?OSDBASIC
  +--> ?PR?_DISPLAYROMFONT?OSDBASIC
  +--> ?PR?PROMPT?MONITOR

?PR?MONGETCOMMAND?MONITOR                        -----    -----      0005H    0003H
  +--> ?PR?RS_READY?CPU
  +--> ?PR?RS_RX?CPU
  +--> ?PR?_MON_TX?MONITOR
  +--> ?PR?PROMPT?MONITOR
  +--> ?PR?MONITOR
  +--> ?PR?_MONINCDECI2C?MONITOR

?PR?_MON_TX?MONITOR                              -----    -----      -----    -----
  +--> ?PR?_RS_TX?CPU

?PR?_MONINCDECI2C?MONITOR                        -----    -----      -----    -----
  +--> ?PR?MONITOR
  +--> ?PR?_WRITEI2C?I2C
  +--> ?PR?_READI2C?I2C
  +--> ?CO?MONITOR
  +--> ?PR?_PRINTF?PRINTF
  +--> ?PR?PROMPT?MONITOR

?PR?MONWRITEI2C?MONITOR                          -----    -----      -----    -----
  +--> ?PR?MONITOR
  +--> ?PR?_ASC2BIN?MONITOR
  +--> ?CO?MONITOR
  +--> ?PR?_PRINTF?PRINTF
  +--> ?PR?_WRITEI2C?I2C
  +--> ?PR?_READI2C?I2C
BL51 BANKED LINKER/LOCATER V5.03                                                      01/25/2013  13:44:25  PAGE 22



?PR?MONNEWWRITEI2C?MONITOR                       -----    -----      0005H    0001H
  +--> ?PR?MONITOR
  +--> ?PR?_ASC2BIN?MONITOR
  +--> ?PR?_WRITEI2C?I2C
  +--> ?PR?_READI2C?I2C
  +--> ?PR?_PRINTF?PRINTF

?PR?MONREADI2C?MONITOR                           -----    -----      -----    -----
  +--> ?PR?MONITOR
  +--> ?PR?_ASC2BIN?MONITOR
  +--> ?PR?_PRINTF?PRINTF
  +--> ?PR?_READI2C?I2C
  +--> ?CO?MONITOR

?PR?MONNEWREADI2C?MONITOR                        -----    -----      0005H    0001H
  +--> ?PR?MONITOR
  +--> ?PR?_PRINTF?PRINTF
  +--> ?PR?_ASC2BIN?MONITOR
  +--> ?PR?_READI2C?I2C

?PR?MONDUMPI2C?MONITOR                           -----    -----      0005H    0003H
  +--> ?PR?MONITOR
  +--> ?PR?_ASC2BIN?MONITOR
  +--> ?PR?_READI2C?I2C
  +--> ?CO?MONITOR
  +--> ?PR?_PRINTF?PRINTF

?PR?MONNEWDUMPI2C?MONITOR                        -----    -----      0005H    0004H
  +--> ?PR?MONITOR
  +--> ?PR?_ASC2BIN?MONITOR
  +--> ?PR?_READI2C?I2C
  +--> ?CO?MONITOR
  +--> ?PR?_PRINTF?PRINTF

?PR?MONWRITEBIT?MONITOR                          -----    -----      0005H    0005H
  +--> ?PR?MONITOR
  +--> ?PR?_ASC2BIN?MONITOR
  +--> ?CO?MONITOR
  +--> ?PR?_WRITEI2C?I2C
  +--> ?PR?_READI2C?I2C
  +--> ?PR?_PRINTF?PRINTF

?PR?MONHELP?MONITOR                              -----    -----      -----    -----
  +--> ?CO?MONITOR
  +--> ?PR?_PRINTF?PRINTF

?PR?LCDPOWER?TW88                                -----    -----      -----    -----
  +--> ?PR?LCDPOWEROFF?TW88
  +--> ?PR?POWERDOWN_XTAL?MAIN
  +--> ?CO?TW88
  +--> ?PR?_DELAY?CPU
  +--> ?PR?_LCDPOWERON?TW88
  +--> ?PR?_PRINTF?PRINTF

?PR?MONTXDUMP?MONITOR                            -----    -----      0005H    0002H
  +--> ?PR?MONITOR
BL51 BANKED LINKER/LOCATER V5.03                                                      01/25/2013  13:44:25  PAGE 23


  +--> ?CO?MONITOR
  +--> ?PR?_PUTS?PRINTF
  +--> ?PR?_A2I?MONITOR
  +--> ?PR?_RS_TX?CPU

?PR?_A2I?MONITOR                                 -----    -----      0007H    0008H
  +--> ?PR?MONITOR

?PR?_STRICMP?MONITOR                             -----    -----      0005H    0008H
  +--> ?PR?MONITOR
  +--> ?PR?_TOUPPER?MONITOR

?PR?_DISPLAYRAMFONT?OSDBASIC                     -----    -----      0005H    0003H
  +--> ?PR?_WRITEI2C?I2C
  +--> ?PR?OSDBASIC
  +--> ?CO?OSDBASIC
  +--> ?PR?_PUTS?PRINTF
  +--> ?PR?RS_READY?CPU
  +--> ?PR?DOWNLOADUDFONT?OSDBASIC
  +--> ?PR?_PRINTF?PRINTF

?PR?_DISPLAYROMFONT?OSDBASIC                     -----    -----      0005H    0002H
  +--> ?PR?OSDBASIC
  +--> ?PR?_WRITEI2C?I2C
  +--> ?CO?OSDBASIC
  +--> ?PR?_PUTS?PRINTF
  +--> ?PR?RS_READY?CPU

?PR?_TRIGGERHANDLER?HS_KEYREMO                   -----    -----      0006H    0009H
  +--> ?CO?HS_KEYREMO
  +--> ?PR?HS_KEYREMO
  +--> ?PR?_PRINTF?PRINTF
  +--> ?PR?SETREARSOURCE?HS_KEYREMO
  +--> ?PR?SETLEFTSOURCE?HS_KEYREMO
  +--> ?PR?SETRIGHTSOURCE?HS_KEYREMO
  +--> ?PR?CLEARGAUGEINFO?HS_DISPLAYOSD
  +--> ?PR?_PUTS?PRINTF
  +--> ?PR?SETTRIGGERCSOURCE?HS_KEYREMO
  +--> ?PR?_HS_DVRTXCMDPASER?HS_DVRPROTOCOL
  +--> ?PR?_READEEP?I2C
  +--> ?PR?CHECKTRIGGER?HS_KEYREMO
  +--> ?PR?_WAIT_MS?CPU
  +--> ?PR?DISPLAYINPUT?DISPINFO
  +--> ?PR?SETNOWMODE?HS_KEYREMO

?PR?SETREARSOURCE?HS_KEYREMO                     -----    -----      -----    -----
  +--> ?CO?HS_KEYREMO
  +--> ?PR?HS_KEYREMO
  +--> ?PR?_SETSOURCEMODE?HS_KEYREMO
  +--> ?PR?_READEEP?I2C
  +--> ?PR?DISPLAYGAUGEOSD?HS_DISPLAYOSD

?PR?DISPLAYGAUGEOSD?HS_DISPLAYOSD                -----    -----      000FH    0001H
  +--> ?PR?CLEAROSDINFO?DISPINFO
  +--> ?PR?HS_DISPLAYOSD
  +--> ?PR?_INITOSDWINDOW?OSDBASIC
  +--> ?PR?_CLEARDATACNT?OSDBASIC
BL51 BANKED LINKER/LOCATER V5.03                                                      01/25/2013  13:44:25  PAGE 24


  +--> ?PR?_DRAWATTRCNT?OSDBASIC
  +--> ?CO?HS_DISPLAYOSD
  +--> ?PR?_WRITESTRINGTOADDR?OSDBASIC
  +--> ?PR?_SETDISPLAYEDOSD?DISPINFO
  +--> ?PR?_SHOWOSDWINDOW_TW88?OSDBASIC
  +--> ?PR?_SHOWOSDWINDOWALL?OSDBASIC
  +--> ?PR?_WRITEI2C?I2C

?PR?HS_DISPLAYOSD                                -----    -----      -----    -----
  +--> ?CO?HS_DISPLAYOSD

?PR?SETLEFTSOURCE?HS_KEYREMO                     -----    -----      -----    -----
  +--> ?PR?_READEEP?I2C
  +--> ?CO?HS_KEYREMO
  +--> ?PR?HS_KEYREMO
  +--> ?PR?_SETSOURCEMODE?HS_KEYREMO

?PR?SETRIGHTSOURCE?HS_KEYREMO                    -----    -----      -----    -----
  +--> ?PR?_READEEP?I2C
  +--> ?CO?HS_KEYREMO
  +--> ?PR?HS_KEYREMO
  +--> ?PR?_SETSOURCEMODE?HS_KEYREMO

?PR?SETTRIGGERCSOURCE?HS_KEYREMO                 -----    -----      000FH    0001H
  +--> ?PR?_READEEP?I2C
  +--> ?PR?HS_KEYREMO
  +--> ?PR?_SETSOURCEMODE?HS_KEYREMO

?PR?SEQMODE?HS_KEYREMO                           -----    -----      -----    -----
  +--> ?CO?HS_KEYREMO
  +--> ?PR?HS_KEYREMO
  +--> ?PR?_SETSOURCEMODE?HS_KEYREMO

?PR?_ADJUSTAUTODAYNIGHT?MAIN                     -----    -----      0004H    0002H
  +--> ?PR?_READI2C?I2C
  +--> ?PR?MAIN
  +--> ?PR?_WRITEI2C?I2C

?PR?CHECKKEYIN?KEYREMO                           -----    -----      0004H    0003H
  +--> ?PR?_GETKEY?KEYREMO
  +--> ?CO?KEYREMO
  +--> ?PR?_PRINTF?PRINTF
  +--> ?PR?_WAIT_MS?CPU
  +--> ?PR?CLEARGAUGEINFO?HS_DISPLAYOSD
  +--> ?PR?DISPLAYINPUT?DISPINFO
  +--> ?PR?_POWERLED?CPU
  +--> ?PR?SETOSDLASTKEYINTIME?MAIN
  +--> ?PR?_ACTIONREMO?KEYREMO
  +--> ?PR?_WRITEEEP?I2C
  +--> ?PR?_DISPLAYINFORMATION?HS_DISPLAYOSD
  +--> ?PR?_DELAY?CPU
  +--> ?PR?GETDISPLAYEDOSD?DISPINFO
  +--> ?PR?OSDSELECT?OSDMENU
  +--> ?PR?CLEAROSDINFO?DISPINFO
  +--> ?PR?CLOSEOSDMENU?OSDMENU
  +--> ?PR?_OSDVALUEUPDN?OSDMENU
  +--> ?PR?_OSDCURSORMOVE?OSDMENU
BL51 BANKED LINKER/LOCATER V5.03                                                      01/25/2013  13:44:25  PAGE 25


  +--> ?PR?SETSELECTMODE?HS_KEYREMO
  +--> ?PR?SETJUMPMODE?HS_KEYREMO
  +--> ?PR?_CAM_TXCOMMAND_TORS485?HS_DVRPROT...
  +--> ?PR?_HS_DVRTXCMDPASER?HS_DVRPROTOCOL
  +--> ?PR?DISPLAYFWVERSION?HS_DISPLAYOSD
  +--> ?PR?_WRITEI2C?I2C
  +--> ?PR?_READEEP?I2C

?PR?_GETKEY?KEYREMO                              0023H.1  0000H.1    0007H    0001H

?PR?SETOSDLASTKEYINTIME?MAIN                     -----    -----      -----    -----
  +--> ?PR?GETTIME_MS?CPU

?PR?_ACTIONREMO?KEYREMO                          -----    -----      0007H    0002H
  +--> ?PR?SETOSDLASTKEYINTIME?MAIN
  +--> ?PR?GETNEXTINPUTSELECTION?MAIN
  +--> ?PR?_CHANGEINPUT?MAIN
  +--> ?PR?GETDISPLAYEDOSD?DISPINFO
  +--> ?PR?CLEARINPUT?DISPINFO
  +--> ?PR?DISPLAYINPUT?DISPINFO
  +--> ?PR?REMOCHNUP_UPKEY?KEYREMO
  +--> ?PR?REMOCHNDN_DNKEY?KEYREMO
  +--> ?PR?OSDSELECT?OSDMENU
  +--> ?PR?REMOVOLUP_RIGHTKEY?KEYREMO
  +--> ?PR?REMOVOLDN_LEFTKEY?KEYREMO
  +--> ?PR?_REMOMENU_MENUKEY?KEYREMO
  +--> ?PR?_DOACTION?OSDMENU
  +--> ?PR?_SETITEMVALUE?OSDMENU

?PR?GETNEXTINPUTSELECTION?MAIN                   -----    -----      -----    -----
  +--> ?PR?MAIN

?PR?REMOCHNUP_UPKEY?KEYREMO                      -----    -----      -----    -----
  +--> ?PR?GETDISPLAYEDOSD?DISPINFO
  +--> ?PR?_OSDCURSORMOVE?OSDMENU

?PR?_OSDCURSORMOVE?OSDMENU                       0023H.1  0000H.1    0009H    0004H
  +--> ?PR?OSDMENU
  +--> ?PR?_READEEP?I2C
  +--> ?PR?_GETNEXTCURSORMENUITEM?OSDMENU
  +--> ?PR?_GETLOWERMENUITEM?OSDMENU
  +--> ?PR?CLEARVALUEWIN?OSDMENU
  +--> ?PR?CLEARCURSOR?OSDMENU
  +--> ?PR?WAITENDOFDISPLAYAREA?OSDBASIC
  +--> ?PR?_GETOSDWINDOWX?OSDBASIC
  +--> ?PR?_SETOSDWINDOWX_TW88?OSDBASIC
  +--> ?PR?_WRITEI2C?I2C
  +--> ?PR?DISPLAYOSDMENU?OSDMENU
  +--> ?PR?_DRAWMENULIST?OSDMENU
  +--> ?PR?DISPLAYCURSOR?OSDMENU

?PR?_GETNEXTCURSORMENUITEM?OSDMENU               -----    -----      000DH    0005H
  +--> ?PR?_GETUPPERMENUITEM?OSDMENU
  +--> ?PR?_GETLOWERMENUITEM?OSDMENU

?PR?CLEARVALUEWIN?OSDMENU                        -----    -----      -----    -----
  +--> ?PR?SAVEVALUE1?OSDMENU
BL51 BANKED LINKER/LOCATER V5.03                                                      01/25/2013  13:44:25  PAGE 26



?PR?SAVEVALUE1?OSDMENU                           -----    -----      -----    -----
  +--> ?PR?OSDMENU

?PR?CLEARCURSOR?OSDMENU                          -----    -----      000DH    0002H
  +--> ?PR?OSDMENU
  +--> ?PR?_DRAWATTRCNT?OSDBASIC

?PR?REMOCHNDN_DNKEY?KEYREMO                      -----    -----      -----    -----
  +--> ?PR?GETDISPLAYEDOSD?DISPINFO
  +--> ?PR?_OSDCURSORMOVE?OSDMENU

?PR?OSDSELECT?OSDMENU                            -----    -----      0009H    0002H
  +--> ?PR?OSDMENU
  +--> ?PR?GETINPUTSELECTION?MAIN
  +--> ?PR?READVINPUTSTD?MAIN
  +--> ?PR?_DOACTION?OSDMENU
  +--> ?PR?DISPLAYCURSOR?OSDMENU
  +--> ?PR?_GETITEMVALUE?OSDMENU
  +--> ?PR?_WRITEI2C?I2C
  +--> ?PR?PUSHMENU?OSDMENU
  +--> ?PR?_GET_CURSOR_ITEM?OSDMENU
  +--> ?PR?DISPLAYOSDMENU?OSDMENU

?PR?_DOACTION?OSDMENU                            -----    -----      000BH    0001H
  +--> ?PR?_CHANGEINPUT?MAIN
  +--> ?PR?SETNOWMODE?HS_KEYREMO
  +--> ?PR?DISPLAYINPUT?DISPINFO
  +--> ?CO?OSDMENU
  +--> ?PR?CLEAROSDINFO?DISPINFO
  +--> ?PR?_HS_DVRTXCMDPASER?HS_DVRPROTOCOL
  +--> ?PR?DISPLAYINFO_OSD?OSDMENU
  +--> ?PR?CLOSEOSDMENU?OSDMENU
  +--> ?PR?_READEEP?I2C
  +--> ?PR?_DISPLAYINFORMATION?HS_DISPLAYOSD
  +--> ?PR?OSDMENU
  +--> ?PR?_PRINTF?PRINTF
  +--> ?PR?DVRRECEIVEPASER?HS_DVRPROTOCOL
  +--> ?PR?_WRITEEEP?I2C
  +--> ?PR?OSDHIGHMENU_SUB?OSDMENU
  +--> ?PR?_WAIT_MS?CPU
  +--> ?PR?_CAM_TXCOMMAND_TORS485?HS_DVRPROT...
  +--> ?PR?RESETVIDEOVALUE?OSDMENU
  +--> ?PR?RESETOSDVALUE?OSDMENU

?PR?DISPLAYINFO_OSD?OSDMENU                      -----    -----      000CH    0008H
  +--> ?PR?PUSHMENU?OSDMENU
  +--> ?PR?OSDMENU
  +--> ?PR?_DRAWMENULIST?OSDMENU
  +--> ?PR?_DRAWATTRCNT?OSDBASIC
  +--> ?CO?OSDMENU
  +--> ?PR?_WRITESTRINGTOADDR?OSDBASIC
  +--> ?PR?GETINPUTSELECTION?MAIN
  +--> ?CO?MAIN
  +--> ?PR?_STRLEN?OSDBASIC
  +--> ?PR?GETVINPUTSTDINX?MAIN
  +--> ?PR?_READEEP?I2C
BL51 BANKED LINKER/LOCATER V5.03                                                      01/25/2013  13:44:25  PAGE 27



?PR?_DISPLAYINFORMATION?HS_DISPLAYOSD            -----    -----      000CH    0001H
  +--> ?PR?HS_DISPLAYOSD
  +--> ?PR?_INITOSDWINDOW?OSDBASIC
  +--> ?PR?CLEAROSDINFO?DISPINFO
  +--> ?PR?_CLEARDATACNT?OSDBASIC
  +--> ?CO?HS_DISPLAYOSD
  +--> ?PR?_DRAWATTRCNT?OSDBASIC
  +--> ?PR?_WRITESTRINGTOADDR?OSDBASIC
  +--> ?PR?_SHOWOSDWINDOW_TW88?OSDBASIC
  +--> ?PR?_SHOWOSDWINDOWALL?OSDBASIC
  +--> ?PR?_WRITEI2C?I2C

?PR?DVRRECEIVEPASER?HS_DVRPROTOCOL               -----    -----      000CH    0020H
  +--> ?PR?HS_DVRPROTOCOL
  +--> ?CO?HS_DVRPROTOCOL
  +--> ?PR?_PRINTF?PRINTF
  +--> ?PR?_HS_SEND_DVR_COMMAND?HS_DVRPROTOCOL
  +--> ?PR?DISPLAYFWVERSION?HS_DISPLAYOSD

?PR?DISPLAYFWVERSION?HS_DISPLAYOSD               -----    -----      002CH    0012H
  +--> ?CO?HS_DISPLAYOSD
  +--> ?PR?HS_DISPLAYOSD
  +--> ?PR?CLEAROSDINFO?DISPINFO
  +--> ?PR?_INITOSDWINDOW?OSDBASIC
  +--> ?PR?_CLEARDATACNT?OSDBASIC
  +--> ?PR?_DRAWATTRCNT?OSDBASIC
  +--> ?PR?_WRITESTRINGTOADDR?OSDBASIC
  +--> ?CO?OSDMENU
  +--> ?PR?_SETDISPLAYEDOSD?DISPINFO
  +--> ?PR?_SHOWOSDWINDOW_TW88?OSDBASIC
  +--> ?PR?_SHOWOSDWINDOWALL?OSDBASIC
  +--> ?PR?_WRITEI2C?I2C

?PR?OSDHIGHMENU_SUB?OSDMENU                      -----    -----      000CH    0001H
  +--> ?PR?OSDMENU
  +--> ?PR?POPMENU?OSDMENU
  +--> ?PR?CLOSEOSDMENU?OSDMENU
  +--> ?CO?OSDMENU
  +--> ?PR?_PRINTF?PRINTF
  +--> ?PR?DISPLAYOSDMENU?OSDMENU
  +--> ?PR?_DRAWMENULIST?OSDMENU
  +--> ?PR?DISPLAYCURSOR?OSDMENU
  +--> ?PR?_WRITEI2C?I2C

?PR?_CAM_TXCOMMAND_TORS485?HS_DVRPROT...         -----    -----      000CH    0002H
  +--> ?PR?HS_DVRPROTOCOL
  +--> ?PR?SEND_PELCOP_COMMAND?HS_DVRPROTOCOL
  +--> ?PR?SEND_PELCOD_COMMAND?HS_DVRPROTOCOL

?PR?SEND_PELCOP_COMMAND?HS_DVRPROTOCOL           -----    -----      000EH    0001H
  +--> ?PR?HS_DVRPROTOCOL
  +--> ?CO?HS_DVRPROTOCOL
  +--> ?PR?_PRINTF?PRINTF
  +--> ?PR?_WAIT_MS?CPU
  +--> ?PR?_RS2_TX?CPU

BL51 BANKED LINKER/LOCATER V5.03                                                      01/25/2013  13:44:25  PAGE 28


?PR?SEND_PELCOD_COMMAND?HS_DVRPROTOCOL           -----    -----      000EH    0001H
  +--> ?PR?HS_DVRPROTOCOL
  +--> ?CO?HS_DVRPROTOCOL
  +--> ?PR?_PRINTF?PRINTF
  +--> ?PR?_WAIT_MS?CPU
  +--> ?PR?_RS2_TX?CPU

?PR?_GET_CURSOR_ITEM?OSDMENU                     -----    -----      000BH    0002H
  +--> ?PR?GETINPUTSELECTION?MAIN
  +--> ?PR?_GETTARGETCHILD?OSDMENU

?PR?_GETTARGETCHILD?OSDMENU                      -----    -----      -----    -----
  +--> ?PR?OSDMENU
  +--> ?PR?_GETLOWERMENUITEM?OSDMENU

?PR?REMOVOLUP_RIGHTKEY?KEYREMO                   -----    -----      -----    -----
  +--> ?PR?GETDISPLAYEDOSD?DISPINFO
  +--> ?PR?_OSDVALUEUPDN?OSDMENU
  +--> ?PR?OSDSELECT?OSDMENU
  +--> ?PR?_CHANGEVOL?AUDIO
  +--> ?PR?DISPLAYVOL?DISPINFO

?PR?_OSDVALUEUPDN?OSDMENU                        -----    -----      0009H    0008H
  +--> ?PR?OSDMENU
  +--> ?PR?_SETITEMVALUE?OSDMENU
  +--> ?PR?_DISPLAYVIEWBAR?OSDMENU
  +--> ?PR?_DRAWNUM?OSDMENU
  +--> ?PR?_DRAWSTRINGBYLANG?OSDMENU

?PR?_SETITEMVALUE?OSDMENU                        -----    -----      0011H    0004H
  +--> ?PR?OSDMENU
  +--> ?CO?OSDMENU
  +--> ?PR?_PRINTF?PRINTF
  +--> ?PR?_SETOSDPOSITIONMODE?OSDMENU
  +--> ?PR?_SETLANGUAGE?OSDMENU
  +--> ?PR?_SETPCCOLORTEMP?OSDMENU
  +--> ?PR?_SETPCCOLOR?OSDMENU
  +--> ?PR?_SETVIDEOMODE?OSDMENU
  +--> ?PR?_READEEP?I2C
  +--> ?PR?_DRAWATTRCNT?OSDBASIC
  +--> ?PR?_CHANGEVIDEODATA?OSDMENU
  +--> ?PR?_SETVIDEOSHARPNESS?OSDMENU
  +--> ?PR?_CHANGEVOL?AUDIO
  +--> ?PR?_SET4WIDESCREEN?OSDMENU
  +--> ?PR?_WRITEEEP?I2C
  +--> ?PR?SETNOWMODE?HS_KEYREMO
  +--> ?PR?GETINPUTSELECTION?MAIN
  +--> ?PR?_TW2835COMMAND?CPU
  +--> ?PR?SEQMODE?HS_KEYREMO
  +--> ?PR?_CAMOUTDSEL?OSDMENU
  +--> ?PR?_HS_DVRTXCMDPASER?HS_DVRPROTOCOL
  +--> ?PR?_DVRAODIOSEL?OSDMENU

?PR?_SETOSDPOSITIONMODE?OSDMENU                  -----    -----      0015H    0016H
  +--> ?PR?GETOSDPOSITIONMODE?OSDMENU
  +--> ?PR?OSDMENU
  +--> ?PR?_GETOSDWINDOWX?OSDBASIC
BL51 BANKED LINKER/LOCATER V5.03                                                      01/25/2013  13:44:25  PAGE 29


  +--> ?PR?_GETOSDWINDOWY?OSDBASIC
  +--> ?PR?WAITENDOFDISPLAYAREA?OSDBASIC
  +--> ?PR?_READI2C?I2C
  +--> ?PR?_WRITEI2C?I2C
  +--> ?PR?_WRITEI2CN?I2C
  +--> ?PR?_SAVEOSDPOSITIONMODEEE?ETC_EEP

?PR?_SETLANGUAGE?OSDMENU                         -----    -----      -----    -----
  +--> ?PR?OSDMENU
  +--> ?PR?_SAVEOSDLANGEE?ETC_EEP

?PR?_SETPCCOLORTEMP?OSDMENU                      -----    -----      0015H    0002H
  +--> ?PR?OSDMENU
  +--> ?PR?_WRITEEEP?I2C
  +--> ?PR?_READEEP?I2C
  +--> ?CO?OSDMENU
  +--> ?PR?_MAPPING1?TW88
  +--> ?PR?_SETRGBCONTRAST?OSDMENU
  +--> ?PR?_DRAWATTRCNT?OSDBASIC

?PR?_SETRGBCONTRAST?OSDMENU                      -----    -----      0017H    0008H
  +--> ?PR?_READEEP?I2C
  +--> ?PR?OSDMENU
  +--> ?PR?_MAPPING1?TW88
  +--> ?PR?_WRITEI2C?I2C

?PR?_SETPCCOLOR?OSDMENU                          -----    -----      0015H    0007H
  +--> ?PR?OSDMENU
  +--> ?PR?_MAPPING1?TW88
  +--> ?PR?_WRITEEEP?I2C
  +--> ?PR?_READEEP?I2C
  +--> ?CO?OSDMENU
  +--> ?PR?_WRITEI2C?I2C

?PR?_CHANGEVIDEODATA?OSDMENU                     -----    -----      0015H    0003H
  +--> ?PR?OSDMENU
  +--> ?PR?_SETVIDEOCONTRAST?OSDMENU
  +--> ?PR?_SETVIDEOBRIGHTNESS?OSDMENU
  +--> ?PR?_SETVIDEOSATURATION?OSDMENU
  +--> ?PR?_SETVIDEOHUE?OSDMENU
  +--> ?PR?_SETVIDEOBACKLIGHT?OSDMENU
  +--> ?PR?_SAVEVIDEODATATOEE?ETC_EEP

?PR?_SETVIDEOBACKLIGHT?OSDMENU                   -----    -----      0018H    0003H
  +--> ?PR?OSDMENU
  +--> ?CO?OSDMENU
  +--> ?PR?_MAPPING1?TW88
  +--> ?PR?_READI2C?I2C
  +--> ?PR?_WRITEI2C?I2C

?PR?_SETVIDEOSHARPNESS?OSDMENU                   -----    -----      0015H    0005H
  +--> ?PR?_READI2C?I2C
  +--> ?CO?OSDMENU
  +--> ?PR?OSDMENU
  +--> ?PR?_MAPPING1?TW88
  +--> ?PR?_WRITEI2C?I2C
  +--> ?PR?_SAVEVIDEODATATOEE?ETC_EEP
BL51 BANKED LINKER/LOCATER V5.03                                                      01/25/2013  13:44:25  PAGE 30



?PR?DISPLAYVOL?DISPINFO                          -----    -----      0009H    0002H
  +--> ?CO?DISPINFO
  +--> ?PR?_PRINTF?PRINTF
  +--> ?PR?_WRITEI2C?I2C
  +--> ?PR?CLEAROSDINFO?DISPINFO
  +--> ?PR?_DELAY?CPU
  +--> ?CO?OSDBASIC
  +--> ?PR?_INITOSDWINDOW?OSDBASIC
  +--> ?PR?_CLEARDATACNT?OSDBASIC
  +--> ?PR?_DRAWATTRCNT?OSDBASIC
  +--> ?PR?GETOSDLANG?OSDMENU
  +--> ?CO?OSDMENU
  +--> ?PR?_STRLEN?OSDBASIC
  +--> ?PR?_WRITESTRINGTOADDR?OSDBASIC
  +--> ?PR?_SHOWOSDWINDOW_TW88?OSDBASIC
  +--> ?PR?_SHOWOSDWINDOWALL?OSDBASIC
  +--> ?PR?_DISPLAYVOLUMEBAR?OSDMENU
  +--> ?PR?GETTIME_MS?CPU
  +--> ?PR?_WAIT_MS?CPU

?PR?GETOSDLANG?OSDMENU                           -----    -----      -----    -----
  +--> ?PR?GETOSDLANGEE?ETC_EEP

?PR?_DISPLAYVOLUMEBAR?OSDMENU                    -----    -----      000BH    0019H
  +--> ?CO?OSDMENU
  +--> ?PR?OSDMENU
  +--> ?PR?_WRITESTRINGTOADDR?OSDBASIC

?PR?REMOVOLDN_LEFTKEY?KEYREMO                    -----    -----      -----    -----
  +--> ?PR?GETDISPLAYEDOSD?DISPINFO
  +--> ?PR?_OSDVALUEUPDN?OSDMENU
  +--> ?PR?OSDHIGHMENU?OSDMENU
  +--> ?PR?_CHANGEVOL?AUDIO
  +--> ?PR?DISPLAYVOL?DISPINFO

?PR?OSDHIGHMENU?OSDMENU                          -----    -----      -----    -----
  +--> ?PR?CLEARVALUEWIN?OSDMENU
  +--> ?PR?_DRAWMENULIST?OSDMENU
  +--> ?PR?DISPLAYCURSOR?OSDMENU
  +--> ?PR?OSDMENU
  +--> ?PR?_DOACTION?OSDMENU
  +--> ?PR?CLEARCURSOR?OSDMENU
  +--> ?PR?OSDHIGHMENU_SUB?OSDMENU

?PR?_REMOMENU_MENUKEY?KEYREMO                    -----    -----      0009H    0001H
  +--> ?PR?GETDISPLAYEDOSD?DISPINFO
  +--> ?PR?OSDHIGHMENU?OSDMENU
  +--> ?PR?_OPENOSDMENU?OSDMENU

?PR?_OPENOSDMENU?OSDMENU                         -----    -----      000AH    0002H
  +--> ?PR?CLEAROSDINFO?DISPINFO
  +--> ?PR?_INITOSDMENU?OSDMENU
  +--> ?PR?_SHOWOSDWINDOW_TW88?OSDBASIC
  +--> ?PR?_SHOWOSDWINDOWALL?OSDBASIC
  +--> ?PR?_SETDISPLAYEDOSD?DISPINFO

BL51 BANKED LINKER/LOCATER V5.03                                                      01/25/2013  13:44:25  PAGE 31


?PR?SETSELECTMODE?HS_KEYREMO                     -----    -----      0007H    0001H
  +--> ?PR?HS_KEYREMO
  +--> ?PR?_PUTS?PRINTF
  +--> ?PR?_SETSOURCEMODE?HS_KEYREMO
  +--> ?PR?_WRITEEEP?I2C

?PR?SETJUMPMODE?HS_KEYREMO                       -----    -----      0007H    0001H
  +--> ?PR?_READEEP?I2C
  +--> ?CO?HS_KEYREMO
  +--> ?PR?_PUTS?PRINTF
  +--> ?PR?HS_KEYREMO
  +--> ?PR?_SETSOURCEMODE?HS_KEYREMO
  +--> ?PR?_WRITEEEP?I2C

?PR?CHECKANDCLEAROSD?DISPINFO                    -----    -----      0004H    0006H
  +--> ?PR?GETDISPLAYEDOSD?DISPINFO
  +--> ?PR?GETOSDLASTKEYINTIME?MAIN
  +--> ?PR?GETTIME_MS?CPU
  +--> ?PR?_DIFFTIME_MS?CPU
  +--> ?PR?CLEARTVINFO?DISPINFO
  +--> ?PR?DISPLAYINPUT?DISPINFO
  +--> ?PR?CLOSEOSDMENU?OSDMENU

?PR?POWEROFF?MAIN                                -----    -----      -----    -----
  +--> ?PR?AUDIOMUTE?AUDIO
  +--> ?PR?LCDPOWEROFF?TW88
  +--> ?PR?_POWERLED?CPU

?PR?WAITPOWERON?MAIN                             -----    -----      0003H    0003H
  +--> ?PR?CHECKTRIGGER?HS_KEYREMO
  +--> ?PR?_TRIGGERHANDLER?HS_KEYREMO
  +--> ?PR?_LCDPOWERON?TW88
  +--> ?PR?AUDIOMUTE?AUDIO
  +--> ?PR?POWEROFF?MAIN
  +--> ?PR?GETDISPLAYEDOSD?DISPINFO
  +--> ?PR?DISPLAYDVRSTATUS?HS_DISPLAYOSD
  +--> ?PR?_GETKEY?KEYREMO
  +--> ?PR?_WRITEEEP?I2C
  +--> ?PR?_POWERLED?CPU
  +--> ?PR?_CHANGEVOL?AUDIO

?PR?DISPLAYDVRSTATUS?HS_DISPLAYOSD               -----    -----      0006H    0001H
  +--> ?CO?OSDBASIC
  +--> ?PR?_INITOSDWINDOW?OSDBASIC
  +--> ?PR?CLEAROSDINFO?DISPINFO
  +--> ?PR?_CLEARDATACNT?OSDBASIC
  +--> ?PR?_DRAWATTRCNT?OSDBASIC
  +--> ?CO?HS_DISPLAYOSD
  +--> ?PR?_PRINTF?PRINTF
  +--> ?PR?HS_DISPLAYOSD
  +--> ?PR?_WRITESTRINGTOADDR?OSDBASIC
  +--> ?CO?OSDMENU
  +--> ?PR?_READEEP?I2C
  +--> ?PR?_SHOWOSDWINDOW_TW88?OSDBASIC
  +--> ?PR?_SHOWOSDWINDOWALL?OSDBASIC
  +--> ?PR?_WRITEI2C?I2C
  +--> ?PR?_DISPLAYNUMBER?HS_DISPLAYOSD
BL51 BANKED LINKER/LOCATER V5.03                                                      01/25/2013  13:44:25  PAGE 32



?PR?_DISPLAYNUMBER?HS_DISPLAYOSD                 -----    -----      0007H    0018H
  +--> ?CO?HS_DISPLAYOSD
  +--> ?PR?HS_DISPLAYOSD
  +--> ?PR?_DRAWATTRCNT?OSDBASIC
  +--> ?PR?_WRITESTRINGTOADDR?OSDBASIC



SYMBOL TABLE OF MODULE:  .\Output\AWT_ML074Q (ADC)

  VALUE           TYPE          NAME
  ----------------------------------

  -------         MODULE        ADC
  C:0000H         SYMBOL        _ICE_DUMMY_
  -------         ENDMOD        ADC

  -------         MODULE        CPU
  C:0000H         SYMBOL        _ICE_DUMMY_
  C:CBACH         PUBLIC        InitCPU
  D:00B1H         PUBLIC        P3M0
  C:9B92H         PUBLIC        timer0_int
  X:0137H         PUBLIC        FormatSDCard
  D:00B2H         PUBLIC        P3M1
  D:00A0H         PUBLIC        P2
  C:DCB9H         PUBLIC        timer2_int
  D:00E8H         PUBLIC        P4
  X:0138H         PUBLIC        FormatWait
  C:DDDFH         PUBLIC        _RS2_tx
  D:0024H         PUBLIC        DVR_buf
  D:0042H         PUBLIC        keytic
  D:00A8H         PUBLIC        IE
  D:0043H         PUBLIC        RS2_in
  B:0021H.5       PUBLIC        RepeatKey
  B:00B0H.4       PUBLIC        P3_4
  B:00A8H.4       PUBLIC        ES
  D:00B8H         PUBLIC        IP
  D:00DEH         PUBLIC        CCAPM4
  B:0098H.0       PUBLIC        RI
  B:0098H.1       PUBLIC        TI
  C:DD67H         PUBLIC        RS_ready
  D:0044H         PUBLIC        tic01
  B:0021H.6       PUBLIC        KeyReady
  C:75D3H         PUBLIC        _TW2835Command
  B:0021H.7       PUBLIC        RS_Xbusy
  D:00D8H         PUBLIC        CCON
  X:0139H         PUBLIC        keyticSec
  D:0045H         PUBLIC        Key
  C:D97AH         PUBLIC        _DiffTime_ms
  C:D52BH         PUBLIC        serial_int
  C:0026H         PUBLIC        ext1_int
  D:0099H         PUBLIC        SBUF
  D:0087H         PUBLIC        PCON
  D:0098H         PUBLIC        SCON
  C:D9D7H         PUBLIC        InitVars
  D:0089H         PUBLIC        TMOD
BL51 BANKED LINKER/LOCATER V5.03                                                      01/25/2013  13:44:25  PAGE 33


  D:0088H         PUBLIC        TCON
  C:CCD6H         PUBLIC        _Wait_ms
  C:4647H         PUBLIC        PanelInfoStr
  D:00BFH         PUBLIC        CHPCON
  C:95D2H         PUBLIC        main_init
  D:00F6H         PUBLIC        CHPENR
  X:013AH         PUBLIC        PowerDownWait
  D:0046H         PUBLIC        tm01
  D:0048H         PUBLIC        stopWatch
  D:004AH         SYMBOL        RS_buf
  C:D9F5H         PUBLIC        _PowerLED
  B:00A8H.5       PUBLIC        ET2
  B:00C8H.7       PUBLIC        TF2
  D:008CH         PUBLIC        TH0
  D:008DH         PUBLIC        TH1
  B:00A8H.2       PUBLIC        EX1
  D:008AH         PUBLIC        TL0
  C:0003H         PUBLIC        _RS_tx
  C:B183H         PUBLIC        InitTechwell
  B:0022H.0       PUBLIC        RS2_Xbusy
  B:00C8H.2       PUBLIC        TR2
  D:0052H         PUBLIC        RS_in
  D:0053H         PUBLIC        RS_out
  C:D5F8H         PUBLIC        serial2_int
  D:009AH         PUBLIC        S2BUF
  D:00AAH         PUBLIC        S2CON
  D:00C8H         PUBLIC        T2CON
  D:00BAH         PUBLIC        S2BRT
  C:DBCFH         PUBLIC        RS_rx
  C:DC13H         PUBLIC        _delay
  D:0054H         PUBLIC        tm001
  D:00A6H         PUBLIC        AUXR2
  C:D236H         PUBLIC        GetTime_ms
  D:0055H         PUBLIC        tic_pc
  D:0057H         PUBLIC        RS_buf2
  D:005FH         PUBLIC        SystemClock
  C:45E1H         PUBLIC        CommTable
  D:00ADH         PUBLIC        AUXIE
  C:D044H         SYMBOL        Com00A2
  C:D044H         SYMBOL        L?0163
  C:D045H         SYMBOL        L?0164
  C:D048H         SYMBOL        L?0165
  C:D051H         SYMBOL        L?0166
  C:D051H         SYMBOL        L?0167
  C:D05AH         SYMBOL        L?0168
  C:D05BH         SYMBOL        L?0169
  C:D05CH         SYMBOL        L?0170
  C:D065H         SYMBOL        L?0172
  C:D065H         SYMBOL        L?0173
  C:D06DH         SYMBOL        L?0174
  C:D071H         SYMBOL        L?0175
  C:D079H         SYMBOL        L?0176
  C:D07CH         SYMBOL        L?0177
  -------         PROC          COM00A2
  -------         ENDPROC       COM00A2
  -------         PROC          MAIN_INIT
  -------         DO            
BL51 BANKED LINKER/LOCATER V5.03                                                      01/25/2013  13:44:25  PAGE 34


  X:0003H         SYMBOL        rev
  -------         ENDDO         
  C:95D2H         LINE#         257
  C:95D2H         LINE#         258
  C:95D2H         LINE#         265
  C:95DBH         LINE#         279
  C:95E2H         LINE#         280
  C:95F4H         LINE#         282
  C:9601H         LINE#         283
  C:9601H         LINE#         284
  C:9614H         LINE#         285
  C:961BH         LINE#         286
  C:9629H         LINE#         287
  C:9629H         LINE#         292
  C:9632H         LINE#         293
  C:9632H         LINE#         294
  C:9640H         LINE#         295
  C:9640H         LINE#         296
  C:9648H         LINE#         299
  C:964DH         LINE#         300
  C:9650H         LINE#         306
  C:9652H         LINE#         308
  C:9652H         LINE#         309
  C:965AH         LINE#         311
  C:965AH         LINE#         313
  C:965CH         LINE#         315
  C:965CH         LINE#         316
  C:9665H         LINE#         317
  C:966EH         LINE#         318
  C:9674H         LINE#         319
  C:9679H         LINE#         320
  C:9681H         LINE#         321
  C:9684H         LINE#         322
  C:9689H         LINE#         324
  C:9689H         LINE#         331
  C:9695H         LINE#         332
  C:9697H         LINE#         333
  C:969BH         LINE#         335
  C:96A0H         LINE#         336
  C:96A3H         LINE#         339
  C:96A9H         LINE#         340
  C:96B1H         LINE#         344
  C:96B4H         LINE#         347
  C:96B7H         LINE#         350
  C:96BCH         LINE#         353
  C:96C7H         LINE#         354
  C:96CEH         LINE#         355
  C:96D9H         LINE#         358
  C:96DCH         LINE#         362
  C:96E5H         LINE#         363
  C:96EEH         LINE#         364
  C:96F7H         LINE#         368
  C:9700H         LINE#         369
  C:9709H         LINE#         371
  -------         ENDPROC       MAIN_INIT
  -------         PROC          INITCPU
  C:CBACH         LINE#         379
BL51 BANKED LINKER/LOCATER V5.03                                                      01/25/2013  13:44:25  PAGE 35


  C:CBACH         LINE#         380
  C:CBACH         LINE#         382
  C:CBAFH         LINE#         383
  C:CBB2H         LINE#         384
  C:CBB5H         LINE#         385
  C:CBB8H         LINE#         389
  C:CBBBH         LINE#         396
  C:CBBEH         LINE#         398
  C:CBC1H         LINE#         400
  C:CBC4H         LINE#         404
  C:CBCAH         LINE#         406
  C:CBCDH         LINE#         407
  C:CBD0H         LINE#         411
  C:CBD3H         LINE#         414
  C:CBD5H         LINE#         415
  C:CBD7H         LINE#         421
  C:CBD9H         LINE#         422
  C:CBDBH         LINE#         423
  C:CBDDH         LINE#         429
  C:CBE0H         LINE#         430
  C:CBE3H         LINE#         433
  C:CBE6H         LINE#         436
  C:CBE9H         LINE#         438
  C:CBEBH         LINE#         441
  C:CBEEH         LINE#         442
  C:CBF1H         LINE#         449
  C:CBF3H         LINE#         450
  C:CBF6H         LINE#         451
  -------         ENDPROC       INITCPU
  -------         PROC          TIMER0_INT
  C:9B92H         LINE#         465
  C:9B9DH         LINE#         467
  C:9B9FH         LINE#         474
  C:9BA9H         LINE#         477
  C:9BB1H         LINE#         478
  C:9BB4H         LINE#         479
  C:9BB6H         LINE#         481
  C:9BBFH         LINE#         482
  C:9BBFH         LINE#         483
  C:9BCAH         LINE#         484
  C:9BE2H         LINE#         485
  C:9BE5H         LINE#         492
  C:9BEBH         LINE#         494
  C:9BF4H         LINE#         495
  C:9BF7H         LINE#         497
  C:9BFAH         LINE#         498
  C:9C00H         LINE#         499
  C:9C03H         LINE#         500
  C:9C09H         LINE#         501
  C:9C10H         LINE#         502
  C:9C10H         LINE#         503
  C:9C12H         LINE#         504
  C:9C18H         LINE#         506
  C:9C18H         LINE#         508
  C:9C1FH         LINE#         509
  C:9C1FH         LINE#         510
  C:9C21H         LINE#         511
BL51 BANKED LINKER/LOCATER V5.03                                                      01/25/2013  13:44:25  PAGE 36


  C:9C27H         LINE#         512
  C:9C27H         LINE#         514
  C:9C2EH         LINE#         515
  C:9C2EH         LINE#         516
  C:9C30H         LINE#         517
  C:9C36H         LINE#         518
  C:9C36H         LINE#         520
  C:9C3DH         LINE#         521
  C:9C42H         LINE#         523
  C:9C44H         LINE#         525
  C:9C58H         LINE#         526
  C:9C5AH         LINE#         530
  C:9C5AH         LINE#         531
  C:9C64H         LINE#         532
  C:9C6CH         LINE#         535
  C:9C73H         LINE#         536
  C:9C78H         LINE#         537
  C:9C7FH         LINE#         538
  C:9C81H         LINE#         539
  C:9C83H         LINE#         540
  C:9C85H         LINE#         541
  C:9C8AH         LINE#         542
  C:9C91H         LINE#         543
  C:9C93H         LINE#         544
  C:9C95H         LINE#         545
  C:9C98H         LINE#         546
  C:9C98H         LINE#         547
  C:9C9AH         LINE#         548
  C:9C9CH         LINE#         550
  C:9C9CH         LINE#         551
  C:9C9FH         LINE#         552
  C:9CA2H         LINE#         553
  C:9CA2H         LINE#         555
  C:9CA2H         LINE#         556
  -------         ENDPROC       TIMER0_INT
  -------         PROC          INITVARS
  C:D9D7H         LINE#         560
  C:D9D7H         LINE#         561
  C:D9D7H         LINE#         562
  C:D9E0H         LINE#         571
  C:D9E4H         LINE#         576
  C:D9E9H         LINE#         577
  C:D9EEH         LINE#         579
  -------         ENDPROC       INITVARS
  C:B20CH         SYMBOL        L?0161
  C:B21EH         SYMBOL        L?0171
  -------         PROC          INITTECHWELL
  C:B183H         LINE#         585
  C:B183H         LINE#         586
  C:B183H         LINE#         602
  C:B18CH         LINE#         604
  C:B1A0H         LINE#         605
  C:B1A8H         LINE#         606
  C:B1B0H         LINE#         607
  C:B1BBH         LINE#         608
  C:B1C5H         LINE#         609
  C:B1C5H         LINE#         611
BL51 BANKED LINKER/LOCATER V5.03                                                      01/25/2013  13:44:25  PAGE 37


  C:B1CBH         LINE#         614
  C:B1D5H         LINE#         615
  C:B1D5H         LINE#         616
  C:B1DBH         LINE#         617
  C:B1E6H         LINE#         618
  C:B1E6H         LINE#         619
  C:B1E6H         LINE#         621
  C:B1EBH         LINE#         622
  C:B1EBH         LINE#         623
  C:B1F9H         LINE#         624
  C:B1F9H         LINE#         625
  C:B1F9H         LINE#         627
  C:B20CH         LINE#         631
  -------         ENDPROC       INITTECHWELL
  -------         PROC          _POWERLED
  D:0007H         SYMBOL        flag
  C:D9F5H         LINE#         635
  C:D9F5H         LINE#         636
  C:D9F5H         LINE#         640
  C:D9F9H         LINE#         642
  C:D9FCH         LINE#         643
  C:D9FCH         LINE#         645
  C:D9FEH         LINE#         646
  C:DA01H         LINE#         647
  C:DA01H         LINE#         649
  C:DA04H         LINE#         650
  C:DA07H         LINE#         652
  C:DA08H         LINE#         653
  C:DA0CH         LINE#         654
  C:DA0CH         LINE#         656
  C:DA0FH         LINE#         657
  C:DA12H         LINE#         659
  C:DA12H         LINE#         660
  -------         ENDPROC       _POWERLED
  -------         PROC          EXT1_INT
  C:0026H         LINE#         669
  C:0026H         LINE#         671
  C:0028H         LINE#         672
  -------         ENDPROC       EXT1_INT
  -------         PROC          SERIAL_INT
  C:D52BH         LINE#         787
  C:D532H         LINE#         793
  C:D535H         LINE#         794
  C:D537H         LINE#         795
  C:D547H         LINE#         797
  C:D549H         LINE#         798
  C:D553H         LINE#         799
  C:D553H         LINE#         801
  C:D556H         LINE#         802
  C:D558H         LINE#         803
  C:D55AH         LINE#         804
  C:D55AH         LINE#         805
  -------         ENDPROC       SERIAL_INT
  -------         PROC          SERIAL2_INT
  C:D5F8H         LINE#         809
  C:D5FFH         LINE#         814
  C:D604H         LINE#         815
BL51 BANKED LINKER/LOCATER V5.03                                                      01/25/2013  13:44:25  PAGE 38


  C:D604H         LINE#         817
  C:D607H         LINE#         818
  C:D60EH         LINE#         820
  C:D610H         LINE#         821
  C:D61AH         LINE#         822
  C:D61AH         LINE#         824
  C:D61FH         LINE#         825
  C:D61FH         LINE#         826
  C:D622H         LINE#         827
  C:D624H         LINE#         828
  C:D624H         LINE#         829
  -------         ENDPROC       SERIAL2_INT
  -------         PROC          RS_READY
  C:DD67H         LINE#         836
  C:DD67H         LINE#         837
  C:DD67H         LINE#         838
  C:DD6FH         LINE#         839
  C:DD71H         LINE#         840
  -------         ENDPROC       RS_READY
  -------         PROC          RS_RX
  -------         DO            
  D:0007H         SYMBOL        ret
  -------         ENDDO         
  C:DBCFH         LINE#         845
  C:DBCFH         LINE#         846
  C:DBCFH         LINE#         849
  C:DBD1H         LINE#         850
  C:DBD8H         LINE#         851
  C:DBDAH         LINE#         852
  C:DBE1H         LINE#         853
  C:DBE4H         LINE#         854
  C:DBE6H         LINE#         856
  C:DBE6H         LINE#         857
  -------         ENDPROC       RS_RX
  -------         PROC          _RS_TX
  D:0007H         SYMBOL        tx_buf
  C:0003H         LINE#         862
  C:0003H         LINE#         863
  C:0003H         LINE#         864
  C:0006H         LINE#         865
  C:0008H         LINE#         866
  C:000AH         LINE#         867
  -------         ENDPROC       _RS_TX
  -------         PROC          _RS2_TX
  D:0007H         SYMBOL        tx_buf
  C:DDDFH         LINE#         872
  C:DDDFH         LINE#         873
  C:DDDFH         LINE#         882
  C:DDE2H         LINE#         883
  C:DDE4H         LINE#         884
  C:DDE6H         LINE#         885
  -------         ENDPROC       _RS2_TX
  -------         PROC          TIMER2_INT
  C:DCB9H         LINE#         926
  C:DCBBH         LINE#         928
  C:DCBDH         LINE#         930
  C:DCC5H         LINE#         1061
BL51 BANKED LINKER/LOCATER V5.03                                                      01/25/2013  13:44:25  PAGE 39


  -------         ENDPROC       TIMER2_INT
  -------         PROC          _DELAY
  D:0007H         SYMBOL        cnt
  -------         DO            
  D:0006H         SYMBOL        ttic01
  -------         ENDDO         
  C:DC13H         LINE#         1064
  C:DC13H         LINE#         1065
  C:DC13H         LINE#         1068
  C:DC1EH         LINE#         1069
  C:DC1EH         LINE#         1071
  C:DC27H         LINE#         1072
  -------         ENDPROC       _DELAY
  -------         PROC          GETTIME_MS
  -------         DO            
  X:0028H         SYMBOL        tms
  -------         ENDDO         
  C:D236H         LINE#         1079
  C:D236H         LINE#         1080
  C:D236H         LINE#         1083
  C:D23FH         LINE#         1084
  C:D26AH         LINE#         1085
  C:D272H         LINE#         1086
  -------         ENDPROC       GETTIME_MS
  -------         PROC          _DIFFTIME_MS
  D:0006H         SYMBOL        stime
  D:0004H         SYMBOL        etime
  C:D97AH         LINE#         1135
  C:D97AH         LINE#         1136
  C:D97AH         LINE#         1140
  C:D981H         LINE#         1141
  C:D991H         LINE#         1142
  C:D991H         LINE#         1143
  C:D991H         LINE#         1144
  C:D998H         LINE#         1145
  C:D998H         LINE#         1146
  -------         ENDPROC       _DIFFTIME_MS
  -------         PROC          _WAIT_MS
  X:0028H         SYMBOL        Tms
  -------         DO            
  X:002AH         SYMBOL        count
  -------         ENDDO         
  C:CCD6H         LINE#         1148
  C:CCDEH         LINE#         1149
  C:CCDEH         LINE#         1155
  C:CCE8H         LINE#         1156
  C:CCE8H         LINE#         1157
  C:CD11H         LINE#         1158
  C:CD1BH         LINE#         1159
  C:CD1DH         LINE#         1160
  -------         ENDPROC       _WAIT_MS
  -------         PROC          _TW2835COMMAND
  X:001BH         SYMBOL        _commid
  D:0005H         SYMBOL        _attr0
  D:0003H         SYMBOL        _attr1
  X:001EH         SYMBOL        _attr2
  X:001FH         SYMBOL        _attr3
BL51 BANKED LINKER/LOCATER V5.03                                                      01/25/2013  13:44:25  PAGE 40


  -------         DO            
  X:0020H         SYMBOL        AttrBuf
  X:0024H         SYMBOL        i
  X:0025H         SYMBOL        j
  X:0026H         SYMBOL        WaitCnt
  -------         ENDDO         
  C:75D3H         LINE#         1163
  C:75D9H         LINE#         1164
  C:75D9H         LINE#         1169
  C:75DDH         LINE#         1170
  C:75E1H         LINE#         1171
  C:75E8H         LINE#         1172
  C:75EDH         LINE#         1176
  C:765BH         LINE#         1177
  C:765BH         LINE#         1179
  C:765BH         LINE#         1180
  C:765BH         LINE#         1181
  C:765BH         LINE#         1182
  C:765BH         LINE#         1183
  C:765BH         LINE#         1184
  C:765BH         LINE#         1185
  C:765DH         LINE#         1187
  C:765DH         LINE#         1188
  C:765DH         LINE#         1189
  C:765DH         LINE#         1190
  C:7662H         LINE#         1191
  C:7664H         LINE#         1192
  C:7664H         LINE#         1193
  C:7664H         LINE#         1194
  C:7666H         LINE#         1196
  C:7666H         LINE#         1197
  C:7666H         LINE#         1198
  C:7666H         LINE#         1199
  C:7669H         LINE#         1200
  C:766BH         LINE#         1201
  C:766BH         LINE#         1202
  C:766BH         LINE#         1203
  C:766DH         LINE#         1205
  C:766DH         LINE#         1206
  C:766DH         LINE#         1207
  C:766DH         LINE#         1208
  C:766DH         LINE#         1209
  C:7671H         LINE#         1210
  C:7671H         LINE#         1211
  C:7671H         LINE#         1212
  C:7673H         LINE#         1214
  C:7673H         LINE#         1215
  C:7673H         LINE#         1216
  C:7678H         LINE#         1217
  C:767BH         LINE#         1218
  C:7682H         LINE#         1219
  C:7682H         LINE#         1220
  C:7684H         LINE#         1222
  C:7684H         LINE#         1223
  C:7684H         LINE#         1224
  C:7684H         LINE#         1225
  C:7684H         LINE#         1226
BL51 BANKED LINKER/LOCATER V5.03                                                      01/25/2013  13:44:25  PAGE 41


  C:7684H         LINE#         1227
  C:7687H         LINE#         1229
  C:7687H         LINE#         1230
  C:7688H         LINE#         1231
  C:768CH         LINE#         1232
  C:768EH         LINE#         1233
  C:768EH         LINE#         1234
  C:7690H         LINE#         1236
  C:7690H         LINE#         1237
  C:7690H         LINE#         1238
  C:7695H         LINE#         1239
  C:7697H         LINE#         1240
  C:7697H         LINE#         1241
  C:7699H         LINE#         1245
  C:7699H         LINE#         1246
  C:7699H         LINE#         1247
  C:769DH         LINE#         1248
  C:769FH         LINE#         1249
  C:769FH         LINE#         1250
  C:76A1H         LINE#         1254
  C:76A1H         LINE#         1255
  C:76A4H         LINE#         1256
  C:76A7H         LINE#         1257
  C:76AAH         LINE#         1258
  C:76ADH         LINE#         1259
  C:76B0H         LINE#         1266
  C:76B0H         LINE#         1267
  C:76B0H         LINE#         1268
  C:76B5H         LINE#         1269
  C:76B5H         LINE#         1270
  C:76B9H         LINE#         1271
  C:76BCH         LINE#         1272
  C:76BFH         LINE#         1277
  C:76BFH         LINE#         1278
  C:76C4H         LINE#         1279
  C:76C8H         LINE#         1280
  C:76CAH         LINE#         1281
  C:76CAH         LINE#         1282
  C:76CDH         LINE#         1284
  C:76CDH         LINE#         1285
  C:76CDH         LINE#         1286
  C:76CDH         LINE#         1287
  C:76D2H         LINE#         1288
  C:76D5H         LINE#         1289
  C:76D5H         LINE#         1290
  C:76D8H         LINE#         1292
  C:76D8H         LINE#         1293
  C:76D8H         LINE#         1294
  C:76D8H         LINE#         1295
  C:76DDH         LINE#         1296
  C:76E4H         LINE#         1297
  C:76E4H         LINE#         1298
  C:76E6H         LINE#         1300
  C:76E6H         LINE#         1301
  C:76E6H         LINE#         1302
  C:76EAH         LINE#         1303
  C:76EDH         LINE#         1304
BL51 BANKED LINKER/LOCATER V5.03                                                      01/25/2013  13:44:25  PAGE 42


  C:76EDH         LINE#         1305
  C:76F0H         LINE#         1307
  C:76F0H         LINE#         1308
  C:76F0H         LINE#         1309
  C:76F1H         LINE#         1310
  C:76F4H         LINE#         1311
  C:76F7H         LINE#         1312
  C:76F7H         LINE#         1313
  C:76F9H         LINE#         1315
  C:76F9H         LINE#         1316
  C:76FAH         LINE#         1317
  C:76FEH         LINE#         1318
  C:7701H         LINE#         1319
  C:7704H         LINE#         1320
  C:7706H         LINE#         1322
  C:7706H         LINE#         1323
  C:770BH         LINE#         1324
  C:770CH         LINE#         1325
  C:7710H         LINE#         1326
  C:7718H         LINE#         1327
  C:771AH         LINE#         1329
  C:771AH         LINE#         1330
  C:771AH         LINE#         1331
  C:771DH         LINE#         1332
  C:771DH         LINE#         1333
  C:7721H         LINE#         1334
  C:7724H         LINE#         1335
  C:7726H         LINE#         1337
  C:7729H         LINE#         1339
  C:772DH         LINE#         1340
  C:772FH         LINE#         1341
  C:772FH         LINE#         1342
  C:7731H         LINE#         1344
  C:7731H         LINE#         1345
  C:7734H         LINE#         1346
  C:7737H         LINE#         1347
  C:773FH         LINE#         1348
  C:7742H         LINE#         1349
  C:7742H         LINE#         1350
  C:7742H         LINE#         1351
  C:7762H         LINE#         1352
  C:7767H         LINE#         1353
  C:7767H         LINE#         1354
  C:77A9H         LINE#         1355
  C:77B4H         LINE#         1356
  C:77D2H         LINE#         1357
  C:77D2H         LINE#         1358
  C:77E1H         LINE#         1359
  C:77E1H         LINE#         1360
  C:77EAH         LINE#         1361
  C:77EAH         LINE#         1362
  C:7801H         LINE#         1363
  C:7804H         LINE#         1364
  C:7804H         LINE#         1365
  C:780CH         LINE#         1366
  C:780CH         LINE#         1367
  C:7813H         LINE#         1368
BL51 BANKED LINKER/LOCATER V5.03                                                      01/25/2013  13:44:25  PAGE 43


  C:7822H         LINE#         1369
  C:7824H         LINE#         1371
  -------         ENDPROC       _TW2835COMMAND
  -------         ENDMOD        CPU

  -------         MODULE        DISPINFO
  C:0000H         SYMBOL        _ICE_DUMMY_
  C:B107H         PUBLIC        TW8806String
  X:013BH         PUBLIC        DisplayedOSD
  C:AC4EH         PUBLIC        DisplayVol
  C:DCC8H         PUBLIC        ClearMuteInfo
  C:DE26H         PUBLIC        _SetDisplayedOSD
  X:013CH         PUBLIC        mirror_flag
  D:006AH         SYMBOL        OSDDisplayedTime
  C:D862H         PUBLIC        ClearTVInfo
  C:DE2DH         PUBLIC        GetDisplayedOSD
  C:B114H         PUBLIC        TechwellString
  C:BD87H         PUBLIC        CheckAndClearOSD
  C:DD43H         PUBLIC        _ClearDisplayedOSD
  C:D0C2H         PUBLIC        ClearOSDInfo
  C:C7B1H         PUBLIC        DisplayLogo
  C:A1D0H         PUBLIC        DisplayInput
  C:DE1FH         PUBLIC        ClearLogo
  C:DBE7H         PUBLIC        ClearInput
  C:DBFDH         SYMBOL        Com0028
  C:DBFDH         SYMBOL        L?0041
  C:DC0CH         SYMBOL        L?0043
  -------         PROC          COM0028
  -------         ENDPROC       COM0028
  -------         PROC          DISPLAYLOGO
  -------         DO            
  X:0005H         SYMBOL        str
  -------         ENDDO         
  C:C7B1H         LINE#         86
  C:C7B1H         LINE#         87
  C:C7B1H         LINE#         95
  C:C7BBH         LINE#         98
  C:C7C4H         LINE#         104
  C:C7CCH         LINE#         106
  C:C7D6H         LINE#         107
  C:C7E1H         LINE#         109
  C:C7F6H         LINE#         110
  C:C805H         LINE#         112
  -------         ENDPROC       DISPLAYLOGO
  -------         PROC          CLEARLOGO
  C:DE1FH         LINE#         116
  C:DE1FH         LINE#         117
  C:DE1FH         LINE#         118
  -------         ENDPROC       CLEARLOGO
  -------         PROC          _CLEARDISPLAYEDOSD
  D:0007H         SYMBOL        newd
  C:DD43H         LINE#         125
  C:DD43H         LINE#         126
  C:DD43H         LINE#         127
  C:DD4EH         LINE#         128
  -------         ENDPROC       _CLEARDISPLAYEDOSD
  -------         PROC          _SETDISPLAYEDOSD
BL51 BANKED LINKER/LOCATER V5.03                                                      01/25/2013  13:44:25  PAGE 44


  D:0007H         SYMBOL        newd
  C:DE26H         LINE#         130
  C:DE26H         LINE#         131
  C:DE26H         LINE#         132
  C:DE2CH         LINE#         133
  -------         ENDPROC       _SETDISPLAYEDOSD
  -------         PROC          GETDISPLAYEDOSD
  C:DE2DH         LINE#         135
  C:DE2DH         LINE#         136
  C:DE2DH         LINE#         137
  C:DE32H         LINE#         138
  -------         ENDPROC       GETDISPLAYEDOSD
  -------         PROC          CLEAROSDINFO
  -------         DO            
  X:003EH         SYMBOL        dt
  -------         ENDDO         
  C:D0C2H         LINE#         140
  C:D0C2H         LINE#         141
  C:D0C2H         LINE#         144
  C:D0C5H         LINE#         145
  C:D0CDH         LINE#         153
  C:D0D7H         LINE#         155
  C:D0E1H         LINE#         156
  C:D0EBH         LINE#         157
  C:D0F5H         LINE#         158
  C:D0FFH         LINE#         159
  -------         ENDPROC       CLEAROSDINFO
  -------         PROC          DISPLAYINPUT
  -------         DO            
  C:B121H         SYMBOL        Str_CAM_E
  C:B125H         SYMBOL        Str_CAM
  X:001CH         SYMBOL        len
  X:001DH         SYMBOL        Str
  X:0020H         SYMBOL        inputs
  X:0021H         SYMBOL        len1
  X:0022H         SYMBOL        len2
  X:0023H         SYMBOL        i
  X:0024H         SYMBOL        SystemAddr
  C:B128H         SYMBOL        Str_CAM_A
  C:B132H         SYMBOL        Str_CAM_B
  C:B13CH         SYMBOL        Str_CAM_R
  C:B146H         SYMBOL        Str_AV
  C:B150H         SYMBOL        Str_CAM_Mirror_A
  C:B15DH         SYMBOL        Str_CAM_Mirror_B
  C:B16CH         SYMBOL        Str_CAM_Mirror_R
  C:B17BH         SYMBOL        Str_Mirror_J
  C:B17FH         SYMBOL        Str_Mirror_S
  -------         ENDDO         
  C:A1D0H         LINE#         161
  C:A1D0H         LINE#         162
  C:A1D0H         LINE#         179
  C:A1E4H         LINE#         185
  C:A1EAH         LINE#         188
  C:A1EDH         LINE#         190
  C:A1F6H         LINE#         191
  C:A1FFH         LINE#         192
  C:A20AH         LINE#         193
BL51 BANKED LINKER/LOCATER V5.03                                                      01/25/2013  13:44:25  PAGE 45


  C:A232H         LINE#         194
  C:A239H         LINE#         196
  C:A241H         LINE#         204
  C:A25BH         LINE#         207
  C:A26FH         LINE#         210
  C:A275H         LINE#         211
  C:A297H         LINE#         213
  C:A2A3H         LINE#         214
  C:A2B9H         LINE#         434
  C:A2C0H         LINE#         447
  C:A2C5H         LINE#         450
  C:A2CCH         LINE#         452
  -------         ENDPROC       DISPLAYINPUT
  -------         PROC          CLEARINPUT
  C:DBE7H         LINE#         718
  C:DBE7H         LINE#         719
  C:DBE7H         LINE#         721
  C:DBECH         LINE#         722
  C:DBF3H         LINE#         725
  C:DBFAH         LINE#         730
  C:DBFCH         LINE#         732
  -------         ENDPROC       CLEARINPUT
  C:AD10H         SYMBOL        L?0042
  -------         PROC          DISPLAYVOL
  -------         DO            
  X:0009H         SYMBOL        Str
  D:0007H         SYMBOL        len
  -------         ENDDO         
  C:AC4EH         LINE#         734
  C:AC4EH         LINE#         735
  C:AC4EH         LINE#         740
  C:AC57H         LINE#         743
  C:AC5BH         LINE#         744
  C:AC5EH         LINE#         745
  C:AC62H         LINE#         746
  C:AC65H         LINE#         747
  C:AC6EH         LINE#         749
  C:AC75H         LINE#         750
  C:AC75H         LINE#         752
  C:AC78H         LINE#         756
  C:AC7DH         LINE#         759
  C:AC86H         LINE#         761
  C:AC8FH         LINE#         762
  C:AC9AH         LINE#         763
  C:ACA5H         LINE#         767
  C:ACC1H         LINE#         769
  C:ACC6H         LINE#         770
  C:ACDEH         LINE#         772
  C:ACE5H         LINE#         773
  C:ACECH         LINE#         774
  C:ACF1H         LINE#         776
  C:ACF1H         LINE#         778
  C:ACF4H         LINE#         779
  C:ACF9H         LINE#         781
  C:AD01H         LINE#         783
  C:AD08H         LINE#         784
  C:AD0FH         LINE#         786
BL51 BANKED LINKER/LOCATER V5.03                                                      01/25/2013  13:44:25  PAGE 46


  -------         ENDPROC       DISPLAYVOL
  -------         PROC          CLEARMUTEINFO
  C:DCC8H         LINE#         857
  C:DCC8H         LINE#         858
  C:DCC8H         LINE#         859
  C:DCCFH         LINE#         860
  C:DCD6H         LINE#         861
  -------         ENDPROC       CLEARMUTEINFO
  -------         PROC          CHECKANDCLEAROSD
  -------         DO            
  D:0004H         SYMBOL        ctime
  X:0004H         SYMBOL        stime
  X:0006H         SYMBOL        diff
  X:0008H         SYMBOL        dt
  X:0009H         SYMBOL        Result
  -------         ENDDO         
  C:BD87H         LINE#         863
  C:BD87H         LINE#         864
  C:BD87H         LINE#         867
  C:BD8CH         LINE#         869
  C:BD94H         LINE#         870
  C:BD98H         LINE#         872
  C:BD9CH         LINE#         873
  C:BDA7H         LINE#         874
  C:BDAFH         LINE#         875
  C:BDB1H         LINE#         876
  C:BDB1H         LINE#         877
  C:BDBBH         LINE#         878
  C:BDC2H         LINE#         879
  C:BDC2H         LINE#         881
  C:BDC9H         LINE#         883
  C:BDE1H         LINE#         887
  C:BDE9H         LINE#         888
  C:BDE9H         LINE#         892
  C:BDF1H         LINE#         893
  C:BDF4H         LINE#         894
  C:BDF4H         LINE#         896
  C:BDFBH         LINE#         897
  C:BDFBH         LINE#         901
  C:BE03H         LINE#         902
  C:BE06H         LINE#         903
  C:BE06H         LINE#         915
  C:BE09H         LINE#         916
  C:BE09H         LINE#         917
  C:BE09H         LINE#         919
  C:BE0BH         LINE#         920
  -------         ENDPROC       CHECKANDCLEAROSD
  C:D87EH         SYMBOL        L?0044
  -------         PROC          CLEARTVINFO
  C:D862H         LINE#         1010
  C:D862H         LINE#         1011
  C:D862H         LINE#         1013
  C:D869H         LINE#         1014
  C:D86BH         LINE#         1015
  C:D871H         LINE#         1016
  C:D873H         LINE#         1018
  C:D873H         LINE#         1019
BL51 BANKED LINKER/LOCATER V5.03                                                      01/25/2013  13:44:25  PAGE 47


  C:D875H         LINE#         1020
  C:D87BH         LINE#         1021
  C:D87BH         LINE#         1025
  C:D87DH         LINE#         1026
  -------         ENDPROC       CLEARTVINFO
  -------         ENDMOD        DISPINFO

  -------         MODULE        ETC_EEP
  C:0000H         SYMBOL        _ICE_DUMMY_
  C:DD85H         PUBLIC        _SaveWideModeEE
  C:DDE7H         PUBLIC        GetDebugLevelEE
  C:DE07H         PUBLIC        GetOSDLangEE
  C:DDF7H         PUBLIC        GetPossibleAutoDetectStdEE
  C:BC79H         PUBLIC        SetPossibleAutoDetectStdEE
  C:D919H         PUBLIC        _GetVideoDatafromEE
  C:DD97H         PUBLIC        _SaveInputSelectionEE
  C:DDEFH         PUBLIC        GetWideModeEE
  C:DDA9H         PUBLIC        _SetAudioVolEE
  C:DD8EH         PUBLIC        _SaveOSDPositionModeEE
  C:CEBCH         PUBLIC        _SaveFWRevEE
  C:DDB2H         PUBLIC        _SetPCAudioVolEE
  C:DE0FH         PUBLIC        GetAudioVolEE
  C:DC75H         PUBLIC        _SaveVideoDatatoEE
  C:D814H         PUBLIC        ClearBasicEE
  C:DD7CH         PUBLIC        _SaveDebugLevelEE
  C:DDA0H         PUBLIC        _SaveOSDLangEE
  C:DE17H         PUBLIC        GetPCAudioVolEE
  C:DDFFH         PUBLIC        GetOSDPositionModeEE
  C:C692H         PUBLIC        GetFWRevEE
  -------         PROC          GETFWREVEE
  -------         DO            
  X:0005H         SYMBOL        rev
  -------         ENDDO         
  C:C692H         LINE#         21
  C:C692H         LINE#         22
  C:C692H         LINE#         25
  C:C69FH         LINE#         26
  C:C6ADH         LINE#         27
  C:C6BBH         LINE#         28
  C:C6CBH         LINE#         30
  C:C6DAH         LINE#         31
  C:C6F2H         LINE#         33
  C:C6F2H         LINE#         34
  -------         ENDPROC       GETFWREVEE
  -------         PROC          _SAVEFWREVEE
  X:0005H         SYMBOL        rev
  C:CEBCH         LINE#         36
  C:CEC4H         LINE#         37
  C:CEC4H         LINE#         38
  C:CECCH         LINE#         39
  C:CED5H         LINE#         40
  C:CEDEH         LINE#         41
  C:CEE7H         LINE#         43
  C:CEF3H         LINE#         44
  -------         ENDPROC       _SAVEFWREVEE
  -------         PROC          GETDEBUGLEVELEE
  C:DDE7H         LINE#         47
BL51 BANKED LINKER/LOCATER V5.03                                                      01/25/2013  13:44:25  PAGE 48


  C:DDE7H         LINE#         48
  C:DDE7H         LINE#         49
  C:DDEEH         LINE#         50
  -------         ENDPROC       GETDEBUGLEVELEE
  -------         PROC          _SAVEDEBUGLEVELEE
  D:0007H         SYMBOL        dl
  C:DD7CH         LINE#         52
  C:DD7CH         LINE#         53
  C:DD7CH         LINE#         54
  -------         ENDPROC       _SAVEDEBUGLEVELEE
  -------         PROC          GETWIDEMODEEE
  C:DDEFH         LINE#         59
  C:DDEFH         LINE#         60
  C:DDEFH         LINE#         61
  C:DDF6H         LINE#         62
  -------         ENDPROC       GETWIDEMODEEE
  -------         PROC          _SAVEWIDEMODEEE
  D:0007H         SYMBOL        dl
  C:DD85H         LINE#         64
  C:DD85H         LINE#         65
  C:DD85H         LINE#         66
  -------         ENDPROC       _SAVEWIDEMODEEE
  -------         PROC          GETPOSSIBLEAUTODETECTSTDEE
  -------         DO            
  D:0007H         SYMBOL        val
  -------         ENDDO         
  C:DDF7H         LINE#         71
  C:DDF7H         LINE#         72
  C:DDF7H         LINE#         75
  C:DDFEH         LINE#         81
  C:DDFEH         LINE#         82
  -------         ENDPROC       GETPOSSIBLEAUTODETECTSTDEE
  -------         PROC          SETPOSSIBLEAUTODETECTSTDEE
  -------         DO            
  X:0005H         SYMBOL        i
  X:0006H         SYMBOL        val
  -------         ENDDO         
  C:BC79H         LINE#         84
  C:BC79H         LINE#         85
  C:BC79H         LINE#         86
  C:BC7EH         LINE#         89
  C:BC82H         LINE#         90
  C:BCB0H         LINE#         91
  C:BCB0H         LINE#         92
  C:BCBCH         LINE#         98
  C:BCBCH         LINE#         99
  C:BCC5H         LINE#         100
  C:BCCEH         LINE#         101
  C:BCD7H         LINE#         102
  C:BCE0H         LINE#         103
  C:BCE9H         LINE#         104
  C:BCF2H         LINE#         105
  C:BCF9H         LINE#         106
  C:BCF9H         LINE#         107
  C:BCF9H         LINE#         108
  -------         ENDPROC       SETPOSSIBLEAUTODETECTSTDEE
  -------         PROC          GETOSDPOSITIONMODEEE
BL51 BANKED LINKER/LOCATER V5.03                                                      01/25/2013  13:44:25  PAGE 49


  -------         DO            
  D:0007H         SYMBOL        val
  -------         ENDDO         
  C:DDFFH         LINE#         115
  C:DDFFH         LINE#         116
  C:DDFFH         LINE#         119
  C:DE06H         LINE#         121
  C:DE06H         LINE#         122
  -------         ENDPROC       GETOSDPOSITIONMODEEE
  -------         PROC          _SAVEOSDPOSITIONMODEEE
  D:0007H         SYMBOL        ndata
  C:DD8EH         LINE#         124
  C:DD8EH         LINE#         125
  C:DD8EH         LINE#         127
  -------         ENDPROC       _SAVEOSDPOSITIONMODEEE
  -------         PROC          _GETVIDEODATAFROMEE
  D:0003H         SYMBOL        offset
  -------         DO            
  D:0007H         SYMBOL        val
  -------         ENDDO         
  C:D919H         LINE#         134
  C:D91BH         LINE#         135
  C:D91BH         LINE#         138
  C:D939H         LINE#         140
  C:D939H         LINE#         141
  -------         ENDPROC       _GETVIDEODATAFROMEE
  -------         PROC          _SAVEVIDEODATATOEE
  D:0007H         SYMBOL        offset
  D:0005H         SYMBOL        ndata
  -------         DO            
  D:0007H         SYMBOL        tot
  -------         ENDDO         
  C:DC75H         LINE#         143
  C:DC75H         LINE#         144
  C:DC75H         LINE#         147
  C:DC81H         LINE#         149
  -------         ENDPROC       _SAVEVIDEODATATOEE
  -------         PROC          _SAVEINPUTSELECTIONEE
  D:0007H         SYMBOL        val
  C:DD97H         LINE#         152
  C:DD97H         LINE#         153
  C:DD97H         LINE#         154
  -------         ENDPROC       _SAVEINPUTSELECTIONEE
  -------         PROC          GETOSDLANGEE
  -------         DO            
  D:0007H         SYMBOL        val
  -------         ENDDO         
  C:DE07H         LINE#         178
  C:DE07H         LINE#         179
  C:DE07H         LINE#         182
  C:DE0EH         LINE#         188
  C:DE0EH         LINE#         189
  -------         ENDPROC       GETOSDLANGEE
  -------         PROC          _SAVEOSDLANGEE
  D:0007H         SYMBOL        val
  C:DDA0H         LINE#         191
  C:DDA0H         LINE#         192
BL51 BANKED LINKER/LOCATER V5.03                                                      01/25/2013  13:44:25  PAGE 50


  C:DDA0H         LINE#         193
  -------         ENDPROC       _SAVEOSDLANGEE
  -------         PROC          GETAUDIOVOLEE
  C:DE0FH         LINE#         218
  C:DE0FH         LINE#         219
  C:DE0FH         LINE#         220
  C:DE16H         LINE#         221
  -------         ENDPROC       GETAUDIOVOLEE
  -------         PROC          _SETAUDIOVOLEE
  D:0007H         SYMBOL        vol
  C:DDA9H         LINE#         223
  C:DDA9H         LINE#         224
  C:DDA9H         LINE#         225
  -------         ENDPROC       _SETAUDIOVOLEE
  -------         PROC          GETPCAUDIOVOLEE
  C:DE17H         LINE#         228
  C:DE17H         LINE#         229
  C:DE17H         LINE#         230
  C:DE1EH         LINE#         231
  -------         ENDPROC       GETPCAUDIOVOLEE
  -------         PROC          _SETPCAUDIOVOLEE
  D:0007H         SYMBOL        vol
  C:DDB2H         LINE#         232
  C:DDB2H         LINE#         233
  C:DDB2H         LINE#         234
  -------         ENDPROC       _SETPCAUDIOVOLEE
  -------         PROC          CLEARBASICEE
  C:D814H         LINE#         399
  C:D814H         LINE#         400
  C:D814H         LINE#         401
  C:D81CH         LINE#         402
  C:D821H         LINE#         404
  C:D828H         LINE#         405
  C:D830H         LINE#         407
  C:D833H         LINE#         413
  C:D836H         LINE#         416
  -------         ENDPROC       CLEARBASICEE
  -------         ENDMOD        ETC_EEP

  -------         MODULE        I2C
  C:0000H         SYMBOL        _ICE_DUMMY_
  D:00E8H         PUBLIC        P4
  B:0090H.0       PUBLIC        P1_0
  B:0090H.1       PUBLIC        P1_1
  C:CF41H         PUBLIC        _WriteI2Cn
  C:D3D7H         PUBLIC        _ReadI2C
  C:D7C4H         PUBLIC        I2CReadDataWithACK
  C:C3C3H         PUBLIC        _I2CWriteData
  C:D8AEH         PUBLIC        _WriteI2C
  C:D888H         PUBLIC        _ReadEEP
  C:D65AH         PUBLIC        I2CReadData
  C:D743H         PUBLIC        _ReadALC106
  C:0012H         PUBLIC        dd
  C:CD1EH         PUBLIC        _WriteEEP
  C:DC51H         PUBLIC        I2CStart
  C:D449H         PUBLIC        _WriteALC106
  C:D004H         PUBLIC        _ReadI2CWORD
BL51 BANKED LINKER/LOCATER V5.03                                                      01/25/2013  13:44:25  PAGE 51


  C:D100H         PUBLIC        _WriteI2CnD
  C:0016H         PUBLIC        I2CStop
  C:D410H         PUBLIC        _WriteI2Cn_
  C:DA13H         SYMBOL        Com0038
  C:DA13H         SYMBOL        L?0057
  C:DA13H         SYMBOL        L?0058
  C:DA1DH         SYMBOL        L?0059
  C:DA2AH         SYMBOL        L?0060
  C:DA2AH         SYMBOL        L?0061
  -------         PROC          COM0038
  -------         ENDPROC       COM0038
  -------         PROC          _WRITEEEP
  X:002BH         SYMBOL        index
  X:002DH         SYMBOL        dat
  -------         DO            
  X:002EH         SYMBOL        addr
  -------         ENDDO         
  C:CD1EH         LINE#         91
  C:CD29H         LINE#         92
  C:CD29H         LINE#         95
  C:CD41H         LINE#         97
  C:CD44H         LINE#         98
  C:CD4CH         LINE#         99
  C:CD54H         LINE#         100
  C:CD5CH         LINE#         101
  C:CD5FH         LINE#         107
  -------         ENDPROC       _WRITEEEP
  -------         PROC          _READEEP
  D:0004H         SYMBOL        index
  -------         DO            
  X:0038H         SYMBOL        val
  D:0007H         SYMBOL        addr
  -------         ENDDO         
  C:D888H         LINE#         110
  C:D88CH         LINE#         111
  C:D88CH         LINE#         115
  C:D89BH         LINE#         117
  C:D8A3H         LINE#         122
  C:D8A8H         LINE#         123
  C:D8ADH         LINE#         124
  -------         ENDPROC       _READEEP
  -------         PROC          _READI2C
  X:0044H         SYMBOL        addr
  X:0045H         SYMBOL        index
  -------         DO            
  X:0046H         SYMBOL        val
  -------         ENDDO         
  C:D3D7H         LINE#         126
  C:D3DFH         LINE#         127
  C:D3DFH         LINE#         130
  C:D3E2H         LINE#         131
  C:D3EAH         LINE#         132
  C:D3F2H         LINE#         133
  C:D3F5H         LINE#         134
  C:D3FFH         LINE#         135
  C:D407H         LINE#         136
  C:D40AH         LINE#         138
BL51 BANKED LINKER/LOCATER V5.03                                                      01/25/2013  13:44:25  PAGE 52


  C:D40FH         LINE#         139
  -------         ENDPROC       _READI2C
  -------         PROC          _WRITEI2C
  X:005AH         SYMBOL        addr
  X:005BH         SYMBOL        index
  X:005CH         SYMBOL        val
  C:D8AEH         LINE#         142
  C:D8B6H         LINE#         143
  C:D8B6H         LINE#         144
  C:D8B9H         LINE#         145
  C:D8C1H         LINE#         146
  C:D8C9H         LINE#         147
  C:D8D1H         LINE#         148
  -------         ENDPROC       _WRITEI2C
  -------         PROC          _WRITEI2CND
  X:0042H         SYMBOL        addr
  X:0043H         SYMBOL        index
  X:0044H         SYMBOL        val
  X:0045H         SYMBOL        cnt
  -------         DO            
  X:0046H         SYMBOL        i
  -------         ENDDO         
  C:D100H         LINE#         151
  C:D108H         LINE#         152
  C:D108H         LINE#         155
  C:D10BH         LINE#         156
  C:D113H         LINE#         157
  C:D11BH         LINE#         159
  C:D12BH         LINE#         160
  C:D133H         LINE#         162
  C:D13BH         LINE#         164
  -------         ENDPROC       _WRITEI2CND
  -------         PROC          _WRITEI2CN
  X:005AH         SYMBOL        addr
  X:005BH         SYMBOL        index
  X:005CH         SYMBOL        val
  X:005FH         SYMBOL        cnt
  -------         DO            
  X:0060H         SYMBOL        i
  -------         ENDDO         
  C:CF41H         LINE#         167
  C:CF4AH         LINE#         168
  C:CF4AH         LINE#         172
  C:CF4DH         LINE#         173
  C:CF55H         LINE#         174
  C:CF5DH         LINE#         176
  C:CF6EH         LINE#         177
  C:CF77H         LINE#         179
  C:CF7FH         LINE#         180
  -------         ENDPROC       _WRITEI2CN
  -------         PROC          _WRITEI2CN_
  X:0043H         SYMBOL        addr
  X:0044H         SYMBOL        val
  X:0047H         SYMBOL        cnt
  -------         DO            
  X:0048H         SYMBOL        i
  -------         ENDDO         
BL51 BANKED LINKER/LOCATER V5.03                                                      01/25/2013  13:44:25  PAGE 53


  C:D410H         LINE#         183
  C:D419H         LINE#         184
  C:D419H         LINE#         187
  C:D41CH         LINE#         188
  C:D424H         LINE#         190
  C:D435H         LINE#         191
  C:D43EH         LINE#         192
  C:D446H         LINE#         193
  -------         ENDPROC       _WRITEI2CN_
  -------         PROC          DD
  C:0012H         LINE#         251
  C:0012H         LINE#         252
  C:0012H         LINE#         256
  -------         ENDPROC       DD
  -------         PROC          I2CSTART
  C:DC51H         LINE#         261
  C:DC51H         LINE#         262
  C:DC51H         LINE#         263
  C:DC56H         LINE#         264
  C:DC5BH         LINE#         265
  C:DC60H         LINE#         266
  C:DC62H         LINE#         267
  -------         ENDPROC       I2CSTART
  -------         PROC          I2CSTOP
  C:0016H         LINE#         269
  C:0016H         LINE#         270
  C:0016H         LINE#         271
  C:001BH         LINE#         272
  C:0020H         LINE#         273
  C:0022H         LINE#         274
  -------         ENDPROC       I2CSTOP
  -------         PROC          _I2CWRITEDATA
  D:0007H         SYMBOL        value
  C:C3C3H         LINE#         276
  C:C3C3H         LINE#         277
  C:C3C3H         LINE#         291
  C:C3CDH         LINE#         292
  C:C3D8H         LINE#         293
  C:C3E3H         LINE#         294
  C:C3EEH         LINE#         296
  C:C3F9H         LINE#         297
  C:C404H         LINE#         298
  C:C40FH         LINE#         299
  C:C41AH         LINE#         302
  C:C41DH         LINE#         303
  C:C41FH         LINE#         304
  C:C421H         LINE#         305
  C:C423H         LINE#         307
  C:C425H         LINE#         308
  C:C427H         LINE#         309
  C:C429H         LINE#         310
  C:C42BH         LINE#         311
  -------         ENDPROC       _I2CWRITEDATA
  -------         PROC          I2CREADDATA
  -------         DO            
  D:0004H         SYMBOL        i
  D:0007H         SYMBOL        value
BL51 BANKED LINKER/LOCATER V5.03                                                      01/25/2013  13:44:25  PAGE 54


  -------         ENDDO         
  C:D65AH         LINE#         313
  C:D65AH         LINE#         314
  C:D65AH         LINE#         316
  C:D65CH         LINE#         318
  C:D661H         LINE#         319
  C:D663H         LINE#         321
  C:D665H         LINE#         322
  C:D667H         LINE#         323
  C:D66BH         LINE#         324
  C:D671H         LINE#         325
  C:D673H         LINE#         326
  C:D67EH         LINE#         327
  C:D681H         LINE#         329
  C:D683H         LINE#         330
  C:D685H         LINE#         331
  C:D687H         LINE#         332
  C:D689H         LINE#         334
  C:D689H         LINE#         336
  -------         ENDPROC       I2CREADDATA
  -------         PROC          I2CREADDATAWITHACK
  -------         DO            
  D:0004H         SYMBOL        i
  D:0007H         SYMBOL        value
  -------         ENDDO         
  C:D7C4H         LINE#         338
  C:D7C4H         LINE#         339
  C:D7C4H         LINE#         341
  C:D7C6H         LINE#         343
  C:D7C8H         LINE#         344
  C:D7CAH         LINE#         346
  C:D7CCH         LINE#         347
  C:D7CEH         LINE#         348
  C:D7D2H         LINE#         349
  C:D7D8H         LINE#         350
  C:D7DAH         LINE#         351
  C:D7E5H         LINE#         352
  C:D7E7H         LINE#         353
  C:D7E9H         LINE#         354
  C:D7EBH         LINE#         356
  C:D7EBH         LINE#         357
  -------         ENDPROC       I2CREADDATAWITHACK
  -------         PROC          _READI2CWORD
  D:0006H         SYMBOL        addr
  D:0005H         SYMBOL        index
  -------         DO            
  X:0007H         SYMBOL        val
  -------         ENDDO         
  C:D004H         LINE#         359
  C:D006H         LINE#         360
  C:D006H         LINE#         363
  C:D009H         LINE#         364
  C:D00CH         LINE#         365
  C:D011H         LINE#         366
  C:D014H         LINE#         367
  C:D01BH         LINE#         368
  C:D026H         LINE#         369
BL51 BANKED LINKER/LOCATER V5.03                                                      01/25/2013  13:44:25  PAGE 55


  C:D02FH         LINE#         370
  C:D038H         LINE#         371
  C:D03BH         LINE#         373
  C:D043H         LINE#         374
  -------         ENDPROC       _READI2CWORD
  -------         PROC          _WRITEALC106
  D:0002H         SYMBOL        index
  D:0004H         SYMBOL        dat
  -------         DO            
  D:0007H         SYMBOL        addr
  D:0005H         SYMBOL        dat1
  D:0001H         SYMBOL        dat2
  -------         ENDDO         
  C:D449H         LINE#         375
  C:D44DH         LINE#         376
  C:D44DH         LINE#         380
  C:D44FH         LINE#         381
  C:D451H         LINE#         383
  C:D462H         LINE#         385
  C:D465H         LINE#         386
  C:D468H         LINE#         387
  C:D46DH         LINE#         388
  C:D472H         LINE#         389
  C:D475H         LINE#         390
  C:D47AH         LINE#         391
  C:D47DH         LINE#         397
  -------         ENDPROC       _WRITEALC106
  -------         PROC          _READALC106
  D:0004H         SYMBOL        index
  -------         DO            
  X:0005H         SYMBOL        val
  D:0007H         SYMBOL        addr
  -------         ENDDO         
  C:D743H         LINE#         400
  C:D747H         LINE#         401
  C:D747H         LINE#         405
  C:D756H         LINE#         407
  C:D761H         LINE#         411
  C:D766H         LINE#         412
  C:D76EH         LINE#         413
  -------         ENDPROC       _READALC106
  -------         ENDMOD        I2C

  -------         MODULE        KEYREMO
  C:0000H         SYMBOL        _ICE_DUMMY_
  D:00A0H         PUBLIC        P2
  D:00E8H         PUBLIC        P4
  B:0023H.3       PUBLIC        CAM_PTZ_RUN_flag
  X:0132H         PUBLIC        KeyBuffer
  C:DB4AH         PUBLIC        RemoVolDn_LeftKey
  X:0133H         PUBLIC        DayNightLevel
  C:DB2FH         PUBLIC        RemoVolUp_RightKey
  X:0134H         PUBLIC        lock_keycnt
  X:0135H         PUBLIC        BookMarkState
  C:DD02H         PUBLIC        RemoChnDn_DnKey
  C:DB65H         PUBLIC        _GetKey
  C:DC28H         PUBLIC        _RemoMenu_MenuKey
BL51 BANKED LINKER/LOCATER V5.03                                                      01/25/2013  13:44:25  PAGE 56


  X:0136H         PUBLIC        LockKeyState
  C:67FEH         PUBLIC        CheckKeyIn
  C:DCF5H         PUBLIC        RemoChnUp_UpKey
  C:A669H         PUBLIC        _ActionRemo
  -------         PROC          _REMOMENU_MENUKEY
  X:0009H         SYMBOL        isREMOTE
  C:DC28H         LINE#         65
  C:DC2DH         LINE#         66
  C:DC2DH         LINE#         68
  C:DC34H         LINE#         69
  C:DC37H         LINE#         71
  C:DC37H         LINE#         83
  C:DC3CH         LINE#         84
  C:DC3CH         LINE#         85
  -------         ENDPROC       _REMOMENU_MENUKEY
  -------         PROC          REMOCHNUP_UPKEY
  C:DCF5H         LINE#         94
  C:DCF5H         LINE#         95
  C:DCF5H         LINE#         104
  C:DCFCH         LINE#         115
  C:DD01H         LINE#         123
  -------         ENDPROC       REMOCHNUP_UPKEY
  -------         PROC          REMOCHNDN_DNKEY
  C:DD02H         LINE#         125
  C:DD02H         LINE#         126
  C:DD02H         LINE#         135
  C:DD09H         LINE#         136
  C:DD0EH         LINE#         137
  C:DD0EH         LINE#         144
  -------         ENDPROC       REMOCHNDN_DNKEY
  -------         PROC          REMOVOLUP_RIGHTKEY
  C:DB2FH         LINE#         146
  C:DB2FH         LINE#         147
  C:DB2FH         LINE#         155
  C:DB36H         LINE#         156
  C:DB3EH         LINE#         157
  C:DB41H         LINE#         158
  C:DB41H         LINE#         160
  C:DB41H         LINE#         161
  C:DB46H         LINE#         162
  C:DB49H         LINE#         163
  C:DB49H         LINE#         165
  -------         ENDPROC       REMOVOLUP_RIGHTKEY
  -------         PROC          REMOVOLDN_LEFTKEY
  C:DB4AH         LINE#         167
  C:DB4AH         LINE#         168
  C:DB4AH         LINE#         176
  C:DB51H         LINE#         177
  C:DB51H         LINE#         178
  C:DB54H         LINE#         179
  C:DB59H         LINE#         181
  C:DB5CH         LINE#         182
  C:DB5CH         LINE#         184
  C:DB5CH         LINE#         185
  C:DB61H         LINE#         186
  C:DB64H         LINE#         187
  C:DB64H         LINE#         188
BL51 BANKED LINKER/LOCATER V5.03                                                      01/25/2013  13:44:25  PAGE 57


  -------         ENDPROC       REMOVOLDN_LEFTKEY
  -------         PROC          _ACTIONREMO
  X:0007H         SYMBOL        _RemoDataCode
  X:0008H         SYMBOL        AutoKey
  C:A669H         LINE#         194
  C:A671H         LINE#         195
  C:A671H         LINE#         197
  C:A674H         LINE#         217
  C:A6BEH         LINE#         219
  C:A6BEH         LINE#         223
  C:A6C6H         LINE#         224
  C:A6CFH         LINE#         225
  C:A6D2H         LINE#         227
  C:A6D2H         LINE#         240
  C:A6D2H         LINE#         242
  C:A6D2H         LINE#         246
  C:A6D8H         LINE#         247
  C:A6DBH         LINE#         249
  C:A6DBH         LINE#         253
  C:A6E7H         LINE#         254
  C:A6EAH         LINE#         255
  C:A6EDH         LINE#         257
  C:A6EDH         LINE#         258
  C:A6EDH         LINE#         259
  C:A6EDH         LINE#         260
  C:A6EDH         LINE#         261
  C:A6EDH         LINE#         262
  C:A6EDH         LINE#         263
  C:A6EDH         LINE#         264
  C:A6EDH         LINE#         265
  C:A6EDH         LINE#         266
  C:A6EDH         LINE#         270
  C:A6F1H         LINE#         272
  C:A6F4H         LINE#         273
  C:A6F4H         LINE#         275
  C:A6F4H         LINE#         279
  C:A6F7H         LINE#         280
  C:A6F9H         LINE#         282
  C:A6F9H         LINE#         286
  C:A6FCH         LINE#         287
  C:A6FEH         LINE#         289
  C:A6FEH         LINE#         293
  C:A707H         LINE#         294
  C:A70EH         LINE#         295
  C:A711H         LINE#         296
  C:A711H         LINE#         297
  C:A713H         LINE#         299
  C:A713H         LINE#         303
  C:A716H         LINE#         304
  C:A718H         LINE#         305
  C:A718H         LINE#         309
  C:A71BH         LINE#         310
  C:A71DH         LINE#         313
  C:A71DH         LINE#         317
  C:A726H         LINE#         319
  C:A72BH         LINE#         323
  C:A72DH         LINE#         325
BL51 BANKED LINKER/LOCATER V5.03                                                      01/25/2013  13:44:25  PAGE 58


  C:A72DH         LINE#         329
  C:A734H         LINE#         330
  C:A739H         LINE#         331
  C:A73BH         LINE#         344
  C:A73BH         LINE#         348
  C:A742H         LINE#         349
  C:A742H         LINE#         351
  C:A742H         LINE#         363
  C:A744H         LINE#         364
  -------         ENDPROC       _ACTIONREMO
  C:6A87H         SYMBOL        L?0137
  C:6AA8H         SYMBOL        L?0138
  C:6ABCH         SYMBOL        L?0139
  C:6AC6H         SYMBOL        L?0140
  C:6AD1H         SYMBOL        L?0141
  C:6ADEH         SYMBOL        L?0142
  -------         PROC          CHECKKEYIN
  -------         DO            
  X:0004H         SYMBOL        ret
  X:0005H         SYMBOL        ikey
  X:0006H         SYMBOL        OSD_LOCK
  -------         ENDDO         
  C:67FEH         LINE#         367
  C:67FEH         LINE#         368
  C:67FEH         LINE#         369
  C:6804H         LINE#         372
  C:6812H         LINE#         373
  C:6812H         LINE#         375
  C:682BH         LINE#         376
  C:6833H         LINE#         377
  C:683BH         LINE#         378
  C:6843H         LINE#         379
  C:684BH         LINE#         380
  C:6853H         LINE#         381
  C:685BH         LINE#         382
  C:6864H         LINE#         383
  C:6864H         LINE#         387
  C:686AH         LINE#         388
  C:686AH         LINE#         389
  C:686EH         LINE#         390
  C:6871H         LINE#         391
  C:6871H         LINE#         394
  C:6874H         LINE#         395
  C:6880H         LINE#         396
  C:6880H         LINE#         397
  C:6887H         LINE#         398
  C:6897H         LINE#         399
  C:6897H         LINE#         400
  C:6899H         LINE#         401
  C:6899H         LINE#         402
  C:689CH         LINE#         403
  C:689FH         LINE#         404
  C:68A4H         LINE#         405
  C:68A8H         LINE#         406
  C:68ABH         LINE#         407
  C:68ABH         LINE#         408
  C:68ABH         LINE#         411
BL51 BANKED LINKER/LOCATER V5.03                                                      01/25/2013  13:44:25  PAGE 59


  C:68AEH         LINE#         412
  C:68BCH         LINE#         413
  C:68BCH         LINE#         414
  C:68BDH         LINE#         415
  C:68BDH         LINE#         416
  C:68C0H         LINE#         417
  C:68C3H         LINE#         419
  C:68C6H         LINE#         420
  C:68CBH         LINE#         421
  C:68D0H         LINE#         422
  C:68D0H         LINE#         424
  C:68E2H         LINE#         425
  C:68E2H         LINE#         426
  C:68E4H         LINE#         427
  C:68E9H         LINE#         428
  C:68E9H         LINE#         431
  C:68ECH         LINE#         433
  C:690FH         LINE#         434
  C:690FH         LINE#         435
  C:6918H         LINE#         436
  C:691BH         LINE#         437
  C:691BH         LINE#         438
  C:6924H         LINE#         439
  C:6924H         LINE#         441
  C:692FH         LINE#         442
  C:6934H         LINE#         444
  C:693BH         LINE#         445
  C:693BH         LINE#         446
  C:693EH         LINE#         448
  C:693EH         LINE#         449
  C:6940H         LINE#         453
  C:6940H         LINE#         454
  C:6940H         LINE#         455
  C:6942H         LINE#         458
  C:6942H         LINE#         459
  C:694BH         LINE#         461
  C:694EH         LINE#         462
  C:694EH         LINE#         463
  C:6954H         LINE#         464
  C:6954H         LINE#         466
  C:6958H         LINE#         467
  C:695DH         LINE#         468
  C:6960H         LINE#         469
  C:6963H         LINE#         470
  C:696AH         LINE#         471
  C:696DH         LINE#         473
  C:696DH         LINE#         474
  C:6974H         LINE#         475
  C:6974H         LINE#         476
  C:6977H         LINE#         477
  C:6979H         LINE#         481
  C:697CH         LINE#         482
  C:697FH         LINE#         483
  C:6986H         LINE#         484
  C:6986H         LINE#         485
  C:6989H         LINE#         486
  C:698CH         LINE#         487
BL51 BANKED LINKER/LOCATER V5.03                                                      01/25/2013  13:44:25  PAGE 60


  C:698FH         LINE#         488
  C:6992H         LINE#         490
  C:6992H         LINE#         492
  C:699BH         LINE#         493
  C:699BH         LINE#         495
  C:699DH         LINE#         496
  C:69A0H         LINE#         498
  C:69A0H         LINE#         500
  C:69A0H         LINE#         501
  C:69A0H         LINE#         502
  C:69A0H         LINE#         503
  C:69A3H         LINE#         504
  C:69A6H         LINE#         507
  C:69ACH         LINE#         508
  C:69ACH         LINE#         511
  C:69ACH         LINE#         513
  C:69AFH         LINE#         515
  C:69AFH         LINE#         516
  C:69B1H         LINE#         517
  C:69B1H         LINE#         518
  C:69B1H         LINE#         520
  C:69B4H         LINE#         524
  C:69B4H         LINE#         525
  C:69B7H         LINE#         526
  C:69B7H         LINE#         527
  C:69BEH         LINE#         528
  C:69BEH         LINE#         529
  C:69C1H         LINE#         530
  C:69C5H         LINE#         532
  C:69C5H         LINE#         533
  C:69CCH         LINE#         534
  C:69CEH         LINE#         536
  C:69CEH         LINE#         537
  C:69CEH         LINE#         538
  C:69D0H         LINE#         540
  C:69D0H         LINE#         541
  C:69D7H         LINE#         542
  C:69DCH         LINE#         543
  C:69DEH         LINE#         544
  C:69DEH         LINE#         545
  C:69DEH         LINE#         547
  C:69DEH         LINE#         548
  C:69E0H         LINE#         549
  C:69E0H         LINE#         551
  C:69E0H         LINE#         552
  C:69E2H         LINE#         553
  C:69E2H         LINE#         554
  C:69E5H         LINE#         555
  C:69E5H         LINE#         556
  C:69ECH         LINE#         557
  C:69ECH         LINE#         558
  C:69EFH         LINE#         559
  C:69F7H         LINE#         561
  C:69F7H         LINE#         562
  C:69FEH         LINE#         563
  C:6A02H         LINE#         565
  C:6A07H         LINE#         566
BL51 BANKED LINKER/LOCATER V5.03                                                      01/25/2013  13:44:25  PAGE 61


  C:6A07H         LINE#         567
  C:6A0AH         LINE#         569
  C:6A0AH         LINE#         570
  C:6A18H         LINE#         571
  C:6A24H         LINE#         572
  C:6A27H         LINE#         573
  C:6A27H         LINE#         574
  C:6A27H         LINE#         576
  C:6A27H         LINE#         577
  C:6A29H         LINE#         578
  C:6A29H         LINE#         580
  C:6A29H         LINE#         581
  C:6A2BH         LINE#         583
  C:6A2BH         LINE#         584
  C:6A2EH         LINE#         585
  C:6A2EH         LINE#         586
  C:6A31H         LINE#         587
  C:6A33H         LINE#         589
  C:6A33H         LINE#         590
  C:6A35H         LINE#         591
  C:6A35H         LINE#         593
  C:6A35H         LINE#         594
  C:6A37H         LINE#         598
  C:6A37H         LINE#         599
  C:6A3AH         LINE#         600
  C:6A3AH         LINE#         601
  C:6A40H         LINE#         602
  C:6A44H         LINE#         604
  C:6A49H         LINE#         606
  C:6A4CH         LINE#         607
  C:6A4EH         LINE#         609
  C:6A4EH         LINE#         610
  C:6A53H         LINE#         611
  C:6A55H         LINE#         613
  C:6A55H         LINE#         614
  C:6A57H         LINE#         617
  C:6A57H         LINE#         618
  C:6A60H         LINE#         619
  C:6A65H         LINE#         621
  C:6A67H         LINE#         624
  C:6A67H         LINE#         628
  C:6A70H         LINE#         645
  C:6A78H         LINE#         646
  C:6A78H         LINE#         647
  C:6A78H         LINE#         648
  C:6A78H         LINE#         649
  C:6A78H         LINE#         650
  C:6A7BH         LINE#         651
  C:6A7EH         LINE#         652
  C:6A81H         LINE#         653
  C:6A81H         LINE#         661
  C:6A81H         LINE#         663
  C:6A81H         LINE#         665
  C:6A81H         LINE#         666
  C:6A86H         LINE#         667
  -------         ENDPROC       CHECKKEYIN
  -------         PROC          _GETKEY
BL51 BANKED LINKER/LOCATER V5.03                                                      01/25/2013  13:44:25  PAGE 62


  D:0007H         SYMBOL        repeat
  -------         DO            
  B:0023H.1       SYMBOL        ready
  X:0007H         SYMBOL        KeyBuffer2
  -------         ENDDO         
  C:DB65H         LINE#         673
  C:DB65H         LINE#         674
  C:DB65H         LINE#         678
  C:DB69H         LINE#         679
  C:DB6BH         LINE#         776
  C:DB71H         LINE#         777
  C:DB77H         LINE#         778
  C:DB7DH         LINE#         780
  C:DB7FH         LINE#         782
  -------         ENDPROC       _GETKEY
  -------         ENDMOD        KEYREMO

  -------         MODULE        MAIN
  C:0000H         SYMBOL        _ICE_DUMMY_
  D:00E8H         PUBLIC        P4
  C:D999H         PUBLIC        GetNextInputSelection
  B:0020H.0       PUBLIC        Range4Coarse
  C:AB7CH         PUBLIC        _AdjustAutoDayNight
  X:0114H         PUBLIC        Baud_rate
  C:CA75H         PUBLIC        _I2CDeviceInitialize
  X:0115H         PUBLIC        PowerFlag
  C:DC86H         PUBLIC        IsNoInput
  X:0116H         PUBLIC        SelectModeType
  B:0090H.4       PUBLIC        P1_4
  C:DDC4H         PUBLIC        GetOSDLastKeyInTime
  B:0090H.5       PUBLIC        P1_5
  B:0080H.6       PUBLIC        P0_6
  X:0117H         PUBLIC        VInputStd
  B:00B0H.4       PUBLIC        P3_4
  B:00B0H.5       PUBLIC        P3_5
  B:0090H.7       PUBLIC        P1_7
  B:00B0H.6       PUBLIC        P3_6
  B:00B0H.7       PUBLIC        P3_7
  C:8EC1H         PUBLIC        struct_VInputStd
  X:0118H         PUBLIC        displayhold_flag
  C:DD4FH         PUBLIC        SetOSDLastKeyInTime
  C:C495H         PUBLIC        _SetVInputStd
  X:0119H         PUBLIC        DVR_AudioRecord
  C:AF5FH         PUBLIC        main
  X:011AH         PUBLIC        AutoDayNightDelay
  C:DD0FH         PUBLIC        PowerOff
  C:B22BH         PUBLIC        CheckDecoderInput
  B:0020H.1       PUBLIC        I2CAutoIncFlagOn
  B:0020H.2       PUBLIC        AccPowerDown
  C:DE33H         PUBLIC        GetVInputStd
  B:0020H.3       PUBLIC        PowerDownStart
  C:AD1DH         PUBLIC        _ChangeInput
  X:011BH         PUBLIC        CAMNumber
  C:CDAAH         PUBLIC        ACCPowerControl
  X:011CH         PUBLIC        InputSelection
  C:B018H         PUBLIC        main_loop
  C:DDBBH         PUBLIC        PowerDown_XTAL
BL51 BANKED LINKER/LOCATER V5.03                                                      01/25/2013  13:44:25  PAGE 63


  C:8E6CH         PUBLIC        struct_InputSelection
  C:935DH         PUBLIC        LoadEEPROM
  C:D273H         PUBLIC        Hs_InitVars
  B:0020H.4       PUBLIC        Flag4AutoPanelRegs
  C:D8D4H         PUBLIC        ReadVInputSTD
  D:0063H         PUBLIC        IHF
  X:011DH         PUBLIC        PelcoChoiceFLAG
  C:DE39H         PUBLIC        GetInputSelection
  X:011EH         PUBLIC        DebugLevel
  D:0067H         PUBLIC        IVF
  C:BE0CH         PUBLIC        WaitPowerOn
  X:011FH         PUBLIC        Priority
  C:C8C2H         PUBLIC        GetVInputStdInx
  B:0020H.5       PUBLIC        DVRReSendDisable
  C:BA48H         PUBLIC        _InitVideoData
  D:0069H         PUBLIC        PWMLevel
  X:0120H         PUBLIC        Commanderror
  X:0121H         PUBLIC        OSDLastKeyInTime
  B:0020H.6       PUBLIC        SDCardCoverDetect
  X:0123H         PUBLIC        WideScreenMode
  B:0020H.7       PUBLIC        VGAflag
  X:0124H         PUBLIC        SEQTime
  X:0125H         PUBLIC        VInputStdDetectMode
  C:D55FH         SYMBOL        Com00B3
  C:D55FH         SYMBOL        L?0180
  C:D55FH         SYMBOL        L?0181
  C:D570H         SYMBOL        L?0183
  C:D572H         SYMBOL        L?0184
  C:D57BH         SYMBOL        L?0188
  C:D57BH         SYMBOL        L?0189
  C:D581H         SYMBOL        L?0190
  C:D581H         SYMBOL        L?0191
  C:D588H         SYMBOL        L?0192
  -------         PROC          COM00B3
  -------         ENDPROC       COM00B3
  -------         PROC          _I2CDEVICEINITIALIZE
  X:0022H         SYMBOL        RegSet
  -------         DO            
  D:0006H         SYMBOL        cnt
  X:0025H         SYMBOL        addr
  X:0026H         SYMBOL        index
  X:0027H         SYMBOL        val
  -------         ENDDO         
  C:CA75H         LINE#         308
  C:CA7BH         LINE#         309
  C:CA7BH         LINE#         310
  C:CA7DH         LINE#         313
  C:CA84H         LINE#         317
  C:CA87H         LINE#         318
  C:CA89H         LINE#         320
  C:CA9CH         LINE#         321
  C:CAA2H         LINE#         322
  C:CAAAH         LINE#         323
  C:CAB2H         LINE#         329
  C:CABCH         LINE#         330
  C:CABEH         LINE#         331
  -------         ENDPROC       _I2CDEVICEINITIALIZE
BL51 BANKED LINKER/LOCATER V5.03                                                      01/25/2013  13:44:25  PAGE 64


  -------         PROC          _INITVIDEODATA
  X:0021H         SYMBOL        src
  C:BA48H         LINE#         350
  C:BA4DH         LINE#         351
  C:BA4DH         LINE#         354
  C:BA59H         LINE#         362
  C:BA62H         LINE#         363
  C:BA68H         LINE#         365
  C:BA83H         LINE#         368
  C:BA83H         LINE#         378
  C:BA83H         LINE#         384
  C:BA83H         LINE#         385
  C:BA83H         LINE#         388
  C:BA8CH         LINE#         395
  C:BA8EH         LINE#         399
  C:BA8EH         LINE#         402
  C:BA8EH         LINE#         405
  C:BA8EH         LINE#         407
  C:BA8EH         LINE#         409
  C:BA8EH         LINE#         410
  C:BA94H         LINE#         411
  C:BA94H         LINE#         413
  C:BA9BH         LINE#         414
  C:BA9BH         LINE#         415
  C:BAA3H         LINE#         416
  C:BAACH         LINE#         417
  C:BAAEH         LINE#         419
  C:BAB1H         LINE#         425
  C:BABAH         LINE#         427
  C:BAC3H         LINE#         431
  C:BACDH         LINE#         437
  C:BAD3H         LINE#         439
  C:BAD5H         LINE#         440
  -------         ENDPROC       _INITVIDEODATA
  -------         PROC          ISNOINPUT
  C:DC86H         LINE#         443
  C:DC86H         LINE#         444
  C:DC86H         LINE#         445
  C:DC94H         LINE#         446
  C:DC96H         LINE#         447
  -------         ENDPROC       ISNOINPUT
  C:B2C4H         SYMBOL        L?0186
  -------         PROC          CHECKDECODERINPUT
  -------         DO            
  X:001CH         SYMBOL        std1
  X:001DH         SYMBOL        std
  X:001EH         SYMBOL        cnt
  X:001FH         SYMBOL        trycnt
  X:0020H         SYMBOL        ChangedNoinput
  -------         ENDDO         
  C:B22BH         LINE#         537
  C:B22BH         LINE#         538
  C:B22BH         LINE#         681
  C:B232H         LINE#         690
  C:B242H         LINE#         693
  C:B247H         LINE#         694
  C:B247H         LINE#         695
BL51 BANKED LINKER/LOCATER V5.03                                                      01/25/2013  13:44:25  PAGE 65


  C:B24FH         LINE#         700
  C:B255H         LINE#         701
  C:B25BH         LINE#         702
  C:B25BH         LINE#         704
  C:B26DH         LINE#         705
  C:B26DH         LINE#         707
  C:B278H         LINE#         708
  C:B27EH         LINE#         710
  C:B27EH         LINE#         711
  C:B283H         LINE#         712
  C:B288H         LINE#         713
  C:B288H         LINE#         715
  C:B291H         LINE#         721
  C:B298H         LINE#         722
  C:B298H         LINE#         724
  C:B29BH         LINE#         725
  C:B2A1H         LINE#         726
  C:B2A3H         LINE#         727
  C:B2ACH         LINE#         728
  C:B2ACH         LINE#         729
  C:B2ACH         LINE#         730
  C:B2AFH         LINE#         731
  C:B2AFH         LINE#         732
  C:B2B1H         LINE#         734
  C:B2B1H         LINE#         738
  C:B2B1H         LINE#         739
  C:B2B4H         LINE#         740
  C:B2B9H         LINE#         742
  C:B2BEH         LINE#         743
  C:B2BEH         LINE#         748
  C:B2C3H         LINE#         752
  C:B2C3H         LINE#         753
  C:B2C3H         LINE#         754
  C:B2C3H         LINE#         766
  C:B2C3H         LINE#         772
  -------         ENDPROC       CHECKDECODERINPUT
  -------         PROC          READVINPUTSTD
  -------         DO            
  D:0007H         SYMBOL        std
  -------         ENDDO         
  C:D8D4H         LINE#         774
  C:D8D4H         LINE#         775
  C:D8D4H         LINE#         778
  C:D8DDH         LINE#         780
  C:D8E8H         LINE#         781
  C:D8EEH         LINE#         783
  C:D8F6H         LINE#         784
  -------         ENDPROC       READVINPUTSTD
  -------         PROC          GETVINPUTSTDINX
  -------         DO            
  D:0007H         SYMBOL        i
  D:0003H         SYMBOL        std
  -------         ENDDO         
  C:C8C2H         LINE#         786
  C:C8C2H         LINE#         787
  C:C8C2H         LINE#         790
  C:C8C7H         LINE#         792
BL51 BANKED LINKER/LOCATER V5.03                                                      01/25/2013  13:44:25  PAGE 66


  C:C8DDH         LINE#         794
  C:C8DDH         LINE#         795
  C:C8DDH         LINE#         796
  C:C8DDH         LINE#         797
  C:C8E5H         LINE#         799
  C:C8E5H         LINE#         800
  C:C8E5H         LINE#         801
  C:C8F4H         LINE#         802
  C:C8FBH         LINE#         803
  C:C8FBH         LINE#         805
  C:C8FDH         LINE#         806
  C:C911H         LINE#         807
  C:C912H         LINE#         808
  C:C915H         LINE#         809
  C:C915H         LINE#         810
  C:C918H         LINE#         811
  C:C91AH         LINE#         812
  -------         ENDPROC       GETVINPUTSTDINX
  -------         PROC          GETVINPUTSTD
  C:DE33H         LINE#         815
  C:DE33H         LINE#         816
  C:DE33H         LINE#         817
  C:DE38H         LINE#         818
  -------         ENDPROC       GETVINPUTSTD
  -------         PROC          _SETVINPUTSTD
  X:0021H         SYMBOL        newd
  C:C495H         LINE#         821
  C:C49AH         LINE#         822
  C:C49AH         LINE#         823
  C:C49EH         LINE#         827
  C:C4C3H         LINE#         838
  C:C4DCH         LINE#         841
  C:C4DCH         LINE#         844
  C:C4DCH         LINE#         847
  C:C4DCH         LINE#         849
  C:C4E4H         LINE#         852
  C:C4E4H         LINE#         855
  C:C4E4H         LINE#         858
  C:C4F3H         LINE#         861
  C:C4FAH         LINE#         862
  C:C4FAH         LINE#         863
  -------         ENDPROC       _SETVINPUTSTD
  -------         PROC          GETINPUTSELECTION
  C:DE39H         LINE#         865
  C:DE39H         LINE#         866
  C:DE39H         LINE#         867
  C:DE3EH         LINE#         868
  -------         ENDPROC       GETINPUTSELECTION
  -------         PROC          GETNEXTINPUTSELECTION
  -------         DO            
  D:0007H         SYMBOL        i
  -------         ENDDO         
  C:D999H         LINE#         870
  C:D999H         LINE#         871
  C:D999H         LINE#         875
  C:D99BH         LINE#         876
  C:D9ABH         LINE#         877
BL51 BANKED LINKER/LOCATER V5.03                                                      01/25/2013  13:44:25  PAGE 67


  C:D9ACH         LINE#         878
  C:D9B3H         LINE#         880
  C:D9B7H         LINE#         889
  -------         ENDPROC       GETNEXTINPUTSELECTION
  -------         PROC          POWERDOWN_XTAL
  B:0023H.1       SYMBOL        flag
  C:DDBBH         LINE#         891
  C:DDBBH         LINE#         892
  C:DDBBH         LINE#         893
  C:DDC1H         LINE#         894
  C:DDC3H         LINE#         895
  -------         ENDPROC       POWERDOWN_XTAL
  C:ADD2H         SYMBOL        L?0185
  C:ADDAH         SYMBOL        L?0193
  -------         PROC          _CHANGEINPUT
  X:001BH         SYMBOL        newsel
  C:AD1DH         LINE#         918
  C:AD22H         LINE#         919
  C:AD22H         LINE#         931
  C:AD2CH         LINE#         941
  C:AD2FH         LINE#         943
  C:AD32H         LINE#         948
  C:AD3AH         LINE#         958
  C:AD42H         LINE#         960
  C:AD54H         LINE#         980
  C:AD54H         LINE#         981
  C:AD57H         LINE#         984
  C:AD57H         LINE#         985
  C:AD5AH         LINE#         986
  C:AD5CH         LINE#         987
  C:AD5EH         LINE#         989
  C:AD64H         LINE#         991
  C:AD66H         LINE#         992
  C:AD66H         LINE#         994
  C:AD69H         LINE#         1000
  C:AD69H         LINE#         1001
  C:AD6CH         LINE#         1002
  C:AD6EH         LINE#         1003
  C:AD70H         LINE#         1005
  C:AD76H         LINE#         1006
  C:AD78H         LINE#         1007
  C:AD78H         LINE#         1009
  C:AD7BH         LINE#         1015
  C:AD7BH         LINE#         1016
  C:AD7BH         LINE#         1017
  C:AD7EH         LINE#         1018
  C:AD80H         LINE#         1019
  C:AD86H         LINE#         1020
  C:AD88H         LINE#         1021
  C:AD88H         LINE#         1022
  C:AD8BH         LINE#         1025
  C:AD8BH         LINE#         1026
  C:AD8BH         LINE#         1027
  C:AD8EH         LINE#         1028
  C:AD90H         LINE#         1029
  C:AD9FH         LINE#         1030
  C:AD9FH         LINE#         1033
BL51 BANKED LINKER/LOCATER V5.03                                                      01/25/2013  13:44:25  PAGE 68


  C:AD9FH         LINE#         1034
  C:ADA2H         LINE#         1035
  C:ADAAH         LINE#         1069
  C:ADAAH         LINE#         1080
  C:ADAAH         LINE#         1081
  C:ADAFH         LINE#         1082
  C:ADB2H         LINE#         1083
  C:ADB2H         LINE#         1093
  C:ADB2H         LINE#         1107
  C:ADB5H         LINE#         1108
  C:ADBAH         LINE#         1110
  C:ADBFH         LINE#         1111
  C:ADC8H         LINE#         1112
  C:ADD1H         LINE#         1113
  -------         ENDPROC       _CHANGEINPUT
  -------         PROC          POWEROFF
  C:DD0FH         LINE#         1115
  C:DD0FH         LINE#         1116
  C:DD0FH         LINE#         1121
  C:DD14H         LINE#         1123
  C:DD17H         LINE#         1124
  -------         ENDPROC       POWEROFF
  -------         PROC          SETOSDLASTKEYINTIME
  C:DD4FH         LINE#         1127
  C:DD4FH         LINE#         1128
  C:DD4FH         LINE#         1129
  C:DD5AH         LINE#         1130
  -------         ENDPROC       SETOSDLASTKEYINTIME
  -------         PROC          GETOSDLASTKEYINTIME
  C:DDC4H         LINE#         1132
  C:DDC4H         LINE#         1133
  C:DDC4H         LINE#         1134
  C:DDCCH         LINE#         1135
  -------         ENDPROC       GETOSDLASTKEYINTIME
  -------         PROC          _ADJUSTAUTODAYNIGHT
  D:0007H         SYMBOL        val
  -------         DO            
  X:0004H         SYMBOL        page
  X:0005H         SYMBOL        PWMLevelTemp
  -------         ENDDO         
  C:AB7CH         LINE#         1152
  C:AB7CH         LINE#         1153
  C:AB7CH         LINE#         1157
  C:AB81H         LINE#         1159
  C:AB8BH         LINE#         1160
  C:AB92H         LINE#         1161
  C:AB9DH         LINE#         1162
  C:ABA5H         LINE#         1163
  C:ABB0H         LINE#         1164
  C:ABB8H         LINE#         1165
  C:ABC3H         LINE#         1166
  C:ABCBH         LINE#         1167
  C:ABD7H         LINE#         1168
  C:ABD7H         LINE#         1170
  C:ABDDH         LINE#         1174
  C:ABDDH         LINE#         1177
  C:ABE4H         LINE#         1178
BL51 BANKED LINKER/LOCATER V5.03                                                      01/25/2013  13:44:25  PAGE 69


  C:ABE4H         LINE#         1182
  C:ABE4H         LINE#         1183
  C:ABEFH         LINE#         1184
  C:ABF3H         LINE#         1185
  C:ABF9H         LINE#         1186
  C:ABFBH         LINE#         1188
  C:AC00H         LINE#         1189
  C:AC00H         LINE#         1190
  C:AC02H         LINE#         1192
  C:AC02H         LINE#         1193
  C:AC08H         LINE#         1195
  C:AC08H         LINE#         1198
  C:AC14H         LINE#         1199
  C:AC1AH         LINE#         1200
  C:AC2EH         LINE#         1202
  C:AC42H         LINE#         1203
  -------         ENDPROC       _ADJUSTAUTODAYNIGHT
  -------         PROC          HS_INITVARS
  -------         DO            
  D:0007H         SYMBOL        i
  -------         ENDDO         
  C:D273H         LINE#         1207
  C:D273H         LINE#         1208
  C:D273H         LINE#         1210
  C:D278H         LINE#         1211
  C:D27CH         LINE#         1212
  C:D282H         LINE#         1213
  C:D284H         LINE#         1214
  C:D289H         LINE#         1216
  C:D28EH         LINE#         1218
  C:D294H         LINE#         1219
  C:D29CH         LINE#         1220
  C:D2ABH         LINE#         1222
  C:D2AFH         LINE#         1224
  -------         ENDPROC       HS_INITVARS
  C:9489H         SYMBOL        L?0182
  C:9491H         SYMBOL        L?0187
  -------         PROC          LOADEEPROM
  -------         DO            
  D:0006H         SYMBOL        val
  -------         ENDDO         
  C:935DH         LINE#         1226
  C:935DH         LINE#         1227
  C:935DH         LINE#         1229
  C:9369H         LINE#         1231
  C:9375H         LINE#         1232
  C:9381H         LINE#         1233
  C:938DH         LINE#         1234
  C:9399H         LINE#         1235
  C:93A5H         LINE#         1236
  C:93B1H         LINE#         1237
  C:93BDH         LINE#         1238
  C:93C9H         LINE#         1239
  C:93D5H         LINE#         1240
  C:93DAH         LINE#         1241
  C:93E0H         LINE#         1242
  C:93E0H         LINE#         1243
BL51 BANKED LINKER/LOCATER V5.03                                                      01/25/2013  13:44:25  PAGE 70


  C:93E4H         LINE#         1244
  C:93EBH         LINE#         1245
  C:93F2H         LINE#         1246
  C:93F9H         LINE#         1248
  C:93FBH         LINE#         1251
  C:93FBH         LINE#         1252
  C:93FFH         LINE#         1253
  C:9406H         LINE#         1254
  C:940DH         LINE#         1255
  C:9414H         LINE#         1256
  C:9414H         LINE#         1258
  C:9419H         LINE#         1259
  C:941FH         LINE#         1260
  C:9425H         LINE#         1262
  C:9429H         LINE#         1264
  C:942EH         LINE#         1265
  C:9434H         LINE#         1266
  C:943AH         LINE#         1268
  C:943EH         LINE#         1270
  C:9443H         LINE#         1271
  C:9449H         LINE#         1272
  C:944FH         LINE#         1274
  C:9453H         LINE#         1276
  C:945CH         LINE#         1277
  C:9462H         LINE#         1278
  C:9468H         LINE#         1280
  C:946CH         LINE#         1286
  C:9474H         LINE#         1287
  C:947CH         LINE#         1288
  C:9488H         LINE#         1294
  -------         ENDPROC       LOADEEPROM
  -------         PROC          ACCPOWERCONTROL
  C:CDAAH         LINE#         1296
  C:CDAAH         LINE#         1297
  C:CDAAH         LINE#         1299
  C:CDB0H         LINE#         1300
  C:CDB0H         LINE#         1301
  C:CDB5H         LINE#         1302
  C:CDB7H         LINE#         1303
  C:CDB9H         LINE#         1305
  C:CDBCH         LINE#         1306
  C:CDBCH         LINE#         1307
  C:CDC5H         LINE#         1308
  C:CDC5H         LINE#         1309
  C:CDC8H         LINE#         1310
  C:CDC8H         LINE#         1312
  C:CDCAH         LINE#         1316
  C:CDCCH         LINE#         1326
  C:CDCCH         LINE#         1327
  C:CDCFH         LINE#         1328
  C:CDCFH         LINE#         1330
  C:CDD1H         LINE#         1334
  C:CDD3H         LINE#         1336
  C:CDD3H         LINE#         1337
  C:CDD5H         LINE#         1338
  C:CDDAH         LINE#         1339
  C:CDDCH         LINE#         1340
BL51 BANKED LINKER/LOCATER V5.03                                                      01/25/2013  13:44:25  PAGE 71


  C:CDDCH         LINE#         1341
  C:CDDCH         LINE#         1342
  C:CDDCH         LINE#         1346
  C:CDECH         LINE#         1347
  C:CDEEH         LINE#         1349
  -------         ENDPROC       ACCPOWERCONTROL
  -------         PROC          MAIN_LOOP
  -------         DO            
  X:0003H         SYMBOL        val
  -------         ENDDO         
  C:B018H         LINE#         1431
  C:B018H         LINE#         1432
  C:B018H         LINE#         1436
  C:B021H         LINE#         1442
  C:B021H         LINE#         1450
  C:B027H         LINE#         1451
  C:B02CH         LINE#         1476
  C:B034H         LINE#         1477
  C:B037H         LINE#         1481
  C:B03DH         LINE#         1482
  C:B03DH         LINE#         1483
  C:B043H         LINE#         1484
  C:B043H         LINE#         1485
  C:B050H         LINE#         1486
  C:B050H         LINE#         1487
  C:B053H         LINE#         1488
  C:B058H         LINE#         1489
  C:B058H         LINE#         1490
  C:B058H         LINE#         1491
  C:B058H         LINE#         1503
  C:B066H         LINE#         1504
  C:B066H         LINE#         1505
  C:B066H         LINE#         1507
  C:B068H         LINE#         1508
  C:B06AH         LINE#         1509
  C:B06AH         LINE#         1511
  C:B076H         LINE#         1512
  C:B076H         LINE#         1513
  C:B078H         LINE#         1514
  C:B078H         LINE#         1516
  C:B07DH         LINE#         1518
  C:B07DH         LINE#         1520
  C:B07DH         LINE#         1525
  C:B083H         LINE#         1538
  C:B086H         LINE#         1541
  C:B091H         LINE#         1543
  C:B091H         LINE#         1544
  C:B091H         LINE#         1545
  C:B091H         LINE#         1548
  C:B098H         LINE#         1549
  C:B098H         LINE#         1550
  C:B09BH         LINE#         1551
  C:B09BH         LINE#         1553
  C:B09BH         LINE#         1563
  C:B09BH         LINE#         1567
  C:B0A8H         LINE#         1568
  C:B0A8H         LINE#         1569
BL51 BANKED LINKER/LOCATER V5.03                                                      01/25/2013  13:44:25  PAGE 72


  C:B0B1H         LINE#         1570
  C:B0B6H         LINE#         1571
  C:B0BDH         LINE#         1572
  C:B0C2H         LINE#         1573
  C:B0CBH         LINE#         1574
  C:B0CBH         LINE#         1584
  C:B0CEH         LINE#         1586
  -------         ENDPROC       MAIN_LOOP
  -------         PROC          MAIN
  -------         DO            
  X:0000H         SYMBOL        i
  X:0001H         SYMBOL        TW2835Check
  -------         ENDDO         
  C:AF5FH         LINE#         1588
  C:AF5FH         LINE#         1589
  C:AF5FH         LINE#         1593
  C:AF66H         LINE#         1594
  C:AF68H         LINE#         1595
  C:AF6BH         LINE#         1609
  C:AF6EH         LINE#         1610
  C:AF75H         LINE#         1611
  C:AF77H         LINE#         1612
  C:AF7EH         LINE#         1613
  C:AF80H         LINE#         1614
  C:AF83H         LINE#         1616
  C:AF88H         LINE#         1618
  C:AF8BH         LINE#         1619
  C:AF8EH         LINE#         1620
  C:AF91H         LINE#         1624
  C:AF94H         LINE#         1626
  C:AF97H         LINE#         1628
  C:AF99H         LINE#         1630
  C:AFA0H         LINE#         1632
  C:AFA3H         LINE#         1635
  C:AFA8H         LINE#         1636
  C:AFA8H         LINE#         1637
  C:AFD1H         LINE#         1638
  C:AFD5H         LINE#         1639
  C:AFD5H         LINE#         1640
  C:AFDCH         LINE#         1641
  C:AFE8H         LINE#         1644
  C:AFEDH         LINE#         1647
  C:AFF0H         LINE#         1649
  C:AFF5H         LINE#         1650
  C:AFFDH         LINE#         1651
  C:B007H         LINE#         1654
  C:B007H         LINE#         1655
  C:B00DH         LINE#         1656
  C:B010H         LINE#         1658
  C:B013H         LINE#         1664
  C:B016H         LINE#         1665
  -------         ENDPROC       MAIN
  -------         PROC          WAITPOWERON
  -------         DO            
  X:0003H         SYMBOL        ikey
  X:0004H         SYMBOL        val
  X:0005H         SYMBOL        VGATrigger
BL51 BANKED LINKER/LOCATER V5.03                                                      01/25/2013  13:44:25  PAGE 73


  -------         ENDDO         
  C:BE0CH         LINE#         1668
  C:BE0CH         LINE#         1669
  C:BE0CH         LINE#         1672
  C:BE11H         LINE#         1675
  C:BE11H         LINE#         1676
  C:BE11H         LINE#         1709
  C:BE19H         LINE#         1710
  C:BE1BH         LINE#         1711
  C:BE1BH         LINE#         1712
  C:BE20H         LINE#         1714
  C:BE2DH         LINE#         1715
  C:BE2DH         LINE#         1716
  C:BE32H         LINE#         1717
  C:BE37H         LINE#         1718
  C:BE37H         LINE#         1719
  C:BE39H         LINE#         1721
  C:BE39H         LINE#         1722
  C:BE3CH         LINE#         1723
  C:BE41H         LINE#         1724
  C:BE49H         LINE#         1725
  C:BE49H         LINE#         1728
  C:BE5AH         LINE#         1729
  C:BE5DH         LINE#         1731
  C:BE69H         LINE#         1733
  C:BE73H         LINE#         1734
  C:BE73H         LINE#         1735
  C:BE78H         LINE#         1736
  C:BE80H         LINE#         1737
  C:BE80H         LINE#         1738
  C:BE80H         LINE#         1740
  C:BE80H         LINE#         1749
  C:BE80H         LINE#         1755
  C:BE85H         LINE#         1757
  C:BE8AH         LINE#         1759
  -------         ENDPROC       WAITPOWERON
  -------         ENDMOD        MAIN

  -------         MODULE        MEASURE
  C:0000H         SYMBOL        _ICE_DUMMY_
  -------         ENDMOD        MEASURE

  -------         MODULE        OSDBASIC
  C:0000H         SYMBOL        _ICE_DUMMY_
  C:D6BAH         PUBLIC        _ShowOSDWindowAll
  C:952AH         PUBLIC        Init_Osd_DisplayMuteInfo
  C:95BFH         PUBLIC        Init_Osd_BarWindow
  C:C80CH         PUBLIC        Change_OSDColorLookup
  C:9957H         PUBLIC        _utoa
  C:9588H         PUBLIC        Init_Osd_MainMenu
  C:D592H         PUBLIC        _WriteStringToAddr
  D:0010H         PUBLIC        OSDStrInfo
  C:D629H         PUBLIC        _DrawAttrCnt
  C:970AH         PUBLIC        _DisplayRAMFont
  C:C753H         PUBLIC        _DownloadFont
  C:94ECH         PUBLIC        FontTestWindow
  C:CBF7H         PUBLIC        _GetOSDWindowX
BL51 BANKED LINKER/LOCATER V5.03                                                      01/25/2013  13:44:25  PAGE 74


  C:C973H         PUBLIC        _GetOSDWindowY
  C:953DH         PUBLIC        Init_Osd_DisplayTVChannel
  C:9FCFH         PUBLIC        _DisplayROMFont
  C:D13EH         PUBLIC        _SetOSDWindowX_TW88
  C:CF82H         PUBLIC        _SetOSDWindowY_TW88
  C:9517H         PUBLIC        Init_Osd_DisplayVchipWindow
  C:B60FH         PUBLIC        _InitOSDWindow
  C:D6E9H         PUBLIC        WaitEndofDisplayArea
  C:CE34H         PUBLIC        _ShowOSDWindow_TW88
  C:9563H         PUBLIC        Init_Osd_DisplayInput
  C:9504H         PUBLIC        Init_Osd_DisplayLogo
  C:D716H         PUBLIC        _ClearDataCnt
  D:0018H         PUBLIC        ptrFont
  C:D4BBH         PUBLIC        DownloadUDFont
  C:DB80H         PUBLIC        _strlen
  C:9550H         PUBLIC        Init_Osd_DisplayPCInfo
  C:B2D2H         SYMBOL        Com0067
  C:B2D2H         SYMBOL        L?0104
  C:B2D5H         SYMBOL        L?0105
  C:B2D6H         SYMBOL        L?0106
  C:B2E1H         SYMBOL        L?0107
  C:B302H         SYMBOL        L?0109
  C:B317H         SYMBOL        L?0110
  C:B317H         SYMBOL        L?0111
  C:B31FH         SYMBOL        L?0112
  C:B331H         SYMBOL        L?0114
  C:B340H         SYMBOL        L?0116
  C:B340H         SYMBOL        L?0117
  C:B349H         SYMBOL        L?0120
  C:B349H         SYMBOL        L?0121
  C:B350H         SYMBOL        L?0122
  C:B35CH         SYMBOL        L?0125
  C:B35DH         SYMBOL        L?0126
  C:B364H         SYMBOL        L?0129
  C:B364H         SYMBOL        L?0130
  C:B36BH         SYMBOL        L?0131
  C:B36BH         SYMBOL        L?0132
  C:B372H         SYMBOL        L?0133
  C:B372H         SYMBOL        L?0134
  -------         PROC          COM0067
  -------         ENDPROC       COM0067
  C:D70BH         SYMBOL        L?0127
  -------         PROC          WAITENDOFDISPLAYAREA
  -------         DO            
  X:0042H         SYMBOL        ret
  X:0043H         SYMBOL        i
  -------         ENDDO         
  C:D6E9H         LINE#         41
  C:D6E9H         LINE#         42
  C:D6E9H         LINE#         45
  C:D6F0H         LINE#         47
  C:D6F3H         LINE#         48
  C:D6FEH         LINE#         49
  C:D70AH         LINE#         50
  -------         ENDPROC       WAITENDOFDISPLAYAREA
  C:C85CH         SYMBOL        L?0128
  -------         PROC          CHANGE_OSDCOLORLOOKUP
BL51 BANKED LINKER/LOCATER V5.03                                                      01/25/2013  13:44:25  PAGE 75


  -------         DO            
  X:0005H         SYMBOL        i
  X:0006H         SYMBOL        j
  -------         ENDDO         
  C:C80CH         LINE#         55
  C:C80CH         LINE#         56
  C:C80CH         LINE#         58
  C:C811H         LINE#         59
  C:C820H         LINE#         60
  C:C82BH         LINE#         61
  C:C848H         LINE#         62
  C:C84FH         LINE#         63
  C:C85BH         LINE#         64
  -------         ENDPROC       CHANGE_OSDCOLORLOOKUP
  C:C7A1H         SYMBOL        L?0123
  C:C7AAH         SYMBOL        L?0135
  -------         PROC          _DOWNLOADFONT
  X:0009H         SYMBOL        cod
  X:000AH         SYMBOL        fontdata
  C:C753H         LINE#         97
  C:C75CH         LINE#         98
  C:C75CH         LINE#         99
  C:C766H         LINE#         100
  C:C76FH         LINE#         103
  C:C781H         LINE#         104
  C:C794H         LINE#         106
  C:C7A1H         LINE#         107
  -------         ENDPROC       _DOWNLOADFONT
  -------         PROC          DOWNLOADUDFONT
  -------         DO            
  X:0008H         SYMBOL        i
  -------         ENDDO         
  C:D4BBH         LINE#         109
  C:D4BBH         LINE#         110
  C:D4BBH         LINE#         113
  C:D4C4H         LINE#         115
  C:D4D8H         LINE#         116
  C:D4EAH         LINE#         117
  C:D4F2H         LINE#         118
  -------         ENDPROC       DOWNLOADUDFONT
  -------         PROC          _SETOSDWINDOWX_TW88
  D:0007H         SYMBOL        winno
  X:0015H         SYMBOL        x
  -------         DO            
  X:0016H         SYMBOL        tmp
  D:0005H         SYMBOL        dat
  -------         ENDDO         
  C:D13EH         LINE#         176
  C:D141H         LINE#         177
  C:D141H         LINE#         181
  C:D14CH         LINE#         182
  C:D152H         LINE#         184
  C:D158H         LINE#         186
  C:D162H         LINE#         187
  C:D167H         LINE#         189
  C:D16FH         LINE#         190
  C:D17BH         LINE#         191
BL51 BANKED LINKER/LOCATER V5.03                                                      01/25/2013  13:44:25  PAGE 76


  -------         ENDPROC       _SETOSDWINDOWX_TW88
  -------         PROC          _SETOSDWINDOWY_TW88
  D:0007H         SYMBOL        winno
  X:0015H         SYMBOL        y
  -------         DO            
  X:0016H         SYMBOL        tmp
  D:0005H         SYMBOL        dat
  -------         ENDDO         
  C:CF82H         LINE#         193
  C:CF85H         LINE#         194
  C:CF85H         LINE#         198
  C:CF90H         LINE#         199
  C:CF96H         LINE#         201
  C:CF9CH         LINE#         203
  C:CFA6H         LINE#         204
  C:CFAEH         LINE#         206
  C:CFB6H         LINE#         207
  C:CFC2H         LINE#         208
  -------         ENDPROC       _SETOSDWINDOWY_TW88
  -------         PROC          _SHOWOSDWINDOWALL
  X:0040H         SYMBOL        on
  -------         DO            
  X:0041H         SYMBOL        rd
  -------         ENDDO         
  C:D6BAH         LINE#         213
  C:D6BFH         LINE#         214
  C:D6BFH         LINE#         217
  C:D6C2H         LINE#         218
  C:D6CEH         LINE#         220
  C:D6D4H         LINE#         221
  C:D6DAH         LINE#         223
  C:D6E8H         LINE#         225
  -------         ENDPROC       _SHOWOSDWINDOWALL
  -------         PROC          _SHOWOSDWINDOW_TW88
  D:0007H         SYMBOL        winno
  X:003FH         SYMBOL        onoff
  -------         DO            
  X:0040H         SYMBOL        rd
  -------         ENDDO         
  C:CE34H         LINE#         226
  C:CE37H         LINE#         227
  C:CE37H         LINE#         230
  C:CE42H         LINE#         231
  C:CE48H         LINE#         233
  C:CE54H         LINE#         234
  C:CE61H         LINE#         235
  C:CE68H         LINE#         237
  C:CE6BH         LINE#         238
  C:CE77H         LINE#         239
  -------         ENDPROC       _SHOWOSDWINDOW_TW88
  -------         PROC          _GETOSDWINDOWX
  D:0007H         SYMBOL        winno
  -------         DO            
  X:002BH         SYMBOL        x
  -------         ENDDO         
  C:CBF7H         LINE#         242
  C:CBF7H         LINE#         243
BL51 BANKED LINKER/LOCATER V5.03                                                      01/25/2013  13:44:25  PAGE 77


  C:CBF7H         LINE#         246
  C:CC07H         LINE#         247
  C:CC0DH         LINE#         249
  C:CC1EH         LINE#         250
  C:CC2EH         LINE#         252
  C:CC41H         LINE#         253
  -------         ENDPROC       _GETOSDWINDOWX
  -------         PROC          _GETOSDWINDOWY
  D:0007H         SYMBOL        winno
  -------         DO            
  X:002BH         SYMBOL        y
  -------         ENDDO         
  C:C973H         LINE#         256
  C:C973H         LINE#         257
  C:C973H         LINE#         260
  C:C983H         LINE#         261
  C:C989H         LINE#         263
  C:C9A6H         LINE#         264
  C:C9B6H         LINE#         266
  C:C9C9H         LINE#         267
  -------         ENDPROC       _GETOSDWINDOWY
  C:A075H         SYMBOL        L?0101
  C:A0AEH         SYMBOL        L?0108
  C:A0B6H         SYMBOL        L?0115
  C:A0BEH         SYMBOL        L?0118
  C:A0C8H         SYMBOL        L?0136
  -------         PROC          _DISPLAYROMFONT
  X:0005H         SYMBOL        scode
  -------         DO            
  X:0006H         SYMBOL        i
  -------         ENDDO         
  C:9FCFH         LINE#         283
  C:9FD4H         LINE#         284
  C:9FD4H         LINE#         287
  C:9FD9H         LINE#         288
  C:9FDEH         LINE#         289
  C:9FEDH         LINE#         290
  C:9FFBH         LINE#         291
  C:A001H         LINE#         292
  C:A005H         LINE#         293
  C:A014H         LINE#         294
  C:A016H         LINE#         295
  C:A021H         LINE#         296
  C:A025H         LINE#         297
  C:A02CH         LINE#         298
  C:A02CH         LINE#         299
  C:A02CH         LINE#         300
  C:A02FH         LINE#         301
  C:A038H         LINE#         302
  C:A03EH         LINE#         303
  C:A041H         LINE#         304
  C:A046H         LINE#         305
  C:A04FH         LINE#         306
  C:A054H         LINE#         307
  C:A054H         LINE#         308
  C:A058H         LINE#         309
  C:A058H         LINE#         310
BL51 BANKED LINKER/LOCATER V5.03                                                      01/25/2013  13:44:25  PAGE 78


  C:A058H         LINE#         311
  C:A058H         LINE#         312
  C:A05BH         LINE#         313
  C:A05BH         LINE#         314
  C:A05BH         LINE#         315
  C:A05BH         LINE#         316
  C:A060H         LINE#         317
  C:A063H         LINE#         318
  C:A063H         LINE#         319
  C:A06CH         LINE#         320
  C:A075H         LINE#         321
  -------         ENDPROC       _DISPLAYROMFONT
  C:97E3H         SYMBOL        L?0102
  C:981CH         SYMBOL        L?0113
  C:9827H         SYMBOL        L?0119
  -------         PROC          _DISPLAYRAMFONT
  X:0005H         SYMBOL        scode
  -------         DO            
  X:0006H         SYMBOL        i
  X:0007H         SYMBOL        j
  D:0006H         SYMBOL        takenTime
  -------         ENDDO         
  C:970AH         LINE#         324
  C:970FH         LINE#         325
  C:970FH         LINE#         329
  C:9718H         LINE#         330
  C:971CH         LINE#         331
  C:9729H         LINE#         332
  C:9737H         LINE#         333
  C:973DH         LINE#         334
  C:9741H         LINE#         335
  C:9751H         LINE#         336
  C:9753H         LINE#         337
  C:975EH         LINE#         338
  C:9762H         LINE#         339
  C:9769H         LINE#         340
  C:9769H         LINE#         341
  C:9771H         LINE#         342
  C:977AH         LINE#         343
  C:977FH         LINE#         344
  C:9785H         LINE#         345
  C:978EH         LINE#         346
  C:9797H         LINE#         347
  C:97A0H         LINE#         348
  C:97A5H         LINE#         349
  C:97A5H         LINE#         350
  C:97A9H         LINE#         351
  C:97A9H         LINE#         352
  C:97A9H         LINE#         353
  C:97A9H         LINE#         354
  C:97ACH         LINE#         355
  C:97ACH         LINE#         356
  C:97ACH         LINE#         357
  C:97ACH         LINE#         358
  C:97B1H         LINE#         359
  C:97B4H         LINE#         360
  C:97B4H         LINE#         361
BL51 BANKED LINKER/LOCATER V5.03                                                      01/25/2013  13:44:25  PAGE 79


  C:97B4H         LINE#         362
  C:97B9H         LINE#         363
  C:97BCH         LINE#         364
  C:97C0H         LINE#         365
  C:97D1H         LINE#         366
  C:97D1H         LINE#         367
  C:97DAH         LINE#         368
  C:97E3H         LINE#         369
  -------         ENDPROC       _DISPLAYRAMFONT
  -------         PROC          _WRITESTRINGTOADDR
  X:0054H         SYMBOL        addr
  X:0056H         SYMBOL        str
  X:0059H         SYMBOL        cnt
  C:D592H         LINE#         907
  C:D59BH         LINE#         908
  C:D59BH         LINE#         910
  C:D5A1H         LINE#         912
  C:D5AAH         LINE#         913
  C:D5BFH         LINE#         916
  -------         ENDPROC       _WRITESTRINGTOADDR
  -------         PROC          _DRAWATTRCNT
  X:003EH         SYMBOL        addr
  X:0040H         SYMBOL        color
  X:0041H         SYMBOL        cnt
  C:D629H         LINE#         930
  C:D633H         LINE#         931
  C:D633H         LINE#         932
  C:D639H         LINE#         933
  C:D642H         LINE#         934
  C:D654H         LINE#         936
  -------         ENDPROC       _DRAWATTRCNT
  -------         PROC          _CLEARDATACNT
  X:003EH         SYMBOL        addr
  X:0040H         SYMBOL        cnt
  C:D716H         LINE#         939
  C:D71DH         LINE#         940
  C:D71DH         LINE#         942
  C:D723H         LINE#         943
  C:D72CH         LINE#         944
  C:D73DH         LINE#         947
  -------         ENDPROC       _CLEARDATACNT
  -------         PROC          _UTOA
  X:0054H         SYMBOL        value
  X:0056H         SYMBOL        str
  X:0059H         SYMBOL        radix
  -------         DO            
  X:005AH         SYMBOL        cnt
  X:005BH         SYMBOL        str1
  X:005EH         SYMBOL        i
  X:0060H         SYMBOL        div
  -------         ENDDO         
  C:9957H         LINE#         954
  C:9960H         LINE#         955
  C:9960H         LINE#         963
  C:9966H         LINE#         964
  C:996BH         LINE#         965
  C:9973H         LINE#         966
BL51 BANKED LINKER/LOCATER V5.03                                                      01/25/2013  13:44:25  PAGE 80


  C:9988H         LINE#         967
  C:9988H         LINE#         968
  C:998DH         LINE#         969
  C:9993H         LINE#         970
  C:9999H         LINE#         971
  C:999BH         LINE#         972
  C:99A1H         LINE#         973
  C:99B0H         LINE#         975
  C:99C6H         LINE#         976
  C:99DCH         LINE#         977
  C:99E6H         LINE#         978
  C:99E6H         LINE#         979
  C:99E9H         LINE#         980
  C:99F4H         LINE#         981
  C:9A08H         LINE#         982
  C:9A08H         LINE#         983
  C:9A0DH         LINE#         984
  C:9A19H         LINE#         985
  C:9A1FH         LINE#         987
  C:9A28H         LINE#         988
  C:9A36H         LINE#         989
  C:9A36H         LINE#         990
  C:9A4AH         LINE#         991
  C:9A59H         LINE#         992
  C:9A5FH         LINE#         994
  C:9A6AH         LINE#         995
  C:9A74H         LINE#         996
  C:9A74H         LINE#         997
  C:9A76H         LINE#         998
  -------         ENDPROC       _UTOA
  -------         PROC          _STRLEN
  X:0054H         SYMBOL        str
  -------         DO            
  D:0007H         SYMBOL        i
  -------         ENDDO         
  C:DB80H         LINE#         999
  C:DB86H         LINE#         1000
  C:DB86H         LINE#         1001
  C:DB88H         LINE#         1003
  C:DB9AH         LINE#         1004
  C:DB9AH         LINE#         1005
  -------         ENDPROC       _STRLEN
  C:B69EH         SYMBOL        L?0124
  C:B6A7H         SYMBOL        L?0137
  -------         PROC          _INITOSDWINDOW
  X:003EH         SYMBOL        ptr
  -------         DO            
  X:0041H         SYMBOL        i
  X:0042H         SYMBOL        page
  -------         ENDDO         
  C:B60FH         LINE#         1011
  C:B615H         LINE#         1012
  C:B615H         LINE#         1015
  C:B621H         LINE#         1016
  C:B62BH         LINE#         1018
  C:B638H         LINE#         1020
  C:B63DH         LINE#         1021
BL51 BANKED LINKER/LOCATER V5.03                                                      01/25/2013  13:44:25  PAGE 81


  C:B643H         LINE#         1022
  C:B65DH         LINE#         1023
  C:B678H         LINE#         1025
  C:B683H         LINE#         1026
  C:B685H         LINE#         1028
  C:B692H         LINE#         1029
  C:B69EH         LINE#         1030
  -------         ENDPROC       _INITOSDWINDOW
  -------         ENDMOD        OSDBASIC

  -------         MODULE        OSDMENU
  C:0000H         SYMBOL        _ICE_DUMMY_
  C:0D71H         PUBLIC        Str_Secord
  C:0336H         PUBLIC        Str_Sharpness_F
  X:00F4H         PUBLIC        MenuChild
  C:02F2H         PUBLIC        Str_Saturation_S
  C:0201H         PUBLIC        Str_LCDVersion_E
  C:0DDFH         PUBLIC        RECORDSDCARD_ICON
  X:00F6H         PUBLIC        PW_FirstNumber
  C:0E7DH         PUBLIC        FWUpdateSelectMenu
  C:0C24H         PUBLIC        Str_DVR_DISPLAY
  C:05B3H         PUBLIC        Str_UpdateConfig_E
  C:002EH         PUBLIC        OSDHighMenu
  C:C561H         PUBLIC        ResetVideoValue
  C:0232H         PUBLIC        Str_OSDPosition_E
  C:DE3FH         PUBLIC        IsInputAnalogRGB
  C:0DD3H         PUBLIC        VIDEO_ICON
  C:034DH         PUBLIC        Str_Sharpness_K
  D:00E8H         PUBLIC        P4
  C:1557H         PUBLIC        PanelBrightnessRange
  C:11B9H         PUBLIC        RECORDSELECT
  C:0DA1H         PUBLIC        Str_FourthNumber
  C:0D41H         PUBLIC        Str_FPS
  X:00F7H         PUBLIC        MenuFormat
  C:0D47H         PUBLIC        Str_RecordMode
  C:0AA7H         PUBLIC        Str_Version
  C:0D9EH         PUBLIC        Str_ThirdNumber
  C:0D86H         PUBLIC        Str_RETURNAPPLY
  C:0B25H         PUBLIC        Str_OSDLang
  C:08D6H         PUBLIC        ResolutionChoiceString
  X:00F9H         PUBLIC        BarRange
  C:1563H         PUBLIC        PanelHueRange
  C:0D44H         PUBLIC        Str_Quality
  C:0D2FH         PUBLIC        Str_VER
  C:0D2CH         PUBLIC        Str_SPACE
  C:0400H         PUBLIC        Str_TIMEOUT_STEP_E
  C:024CH         PUBLIC        Str_OSDPosition_K
  C:0D59H         PUBLIC        Str_ManualRecordStop
  C:0A33H         PUBLIC        ONOFFChineseChoiceString
  C:0453H         PUBLIC        Str_RecordLength_E
  C:1185H         PUBLIC        DMUtility
  C:0DBCH         PUBLIC        Str_WideScreen
  C:0B01H         PUBLIC        CheckPCCableStr
  C:15AFH         PUBLIC        PCColorTempRGB
  C:1581H         PUBLIC        VideoBrightnessRange
  C:0C6FH         PUBLIC        Str_CVBSA
  C:0599H         PUBLIC        Str_TriggerDelay_E
BL51 BANKED LINKER/LOCATER V5.03                                                      01/25/2013  13:44:25  PAGE 82


  C:0345H         PUBLIC        Str_Sharpness_S
  C:0D92H         PUBLIC        Str_YES
  C:0C7EH         PUBLIC        Str_CVBSB
  C:0C42H         PUBLIC        Str_OSD_LOCK
  D:001AH         SYMBOL        MenuIndexStack
  C:0C8DH         PUBLIC        Str_CVBSC
  C:053EH         PUBLIC        Str_SecondNumber_E
  C:DC97H         PUBLIC        GetOSDLang
  C:158DH         PUBLIC        VideoHueRange
  C:0FA9H         PUBLIC        DateTimeSelectMenu
  C:05E7H         PUBLIC        Str_DISTANCE_E
  C:0E15H         PUBLIC        InputSelectMenu
  C:A4A4H         PUBLIC        _SetVideoMode
  C:1181H         PUBLIC        UtilityMenu
  C:0D6EH         PUBLIC        Str_Minute
  C:023FH         PUBLIC        Str_OSDPosition_S
  X:00FBH         PUBLIC        MenuStack
  C:1539H         PUBLIC        UserRange
  C:0E13H         PUBLIC        NumberOnly
  C:0C51H         PUBLIC        Str_PASSWORD
  C:0A22H         PUBLIC        bpsChoiceString
  C:02C2H         PUBLIC        Str_Contrast_D
  C:1607H         PUBLIC        WIDE_ADDRESS
  C:13CDH         PUBLIC        TRIGGERSelectMenu
  C:0D98H         PUBLIC        Str_FirstNumber
  C:0CABH         PUBLIC        Str_Auto_Day_Night
  C:04D2H         PUBLIC        Str_TimeBegines_E
  C:02AFH         PUBLIC        Str_Contrast_E
  C:022AH         PUBLIC        Str_GETWAY_E
  X:0103H         PUBLIC        DVR_DataChange
  C:6173H         PUBLIC        _GetItemValue
  C:1281H         PUBLIC        DMUserPicture
  C:093DH         PUBLIC        RecordLengthChoiceString
  C:02B8H         PUBLIC        Str_Contrast_F
  C:D68AH         PUBLIC        _Get_cursor_item
  C:1569H         PUBLIC        PanelSaturationRange
  C:0494H         PUBLIC        Str_Snapshot_E
  C:0DB3H         PUBLIC        Str_Informmation
  C:047DH         PUBLIC        Str_ManualRecordStart_E
  C:C42CH         PUBLIC        _SetVideoBacklight
  C:050DH         PUBLIC        Str_AudioRecord_E
  C:020DH         PUBLIC        Str_DVRVersion_E
  C:108DH         PUBLIC        DMDVRRecallSELECT
  C:105DH         PUBLIC        DMMonitorRecallSELECT
  C:02D5H         PUBLIC        Str_Contrast_K
  C:01D5H         PUBLIC        AutoAdjustInfo
  C:0D50H         PUBLIC        Str_PostAlarmLength
  C:0D4DH         PUBLIC        Str_PreAlarmLength
  C:DD5BH         PUBLIC        ClearValueWin
  C:0D38H         PUBLIC        Str_GAUGE_RECALL
  C:0B04H         PUBLIC        OutOfRangeStr
  C:1587H         PUBLIC        VideoSaturationRange
  C:0DCFH         PUBLIC        INPUT_ICON
  C:0C9CH         PUBLIC        Str_CVBSR
  X:0104H         PUBLIC        MenuTitle
  C:03A2H         PUBLIC        Str_MIRROR_E
  C:0EB1H         PUBLIC        ChangePasswordSelectMenu
BL51 BANKED LINKER/LOCATER V5.03                                                      01/25/2013  13:44:25  PAGE 83


  C:0D89H         PUBLIC        Str_FormatSD
  C:2D58H         PUBLIC        _SetItemValue
  C:B56BH         PUBLIC        _ChangeVideoData
  C:1369H         PUBLIC        TRIGGERDELAYMenu
  C:0E19H         PUBLIC        InputSourceMenu
  C:0D3BH         PUBLIC        Str_PRIORITY
  C:0B7FH         PUBLIC        Str_Reset
  C:155DH         PUBLIC        PanelSharpnessRange
  C:0DAAH         PUBLIC        Str_TriggerSet
  C:07ACH         PUBLIC        CaptionChoice
  C:02CBH         PUBLIC        Str_Contrast_S
  C:A9D4H         PUBLIC        _DrawNum
  C:07D7H         PUBLIC        NMhoiceString
  C:03C6H         PUBLIC        Str_RETURN_E
  C:0221H         PUBLIC        Str_WIFI_MAC_E
  C:B420H         PUBLIC        _SetPCColor
  C:0D65H         PUBLIC        Str_Month
  C:0D53H         PUBLIC        Str_Apply
  C:0D35H         PUBLIC        Str_GAUGE_STEP
  C:09C9H         PUBLIC        AudioRecordChoiceString
  C:04BFH         PUBLIC        Str_Secord_E
  C:DD72H         PUBLIC        _GetVideoDatawithOffset
  C:0A41H         PUBLIC        IMAGEChineseString
  C:10FDH         PUBLIC        InformationMenu
  C:0E0FH         PUBLIC        BookMark_ICON
  C:1309H         PUBLIC        DMCAMSELECT
  C:0F29H         PUBLIC        FORMATSDSELECT
  C:087CH         PUBLIC        REARString
  C:05DBH         PUBLIC        Str_DVR_DISPLAY_E
  C:1593H         PUBLIC        VideoSharpnessRange
  C:0D7DH         PUBLIC        Str_Week
  C:CC8DH         PUBLIC        _SetVideoBrightness
  C:0559H         PUBLIC        Str_FourthNumber_E
  C:043BH         PUBLIC        Str_FPS_E
  C:0447H         PUBLIC        Str_RecordMode_E
  C:0268H         PUBLIC        Str_OSDLang_D
  C:01F9H         PUBLIC        Str_Version_E
  C:102DH         PUBLIC        DMRecallSELECT
  C:0D80H         PUBLIC        Str_Time
  C:054CH         PUBLIC        Str_ThirdNumber_E
  C:04F1H         PUBLIC        Str_RETURNAPPLY_E
  C:0258H         PUBLIC        Str_OSDLang_E
  C:C4FBH         PUBLIC        _SetVideoHue
  C:166BH         PUBLIC        WIDEDATA_480i
  C:0D5FH         PUBLIC        Str_DateTime
  C:0261H         PUBLIC        Str_OSDLang_F
  C:AAA9H         PUBLIC        _DrawStringByLang
  C:0D62H         PUBLIC        Str_Year
  C:0CE1H         PUBLIC        Str_CAMA
  C:09ACH         PUBLIC        TimeBeginesWeekChoiceString
  C:043FH         PUBLIC        Str_Quality_E
  C:03F4H         PUBLIC        Str_VER_E
  C:03F2H         PUBLIC        Str_SPACE_E
  C:B7F2H         PUBLIC        OSDHighMenu_sub
  C:0DFFH         PUBLIC        NoGsensor_ICON
  C:0DB9H         PUBLIC        Str_SDCARDCOVERDET
  C:0CF0H         PUBLIC        Str_CAMB
BL51 BANKED LINKER/LOCATER V5.03                                                      01/25/2013  13:44:25  PAGE 84


  C:0489H         PUBLIC        Str_ManualRecordStop_E
  C:0CFFH         PUBLIC        Str_CAMC
  C:0389H         PUBLIC        Str_WideScreen_E
  C:01A2H         PUBLIC        CheckPCCableStr_E
  C:8B20H         PUBLIC        DisplayInfo_OSD
  C:175BH         PUBLIC        OSDInfoStr
  C:170BH         PUBLIC        WIDEDATA_720p
  C:14C9H         PUBLIC        DMMainMenu
  C:0D1DH         PUBLIC        Str_CAMD
  C:0613H         PUBLIC        Str_CVBSA_E
  C:061AH         PUBLIC        Str_CVBSB_E
  C:05F4H         PUBLIC        Str_OSD_LOCK_E
  C:052AH         PUBLIC        Str_YES_E
  C:0277H         PUBLIC        Str_OSDLang_K
  C:AEA2H         PUBLIC        _Set4WideScreen
  C:1693H         PUBLIC        WIDEDATA_576i
  C:120DH         PUBLIC        SDCARD
  C:0621H         PUBLIC        Str_CVBSC_E
  C:16BBH         PUBLIC        WIDEDATA_480p
  C:0DF3H         PUBLIC        NoGPS_ICON
  C:0CC9H         PUBLIC        Str_DIR_IMAGE_CAMA
  C:0C15H         PUBLIC        Str_DISPLAY
  C:0BACH         PUBLIC        Str_SEQ_TIME_STEP
  X:0106H         SYMBOL        cursor_item
  C:0DCBH         PUBLIC        TV_ICON
  C:0CCCH         PUBLIC        Str_DIR_IMAGE_CAMB
  C:08E9H         PUBLIC        FPSChoiceString
  C:DD36H         PUBLIC        ChkOSDMENU
  C:0CCFH         PUBLIC        Str_DIR_IMAGE_CAMC
  C:0928H         PUBLIC        RecordModeChoiceString
  C:04BBH         PUBLIC        Str_Minute_E
  C:0395H         PUBLIC        Str_WideScreen_K
  C:DA31H         PUBLIC        _SetLanguage
  C:0B13H         PUBLIC        StrVolume
  C:05FDH         PUBLIC        Str_PASSWORD_E
  B:0022H.7       PUBLIC        displayOnValueWindow
  X:0107H         SYMBOL        title_item
  C:CDEFH         PUBLIC        _GetLowerMenuItem
  C:1551H         PUBLIC        PanelContrastRange
  C:0D95H         PUBLIC        Str_NO
  C:08FDH         PUBLIC        QualityChoiceString
  C:0892H         PUBLIC        JUMPString
  C:062FH         PUBLIC        Str_Auto_Day_Night_E
  C:0531H         PUBLIC        Str_FirstNumber_E
  C:16E3H         PUBLIC        WIDEDATA_576p
  C:0E07H         PUBLIC        NoWiFi_ICON
  C:0D68H         PUBLIC        Str_Day
  C:0CD2H         PUBLIC        Str_REAR_SETUP
  C:0270H         PUBLIC        Str_OSDLang_S
  C:C1F3H         PUBLIC        _SetVideoSaturation
  C:DDCDH         PUBLIC        _GetUpperMenuItem
  C:C91BH         PUBLIC        CheckPanelImage
  C:0D6BH         PUBLIC        Str_Hour
  C:0B34H         PUBLIC        Str_Brightness
  D:001EH         SYMBOL        MenuSP
  C:05A7H         PUBLIC        Str_Informmation_E
  C:1445H         PUBLIC        DMCAMERA
BL51 BANKED LINKER/LOCATER V5.03                                                      01/25/2013  13:44:25  PAGE 85


  X:0108H         SYMBOL        val_osdwin
  C:BE8FH         PUBLIC        _SetPCColorTemp
  C:159FH         PUBLIC        Contast_Reg_Addr
  C:0DDBH         PUBLIC        SDCARD_ICON
  C:0DA4H         PUBLIC        Str_ChangePassword
  C:0BF7H         PUBLIC        Str_DVRRECALL
  C:0BE8H         PUBLIC        Str_MonitorRECALL
  C:0B61H         PUBLIC        Str_Hue
  C:C62DH         PUBLIC        _SetRGBContrast
  C:157BH         PUBLIC        TW2835VideoContrastRange
  C:1575H         PUBLIC        VideoContrastRange
  C:0D0EH         PUBLIC        Str_CAMR
  C:0770H         PUBLIC        WideScreenChoice
  C:127DH         PUBLIC        UserPictureMenuType
  C:0CBAH         PUBLIC        Str_DIR_IMAGE
  C:046BH         PUBLIC        Str_PostAlarmLength_E
  C:0461H         PUBLIC        Str_PreAlarmLength_E
  X:0109H         SYMBOL        val_index
  C:041AH         PUBLIC        Str_GAUGE_RECALL_E
  C:01B2H         PUBLIC        OutOfRangeStr_E
  C:A0D2H         PUBLIC        _OSDValueUpDn
  C:1601H         PUBLIC        Init_DTV_Data
  C:154BH         PUBLIC        PCUserColorTempRange
  C:0628H         PUBLIC        Str_CVBSR_E
  C:17FEH         SYMBOL        _?ix1000
  C:1441H         PUBLIC        CAMERAMenu
  C:0D74H         PUBLIC        Str_DaylightSaving
  C:D7ECH         PUBLIC        SaveValue1
  C:1842H         SYMBOL        _?ix1001
  X:010AH         SYMBOL        cur_osdwin
  C:184EH         SYMBOL        _?ix1002
  C:0D8FH         PUBLIC        Str_FirmwareUpdate
  C:0AD4H         PUBLIC        Str_WIFI_IP
  C:07CEH         PUBLIC        ONOFFChoiceString
  C:04FEH         PUBLIC        Str_FormatSD_E
  C:0363H         PUBLIC        Str_Reset_D
  C:185AH         SYMBOL        _?ix1003
  C:0BBBH         PUBLIC        Str_CAM_OUT
  C:0427H         PUBLIC        Str_PRIORITY_E
  C:0356H         PUBLIC        Str_Reset_E
  C:B379H         PUBLIC        _SetVideoSharpness
  C:08C7H         PUBLIC        CAMOUTString
  C:0581H         PUBLIC        Str_TriggerSet_E
  C:035CH         PUBLIC        Str_Reset_F
  C:01BFH         PUBLIC        OutOfRangeStr_K
  C:85FAH         PUBLIC        _DrawMenulist
  C:1545H         PUBLIC        OSDMenuXRange
  C:0E81H         PUBLIC        FWUpdateSELECT
  C:C5C7H         PUBLIC        InitOSDMenuXY
  C:153FH         PUBLIC        OSDMenuYRange
  C:04ACH         PUBLIC        Str_Month_E
  C:0477H         PUBLIC        Str_Apply_E
  C:040EH         PUBLIC        Str_GAUGE_STEP_E
  C:14C5H         PUBLIC        TVMainMenu
  C:0DD7H         PUBLIC        UTIL_ICON
  C:1209H         PUBLIC        SDCARDMenu
  C:0D83H         PUBLIC        Str_TimeZone
BL51 BANKED LINKER/LOCATER V5.03                                                      01/25/2013  13:44:25  PAGE 86


  C:0982H         PUBLIC        PostAlarmLengthChoiceString
  C:096AH         PUBLIC        PreAlarmLengthChoiceString
  C:8F5AH         PUBLIC        OSDSelect
  C:136DH         PUBLIC        TRIGGERDELAYSELECT
  C:0B52H         PUBLIC        Str_Saturation
  C:0383H         PUBLIC        Str_Reset_K
  C:15FBH         PUBLIC        Init_Video_Data
  C:0DEBH         PUBLIC        SDCardOverWrite_ICON
  C:1305H         PUBLIC        CAMSelectMenu
  C:0DE3H         PUBLIC        PC_ADJ_ICON
  C:04DDH         PUBLIC        Str_Week_E
  C:DA87H         PUBLIC        _GetNextCursorMenuItem
  C:0BD9H         PUBLIC        Str_RECALL
  C:0D7AH         PUBLIC        Str_Standard
  C:04E2H         PUBLIC        Str_Time_E
  C:15A5H         PUBLIC        OSDPOSITIONMODE_TABLE
  C:049DH         PUBLIC        Str_DateTime_E
  C:0DADH         PUBLIC        Str_TriggerVGA
  C:0C60H         PUBLIC        Str_SOURCE_TITLE
  C:0675H         PUBLIC        Str_CAMA_E
  C:04A7H         PUBLIC        Str_Year_E
  C:CFC3H         PUBLIC        _GetTargetChild
  C:067BH         PUBLIC        Str_CAMB_E
  C:05C1H         PUBLIC        Str_SDCARDCOVERDET_E
  C:0372H         PUBLIC        Str_Reset_S
  C:0FADH         PUBLIC        DateTimeSELECT
  C:0681H         PUBLIC        Str_CAMC_E
  X:010BH         PUBLIC        PW_SecondNumber
  C:0D3EH         PUBLIC        Str_Resolution
  C:0C06H         PUBLIC        Str_EXIT
  C:06BDH         PUBLIC        ModeChoice
  C:068DH         PUBLIC        Str_CAMD_E
  C:CB5FH         PUBLIC        _CAMOutDSel
  X:010CH         SYMBOL        OSDMenuX
  C:8C8DH         PUBLIC        _SetOSDPositionMode
  C:0B9DH         PUBLIC        Str_JUMP
  C:0B70H         PUBLIC        Str_Sharpness
  X:010DH         SYMBOL        OSDMenuY
  C:0646H         PUBLIC        Str_DIR_IMAGE_CAMA_E
  C:05CFH         PUBLIC        Str_DISPLAY_E
  C:03B5H         PUBLIC        Str_SEQ_TIME_STEP_E
  C:9ECBH         PUBLIC        DisplayOSDMenu
  C:D76FH         PUBLIC        pushMenu
  C:1733H         PUBLIC        WIDEDATA_1080i
  C:0AB6H         PUBLIC        Str_LCDVersion
  C:078CH         PUBLIC        OsdPositionModeChoice
  C:0652H         PUBLIC        Str_DIR_IMAGE_CAMB_E
  C:065EH         PUBLIC        Str_DIR_IMAGE_CAMC_E
  C:0DB6H         PUBLIC        Str_UpdateConfig
  C:01CCH         PUBLIC        StrVolume_E
  C:D17CH         PUBLIC        _SetVideoContrast
  C:A587H         PUBLIC        DisplayCursor
  C:1101H         PUBLIC        DMINFORMATION
  C:0DE7H         PUBLIC        NoSDCard_ICON
  C:0B16H         PUBLIC        Str_OSDPosition
  C:052EH         PUBLIC        Str_NO_E
  C:11B5H         PUBLIC        RecordSelectMenu
BL51 BANKED LINKER/LOCATER V5.03                                                      01/25/2013  13:44:25  PAGE 87


  C:0A1AH         PUBLIC        PDChoiceString
  C:066AH         PUBLIC        Str_REAR_SETUP_E
  C:04B2H         PUBLIC        Str_Day_E
  C:0295H         PUBLIC        Str_Brightness_D
  C:1599H         PUBLIC        DigitalVideoSaturationRange
  C:0F25H         PUBLIC        FORMATSDSelectMenu
  C:0E14H         PUBLIC        DefaultBar
  C:0802H         PUBLIC        IMAGEString
  C:04B6H         PUBLIC        Str_Hour_E
  C:027FH         PUBLIC        Str_Brightness_E
  C:1519H         PUBLIC        DefaultMenu
  C:081FH         PUBLIC        IMAGE_A_String
  C:028AH         PUBLIC        Str_Brightness_F
  C:083EH         PUBLIC        IMAGE_B_String
  C:0313H         PUBLIC        Str_Hue_D
  C:D1F8H         PUBLIC        _DVRAodioSel
  C:0DA7H         PUBLIC        Str_Str_OverWrite
  C:0D32H         PUBLIC        Str_TIMEOUT_STEP
  C:085DH         PUBLIC        IMAGE_C_String
  C:0567H         PUBLIC        Str_ChangePassword_E
  C:03E2H         PUBLIC        Str_DVRRECALL_E
  C:03D3H         PUBLIC        Str_MonitorRECALL_E
  C:0306H         PUBLIC        Str_Hue_E
  B:0023H.0       PUBLIC        OnChangingValue
  C:9831H         PUBLIC        _OSDCursorMove
  C:0D4AH         PUBLIC        Str_RecordLength
  C:0687H         PUBLIC        Str_CAMR_E
  C:030AH         PUBLIC        Str_Hue_F
  C:063CH         PUBLIC        Str_DIR_IMAGE_E
  C:0EB5H         PUBLIC        ChangePasswordSELECT
  C:0DF7H         PUBLIC        NoGPS_ICON2
  C:0DB0H         PUBLIC        Str_TriggerDelay
  C:0741H         PUBLIC        VInputStdChoice
  C:02A7H         PUBLIC        Str_Brightness_K
  C:0693H         PUBLIC        OSDLangString
  C:DA6BH         PUBLIC        popMenu
  C:0D9BH         PUBLIC        Str_SecondNumber
  C:04C3H         PUBLIC        Str_DaylightSaving_E
  C:0C33H         PUBLIC        Str_DISTANCE
  C:0323H         PUBLIC        Str_Hue_K
  C:07E7H         PUBLIC        DayChoiceString
  C:051AH         PUBLIC        Str_FirmwareUpdate_E
  C:0219H         PUBLIC        Str_WIFI_IP_E
  C:03BEH         PUBLIC        Str_CAM_OUT_E
  X:010EH         SYMBOL        OSDLang
  C:CB12H         PUBLIC        ClearCursor
  C:000EH         PUBLIC        GetOSDPositionMode
  C:13D1H         PUBLIC        DMTRIGGERSELECT
  C:15BBH         PUBLIC        VideoModeTable
  C:0577H         PUBLIC        Str_OverWrite_E
  C:10BDH         PUBLIC        RecallMenu
  C:0E0BH         PUBLIC        WiFiLittle_ICON
  C:0D77H         PUBLIC        Str_TimeBegines
  C:0B43H         PUBLIC        Str_Contrast
  C:0AF2H         PUBLIC        Str_GETWAY
  C:02A0H         PUBLIC        Str_Brightness_S
  C:B9B8H         PUBLIC        _DisplayVolumebar
BL51 BANKED LINKER/LOCATER V5.03                                                      01/25/2013  13:44:25  PAGE 88


  C:8245H         PUBLIC        ResetOSDValue
  C:A8FCH         PUBLIC        _DisplayViewBar
  C:5DAEH         PUBLIC        _DisplayOSDMenuOneItem
  C:0DFBH         PUBLIC        Gsensor_ICON
  C:0D5CH         PUBLIC        Str_Snapshot
  C:04E7H         PUBLIC        Str_TimeZone_E
  C:02E8H         PUBLIC        Str_Saturation_D
  C:DD29H         PUBLIC        ChkOSDMENU_WINDOW
  C:0319H         PUBLIC        Str_Hue_S
  C:02DDH         PUBLIC        Str_Saturation_E
  X:010FH         PUBLIC        PW_FourthNumber
  C:1295H         PUBLIC        DMPicture
  C:0D56H         PUBLIC        Str_ManualRecordStart
  C:156FH         PUBLIC        PanelBacklightRange
  C:0D8CH         PUBLIC        Str_AudioRecord
  C:0AC5H         PUBLIC        Str_DVRVersion
  C:099AH         PUBLIC        DaylightSavingChoiceString
  X:0110H         PUBLIC        PW_ThridNumber
  C:D1BAH         PUBLIC        _OpenOSDMenu
  C:161BH         PUBLIC        WIDEDATA_N
  C:0DEFH         PUBLIC        GPS_ICON
  C:03CBH         PUBLIC        Str_RECALL_E
  C:707CH         PUBLIC        _DoAction
  C:BAD6H         PUBLIC        _InitOSDMenu
  C:1643H         PUBLIC        WIDEDATA_P
  C:07F8H         PUBLIC        ONOFFChoiceString1
  C:04D9H         PUBLIC        Str_Standard_E
  C:02FDH         PUBLIC        Str_Saturation_K
  C:1291H         PUBLIC        PictureMenu
  C:0E1DH         PUBLIC        DMINPUTSOURCE
  C:0B8EH         PUBLIC        Str_MIRROR
  C:0606H         PUBLIC        Str_SOURCE_TITLE_E
  C:058DH         PUBLIC        Str_TriggerVGA_E
  C:D328H         PUBLIC        CloseOSDMenu
  C:01EFH         PUBLIC        Str_Composite_E
  X:0111H         SYMBOL        OSDItemValue
  C:DD1CH         PUBLIC        ChkOSDMENU_TOPWIN
  X:0113H         PUBLIC        OSDMenuLevel
  C:0E03H         PUBLIC        WiFi_ICON
  C:09D3H         PUBLIC        TimeZoneChoiceString
  C:0430H         PUBLIC        Str_Resolution_E
  C:03EDH         PUBLIC        Str_EXIT_E
  C:033DH         PUBLIC        Str_Sharpness_D
  C:0BCAH         PUBLIC        Str_RETURN
  C:0AE3H         PUBLIC        Str_WIFI_MAC
  C:0A69H         PUBLIC        JUMPChineseString
  C:03B0H         PUBLIC        Str_JUMP_E
  C:032CH         PUBLIC        Str_Sharpness_E
  C:558BH         SYMBOL        Com045E
  C:558BH         SYMBOL        L?1119
  C:558BH         SYMBOL        L?1120
  C:5592H         SYMBOL        L?1121
  C:5599H         SYMBOL        L?1122
  C:5599H         SYMBOL        L?1123
  C:559BH         SYMBOL        L?1124
  C:55A8H         SYMBOL        L?1129
  C:55A8H         SYMBOL        L?1130
BL51 BANKED LINKER/LOCATER V5.03                                                      01/25/2013  13:44:25  PAGE 89


  C:55AFH         SYMBOL        L?1133
  C:55B6H         SYMBOL        L?1134
  C:55BCH         SYMBOL        L?1135
  C:55C5H         SYMBOL        L?1136
  C:55C5H         SYMBOL        L?1137
  C:55C8H         SYMBOL        L?1138
  C:55D1H         SYMBOL        L?1142
  C:55E5H         SYMBOL        L?1143
  C:55EBH         SYMBOL        L?1144
  C:55F8H         SYMBOL        L?1145
  C:5601H         SYMBOL        L?1146
  C:5601H         SYMBOL        L?1147
  C:5607H         SYMBOL        L?1148
  C:560EH         SYMBOL        L?1149
  C:560FH         SYMBOL        L?1150
  C:5615H         SYMBOL        L?1152
  C:5615H         SYMBOL        L?1153
  C:561DH         SYMBOL        L?1154
  C:5621H         SYMBOL        L?1155
  C:562CH         SYMBOL        L?1156
  C:562CH         SYMBOL        L?1157
  C:562FH         SYMBOL        L?1158
  C:5636H         SYMBOL        L?1161
  C:5636H         SYMBOL        L?1162
  C:564DH         SYMBOL        L?1163
  C:5653H         SYMBOL        L?1164
  C:5653H         SYMBOL        L?1165
  C:565AH         SYMBOL        L?1167
  C:565AH         SYMBOL        L?1168
  C:5662H         SYMBOL        L?1170
  C:5662H         SYMBOL        L?1171
  C:5665H         SYMBOL        L?1172
  C:566DH         SYMBOL        L?1174
  C:566DH         SYMBOL        L?1175
  C:5676H         SYMBOL        L?1176
  C:5676H         SYMBOL        L?1177
  C:5679H         SYMBOL        L?1178
  C:5683H         SYMBOL        L?1184
  C:5685H         SYMBOL        L?1185
  C:5688H         SYMBOL        L?1186
  C:5690H         SYMBOL        L?1188
  C:5699H         SYMBOL        L?1189
  C:56A2H         SYMBOL        L?1194
  C:56A7H         SYMBOL        L?1195
  C:56B0H         SYMBOL        L?1196
  C:56B1H         SYMBOL        L?1197
  C:56B9H         SYMBOL        L?1200
  C:56B9H         SYMBOL        L?1201
  C:56BCH         SYMBOL        L?1202
  C:56C5H         SYMBOL        L?1203
  C:56CCH         SYMBOL        L?1204
  C:56D3H         SYMBOL        L?1205
  C:56D3H         SYMBOL        L?1206
  C:56DBH         SYMBOL        L?1207
  C:56E2H         SYMBOL        L?1208
  C:56E4H         SYMBOL        L?1209
  C:56EBH         SYMBOL        L?1210
BL51 BANKED LINKER/LOCATER V5.03                                                      01/25/2013  13:44:25  PAGE 90


  C:56ECH         SYMBOL        L?1211
  C:56FDH         SYMBOL        L?1216
  C:571AH         SYMBOL        L?1221
  C:571CH         SYMBOL        L?1222
  C:572AH         SYMBOL        L?1223
  C:5744H         SYMBOL        L?1224
  C:5744H         SYMBOL        L?1225
  C:5747H         SYMBOL        L?1226
  C:574FH         SYMBOL        L?1227
  C:575AH         SYMBOL        L?1228
  C:575AH         SYMBOL        L?1229
  C:5767H         SYMBOL        L?1230
  C:577DH         SYMBOL        L?1231
  C:5793H         SYMBOL        L?1232
  C:5793H         SYMBOL        L?1233
  C:57A0H         SYMBOL        L?1234
  C:57A0H         SYMBOL        L?1235
  C:57A6H         SYMBOL        L?1237
  C:57A8H         SYMBOL        L?1238
  C:57B1H         SYMBOL        L?1239
  C:57B2H         SYMBOL        L?1240
  C:57B9H         SYMBOL        L?1241
  C:57CDH         SYMBOL        L?1242
  C:57CDH         SYMBOL        L?1243
  C:57D5H         SYMBOL        L?1245
  C:57D8H         SYMBOL        L?1246
  C:57E0H         SYMBOL        L?1247
  C:57E0H         SYMBOL        L?1248
  C:57E8H         SYMBOL        L?1249
  C:57EBH         SYMBOL        L?1250
  C:57F2H         SYMBOL        L?1251
  C:57F2H         SYMBOL        L?1252
  C:57F3H         SYMBOL        L?1253
  C:57FAH         SYMBOL        L?1255
  C:580BH         SYMBOL        L?1256
  C:5810H         SYMBOL        L?1257
  C:5818H         SYMBOL        L?1259
  C:5828H         SYMBOL        L?1260
  C:582AH         SYMBOL        L?1261
  C:5832H         SYMBOL        L?1262
  C:5832H         SYMBOL        L?1263
  C:5839H         SYMBOL        L?1264
  C:5839H         SYMBOL        L?1265
  C:5841H         SYMBOL        L?1266
  C:5841H         SYMBOL        L?1267
  C:5849H         SYMBOL        L?1268
  C:5849H         SYMBOL        L?1269
  C:5850H         SYMBOL        L?1270
  C:5860H         SYMBOL        L?1276
  C:586FH         SYMBOL        L?1277
  C:587EH         SYMBOL        L?1281
  C:588CH         SYMBOL        L?1282
  C:589AH         SYMBOL        L?1283
  C:58A8H         SYMBOL        L?1284
  C:58B6H         SYMBOL        L?1285
  C:58B8H         SYMBOL        L?1286
  C:58C0H         SYMBOL        L?1287
BL51 BANKED LINKER/LOCATER V5.03                                                      01/25/2013  13:44:25  PAGE 91


  C:58CEH         SYMBOL        L?1290
  C:58CEH         SYMBOL        L?1291
  C:58D5H         SYMBOL        L?1292
  C:58E2H         SYMBOL        L?1293
  C:58E4H         SYMBOL        L?1294
  C:58EBH         SYMBOL        L?1295
  C:58EBH         SYMBOL        L?1296
  C:58F1H         SYMBOL        L?1297
  C:58FEH         SYMBOL        L?1298
  C:58FEH         SYMBOL        L?1299
  C:5906H         SYMBOL        L?1300
  C:5906H         SYMBOL        L?1301
  C:590EH         SYMBOL        L?1302
  C:590EH         SYMBOL        L?1303
  C:5916H         SYMBOL        L?1306
  C:5921H         SYMBOL        L?1307
  C:592CH         SYMBOL        L?1308
  C:5937H         SYMBOL        L?1309
  C:593EH         SYMBOL        L?1310
  C:5949H         SYMBOL        L?1313
  C:5953H         SYMBOL        L?1314
  C:595DH         SYMBOL        L?1315
  C:5967H         SYMBOL        L?1316
  C:5971H         SYMBOL        L?1317
  C:5971H         SYMBOL        L?1318
  C:5977H         SYMBOL        L?1319
  C:5981H         SYMBOL        L?1320
  C:598BH         SYMBOL        L?1321
  C:598BH         SYMBOL        L?1322
  C:5992H         SYMBOL        L?1323
  C:5999H         SYMBOL        L?1324
  C:5999H         SYMBOL        L?1325
  -------         PROC          COM045E
  -------         ENDPROC       COM045E
  -------         PROC          GETOSDPOSITIONMODE
  -------         DO            
  D:0007H         SYMBOL        val
  -------         ENDDO         
  C:000EH         LINE#         89
  C:000EH         LINE#         90
  C:000EH         LINE#         92
  C:0011H         LINE#         95
  C:0011H         LINE#         96
  -------         ENDPROC       GETOSDPOSITIONMODE
  C:8DEDH         SYMBOL        L?1278
  -------         PROC          _SETOSDPOSITIONMODE
  X:0015H         SYMBOL        flag
  -------         DO            
  D:0004H         SYMBOL        val
  X:0016H         SYMBOL        addx
  X:0018H         SYMBOL        addy
  X:001AH         SYMBOL        i
  D:0007H         SYMBOL        inc
  X:001BH         SYMBOL        winno
  X:001CH         SYMBOL        OSDStart
  D:0002H         SYMBOL        tmp
  -------         ENDDO         
BL51 BANKED LINKER/LOCATER V5.03                                                      01/25/2013  13:44:25  PAGE 92


  C:8C8DH         LINE#         98
  C:8C92H         LINE#         99
  C:8C92H         LINE#         111
  C:8C9AH         LINE#         112
  C:8CA7H         LINE#         113
  C:8CAAH         LINE#         114
  C:8CAFH         LINE#         116
  C:8CBCH         LINE#         117
  C:8CCFH         LINE#         118
  C:8CD3H         LINE#         120
  C:8CE0H         LINE#         121
  C:8CF3H         LINE#         122
  C:8CF8H         LINE#         124
  C:8D08H         LINE#         125
  C:8D0FH         LINE#         126
  C:8D12H         LINE#         127
  C:8D15H         LINE#         128
  C:8D28H         LINE#         129
  C:8D2EH         LINE#         131
  C:8D37H         LINE#         132
  C:8D3AH         LINE#         133
  C:8D3DH         LINE#         134
  C:8D4FH         LINE#         135
  C:8D6CH         LINE#         136
  C:8D75H         LINE#         138
  C:8D78H         LINE#         151
  C:8D85H         LINE#         152
  C:8D95H         LINE#         153
  C:8D9FH         LINE#         154
  C:8DBEH         LINE#         155
  C:8DC6H         LINE#         157
  C:8DD3H         LINE#         158
  C:8DDBH         LINE#         160
  C:8DDEH         LINE#         161
  C:8DE7H         LINE#         164
  C:8DECH         LINE#         165
  -------         ENDPROC       _SETOSDPOSITIONMODE
  C:83C4H         SYMBOL        L?1179
  C:83CBH         SYMBOL        L?1180
  C:83D2H         SYMBOL        L?1183
  C:83D9H         SYMBOL        L?1187
  C:83E1H         SYMBOL        L?1192
  C:83E8H         SYMBOL        L?1198
  C:83F0H         SYMBOL        L?1199
  C:83F7H         SYMBOL        L?1218
  C:83FFH         SYMBOL        L?1219
  C:8406H         SYMBOL        L?1236
  C:840DH         SYMBOL        L?1244
  C:8415H         SYMBOL        L?1271
  C:841CH         SYMBOL        L?1304
  C:8424H         SYMBOL        L?1326
  -------         PROC          RESETOSDVALUE
  C:8245H         LINE#         247
  C:8245H         LINE#         248
  C:8245H         LINE#         250
  C:824EH         LINE#         251
  C:8257H         LINE#         253
BL51 BANKED LINKER/LOCATER V5.03                                                      01/25/2013  13:44:25  PAGE 93


  C:825CH         LINE#         257
  C:8261H         LINE#         258
  C:8266H         LINE#         259
  C:8272H         LINE#         260
  C:8277H         LINE#         261
  C:827CH         LINE#         262
  C:8281H         LINE#         263
  C:8286H         LINE#         264
  C:828BH         LINE#         265
  C:8290H         LINE#         266
  C:8295H         LINE#         267
  C:829AH         LINE#         268
  C:829FH         LINE#         269
  C:82A4H         LINE#         270
  C:82A9H         LINE#         271
  C:82B2H         LINE#         272
  C:82B8H         LINE#         273
  C:82BDH         LINE#         274
  C:82C6H         LINE#         275
  C:82CFH         LINE#         277
  C:82D4H         LINE#         278
  C:82D9H         LINE#         279
  C:82DEH         LINE#         281
  C:82E3H         LINE#         282
  C:82E8H         LINE#         283
  C:82EDH         LINE#         284
  C:82F2H         LINE#         289
  C:82F8H         LINE#         290
  C:82F8H         LINE#         291
  C:82FFH         LINE#         292
  C:8305H         LINE#         293
  C:8307H         LINE#         295
  C:8307H         LINE#         296
  C:8310H         LINE#         297
  C:8318H         LINE#         298
  C:8318H         LINE#         299
  C:831DH         LINE#         301
  C:8325H         LINE#         302
  C:832AH         LINE#         303
  C:832FH         LINE#         304
  C:8338H         LINE#         305
  C:8341H         LINE#         307
  C:8346H         LINE#         308
  C:834BH         LINE#         309
  C:8350H         LINE#         310
  C:8355H         LINE#         311
  C:835AH         LINE#         312
  C:835DH         LINE#         313
  C:8362H         LINE#         316
  C:8367H         LINE#         317
  C:8373H         LINE#         318
  C:8378H         LINE#         320
  C:837DH         LINE#         321
  C:8389H         LINE#         322
  C:8392H         LINE#         323
  C:839EH         LINE#         324
  C:83A7H         LINE#         325
BL51 BANKED LINKER/LOCATER V5.03                                                      01/25/2013  13:44:25  PAGE 94


  C:83B3H         LINE#         326
  C:83BBH         LINE#         327
  C:83C0H         LINE#         329
  C:83C4H         LINE#         336
  -------         ENDPROC       RESETOSDVALUE
  -------         PROC          GETOSDLANG
  C:DC97H         LINE#         370
  C:DC97H         LINE#         371
  C:DC97H         LINE#         372
  C:DC9FH         LINE#         373
  C:DCA7H         LINE#         374
  C:DCA7H         LINE#         375
  -------         ENDPROC       GETOSDLANG
  -------         PROC          _SETLANGUAGE
  D:0007H         SYMBOL        flag
  -------         DO            
  D:0007H         SYMBOL        inc
  -------         ENDDO         
  C:DA31H         LINE#         377
  C:DA31H         LINE#         378
  C:DA31H         LINE#         380
  C:DA3BH         LINE#         381
  C:DA3EH         LINE#         382
  C:DA45H         LINE#         384
  C:DA48H         LINE#         386
  C:DA4DH         LINE#         387
  -------         ENDPROC       _SETLANGUAGE
  -------         PROC          _SETRGBCONTRAST
  D:0007H         SYMBOL        temp
  X:0017H         SYMBOL        val
  -------         DO            
  X:0018H         SYMBOL        index
  X:001AH         SYMBOL        i
  X:001BH         SYMBOL        newval
  X:001DH         SYMBOL        toValue
  -------         ENDDO         
  C:C62DH         LINE#         423
  C:C632H         LINE#         424
  C:C632H         LINE#         429
  C:C642H         LINE#         430
  C:C64FH         LINE#         431
  C:C64FH         LINE#         432
  C:C662H         LINE#         433
  C:C672H         LINE#         434
  C:C689H         LINE#         435
  C:C691H         LINE#         436
  -------         ENDPROC       _SETRGBCONTRAST
  -------         PROC          _SETPCCOLORTEMP
  D:0007H         SYMBOL        flag
  -------         DO            
  D:0007H         SYMBOL        val
  X:0015H         SYMBOL        regv
  D:0007H         SYMBOL        inc
  -------         ENDDO         
  C:BE8FH         LINE#         450
  C:BE8FH         LINE#         451
  C:BE8FH         LINE#         458
BL51 BANKED LINKER/LOCATER V5.03                                                      01/25/2013  13:44:25  PAGE 95


  C:BE99H         LINE#         459
  C:BEB5H         LINE#         460
  C:BEBCH         LINE#         462
  C:BEC5H         LINE#         463
  C:BECCH         LINE#         464
  C:BEE1H         LINE#         465
  C:BEEEH         LINE#         467
  C:BEFCH         LINE#         468
  C:BF00H         LINE#         470
  C:BF09H         LINE#         472
  C:BF0EH         LINE#         473
  -------         ENDPROC       _SETPCCOLORTEMP
  -------         PROC          _SETPCCOLOR
  X:0015H         SYMBOL        color
  D:0005H         SYMBOL        flag
  -------         DO            
  X:0016H         SYMBOL        newval
  X:0018H         SYMBOL        toValue
  X:001AH         SYMBOL        regv
  -------         ENDDO         
  C:B420H         LINE#         483
  C:B425H         LINE#         484
  C:B425H         LINE#         488
  C:B448H         LINE#         489
  C:B45CH         LINE#         490
  C:B45FH         LINE#         492
  C:B46AH         LINE#         493
  C:B479H         LINE#         494
  C:B48BH         LINE#         496
  C:B495H         LINE#         497
  C:B4A9H         LINE#         499
  C:B4C0H         LINE#         501
  C:B4C5H         LINE#         502
  -------         ENDPROC       _SETPCCOLOR
  C:C969H         SYMBOL        L?1213
  -------         PROC          CHECKPANELIMAGE
  C:C91BH         LINE#         560
  C:C91BH         LINE#         561
  C:C91BH         LINE#         582
  C:C91BH         LINE#         583
  C:C92DH         LINE#         584
  C:C92FH         LINE#         585
  C:C939H         LINE#         586
  C:C93BH         LINE#         587
  C:C945H         LINE#         588
  C:C94EH         LINE#         589
  C:C957H         LINE#         590
  C:C969H         LINE#         591
  C:C969H         LINE#         593
  -------         ENDPROC       CHECKPANELIMAGE
  -------         PROC          _SETVIDEOMODE
  X:0022H         SYMBOL        mode
  -------         DO            
  X:0023H         SYMBOL        i
  X:0025H         SYMBOL        regv
  -------         DO            
  X:0027H         SYMBOL        userv
BL51 BANKED LINKER/LOCATER V5.03                                                      01/25/2013  13:44:25  PAGE 96


  -------         ENDDO         
  -------         ENDDO         
  C:A4A4H         LINE#         604
  C:A4AAH         LINE#         605
  C:A4AAH         LINE#         608
  C:A4B1H         LINE#         610
  C:A4B9H         LINE#         612
  C:A4BEH         LINE#         613
  C:A502H         LINE#         615
  C:A51DH         LINE#         616
  C:A51DH         LINE#         617
  C:A51DH         LINE#         619
  C:A51FH         LINE#         621
  C:A51FH         LINE#         623
  C:A51FH         LINE#         627
  C:A527H         LINE#         628
  C:A52FH         LINE#         629
  C:A53BH         LINE#         630
  C:A547H         LINE#         631
  C:A54FH         LINE#         633
  C:A559H         LINE#         634
  C:A56DH         LINE#         635
  C:A56DH         LINE#         636
  C:A576H         LINE#         637
  C:A586H         LINE#         642
  C:A586H         LINE#         644
  -------         ENDPROC       _SETVIDEOMODE
  -------         PROC          ISINPUTANALOGRGB
  C:DE3FH         LINE#         646
  C:DE3FH         LINE#         647
  C:DE3FH         LINE#         654
  C:DE41H         LINE#         655
  -------         ENDPROC       ISINPUTANALOGRGB
  -------         PROC          _GETVIDEODATAWITHOFFSET
  D:0007H         SYMBOL        offset
  C:DD72H         LINE#         657
  C:DD72H         LINE#         658
  C:DD72H         LINE#         659
  C:DD79H         LINE#         661
  C:DD7BH         LINE#         662
  -------         ENDPROC       _GETVIDEODATAWITHOFFSET
  -------         PROC          _CHANGEVIDEODATA
  X:0015H         SYMBOL        offset
  D:0005H         SYMBOL        flag
  -------         DO            
  X:0016H         SYMBOL        newv
  D:0006H         SYMBOL        inc
  -------         ENDDO         
  C:B56BH         LINE#         664
  C:B570H         LINE#         665
  C:B570H         LINE#         668
  C:B57EH         LINE#         670
  C:B58DH         LINE#         671
  C:B5A1H         LINE#         672
  C:B5A7H         LINE#         673
  C:B5A7H         LINE#         675
  C:B5BFH         LINE#         676
BL51 BANKED LINKER/LOCATER V5.03                                                      01/25/2013  13:44:25  PAGE 97


  C:B5BFH         LINE#         677
  C:B5C7H         LINE#         678
  C:B5C9H         LINE#         679
  C:B5D1H         LINE#         680
  C:B5D3H         LINE#         681
  C:B5D3H         LINE#         682
  C:B5D3H         LINE#         683
  C:B5E2H         LINE#         684
  C:B5E4H         LINE#         685
  C:B5ECH         LINE#         686
  C:B5EEH         LINE#         687
  C:B5F6H         LINE#         688
  C:B5F6H         LINE#         689
  C:B5F6H         LINE#         691
  C:B603H         LINE#         693
  C:B609H         LINE#         694
  C:B60EH         LINE#         696
  -------         ENDPROC       _CHANGEVIDEODATA
  -------         PROC          _SETVIDEOCONTRAST
  X:0029H         SYMBOL        newv
  -------         DO            
  X:002AH         SYMBOL        regv
  -------         ENDDO         
  C:D17CH         LINE#         698
  C:D181H         LINE#         699
  C:D181H         LINE#         702
  C:D18BH         LINE#         703
  C:D197H         LINE#         705
  C:D1A7H         LINE#         708
  -------         ENDPROC       _SETVIDEOCONTRAST
  -------         PROC          _SETVIDEOBRIGHTNESS
  X:0029H         SYMBOL        newv
  -------         DO            
  X:002AH         SYMBOL        regv
  -------         ENDDO         
  C:CC8DH         LINE#         712
  C:CC92H         LINE#         713
  C:CC92H         LINE#         717
  C:CC9AH         LINE#         718
  C:CCA7H         LINE#         719
  C:CCAEH         LINE#         720
  C:CCB0H         LINE#         721
  C:CCB0H         LINE#         722
  C:CCBDH         LINE#         724
  C:CCC6H         LINE#         725
  C:CCCCH         LINE#         727
  C:CCD5H         LINE#         728
  C:CCD5H         LINE#         729
  -------         ENDPROC       _SETVIDEOBRIGHTNESS
  C:C48EH         SYMBOL        L?1327
  -------         PROC          _SETVIDEOBACKLIGHT
  D:0007H         SYMBOL        newv
  -------         DO            
  X:0018H         SYMBOL        regv
  X:001AH         SYMBOL        page
  -------         ENDDO         
  C:C42CH         LINE#         730
BL51 BANKED LINKER/LOCATER V5.03                                                      01/25/2013  13:44:25  PAGE 98


  C:C42CH         LINE#         731
  C:C42CH         LINE#         736
  C:C441H         LINE#         747
  C:C44DH         LINE#         748
  C:C453H         LINE#         749
  C:C464H         LINE#         750
  C:C482H         LINE#         751
  C:C48EH         LINE#         753
  -------         ENDPROC       _SETVIDEOBACKLIGHT
  -------         PROC          _SETVIDEOHUE
  X:0029H         SYMBOL        newv
  -------         DO            
  X:002AH         SYMBOL        regv
  -------         ENDDO         
  C:C4FBH         LINE#         755
  C:C500H         LINE#         756
  C:C500H         LINE#         760
  C:C508H         LINE#         761
  C:C51CH         LINE#         762
  C:C52FH         LINE#         763
  C:C531H         LINE#         764
  C:C531H         LINE#         765
  C:C548H         LINE#         766
  C:C551H         LINE#         767
  C:C557H         LINE#         769
  C:C560H         LINE#         770
  C:C560H         LINE#         772
  -------         ENDPROC       _SETVIDEOHUE
  -------         PROC          _SETVIDEOSATURATION
  X:0029H         SYMBOL        svtype
  X:002AH         SYMBOL        newv
  -------         DO            
  X:002BH         SYMBOL        regv
  -------         ENDDO         
  C:C1F3H         LINE#         774
  C:C1FBH         LINE#         775
  C:C1FBH         LINE#         779
  C:C201H         LINE#         780
  C:C215H         LINE#         781
  C:C232H         LINE#         782
  C:C234H         LINE#         783
  C:C234H         LINE#         785
  C:C24BH         LINE#         787
  C:C255H         LINE#         788
  C:C258H         LINE#         789
  C:C25AH         LINE#         790
  C:C25AH         LINE#         791
  C:C268H         LINE#         792
  C:C268H         LINE#         793
  C:C268H         LINE#         794
  -------         ENDPROC       _SETVIDEOSATURATION
  -------         PROC          _SETVIDEOSHARPNESS
  X:0015H         SYMBOL        flag
  -------         DO            
  D:0007H         SYMBOL        orgv
  D:0007H         SYMBOL        inc
  X:0016H         SYMBOL        newv
BL51 BANKED LINKER/LOCATER V5.03                                                      01/25/2013  13:44:25  PAGE 99


  X:0018H         SYMBOL        regv
  -------         ENDDO         
  C:B379H         LINE#         797
  C:B37EH         LINE#         798
  C:B37EH         LINE#         803
  C:B388H         LINE#         804
  C:B393H         LINE#         805
  C:B3A0H         LINE#         806
  C:B3ACH         LINE#         807
  C:B3CDH         LINE#         809
  C:B3D3H         LINE#         811
  C:B3F1H         LINE#         813
  C:B3FAH         LINE#         815
  C:B40AH         LINE#         818
  C:B414H         LINE#         819
  C:B41AH         LINE#         821
  C:B41FH         LINE#         822
  -------         ENDPROC       _SETVIDEOSHARPNESS
  C:C5B6H         SYMBOL        L?1258
  -------         PROC          RESETVIDEOVALUE
  -------         DO            
  X:000CH         SYMBOL        i
  X:000DH         SYMBOL        CurInput
  -------         ENDDO         
  C:C561H         LINE#         857
  C:C561H         LINE#         858
  C:C561H         LINE#         864
  C:C569H         LINE#         865
  C:C579H         LINE#         867
  C:C57DH         LINE#         868
  C:C57DH         LINE#         869
  C:C582H         LINE#         870
  C:C589H         LINE#         871
  C:C590H         LINE#         872
  C:C590H         LINE#         873
  C:C590H         LINE#         874
  C:C595H         LINE#         880
  C:C59CH         LINE#         881
  C:C5A1H         LINE#         882
  C:C5A1H         LINE#         883
  C:C5A9H         LINE#         884
  C:C5B1H         LINE#         885
  C:C5B6H         LINE#         887
  -------         ENDPROC       RESETVIDEOVALUE
  -------         PROC          _SET4WIDESCREEN
  X:0022H         SYMBOL        id
  -------         DO            
  X:0023H         SYMBOL        i
  X:0025H         SYMBOL        WideData
  -------         ENDDO         
  C:AEA2H         LINE#         1006
  C:AEA7H         LINE#         1007
  C:AEA7H         LINE#         1008
  C:AEACH         LINE#         1009
  C:AEB1H         LINE#         1010
  C:AEB7H         LINE#         1011
  C:AEB7H         LINE#         1013
BL51 BANKED LINKER/LOCATER V5.03                                                      01/25/2013  13:44:25  PAGE 100


  C:AEBFH         LINE#         1046
  C:AEBFH         LINE#         1047
  C:AEBFH         LINE#         1070
  C:AEE5H         LINE#         1077
  C:AEE5H         LINE#         1084
  C:AEF2H         LINE#         1085
  C:AEF4H         LINE#         1086
  C:AEF4H         LINE#         1092
  C:AF0CH         LINE#         1093
  C:AF0CH         LINE#         1094
  C:AF0CH         LINE#         1099
  C:AF0FH         LINE#         1100
  C:AF28H         LINE#         1101
  C:AF49H         LINE#         1105
  C:AF4FH         LINE#         1106
  C:AF57H         LINE#         1107
  C:AF57H         LINE#         1108
  -------         ENDPROC       _SET4WIDESCREEN
  -------         PROC          PUSHMENU
  C:D76FH         LINE#         116
  C:D76FH         LINE#         117
  C:D76FH         LINE#         121
  C:D776H         LINE#         134
  C:D786H         LINE#         135
  C:D795H         LINE#         136
  C:D798H         LINE#         137
  C:D798H         LINE#         138
  C:D79AH         LINE#         139
  -------         ENDPROC       PUSHMENU
  -------         PROC          POPMENU
  C:DA6BH         LINE#         141
  C:DA6BH         LINE#         142
  C:DA6BH         LINE#         146
  C:DA6FH         LINE#         147
  C:DA77H         LINE#         148
  C:DA81H         LINE#         162
  C:DA84H         LINE#         163
  C:DA84H         LINE#         164
  C:DA86H         LINE#         165
  -------         ENDPROC       POPMENU
  -------         PROC          _GETLOWERMENUITEM
  X:0020H         SYMBOL        DMp
  X:0023H         SYMBOL        itemno
  C:CDEFH         LINE#         167
  C:CDFAH         LINE#         168
  C:CDFAH         LINE#         169
  C:CDFDH         LINE#         170
  C:CE00H         LINE#         171
  C:CE06H         LINE#         172
  C:CE2BH         LINE#         173
  C:CE2EH         LINE#         174
  C:CE33H         LINE#         176
  -------         ENDPROC       _GETLOWERMENUITEM
  -------         PROC          _GETUPPERMENUITEM
  D:0007H         SYMBOL        itemno
  C:DDCDH         LINE#         178
  C:DDCDH         LINE#         179
BL51 BANKED LINKER/LOCATER V5.03                                                      01/25/2013  13:44:25  PAGE 101


  C:DDCDH         LINE#         181
  C:DDD1H         LINE#         182
  C:DDD4H         LINE#         183
  C:DDD5H         LINE#         184
  C:DDD5H         LINE#         185
  -------         ENDPROC       _GETUPPERMENUITEM
  -------         PROC          _GETTARGETCHILD
  D:0004H         SYMBOL        tid
  -------         DO            
  D:0006H         SYMBOL        i
  -------         ENDDO         
  C:CFC3H         LINE#         187
  C:CFC5H         LINE#         188
  C:CFC5H         LINE#         192
  C:CFD3H         LINE#         193
  C:CFD5H         LINE#         200
  C:CFD9H         LINE#         206
  C:CFF1H         LINE#         207
  C:CFF4H         LINE#         208
  C:CFFFH         LINE#         209
  C:D001H         LINE#         211
  C:D003H         LINE#         212
  -------         ENDPROC       _GETTARGETCHILD
  C:8C57H         SYMBOL        L?1182
  C:8C74H         SYMBOL        L?1288
  C:8C82H         SYMBOL        L?1311
  -------         PROC          DISPLAYINFO_OSD
  -------         DO            
  X:000CH         SYMBOL        i
  X:000DH         SYMBOL        title
  X:000EH         SYMBOL        len
  D:0007H         SYMBOL        inputs
  X:000FH         SYMBOL        mstr
  -------         ENDDO         
  C:8B20H         LINE#         258
  C:8B20H         LINE#         259
  C:8B20H         LINE#         260
  C:8B26H         LINE#         263
  C:8B29H         LINE#         264
  C:8B31H         LINE#         265
  C:8B37H         LINE#         267
  C:8B3DH         LINE#         269
  C:8B44H         LINE#         270
  C:8B4AH         LINE#         272
  C:8B4FH         LINE#         274
  C:8B5AH         LINE#         275
  C:8B74H         LINE#         276
  C:8BB0H         LINE#         279
  C:8BB3H         LINE#         280
  C:8BB9H         LINE#         281
  C:8BD4H         LINE#         282
  C:8BD8H         LINE#         283
  C:8BF2H         LINE#         294
  C:8BF2H         LINE#         295
  C:8BF5H         LINE#         296
  C:8C0FH         LINE#         297
  C:8C0FH         LINE#         311
BL51 BANKED LINKER/LOCATER V5.03                                                      01/25/2013  13:44:25  PAGE 102


  C:8C14H         LINE#         312
  C:8C1AH         LINE#         313
  C:8C1EH         LINE#         314
  C:8C23H         LINE#         315
  C:8C2EH         LINE#         316
  C:8C35H         LINE#         317
  C:8C38H         LINE#         325
  C:8C57H         LINE#         328
  -------         ENDPROC       DISPLAYINFO_OSD
  -------         PROC          _DISPLAYVOLUMEBAR
  X:000BH         SYMBOL        val
  -------         DO            
  C:17F7H         SYMBOL        BAR_ROM_TABLE
  D:0007H         SYMBOL        i
  X:000CH         SYMBOL        Bar_str
  D:0006H         SYMBOL        addr
  -------         ENDDO         
  C:B9B8H         LINE#         336
  C:B9BDH         LINE#         337
  C:B9BDH         LINE#         347
  C:B9D0H         LINE#         353
  C:B9D9H         LINE#         354
  C:B9D9H         LINE#         355
  C:B9F1H         LINE#         356
  C:B9FAH         LINE#         357
  C:BA09H         LINE#         358
  C:BA09H         LINE#         360
  C:BA13H         LINE#         363
  C:BA1FH         LINE#         364
  C:BA28H         LINE#         365
  C:BA2FH         LINE#         366
  C:BA35H         LINE#         368
  C:BA39H         LINE#         370
  -------         ENDPROC       _DISPLAYVOLUMEBAR
  -------         PROC          _GET_CURSOR_ITEM
  D:0007H         SYMBOL        id
  -------         DO            
  X:000BH         SYMBOL        i
  X:000CH         SYMBOL        tid
  -------         ENDDO         
  C:D68AH         LINE#         374
  C:D68AH         LINE#         375
  C:D68AH         LINE#         376
  C:D690H         LINE#         383
  C:D695H         LINE#         384
  C:D69DH         LINE#         385
  C:D69FH         LINE#         387
  C:D6A2H         LINE#         388
  C:D6A2H         LINE#         390
  C:D6AFH         LINE#         392
  C:D6B2H         LINE#         394
  C:D6B4H         LINE#         395
  C:D6B4H         LINE#         401
  C:D6B9H         LINE#         402
  -------         ENDPROC       _GET_CURSOR_ITEM
  C:6076H         SYMBOL        L?1125
  C:60A5H         SYMBOL        L?1126
BL51 BANKED LINKER/LOCATER V5.03                                                      01/25/2013  13:44:25  PAGE 103


  C:60E4H         SYMBOL        L?1127
  C:6123H         SYMBOL        L?1160
  C:613FH         SYMBOL        L?1191
  C:6150H         SYMBOL        L?1272
  C:615CH         SYMBOL        L?1273
  C:6164H         SYMBOL        L?1279
  -------         PROC          _DISPLAYOSDMENUONEITEM
  X:0020H         SYMBOL        winno
  X:0022H         SYMBOL        DMp
  X:0025H         SYMBOL        x
  X:0026H         SYMBOL        y
  X:0027H         SYMBOL        NOTViewflag
  -------         DO            
  X:00F3H         SYMBOL        xx
  D:0007H         SYMBOL        i
  X:0028H         SYMBOL        j
  X:0029H         SYMBOL        k
  X:002AH         SYMBOL        IconColor
  X:002BH         SYMBOL        addr
  X:002DH         SYMBOL        addr1
  X:002FH         SYMBOL        Str
  C:1816H         SYMBOL        RightSign_str
  C:1822H         SYMBOL        SpaceStr
  C:182EH         SYMBOL        Dot
  C:1830H         SYMBOL        Colon
  -------         DO            
  X:0032H         SYMBOL        ptr
  X:0032H         SYMBOL        ptr
  X:0032H         SYMBOL        ptr
  -------         ENDDO         
  -------         DO            
  X:0032H         SYMBOL        ptr
  X:0032H         SYMBOL        ptr
  -------         ENDDO         
  -------         DO            
  X:0032H         SYMBOL        ptr
  -------         ENDDO         
  -------         ENDDO         
  C:5DAEH         LINE#         408
  C:5DB7H         LINE#         409
  C:5DB7H         LINE#         429
  C:5DC7H         LINE#         430
  C:5DCDH         LINE#         433
  C:5DD4H         LINE#         434
  C:5DDEH         LINE#         436
  C:5DE5H         LINE#         438
  C:5E05H         LINE#         440
  C:5E2AH         LINE#         447
  C:5E37H         LINE#         450
  C:5E3FH         LINE#         452
  C:5E47H         LINE#         453
  C:5E4BH         LINE#         455
  C:5E57H         LINE#         460
  C:5E5EH         LINE#         461
  C:5E5EH         LINE#         467
  C:5E69H         LINE#         471
  C:5E75H         LINE#         473
BL51 BANKED LINKER/LOCATER V5.03                                                      01/25/2013  13:44:25  PAGE 104


  C:5E7BH         LINE#         474
  C:5E7EH         LINE#         476
  C:5E8CH         LINE#         477
  C:5EABH         LINE#         483
  C:5EB4H         LINE#         485
  C:5EC4H         LINE#         486
  C:5EDEH         LINE#         488
  C:5EE8H         LINE#         490
  C:5EE8H         LINE#         492
  C:5EF1H         LINE#         493
  C:5EFCH         LINE#         503
  C:5F27H         LINE#         504
  C:5F27H         LINE#         505
  C:5F36H         LINE#         506
  C:5F36H         LINE#         508
  C:5F36H         LINE#         509
  C:5F36H         LINE#         511
  C:5F36H         LINE#         512
  C:5F3DH         LINE#         518
  C:5F3DH         LINE#         519
  C:5F49H         LINE#         520
  C:5F4CH         LINE#         521
  C:5F4CH         LINE#         522
  C:5F4CH         LINE#         523
  C:5F4CH         LINE#         525
  C:5F4CH         LINE#         526
  C:5F4CH         LINE#         528
  C:5F4CH         LINE#         529
  C:5F63H         LINE#         530
  C:5F63H         LINE#         531
  C:5F63H         LINE#         532
  C:5F69H         LINE#         533
  C:5F69H         LINE#         534
  C:5F74H         LINE#         535
  C:5F74H         LINE#         536
  C:5F7AH         LINE#         537
  C:5F7AH         LINE#         538
  C:5F83H         LINE#         539
  C:5F86H         LINE#         541
  C:5F86H         LINE#         542
  C:5F8FH         LINE#         543
  C:5F94H         LINE#         544
  C:5FA2H         LINE#         545
  C:5FA7H         LINE#         546
  C:5FB8H         LINE#         547
  C:5FC8H         LINE#         548
  C:5FDAH         LINE#         549
  C:5FECH         LINE#         550
  C:6001H         LINE#         551
  C:600DH         LINE#         552
  C:601FH         LINE#         553
  C:6022H         LINE#         555
  C:6022H         LINE#         556
  C:6028H         LINE#         557
  C:6028H         LINE#         558
  C:6033H         LINE#         559
  C:6033H         LINE#         560
BL51 BANKED LINKER/LOCATER V5.03                                                      01/25/2013  13:44:25  PAGE 105


  C:6039H         LINE#         561
  C:6039H         LINE#         562
  C:6045H         LINE#         563
  C:6045H         LINE#         564
  C:6045H         LINE#         565
  C:6045H         LINE#         566
  C:6045H         LINE#         568
  C:6045H         LINE#         569
  C:6045H         LINE#         572
  C:6045H         LINE#         573
  C:605BH         LINE#         575
  C:605BH         LINE#         576
  C:605BH         LINE#         578
  C:605BH         LINE#         579
  C:605BH         LINE#         580
  C:605BH         LINE#         581
  C:605BH         LINE#         582
  C:6064H         LINE#         583
  C:6066H         LINE#         584
  C:6066H         LINE#         585
  C:6075H         LINE#         586
  C:6075H         LINE#         588
  C:6075H         LINE#         590
  -------         ENDPROC       _DISPLAYOSDMENUONEITEM
  -------         PROC          CLEARCURSOR
  -------         DO            
  D:0007H         SYMBOL        cursor_y
  X:000DH         SYMBOL        addr
  -------         ENDDO         
  C:CB12H         LINE#         592
  C:CB12H         LINE#         593
  C:CB12H         LINE#         598
  C:CB1AH         LINE#         602
  C:CB2CH         LINE#         603
  C:CB3CH         LINE#         604
  C:CB42H         LINE#         606
  C:CB51H         LINE#         607
  C:CB5EH         LINE#         611
  -------         ENDPROC       CLEARCURSOR
  -------         PROC          DISPLAYCURSOR
  -------         DO            
  X:0012H         SYMBOL        cursor_y
  X:0013H         SYMBOL        i
  X:0014H         SYMBOL        addr
  X:0016H         SYMBOL        Str
  -------         ENDDO         
  C:A587H         LINE#         613
  C:A587H         LINE#         614
  C:A587H         LINE#         615
  C:A58CH         LINE#         621
  C:A596H         LINE#         624
  C:A5A5H         LINE#         625
  C:A5A5H         LINE#         626
  C:A5AAH         LINE#         627
  C:A5ADH         LINE#         628
  C:A5BBH         LINE#         629
  C:A5C8H         LINE#         630
BL51 BANKED LINKER/LOCATER V5.03                                                      01/25/2013  13:44:25  PAGE 106


  C:A5D0H         LINE#         633
  C:A5F1H         LINE#         639
  C:A602H         LINE#         640
  C:A605H         LINE#         642
  C:A611H         LINE#         644
  C:A615H         LINE#         645
  C:A628H         LINE#         647
  C:A628H         LINE#         648
  C:A62BH         LINE#         649
  C:A62BH         LINE#         650
  C:A644H         LINE#         651
  C:A648H         LINE#         652
  C:A64AH         LINE#         654
  C:A64AH         LINE#         655
  C:A653H         LINE#         656
  C:A668H         LINE#         657
  C:A668H         LINE#         658
  C:A668H         LINE#         682
  -------         ENDPROC       DISPLAYCURSOR
  C:645EH         SYMBOL        L?1131
  C:6468H         SYMBOL        L?1132
  C:6472H         SYMBOL        L?1139
  C:647CH         SYMBOL        L?1140
  C:6486H         SYMBOL        L?1141
  C:6490H         SYMBOL        L?1151
  C:649AH         SYMBOL        L?1159
  C:64A4H         SYMBOL        L?1166
  C:64AEH         SYMBOL        L?1169
  C:64B8H         SYMBOL        L?1181
  C:64C2H         SYMBOL        L?1193
  C:64CCH         SYMBOL        L?1220
  C:64D6H         SYMBOL        L?1274
  -------         PROC          _GETITEMVALUE
  X:0035H         SYMBOL        id
  -------         DO            
  X:0036H         SYMBOL        val
  -------         ENDDO         
  C:6173H         LINE#         690
  C:6178H         LINE#         691
  C:6178H         LINE#         692
  C:617DH         LINE#         698
  C:6248H         LINE#         705
  C:624DH         LINE#         710
  C:6256H         LINE#         728
  C:625FH         LINE#         730
  C:625FH         LINE#         731
  C:625FH         LINE#         732
  C:625FH         LINE#         733
  C:625FH         LINE#         734
  C:625FH         LINE#         735
  C:625FH         LINE#         736
  C:626BH         LINE#         737
  C:626BH         LINE#         739
  C:626EH         LINE#         740
  C:6273H         LINE#         742
  C:6278H         LINE#         743
  C:627AH         LINE#         754
BL51 BANKED LINKER/LOCATER V5.03                                                      01/25/2013  13:44:25  PAGE 107


  C:6288H         LINE#         755
  C:628BH         LINE#         758
  C:628BH         LINE#         759
  C:6297H         LINE#         761
  C:6297H         LINE#         762
  C:629CH         LINE#         764
  C:629FH         LINE#         765
  C:629FH         LINE#         766
  C:62A4H         LINE#         767
  C:62A7H         LINE#         768
  C:62A7H         LINE#         769
  C:62ACH         LINE#         770
  C:62AFH         LINE#         771
  C:62AFH         LINE#         772
  C:62B4H         LINE#         773
  C:62B7H         LINE#         774
  C:62B7H         LINE#         775
  C:62BCH         LINE#         776
  C:62BFH         LINE#         777
  C:62BFH         LINE#         778
  C:62C4H         LINE#         779
  C:62C7H         LINE#         780
  C:62C7H         LINE#         781
  C:62CCH         LINE#         782
  C:62CFH         LINE#         783
  C:62CFH         LINE#         784
  C:62D4H         LINE#         785
  C:62D7H         LINE#         786
  C:62D7H         LINE#         787
  C:62DCH         LINE#         788
  C:62DFH         LINE#         789
  C:62DFH         LINE#         790
  C:62E4H         LINE#         791
  C:62E7H         LINE#         792
  C:62E7H         LINE#         793
  C:62ECH         LINE#         794
  C:62EFH         LINE#         795
  C:62EFH         LINE#         796
  C:62F4H         LINE#         797
  C:62F7H         LINE#         798
  C:62F7H         LINE#         799
  C:62FCH         LINE#         800
  C:62FFH         LINE#         801
  C:62FFH         LINE#         802
  C:6304H         LINE#         803
  C:6307H         LINE#         804
  C:6307H         LINE#         805
  C:630CH         LINE#         806
  C:630FH         LINE#         807
  C:630FH         LINE#         808
  C:6314H         LINE#         809
  C:6317H         LINE#         811
  C:6317H         LINE#         812
  C:631CH         LINE#         813
  C:631FH         LINE#         814
  C:631FH         LINE#         815
  C:6324H         LINE#         816
BL51 BANKED LINKER/LOCATER V5.03                                                      01/25/2013  13:44:25  PAGE 108


  C:6327H         LINE#         817
  C:6327H         LINE#         818
  C:632CH         LINE#         819
  C:632FH         LINE#         820
  C:632FH         LINE#         821
  C:6334H         LINE#         822
  C:6337H         LINE#         828
  C:6337H         LINE#         829
  C:633CH         LINE#         830
  C:633FH         LINE#         831
  C:633FH         LINE#         832
  C:6344H         LINE#         833
  C:6347H         LINE#         834
  C:6347H         LINE#         835
  C:634CH         LINE#         837
  C:634FH         LINE#         838
  C:634FH         LINE#         839
  C:6354H         LINE#         841
  C:6357H         LINE#         845
  C:6357H         LINE#         846
  C:635DH         LINE#         847
  C:6360H         LINE#         848
  C:6360H         LINE#         849
  C:6366H         LINE#         850
  C:6369H         LINE#         851
  C:6369H         LINE#         852
  C:636FH         LINE#         853
  C:6372H         LINE#         854
  C:6372H         LINE#         855
  C:6378H         LINE#         856
  C:637BH         LINE#         857
  C:637BH         LINE#         858
  C:6381H         LINE#         859
  C:6384H         LINE#         860
  C:6384H         LINE#         861
  C:638AH         LINE#         862
  C:638DH         LINE#         863
  C:638DH         LINE#         864
  C:6393H         LINE#         865
  C:6396H         LINE#         867
  C:6396H         LINE#         868
  C:639CH         LINE#         869
  C:639FH         LINE#         871
  C:639FH         LINE#         872
  C:63A5H         LINE#         873
  C:63A8H         LINE#         874
  C:63A8H         LINE#         875
  C:63AEH         LINE#         876
  C:63B1H         LINE#         877
  C:63B1H         LINE#         878
  C:63B7H         LINE#         879
  C:63BAH         LINE#         880
  C:63BAH         LINE#         881
  C:63C0H         LINE#         882
  C:63C3H         LINE#         883
  C:63C3H         LINE#         884
  C:63C9H         LINE#         885
BL51 BANKED LINKER/LOCATER V5.03                                                      01/25/2013  13:44:25  PAGE 109


  C:63CCH         LINE#         887
  C:63CCH         LINE#         888
  C:63D2H         LINE#         889
  C:63D5H         LINE#         890
  C:63D5H         LINE#         891
  C:63DBH         LINE#         892
  C:63DEH         LINE#         893
  C:63DEH         LINE#         894
  C:63E4H         LINE#         895
  C:63E7H         LINE#         896
  C:63E7H         LINE#         897
  C:63EDH         LINE#         898
  C:63F0H         LINE#         899
  C:63F0H         LINE#         900
  C:63F6H         LINE#         901
  C:63F8H         LINE#         902
  C:63F8H         LINE#         903
  C:63FEH         LINE#         904
  C:6400H         LINE#         905
  C:6400H         LINE#         906
  C:6406H         LINE#         907
  C:6408H         LINE#         909
  C:6408H         LINE#         910
  C:640EH         LINE#         911
  C:6410H         LINE#         913
  C:6410H         LINE#         914
  C:6416H         LINE#         915
  C:6418H         LINE#         917
  C:6418H         LINE#         918
  C:641EH         LINE#         919
  C:6420H         LINE#         921
  C:6420H         LINE#         922
  C:6426H         LINE#         923
  C:6428H         LINE#         925
  C:6428H         LINE#         926
  C:642EH         LINE#         927
  C:6430H         LINE#         929
  C:6430H         LINE#         930
  C:6436H         LINE#         931
  C:6438H         LINE#         935
  C:6438H         LINE#         936
  C:643DH         LINE#         937
  C:643FH         LINE#         938
  C:643FH         LINE#         939
  C:6444H         LINE#         940
  C:6446H         LINE#         942
  C:6446H         LINE#         943
  C:6455H         LINE#         946
  C:6455H         LINE#         948
  C:645DH         LINE#         949
  -------         ENDPROC       _GETITEMVALUE
  C:3D74H         SYMBOL        L?1110
  C:3D86H         SYMBOL        L?1111
  C:3D98H         SYMBOL        L?1112
  C:3DAAH         SYMBOL        L?1113
  C:3DBCH         SYMBOL        L?1114
  C:3DCEH         SYMBOL        L?1115
BL51 BANKED LINKER/LOCATER V5.03                                                      01/25/2013  13:44:25  PAGE 110


  C:3DE0H         SYMBOL        L?1116
  C:3DF2H         SYMBOL        L?1117
  C:3E04H         SYMBOL        L?1128
  C:3E10H         SYMBOL        L?1173
  C:3E1BH         SYMBOL        L?1190
  C:3E26H         SYMBOL        L?1217
  C:3E31H         SYMBOL        L?1254
  C:3E3FH         SYMBOL        L?1280
  -------         PROC          _SETITEMVALUE
  X:0011H         SYMBOL        id
  X:0012H         SYMBOL        flag
  -------         DO            
  X:0013H         SYMBOL        val
  -------         ENDDO         
  C:2D58H         LINE#         954
  C:2D62H         LINE#         955
  C:2D62H         LINE#         956
  C:2D65H         LINE#         959
  C:2D71H         LINE#         960
  C:2E48H         LINE#         973
  C:2E53H         LINE#         979
  C:2E5EH         LINE#         993
  C:2E69H         LINE#         995
  C:2E76H         LINE#         996
  C:2E83H         LINE#         997
  C:2E90H         LINE#         999
  C:2E92H         LINE#         1000
  C:2E9DH         LINE#         1001
  C:2EA0H         LINE#         1002
  C:2EA0H         LINE#         1003
  C:2EA6H         LINE#         1005
  C:2EB4H         LINE#         1009
  C:2EB8H         LINE#         1015
  C:2EC1H         LINE#         1017
  C:2EC4H         LINE#         1019
  C:2EC4H         LINE#         1020
  C:2EC4H         LINE#         1021
  C:2EC4H         LINE#         1022
  C:2EC9H         LINE#         1023
  C:2ED1H         LINE#         1024
  C:2EDEH         LINE#         1025
  C:2EE1H         LINE#         1027
  C:2EEBH         LINE#         1028
  C:2EEBH         LINE#         1031
  C:2F03H         LINE#         1041
  C:2F06H         LINE#         1042
  C:2F11H         LINE#         1043
  C:2F14H         LINE#         1044
  C:2F14H         LINE#         1045
  C:2F1AH         LINE#         1046
  C:2F1DH         LINE#         1048
  C:2F1DH         LINE#         1049
  C:2F24H         LINE#         1050
  C:2F29H         LINE#         1051
  C:2F30H         LINE#         1052
  C:2F30H         LINE#         1053
  C:2F3EH         LINE#         1054
BL51 BANKED LINKER/LOCATER V5.03                                                      01/25/2013  13:44:25  PAGE 111


  C:2F43H         LINE#         1055
  C:2F45H         LINE#         1057
  C:2F45H         LINE#         1058
  C:2F53H         LINE#         1059
  C:2F59H         LINE#         1060
  C:2F59H         LINE#         1061
  C:2F63H         LINE#         1063
  C:2F67H         LINE#         1068
  C:2F6AH         LINE#         1069
  C:2F6AH         LINE#         1070
  C:2F6CH         LINE#         1071
  C:2F72H         LINE#         1072
  C:2F85H         LINE#         1074
  C:2F9AH         LINE#         1075
  C:2F9FH         LINE#         1078
  C:2FACH         LINE#         1079
  C:2FACH         LINE#         1080
  C:2FB0H         LINE#         1081
  C:2FB7H         LINE#         1082
  C:2FBEH         LINE#         1083
  C:2FC5H         LINE#         1085
  C:2FC7H         LINE#         1087
  C:2FC7H         LINE#         1088
  C:2FCBH         LINE#         1089
  C:2FD2H         LINE#         1090
  C:2FD9H         LINE#         1091
  C:2FE0H         LINE#         1092
  C:2FE0H         LINE#         1093
  C:2FEBH         LINE#         1094
  C:2FEBH         LINE#         1097
  C:2FEEH         LINE#         1099
  C:2FEEH         LINE#         1100
  C:2FF0H         LINE#         1101
  C:2FF6H         LINE#         1102
  C:3009H         LINE#         1104
  C:301EH         LINE#         1105
  C:3025H         LINE#         1106
  C:3028H         LINE#         1108
  C:3028H         LINE#         1109
  C:302AH         LINE#         1110
  C:3030H         LINE#         1111
  C:3043H         LINE#         1113
  C:3058H         LINE#         1114
  C:305FH         LINE#         1115
  C:3062H         LINE#         1116
  C:3062H         LINE#         1117
  C:3064H         LINE#         1118
  C:306AH         LINE#         1119
  C:307DH         LINE#         1121
  C:3092H         LINE#         1122
  C:3099H         LINE#         1123
  C:309CH         LINE#         1124
  C:309CH         LINE#         1125
  C:309EH         LINE#         1126
  C:30A4H         LINE#         1127
  C:30B7H         LINE#         1129
  C:30CCH         LINE#         1131
BL51 BANKED LINKER/LOCATER V5.03                                                      01/25/2013  13:44:25  PAGE 112


  C:30D4H         LINE#         1132
  C:30D6H         LINE#         1133
  C:30D6H         LINE#         1134
  C:30DDH         LINE#         1135
  C:30E1H         LINE#         1136
  C:30E3H         LINE#         1138
  C:30E3H         LINE#         1139
  C:30ECH         LINE#         1140
  C:30F4H         LINE#         1142
  C:30FDH         LINE#         1143
  C:30FDH         LINE#         1144
  C:3100H         LINE#         1145
  C:3103H         LINE#         1146
  C:310FH         LINE#         1147
  C:310FH         LINE#         1148
  C:310FH         LINE#         1150
  C:3116H         LINE#         1151
  C:3119H         LINE#         1152
  C:3119H         LINE#         1154
  C:3119H         LINE#         1155
  C:311BH         LINE#         1156
  C:3121H         LINE#         1157
  C:3134H         LINE#         1159
  C:3149H         LINE#         1160
  C:314EH         LINE#         1162
  C:315BH         LINE#         1163
  C:3161H         LINE#         1165
  C:3165H         LINE#         1167
  C:316BH         LINE#         1168
  C:316EH         LINE#         1170
  C:316EH         LINE#         1172
  C:3171H         LINE#         1174
  C:3171H         LINE#         1175
  C:3173H         LINE#         1176
  C:3179H         LINE#         1177
  C:318CH         LINE#         1179
  C:31A1H         LINE#         1180
  C:31A6H         LINE#         1182
  C:31B3H         LINE#         1183
  C:31B9H         LINE#         1185
  C:31BDH         LINE#         1187
  C:31C3H         LINE#         1188
  C:31C6H         LINE#         1190
  C:31C6H         LINE#         1192
  C:31C9H         LINE#         1194
  C:31C9H         LINE#         1195
  C:31CBH         LINE#         1196
  C:31D1H         LINE#         1197
  C:31E4H         LINE#         1199
  C:31F9H         LINE#         1200
  C:31FEH         LINE#         1202
  C:320BH         LINE#         1203
  C:3211H         LINE#         1205
  C:3215H         LINE#         1207
  C:321BH         LINE#         1208
  C:321DH         LINE#         1210
  C:321DH         LINE#         1212
BL51 BANKED LINKER/LOCATER V5.03                                                      01/25/2013  13:44:25  PAGE 113


  C:321FH         LINE#         1214
  C:321FH         LINE#         1215
  C:3221H         LINE#         1216
  C:3227H         LINE#         1217
  C:323AH         LINE#         1219
  C:324FH         LINE#         1220
  C:3254H         LINE#         1222
  C:3261H         LINE#         1223
  C:3267H         LINE#         1225
  C:326BH         LINE#         1227
  C:3271H         LINE#         1228
  C:3277H         LINE#         1230
  C:3296H         LINE#         1232
  C:3299H         LINE#         1235
  C:3299H         LINE#         1236
  C:329BH         LINE#         1237
  C:32A1H         LINE#         1238
  C:32A1H         LINE#         1239
  C:32AFH         LINE#         1240
  C:32B2H         LINE#         1241
  C:32B4H         LINE#         1243
  C:32B4H         LINE#         1244
  C:32C2H         LINE#         1245
  C:32C8H         LINE#         1246
  C:32C8H         LINE#         1247
  C:32CFH         LINE#         1248
  C:32D2H         LINE#         1250
  C:32D2H         LINE#         1251
  C:32D4H         LINE#         1252
  C:32DAH         LINE#         1253
  C:32DAH         LINE#         1254
  C:32E8H         LINE#         1255
  C:32EBH         LINE#         1256
  C:32EDH         LINE#         1258
  C:32EDH         LINE#         1259
  C:32FBH         LINE#         1260
  C:3301H         LINE#         1261
  C:3301H         LINE#         1262
  C:3308H         LINE#         1263
  C:330BH         LINE#         1265
  C:330BH         LINE#         1266
  C:330DH         LINE#         1267
  C:3313H         LINE#         1268
  C:3313H         LINE#         1269
  C:3321H         LINE#         1270
  C:3324H         LINE#         1271
  C:3326H         LINE#         1273
  C:3326H         LINE#         1274
  C:3334H         LINE#         1275
  C:333AH         LINE#         1276
  C:333AH         LINE#         1277
  C:3341H         LINE#         1278
  C:3344H         LINE#         1280
  C:3344H         LINE#         1281
  C:3346H         LINE#         1282
  C:334CH         LINE#         1283
  C:334CH         LINE#         1284
BL51 BANKED LINKER/LOCATER V5.03                                                      01/25/2013  13:44:25  PAGE 114


  C:335AH         LINE#         1285
  C:335DH         LINE#         1286
  C:335FH         LINE#         1288
  C:335FH         LINE#         1289
  C:336DH         LINE#         1290
  C:3373H         LINE#         1291
  C:3373H         LINE#         1292
  C:337AH         LINE#         1293
  C:337DH         LINE#         1295
  C:337DH         LINE#         1296
  C:337FH         LINE#         1297
  C:3385H         LINE#         1298
  C:3385H         LINE#         1299
  C:3393H         LINE#         1300
  C:3396H         LINE#         1301
  C:3398H         LINE#         1303
  C:3398H         LINE#         1304
  C:33A6H         LINE#         1305
  C:33ACH         LINE#         1306
  C:33ACH         LINE#         1307
  C:33B3H         LINE#         1308
  C:33B6H         LINE#         1309
  C:33B6H         LINE#         1310
  C:33B8H         LINE#         1311
  C:33BEH         LINE#         1312
  C:33D1H         LINE#         1314
  C:33E6H         LINE#         1315
  C:33EDH         LINE#         1317
  C:33F0H         LINE#         1319
  C:33F0H         LINE#         1320
  C:33F7H         LINE#         1321
  C:33FDH         LINE#         1322
  C:33FDH         LINE#         1323
  C:340BH         LINE#         1324
  C:340EH         LINE#         1325
  C:3410H         LINE#         1327
  C:3410H         LINE#         1328
  C:341EH         LINE#         1329
  C:3424H         LINE#         1330
  C:3424H         LINE#         1331
  C:342BH         LINE#         1332
  C:342EH         LINE#         1334
  C:342EH         LINE#         1335
  C:3435H         LINE#         1336
  C:343BH         LINE#         1337
  C:343BH         LINE#         1338
  C:3449H         LINE#         1339
  C:344CH         LINE#         1340
  C:344EH         LINE#         1342
  C:344EH         LINE#         1343
  C:345CH         LINE#         1344
  C:3462H         LINE#         1345
  C:3462H         LINE#         1346
  C:3469H         LINE#         1347
  C:346CH         LINE#         1349
  C:346CH         LINE#         1350
  C:3473H         LINE#         1351
BL51 BANKED LINKER/LOCATER V5.03                                                      01/25/2013  13:44:25  PAGE 115


  C:3479H         LINE#         1352
  C:3479H         LINE#         1353
  C:3487H         LINE#         1354
  C:348AH         LINE#         1355
  C:348CH         LINE#         1357
  C:348CH         LINE#         1358
  C:349AH         LINE#         1359
  C:34A0H         LINE#         1360
  C:34A0H         LINE#         1361
  C:34A7H         LINE#         1362
  C:34AAH         LINE#         1364
  C:34AAH         LINE#         1365
  C:34B1H         LINE#         1366
  C:34B7H         LINE#         1367
  C:34B7H         LINE#         1368
  C:34C5H         LINE#         1369
  C:34C8H         LINE#         1370
  C:34CAH         LINE#         1372
  C:34CAH         LINE#         1373
  C:34D8H         LINE#         1374
  C:34DEH         LINE#         1375
  C:34DEH         LINE#         1376
  C:34E5H         LINE#         1377
  C:34E8H         LINE#         1395
  C:34E8H         LINE#         1396
  C:34EFH         LINE#         1397
  C:34F5H         LINE#         1398
  C:34F5H         LINE#         1402
  C:3507H         LINE#         1404
  C:350AH         LINE#         1405
  C:350CH         LINE#         1407
  C:350CH         LINE#         1408
  C:351AH         LINE#         1412
  C:3520H         LINE#         1414
  C:3520H         LINE#         1416
  C:3525H         LINE#         1417
  C:353FH         LINE#         1418
  C:353FH         LINE#         1419
  C:3543H         LINE#         1420
  C:3546H         LINE#         1421
  C:354CH         LINE#         1422
  C:3551H         LINE#         1423
  C:3551H         LINE#         1424
  C:3554H         LINE#         1452
  C:3554H         LINE#         1453
  C:355BH         LINE#         1454
  C:3560H         LINE#         1455
  C:3567H         LINE#         1456
  C:3567H         LINE#         1457
  C:3575H         LINE#         1458
  C:3578H         LINE#         1459
  C:357AH         LINE#         1461
  C:357AH         LINE#         1462
  C:3588H         LINE#         1463
  C:358EH         LINE#         1464
  C:358EH         LINE#         1465
  C:3593H         LINE#         1466
BL51 BANKED LINKER/LOCATER V5.03                                                      01/25/2013  13:44:25  PAGE 116


  C:359BH         LINE#         1467
  C:359EH         LINE#         1468
  C:359EH         LINE#         1469
  C:35A5H         LINE#         1470
  C:35ABH         LINE#         1471
  C:35ABH         LINE#         1472
  C:35BBH         LINE#         1473
  C:35BDH         LINE#         1475
  C:35BDH         LINE#         1476
  C:35CDH         LINE#         1477
  C:35CDH         LINE#         1478
  C:35D2H         LINE#         1479
  C:35DAH         LINE#         1480
  C:35DDH         LINE#         1482
  C:35DDH         LINE#         1483
  C:35E4H         LINE#         1484
  C:35EAH         LINE#         1485
  C:35FDH         LINE#         1487
  C:3612H         LINE#         1489
  C:3620H         LINE#         1490
  C:3629H         LINE#         1491
  C:362FH         LINE#         1492
  C:3634H         LINE#         1494
  C:3637H         LINE#         1496
  C:3637H         LINE#         1497
  C:363AH         LINE#         1498
  C:3640H         LINE#         1499
  C:3640H         LINE#         1500
  C:364EH         LINE#         1501
  C:3653H         LINE#         1502
  C:3655H         LINE#         1504
  C:3655H         LINE#         1505
  C:3666H         LINE#         1506
  C:366CH         LINE#         1507
  C:366CH         LINE#         1508
  C:3673H         LINE#         1509
  C:3673H         LINE#         1510
  C:3676H         LINE#         1512
  C:3676H         LINE#         1513
  C:3679H         LINE#         1514
  C:367FH         LINE#         1515
  C:367FH         LINE#         1516
  C:368DH         LINE#         1517
  C:3692H         LINE#         1518
  C:3694H         LINE#         1520
  C:3694H         LINE#         1521
  C:36A5H         LINE#         1522
  C:36ABH         LINE#         1523
  C:36ABH         LINE#         1524
  C:36B2H         LINE#         1525
  C:36B2H         LINE#         1526
  C:36B5H         LINE#         1528
  C:36B5H         LINE#         1529
  C:36B8H         LINE#         1530
  C:36BEH         LINE#         1531
  C:36BEH         LINE#         1532
  C:36D0H         LINE#         1533
BL51 BANKED LINKER/LOCATER V5.03                                                      01/25/2013  13:44:25  PAGE 117


  C:36D5H         LINE#         1534
  C:36D7H         LINE#         1536
  C:36D7H         LINE#         1537
  C:36E8H         LINE#         1538
  C:36EEH         LINE#         1539
  C:36EEH         LINE#         1540
  C:36F5H         LINE#         1541
  C:36F5H         LINE#         1542
  C:36F8H         LINE#         1544
  C:36F8H         LINE#         1545
  C:36FBH         LINE#         1546
  C:3701H         LINE#         1547
  C:3701H         LINE#         1548
  C:370FH         LINE#         1549
  C:3714H         LINE#         1550
  C:3716H         LINE#         1552
  C:3716H         LINE#         1553
  C:3727H         LINE#         1554
  C:372DH         LINE#         1555
  C:372DH         LINE#         1556
  C:3734H         LINE#         1557
  C:3734H         LINE#         1558
  C:3737H         LINE#         1560
  C:3737H         LINE#         1561
  C:373AH         LINE#         1562
  C:3740H         LINE#         1563
  C:3740H         LINE#         1564
  C:374EH         LINE#         1565
  C:3753H         LINE#         1566
  C:3755H         LINE#         1568
  C:3755H         LINE#         1569
  C:3766H         LINE#         1570
  C:376CH         LINE#         1571
  C:376CH         LINE#         1572
  C:3773H         LINE#         1573
  C:3773H         LINE#         1574
  C:3776H         LINE#         1576
  C:3776H         LINE#         1577
  C:3779H         LINE#         1578
  C:377FH         LINE#         1579
  C:377FH         LINE#         1580
  C:3791H         LINE#         1581
  C:3796H         LINE#         1582
  C:3798H         LINE#         1584
  C:3798H         LINE#         1585
  C:37A9H         LINE#         1586
  C:37AFH         LINE#         1587
  C:37AFH         LINE#         1588
  C:37B6H         LINE#         1589
  C:37B6H         LINE#         1590
  C:37B9H         LINE#         1592
  C:37B9H         LINE#         1593
  C:37BCH         LINE#         1594
  C:37C2H         LINE#         1595
  C:37C2H         LINE#         1596
  C:37D0H         LINE#         1597
  C:37D5H         LINE#         1598
BL51 BANKED LINKER/LOCATER V5.03                                                      01/25/2013  13:44:25  PAGE 118


  C:37D7H         LINE#         1600
  C:37D7H         LINE#         1601
  C:37E8H         LINE#         1602
  C:37EEH         LINE#         1603
  C:37EEH         LINE#         1604
  C:37F5H         LINE#         1605
  C:37F5H         LINE#         1606
  C:37F8H         LINE#         1608
  C:37F8H         LINE#         1609
  C:37FBH         LINE#         1610
  C:3801H         LINE#         1611
  C:3801H         LINE#         1612
  C:380FH         LINE#         1613
  C:3812H         LINE#         1614
  C:3814H         LINE#         1616
  C:3814H         LINE#         1617
  C:3822H         LINE#         1618
  C:3828H         LINE#         1619
  C:3828H         LINE#         1621
  C:3831H         LINE#         1622
  C:3834H         LINE#         1623
  C:383BH         LINE#         1625
  C:383EH         LINE#         1629
  C:383EH         LINE#         1630
  C:3841H         LINE#         1631
  C:3847H         LINE#         1632
  C:3847H         LINE#         1633
  C:3859H         LINE#         1634
  C:385CH         LINE#         1635
  C:385EH         LINE#         1637
  C:385EH         LINE#         1638
  C:386CH         LINE#         1639
  C:3872H         LINE#         1640
  C:3872H         LINE#         1641
  C:3879H         LINE#         1642
  C:3879H         LINE#         1643
  C:387CH         LINE#         1645
  C:387CH         LINE#         1646
  C:387FH         LINE#         1647
  C:3885H         LINE#         1648
  C:3885H         LINE#         1649
  C:3893H         LINE#         1650
  C:3898H         LINE#         1651
  C:389AH         LINE#         1653
  C:389AH         LINE#         1654
  C:38ABH         LINE#         1655
  C:38B1H         LINE#         1656
  C:38B1H         LINE#         1657
  C:38B8H         LINE#         1658
  C:38B8H         LINE#         1659
  C:38BBH         LINE#         1661
  C:38BBH         LINE#         1662
  C:38BEH         LINE#         1663
  C:38C4H         LINE#         1664
  C:38C4H         LINE#         1665
  C:38D6H         LINE#         1666
  C:38DBH         LINE#         1667
BL51 BANKED LINKER/LOCATER V5.03                                                      01/25/2013  13:44:25  PAGE 119


  C:38DDH         LINE#         1669
  C:38DDH         LINE#         1670
  C:38EEH         LINE#         1671
  C:38F4H         LINE#         1672
  C:38F4H         LINE#         1673
  C:38FBH         LINE#         1674
  C:38FBH         LINE#         1675
  C:38FEH         LINE#         1677
  C:38FEH         LINE#         1678
  C:3901H         LINE#         1679
  C:3907H         LINE#         1680
  C:3907H         LINE#         1681
  C:3915H         LINE#         1682
  C:3918H         LINE#         1683
  C:391AH         LINE#         1685
  C:391AH         LINE#         1686
  C:392BH         LINE#         1687
  C:3931H         LINE#         1688
  C:3931H         LINE#         1689
  C:3938H         LINE#         1690
  C:3938H         LINE#         1691
  C:393BH         LINE#         1693
  C:393BH         LINE#         1694
  C:393EH         LINE#         1695
  C:3944H         LINE#         1696
  C:3944H         LINE#         1697
  C:3956H         LINE#         1698
  C:3959H         LINE#         1699
  C:395BH         LINE#         1701
  C:395BH         LINE#         1702
  C:3969H         LINE#         1703
  C:396FH         LINE#         1704
  C:396FH         LINE#         1705
  C:3976H         LINE#         1706
  C:3976H         LINE#         1707
  C:3979H         LINE#         1709
  C:3979H         LINE#         1710
  C:397CH         LINE#         1711
  C:3982H         LINE#         1712
  C:3982H         LINE#         1713
  C:3994H         LINE#         1714
  C:3999H         LINE#         1715
  C:399BH         LINE#         1717
  C:399BH         LINE#         1718
  C:39ACH         LINE#         1719
  C:39B2H         LINE#         1720
  C:39B2H         LINE#         1721
  C:39B9H         LINE#         1722
  C:39B9H         LINE#         1723
  C:39BCH         LINE#         1725
  C:39BCH         LINE#         1726
  C:39BFH         LINE#         1727
  C:39C5H         LINE#         1728
  C:39C5H         LINE#         1729
  C:39D3H         LINE#         1730
  C:39D8H         LINE#         1731
  C:39DAH         LINE#         1733
BL51 BANKED LINKER/LOCATER V5.03                                                      01/25/2013  13:44:25  PAGE 120


  C:39DAH         LINE#         1734
  C:39EBH         LINE#         1735
  C:39F1H         LINE#         1736
  C:39F1H         LINE#         1737
  C:39F8H         LINE#         1738
  C:39F8H         LINE#         1739
  C:39FBH         LINE#         1741
  C:39FBH         LINE#         1742
  C:39FEH         LINE#         1743
  C:3A04H         LINE#         1744
  C:3A04H         LINE#         1745
  C:3A12H         LINE#         1746
  C:3A17H         LINE#         1747
  C:3A19H         LINE#         1749
  C:3A19H         LINE#         1750
  C:3A2AH         LINE#         1751
  C:3A30H         LINE#         1752
  C:3A30H         LINE#         1753
  C:3A37H         LINE#         1754
  C:3A37H         LINE#         1755
  C:3A3AH         LINE#         1757
  C:3A3AH         LINE#         1758
  C:3A3DH         LINE#         1759
  C:3A43H         LINE#         1760
  C:3A43H         LINE#         1761
  C:3A51H         LINE#         1762
  C:3A56H         LINE#         1763
  C:3A58H         LINE#         1765
  C:3A58H         LINE#         1766
  C:3A69H         LINE#         1767
  C:3A6FH         LINE#         1768
  C:3A6FH         LINE#         1769
  C:3A76H         LINE#         1770
  C:3A76H         LINE#         1771
  C:3A79H         LINE#         1772
  C:3A79H         LINE#         1773
  C:3A7CH         LINE#         1774
  C:3A82H         LINE#         1775
  C:3A82H         LINE#         1776
  C:3A90H         LINE#         1777
  C:3A93H         LINE#         1778
  C:3A95H         LINE#         1780
  C:3A95H         LINE#         1781
  C:3AA3H         LINE#         1782
  C:3AA9H         LINE#         1783
  C:3AA9H         LINE#         1784
  C:3AB0H         LINE#         1785
  C:3AB0H         LINE#         1786
  C:3AB3H         LINE#         1787
  C:3AB3H         LINE#         1788
  C:3AB6H         LINE#         1789
  C:3ABCH         LINE#         1790
  C:3ABCH         LINE#         1791
  C:3ACAH         LINE#         1792
  C:3ACFH         LINE#         1793
  C:3AD1H         LINE#         1795
  C:3AD1H         LINE#         1796
BL51 BANKED LINKER/LOCATER V5.03                                                      01/25/2013  13:44:25  PAGE 121


  C:3AE2H         LINE#         1797
  C:3AE8H         LINE#         1798
  C:3AE8H         LINE#         1799
  C:3AEFH         LINE#         1800
  C:3AEFH         LINE#         1801
  C:3AF2H         LINE#         1802
  C:3AF2H         LINE#         1803
  C:3AF5H         LINE#         1804
  C:3AFBH         LINE#         1805
  C:3AFBH         LINE#         1806
  C:3B09H         LINE#         1807
  C:3B0EH         LINE#         1808
  C:3B10H         LINE#         1810
  C:3B10H         LINE#         1811
  C:3B21H         LINE#         1812
  C:3B27H         LINE#         1813
  C:3B27H         LINE#         1814
  C:3B2EH         LINE#         1815
  C:3B2EH         LINE#         1816
  C:3B31H         LINE#         1817
  C:3B31H         LINE#         1818
  C:3B34H         LINE#         1819
  C:3B3AH         LINE#         1820
  C:3B3AH         LINE#         1821
  C:3B48H         LINE#         1822
  C:3B4BH         LINE#         1823
  C:3B4DH         LINE#         1825
  C:3B4DH         LINE#         1826
  C:3B5EH         LINE#         1827
  C:3B64H         LINE#         1828
  C:3B64H         LINE#         1829
  C:3B6BH         LINE#         1830
  C:3B6BH         LINE#         1831
  C:3B6EH         LINE#         1833
  C:3B6EH         LINE#         1834
  C:3B71H         LINE#         1835
  C:3B77H         LINE#         1836
  C:3B77H         LINE#         1837
  C:3B85H         LINE#         1838
  C:3B88H         LINE#         1839
  C:3B8AH         LINE#         1841
  C:3B8AH         LINE#         1842
  C:3B98H         LINE#         1843
  C:3B9EH         LINE#         1844
  C:3B9EH         LINE#         1845
  C:3BA6H         LINE#         1846
  C:3BA9H         LINE#         1848
  C:3BA9H         LINE#         1849
  C:3BACH         LINE#         1850
  C:3BB2H         LINE#         1851
  C:3BB2H         LINE#         1852
  C:3BC0H         LINE#         1853
  C:3BC3H         LINE#         1854
  C:3BC5H         LINE#         1856
  C:3BC5H         LINE#         1857
  C:3BD3H         LINE#         1858
  C:3BD9H         LINE#         1859
BL51 BANKED LINKER/LOCATER V5.03                                                      01/25/2013  13:44:25  PAGE 122


  C:3BD9H         LINE#         1860
  C:3BE1H         LINE#         1861
  C:3BE4H         LINE#         1863
  C:3BE4H         LINE#         1864
  C:3BE7H         LINE#         1865
  C:3BEDH         LINE#         1866
  C:3BEDH         LINE#         1867
  C:3BFBH         LINE#         1868
  C:3BFEH         LINE#         1869
  C:3C00H         LINE#         1871
  C:3C00H         LINE#         1872
  C:3C0EH         LINE#         1873
  C:3C14H         LINE#         1874
  C:3C14H         LINE#         1875
  C:3C1CH         LINE#         1876
  C:3C1FH         LINE#         1878
  C:3C1FH         LINE#         1879
  C:3C22H         LINE#         1880
  C:3C28H         LINE#         1881
  C:3C28H         LINE#         1882
  C:3C36H         LINE#         1883
  C:3C39H         LINE#         1884
  C:3C3BH         LINE#         1886
  C:3C3BH         LINE#         1887
  C:3C49H         LINE#         1888
  C:3C4FH         LINE#         1889
  C:3C4FH         LINE#         1890
  C:3C57H         LINE#         1891
  C:3C5AH         LINE#         1893
  C:3C5AH         LINE#         1894
  C:3C61H         LINE#         1895
  C:3C67H         LINE#         1896
  C:3C67H         LINE#         1897
  C:3C79H         LINE#         1898
  C:3C7CH         LINE#         1899
  C:3C7EH         LINE#         1901
  C:3C7EH         LINE#         1902
  C:3C8CH         LINE#         1903
  C:3C92H         LINE#         1904
  C:3C92H         LINE#         1905
  C:3C9BH         LINE#         1906
  C:3C9DH         LINE#         1907
  C:3CA0H         LINE#         1909
  C:3CA0H         LINE#         1910
  C:3CA7H         LINE#         1911
  C:3CADH         LINE#         1912
  C:3CC0H         LINE#         1914
  C:3CD5H         LINE#         1915
  C:3CDEH         LINE#         1916
  C:3CE0H         LINE#         1917
  C:3CE2H         LINE#         1919
  C:3CE2H         LINE#         1920
  C:3CE9H         LINE#         1921
  C:3CEFH         LINE#         1922
  C:3CEFH         LINE#         1923
  C:3CFDH         LINE#         1924
  C:3D00H         LINE#         1925
BL51 BANKED LINKER/LOCATER V5.03                                                      01/25/2013  13:44:25  PAGE 123


  C:3D02H         LINE#         1927
  C:3D02H         LINE#         1928
  C:3D10H         LINE#         1929
  C:3D16H         LINE#         1930
  C:3D16H         LINE#         1931
  C:3D1FH         LINE#         1932
  C:3D26H         LINE#         1933
  C:3D28H         LINE#         1935
  C:3D28H         LINE#         1936
  C:3D2BH         LINE#         1937
  C:3D31H         LINE#         1938
  C:3D31H         LINE#         1939
  C:3D3FH         LINE#         1940
  C:3D44H         LINE#         1941
  C:3D46H         LINE#         1943
  C:3D46H         LINE#         1944
  C:3D57H         LINE#         1945
  C:3D5DH         LINE#         1946
  C:3D5DH         LINE#         1947
  C:3D65H         LINE#         1948
  C:3D6BH         LINE#         1949
  C:3D6BH         LINE#         1952
  C:3D6BH         LINE#         1954
  C:3D73H         LINE#         1955
  -------         ENDPROC       _SETITEMVALUE
  -------         PROC          _DISPLAYVIEWBAR
  X:0035H         SYMBOL        addr
  X:0037H         SYMBOL        val
  -------         DO            
  C:1832H         SYMBOL        BAR_ROM_TABLE
  X:0038H         SYMBOL        i
  X:0039H         SYMBOL        Bar_str
  -------         ENDDO         
  C:A8FCH         LINE#         1958
  C:A904H         LINE#         1959
  C:A904H         LINE#         1968
  C:A907H         LINE#         1969
  C:A919H         LINE#         1972
  C:A919H         LINE#         1973
  C:A922H         LINE#         1974
  C:A922H         LINE#         1975
  C:A93CH         LINE#         1976
  C:A94CH         LINE#         1977
  C:A962H         LINE#         1978
  C:A962H         LINE#         1980
  C:A96CH         LINE#         1981
  C:A96CH         LINE#         1984
  C:A982H         LINE#         1985
  C:A993H         LINE#         1986
  C:A99BH         LINE#         1987
  C:A9A8H         LINE#         1989
  C:A9B2H         LINE#         1990
  C:A9C7H         LINE#         1992
  -------         ENDPROC       _DISPLAYVIEWBAR
  -------         PROC          _DRAWNUM
  X:0035H         SYMBOL        addr
  X:0037H         SYMBOL        nptr
BL51 BANKED LINKER/LOCATER V5.03                                                      01/25/2013  13:44:25  PAGE 124


  X:003AH         SYMBOL        val
  -------         DO            
  X:003CH         SYMBOL        x
  X:003DH         SYMBOL        i
  X:003EH         SYMBOL        j
  X:003FH         SYMBOL        k
  D:0007H         SYMBOL        len
  X:0040H         SYMBOL        mstr
  X:0045H         SYMBOL        Num_str
  X:0051H         SYMBOL        str
  -------         ENDDO         
  C:A9D4H         LINE#         1996
  C:A9DDH         LINE#         1997
  C:A9DDH         LINE#         1999
  C:A9E8H         LINE#         2002
  C:A9EEH         LINE#         2003
  C:A9FDH         LINE#         2004
  C:AA02H         LINE#         2005
  C:AA0BH         LINE#         2008
  C:AA0EH         LINE#         2009
  C:AA21H         LINE#         2010
  C:AA31H         LINE#         2012
  C:AA45H         LINE#         2013
  C:AA4BH         LINE#         2014
  C:AA54H         LINE#         2015
  C:AA62H         LINE#         2016
  C:AA74H         LINE#         2019
  C:AA7AH         LINE#         2020
  C:AA89H         LINE#         2021
  C:AA9CH         LINE#         2022
  -------         ENDPROC       _DRAWNUM
  C:AB5EH         SYMBOL        L?1214
  -------         PROC          _DRAWSTRINGBYLANG
  X:0035H         SYMBOL        addr
  X:0037H         SYMBOL        yptr
  X:003AH         SYMBOL        val
  -------         DO            
  X:003CH         SYMBOL        j
  D:0005H         SYMBOL        l
  X:003DH         SYMBOL        Size_val
  X:003EH         SYMBOL        Buf
  X:004AH         SYMBOL        Str
  -------         ENDDO         
  C:AAA9H         LINE#         2026
  C:AAB2H         LINE#         2027
  C:AAB2H         LINE#         2030
  C:AABDH         LINE#         2033
  C:AAC7H         LINE#         2034
  C:AAD0H         LINE#         2036
  C:AADEH         LINE#         2037
  C:AADEH         LINE#         2038
  C:AAFDH         LINE#         2039
  C:AB02H         LINE#         2040
  C:AB02H         LINE#         2042
  C:AB0CH         LINE#         2043
  C:AB24H         LINE#         2044
  C:AB29H         LINE#         2045
BL51 BANKED LINKER/LOCATER V5.03                                                      01/25/2013  13:44:25  PAGE 125


  C:AB29H         LINE#         2047
  C:AB3DH         LINE#         2049
  C:AB48H         LINE#         2051
  C:AB5EH         LINE#         2053
  -------         ENDPROC       _DRAWSTRINGBYLANG
  -------         PROC          _DRAWMENULIST
  X:0014H         SYMBOL        NOTViewflag
  -------         DO            
  X:0015H         SYMBOL        i
  X:0016H         SYMBOL        j
  X:0017H         SYMBOL        k
  X:0018H         SYMBOL        x
  X:0019H         SYMBOL        y
  D:0001H         SYMBOL        DMp
  X:001AH         SYMBOL        Desc
  X:001DH         SYMBOL        Max_y
  X:001EH         SYMBOL        addr
  -------         ENDDO         
  C:85FAH         LINE#         2081
  C:85FFH         LINE#         2082
  C:85FFH         LINE#         2083
  C:8606H         LINE#         2093
  C:8615H         LINE#         2099
  C:8628H         LINE#         2100
  C:8631H         LINE#         2101
  C:8639H         LINE#         2103
  C:8650H         LINE#         2104
  C:8674H         LINE#         2110
  C:8688H         LINE#         2111
  C:869DH         LINE#         2118
  C:86B8H         LINE#         2121
  C:86BEH         LINE#         2122
  C:86BEH         LINE#         2124
  C:86CFH         LINE#         2125
  C:86D5H         LINE#         2129
  C:86E8H         LINE#         2134
  C:86FCH         LINE#         2135
  C:8710H         LINE#         2137
  C:8716H         LINE#         2138
  C:8718H         LINE#         2139
  C:8721H         LINE#         2140
  C:8721H         LINE#         2142
  C:8731H         LINE#         2144
  C:8739H         LINE#         2145
  C:876BH         LINE#         2146
  C:877BH         LINE#         2147
  C:877DH         LINE#         2148
  C:877DH         LINE#         2150
  C:8794H         LINE#         2154
  C:8794H         LINE#         2155
  C:87A6H         LINE#         2157
  C:87AFH         LINE#         2159
  C:87B5H         LINE#         2160
  C:87B7H         LINE#         2161
  C:87BFH         LINE#         2162
  C:87BFH         LINE#         2172
  -------         ENDPROC       _DRAWMENULIST
BL51 BANKED LINKER/LOCATER V5.03                                                      01/25/2013  13:44:25  PAGE 126


  C:9FC7H         SYMBOL        L?1305
  -------         PROC          DISPLAYOSDMENU
  -------         DO            
  X:000EH         SYMBOL        Str
  X:0011H         SYMBOL        i
  -------         ENDDO         
  C:9ECBH         LINE#         2177
  C:9ECBH         LINE#         2178
  C:9ECBH         LINE#         2190
  C:9ED4H         LINE#         2191
  C:9EDEH         LINE#         2192
  C:9EE5H         LINE#         2197
  C:9F02H         LINE#         2198
  C:9F08H         LINE#         2200
  C:9F08H         LINE#         2201
  C:9F48H         LINE#         2203
  C:9F48H         LINE#         2204
  C:9F4FH         LINE#         2205
  C:9F55H         LINE#         2206
  C:9F57H         LINE#         2208
  C:9F62H         LINE#         2210
  C:9F62H         LINE#         2212
  C:9F6DH         LINE#         2214
  C:9F72H         LINE#         2217
  C:9F77H         LINE#         2218
  C:9F77H         LINE#         2219
  C:9F7AH         LINE#         2220
  C:9F80H         LINE#         2221
  C:9F84H         LINE#         2223
  C:9F97H         LINE#         2224
  C:9F9AH         LINE#         2225
  C:9FA0H         LINE#         2227
  C:9FA5H         LINE#         2229
  C:9FA8H         LINE#         2230
  C:9FBBH         LINE#         2231
  C:9FBEH         LINE#         2232
  C:9FC4H         LINE#         2233
  C:9FC4H         LINE#         2239
  C:9FC7H         LINE#         2240
  -------         ENDPROC       DISPLAYOSDMENU
  -------         PROC          OSDHIGHMENU_SUB
  -------         DO            
  X:000CH         SYMBOL        temp_cursor
  -------         ENDDO         
  C:B7F2H         LINE#         2242
  C:B7F2H         LINE#         2243
  C:B7F2H         LINE#         2249
  C:B7FAH         LINE#         2250
  C:B804H         LINE#         2251
  C:B80CH         LINE#         2253
  C:B812H         LINE#         2254
  C:B815H         LINE#         2256
  C:B815H         LINE#         2257
  C:B81BH         LINE#         2258
  C:B822H         LINE#         2259
  C:B82AH         LINE#         2267
  C:B82AH         LINE#         2270
BL51 BANKED LINKER/LOCATER V5.03                                                      01/25/2013  13:44:25  PAGE 127


  C:B837H         LINE#         2273
  C:B85BH         LINE#         2275
  C:B861H         LINE#         2277
  C:B865H         LINE#         2278
  C:B86BH         LINE#         2279
  C:B86EH         LINE#         2280
  C:B870H         LINE#         2282
  C:B870H         LINE#         2283
  C:B875H         LINE#         2284
  C:B878H         LINE#         2285
  C:B878H         LINE#         2288
  C:B87FH         LINE#         2289
  C:B885H         LINE#         2290
  C:B88EH         LINE#         2291
  C:B88EH         LINE#         2294
  -------         ENDPROC       OSDHIGHMENU_SUB
  C:72EFH         SYMBOL        L?1215
  C:730DH         SYMBOL        L?1275
  C:7315H         SYMBOL        L?1289
  C:731EH         SYMBOL        L?1312
  C:7329H         SYMBOL        L?1328
  -------         PROC          _DOACTION
  D:0007H         SYMBOL        id
  -------         DO            
  X:000BH         SYMBOL        ret
  -------         ENDDO         
  C:707CH         LINE#         2297
  C:707CH         LINE#         2298
  C:707CH         LINE#         2299
  C:7082H         LINE#         2304
  C:70BAH         LINE#         2306
  C:70BAH         LINE#         2307
  C:70BAH         LINE#         2308
  C:70BAH         LINE#         2319
  C:70C1H         LINE#         2320
  C:70C4H         LINE#         2354
  C:70C4H         LINE#         2358
  C:70C4H         LINE#         2359
  C:70C7H         LINE#         2361
  C:70C7H         LINE#         2362
  C:70C7H         LINE#         2363
  C:70C7H         LINE#         2364
  C:70C9H         LINE#         2366
  C:70C9H         LINE#         2367
  C:70C9H         LINE#         2369
  C:70C9H         LINE#         2370
  C:70CCH         LINE#         2372
  C:70CFH         LINE#         2374
  C:70D2H         LINE#         2375
  C:70D9H         LINE#         2376
  C:70DCH         LINE#         2378
  C:70DFH         LINE#         2383
  C:70E2H         LINE#         2384
  C:70E7H         LINE#         2385
  C:70E7H         LINE#         2386
  C:70EAH         LINE#         2398
  C:70EAH         LINE#         2399
BL51 BANKED LINKER/LOCATER V5.03                                                      01/25/2013  13:44:25  PAGE 128


  C:70EDH         LINE#         2401
  C:70F4H         LINE#         2402
  C:70F4H         LINE#         2403
  C:70F9H         LINE#         2404
  C:70FEH         LINE#         2405
  C:70FEH         LINE#         2406
  C:70FEH         LINE#         2407
  C:7101H         LINE#         2409
  C:7108H         LINE#         2410
  C:7108H         LINE#         2411
  C:710DH         LINE#         2412
  C:7112H         LINE#         2413
  C:7112H         LINE#         2414
  C:7112H         LINE#         2415
  C:7115H         LINE#         2417
  C:7115H         LINE#         2418
  C:7118H         LINE#         2419
  C:711AH         LINE#         2420
  C:711DH         LINE#         2421
  C:7120H         LINE#         2422
  C:7123H         LINE#         2425
  C:7123H         LINE#         2426
  C:7123H         LINE#         2427
  C:7123H         LINE#         2428
  C:7123H         LINE#         2433
  C:7126H         LINE#         2488
  C:7126H         LINE#         2489
  C:7130H         LINE#         2490
  C:7130H         LINE#         2491
  C:718FH         LINE#         2496
  C:718FH         LINE#         2497
  C:7196H         LINE#         2498
  C:7198H         LINE#         2499
  C:7198H         LINE#         2500
  C:719BH         LINE#         2501
  C:71A0H         LINE#         2504
  C:71B2H         LINE#         2505
  C:71BFH         LINE#         2506
  C:71CEH         LINE#         2507
  C:71DDH         LINE#         2509
  C:71E6H         LINE#         2510
  C:71E6H         LINE#         2511
  C:71EAH         LINE#         2512
  C:71EDH         LINE#         2515
  C:71F4H         LINE#         2516
  C:71F4H         LINE#         2517
  C:71FBH         LINE#         2518
  C:71FBH         LINE#         2519
  C:7200H         LINE#         2523
  C:7200H         LINE#         2524
  C:7200H         LINE#         2525
  C:7200H         LINE#         2526
  C:7203H         LINE#         2527
  C:7203H         LINE#         2528
  C:7203H         LINE#         2529
  C:7203H         LINE#         2530
  C:7203H         LINE#         2532
BL51 BANKED LINKER/LOCATER V5.03                                                      01/25/2013  13:44:25  PAGE 129


  C:7209H         LINE#         2533
  C:7209H         LINE#         2534
  C:720EH         LINE#         2538
  C:720EH         LINE#         2539
  C:720EH         LINE#         2540
  C:720EH         LINE#         2541
  C:720EH         LINE#         2542
  C:720EH         LINE#         2543
  C:7211H         LINE#         2544
  C:7211H         LINE#         2545
  C:7211H         LINE#         2546
  C:7211H         LINE#         2547
  C:7211H         LINE#         2549
  C:7213H         LINE#         2551
  C:7213H         LINE#         2552
  C:7218H         LINE#         2553
  C:7219H         LINE#         2554
  C:7219H         LINE#         2555
  C:7219H         LINE#         2556
  C:721CH         LINE#         2561
  C:721CH         LINE#         2563
  C:721CH         LINE#         2564
  C:721FH         LINE#         2566
  C:721FH         LINE#         2567
  C:7229H         LINE#         2568
  C:7229H         LINE#         2569
  C:722BH         LINE#         2570
  C:722BH         LINE#         2571
  C:722EH         LINE#         2573
  C:7233H         LINE#         2576
  C:723CH         LINE#         2577
  C:723CH         LINE#         2578
  C:7240H         LINE#         2579
  C:7243H         LINE#         2582
  C:724AH         LINE#         2583
  C:724AH         LINE#         2584
  C:7251H         LINE#         2585
  C:7251H         LINE#         2587
  C:7256H         LINE#         2590
  C:7256H         LINE#         2592
  C:7256H         LINE#         2593
  C:7256H         LINE#         2594
  C:7256H         LINE#         2596
  C:725CH         LINE#         2597
  C:725CH         LINE#         2599
  C:7261H         LINE#         2602
  C:7261H         LINE#         2603
  C:7261H         LINE#         2604
  C:7261H         LINE#         2605
  C:7261H         LINE#         2606
  C:7261H         LINE#         2607
  C:7261H         LINE#         2609
  C:7261H         LINE#         2610
  C:7263H         LINE#         2612
  C:7263H         LINE#         2614
  C:7263H         LINE#         2615
  C:7268H         LINE#         2616
BL51 BANKED LINKER/LOCATER V5.03                                                      01/25/2013  13:44:25  PAGE 130


  C:726AH         LINE#         2617
  C:726DH         LINE#         2620
  C:7272H         LINE#         2622
  C:727BH         LINE#         2623
  C:727BH         LINE#         2624
  C:727FH         LINE#         2625
  C:7282H         LINE#         2628
  C:7289H         LINE#         2629
  C:7289H         LINE#         2630
  C:7290H         LINE#         2631
  C:7290H         LINE#         2632
  C:7295H         LINE#         2635
  C:7295H         LINE#         2636
  C:7295H         LINE#         2637
  C:7295H         LINE#         2638
  C:7295H         LINE#         2640
  C:729BH         LINE#         2641
  C:729BH         LINE#         2642
  C:72A0H         LINE#         2645
  C:72A0H         LINE#         2646
  C:72A0H         LINE#         2647
  C:72A0H         LINE#         2648
  C:72A0H         LINE#         2649
  C:72A0H         LINE#         2650
  C:72A3H         LINE#         2652
  C:72A3H         LINE#         2653
  C:72A5H         LINE#         2656
  C:72A5H         LINE#         2669
  C:72ADH         LINE#         2670
  C:72B5H         LINE#         2671
  C:72C1H         LINE#         2672
  C:72CDH         LINE#         2673
  C:72CDH         LINE#         2674
  C:72CDH         LINE#         2675
  C:72CDH         LINE#         2676
  C:72D0H         LINE#         2678
  C:72D3H         LINE#         2680
  C:72D5H         LINE#         2682
  C:72D5H         LINE#         2683
  C:72D8H         LINE#         2684
  C:72DAH         LINE#         2686
  C:72E1H         LINE#         2687
  C:72E6H         LINE#         2688
  C:72E9H         LINE#         2690
  C:72E9H         LINE#         2692
  C:72E9H         LINE#         2693
  C:72EEH         LINE#         2694
  -------         ENDPROC       _DOACTION
  -------         PROC          _GETNEXTCURSORMENUITEM
  D:0001H         SYMBOL        DMp
  D:0005H         SYMBOL        itemno
  X:0011H         SYMBOL        flag
  -------         DO            
  D:0006H         SYMBOL        new_cursor
  -------         ENDDO         
  C:DA87H         LINE#         2697
  C:DA87H         LINE#         2698
BL51 BANKED LINKER/LOCATER V5.03                                                      01/25/2013  13:44:25  PAGE 131


  C:DA87H         LINE#         2701
  C:DA92H         LINE#         2702
  C:DA9BH         LINE#         2703
  C:DAA0H         LINE#         2704
  C:DAA0H         LINE#         2705
  C:DAA2H         LINE#         2706
  -------         ENDPROC       _GETNEXTCURSORMENUITEM
  -------         PROC          SAVEVALUE1
  C:D7ECH         LINE#         2711
  C:D7ECH         LINE#         2712
  C:D7ECH         LINE#         2715
  C:D806H         LINE#         2717
  C:D806H         LINE#         2718
  C:D811H         LINE#         2722
  C:D811H         LINE#         2724
  C:D811H         LINE#         2726
  C:D811H         LINE#         2727
  C:D811H         LINE#         2729
  C:D813H         LINE#         2730
  -------         ENDPROC       SAVEVALUE1
  -------         PROC          CLEARVALUEWIN
  C:DD5BH         LINE#         2732
  C:DD5BH         LINE#         2733
  C:DD5BH         LINE#         2734
  C:DD5EH         LINE#         2736
  C:DD64H         LINE#         2737
  C:DD66H         LINE#         2738
  -------         ENDPROC       CLEARVALUEWIN
  -------         PROC          _OSDCURSORMOVE
  X:0009H         SYMBOL        flag
  -------         DO            
  X:000AH         SYMBOL        new_cursor
  X:000BH         SYMBOL        old_cursor
  D:0002H         SYMBOL        dat
  B:0023H.1       SYMBOL        OSDLANG_Changing
  -------         DO            
  X:000CH         SYMBOL        i
  -------         ENDDO         
  -------         ENDDO         
  C:9831H         LINE#         2740
  C:9836H         LINE#         2741
  C:9836H         LINE#         2748
  C:9838H         LINE#         2754
  C:983EH         LINE#         2756
  C:9862H         LINE#         2759
  C:9886H         LINE#         2761
  C:989EH         LINE#         2763
  C:98A1H         LINE#         2765
  C:98A9H         LINE#         2766
  C:98B6H         LINE#         2767
  C:98BCH         LINE#         2768
  C:98CCH         LINE#         2770
  C:98CCH         LINE#         2773
  C:98D1H         LINE#         2774
  C:98D1H         LINE#         2776
  C:98D4H         LINE#         2777
  C:98D7H         LINE#         2778
BL51 BANKED LINKER/LOCATER V5.03                                                      01/25/2013  13:44:25  PAGE 132


  C:98D7H         LINE#         2779
  C:98DCH         LINE#         2780
  C:98DFH         LINE#         2853
  C:98E7H         LINE#         2854
  C:98EFH         LINE#         2855
  C:98F4H         LINE#         2856
  C:98F4H         LINE#         2857
  C:98F7H         LINE#         2859
  C:9900H         LINE#         2860
  C:9919H         LINE#         2861
  C:9920H         LINE#         2869
  C:9926H         LINE#         2871
  C:9936H         LINE#         2875
  C:9939H         LINE#         2877
  C:9939H         LINE#         2878
  C:9939H         LINE#         2880
  C:994EH         LINE#         2881
  C:9953H         LINE#         2882
  C:9956H         LINE#         2883
  C:9956H         LINE#         2891
  -------         ENDPROC       _OSDCURSORMOVE
  C:A1B1H         SYMBOL        L?1212
  -------         PROC          _OSDVALUEUPDN
  X:0009H         SYMBOL        flag
  -------         DO            
  X:000AH         SYMBOL        ptr
  X:000DH         SYMBOL        val
  X:000FH         SYMBOL        addr
  -------         ENDDO         
  C:A0D2H         LINE#         2893
  C:A0D7H         LINE#         2894
  C:A0D7H         LINE#         2900
  C:A0DDH         LINE#         2901
  C:A109H         LINE#         2903
  C:A125H         LINE#         2905
  C:A125H         LINE#         2906
  C:A144H         LINE#         2907
  C:A154H         LINE#         2908
  C:A154H         LINE#         2910
  C:A154H         LINE#         2911
  C:A163H         LINE#         2912
  C:A176H         LINE#         2919
  C:A176H         LINE#         2920
  C:A176H         LINE#         2921
  C:A180H         LINE#         2922
  C:A180H         LINE#         2923
  C:A180H         LINE#         2925
  C:A180H         LINE#         2947
  C:A180H         LINE#         2948
  C:A18FH         LINE#         2949
  C:A1A2H         LINE#         2950
  C:A1B0H         LINE#         2951
  C:A1B0H         LINE#         2953
  C:A1B0H         LINE#         2954
  C:A1B0H         LINE#         2955
  -------         ENDPROC       _OSDVALUEUPDN
  -------         PROC          CLOSEOSDMENU
BL51 BANKED LINKER/LOCATER V5.03                                                      01/25/2013  13:44:25  PAGE 133


  -------         DO            
  X:003FH         SYMBOL        i
  -------         ENDDO         
  C:D328H         LINE#         2957
  C:D328H         LINE#         2958
  C:D328H         LINE#         2962
  C:D32DH         LINE#         2965
  C:D330H         LINE#         2966
  C:D340H         LINE#         2967
  C:D340H         LINE#         2968
  C:D34AH         LINE#         2969
  C:D353H         LINE#         2970
  C:D35BH         LINE#         2972
  C:D360H         LINE#         2993
  C:D362H         LINE#         2994
  -------         ENDPROC       CLOSEOSDMENU
  -------         PROC          INITOSDMENUXY
  -------         DO            
  X:000EH         SYMBOL        val
  X:0010H         SYMBOL        addx
  X:0012H         SYMBOL        addy
  X:0014H         SYMBOL        winno
  -------         ENDDO         
  C:C5C7H         LINE#         2996
  C:C5C7H         LINE#         2997
  C:C5C7H         LINE#         3001
  C:C5D8H         LINE#         3002
  C:C5E9H         LINE#         3012
  C:C5F7H         LINE#         3014
  C:C5FAH         LINE#         3015
  C:C60BH         LINE#         3017
  C:C613H         LINE#         3018
  C:C624H         LINE#         3019
  C:C62CH         LINE#         3020
  -------         ENDPROC       INITOSDMENUXY
  -------         PROC          _OPENOSDMENU
  X:000AH         SYMBOL        OSD_ID
  -------         DO            
  X:000BH         SYMBOL        i
  -------         ENDDO         
  C:D1BAH         LINE#         3024
  C:D1BFH         LINE#         3028
  C:D1BFH         LINE#         3033
  C:D1C2H         LINE#         3034
  C:D1C2H         LINE#         3036
  C:D1CAH         LINE#         3040
  C:D1CAH         LINE#         3045
  C:D1DAH         LINE#         3049
  C:D1DFH         LINE#         3050
  C:D1E7H         LINE#         3054
  C:D1EEH         LINE#         3055
  C:D1F3H         LINE#         3056
  -------         ENDPROC       _OPENOSDMENU
  -------         PROC          _INITOSDMENU
  X:000CH         SYMBOL        OSD_ID
  -------         DO            
  X:000DH         SYMBOL        i
BL51 BANKED LINKER/LOCATER V5.03                                                      01/25/2013  13:44:25  PAGE 134


  -------         ENDDO         
  C:BAD6H         LINE#         3117
  C:BADBH         LINE#         3121
  C:BADBH         LINE#         3123
  C:BADEH         LINE#         3126
  C:BAE6H         LINE#         3128
  C:BAE9H         LINE#         3146
  C:BAE9H         LINE#         3148
  C:BAEFH         LINE#         3151
  C:BAEFH         LINE#         3158
  C:BAF9H         LINE#         3159
  C:BAF9H         LINE#         3168
  C:BAF9H         LINE#         3169
  C:BAF9H         LINE#         3171
  C:BAFCH         LINE#         3172
  C:BB00H         LINE#         3173
  C:BB19H         LINE#         3175
  C:BB1FH         LINE#         3176
  C:BB24H         LINE#         3178
  C:BB27H         LINE#         3179
  C:BB2CH         LINE#         3181
  C:BB32H         LINE#         3182
  C:BB35H         LINE#         3183
  C:BB37H         LINE#         3191
  C:BB40H         LINE#         3192
  C:BB48H         LINE#         3196
  C:BB4FH         LINE#         3198
  C:BB55H         LINE#         3199
  C:BB5CH         LINE#         3201
  C:BB5FH         LINE#         3205
  -------         ENDPROC       _INITOSDMENU
  -------         PROC          OSDHIGHMENU
  C:002EH         LINE#         3209
  C:002EH         LINE#         3210
  C:002EH         LINE#         3216
  C:0031H         LINE#         3217
  C:0031H         LINE#         3219
  C:0034H         LINE#         3221
  C:0039H         LINE#         3222
  C:003CH         LINE#         3225
  C:003CH         LINE#         3227
  C:003EH         LINE#         3228
  C:0057H         LINE#         3230
  C:005FH         LINE#         3231
  C:0062H         LINE#         3241
  -------         ENDPROC       OSDHIGHMENU
  -------         PROC          OSDSELECT
  -------         DO            
  D:0007H         SYMBOL        ret
  X:0009H         SYMBOL        addr
  -------         ENDDO         
  C:8F5AH         LINE#         3244
  C:8F5AH         LINE#         3245
  C:8F5AH         LINE#         3249
  C:8F65H         LINE#         3250
  C:8F80H         LINE#         3252
  C:8FA8H         LINE#         3256
BL51 BANKED LINKER/LOCATER V5.03                                                      01/25/2013  13:44:25  PAGE 135


  C:8FC1H         LINE#         3257
  C:8FC7H         LINE#         3259
  C:8FF5H         LINE#         3260
  C:8FF5H         LINE#         3261
  C:9004H         LINE#         3264
  C:9004H         LINE#         3265
  C:9004H         LINE#         3266
  C:9006H         LINE#         3267
  C:9009H         LINE#         3268
  C:901FH         LINE#         3271
  C:901FH         LINE#         3272
  C:9021H         LINE#         3274
  C:9034H         LINE#         3275
  C:9034H         LINE#         3276
  C:9034H         LINE#         3279
  C:9037H         LINE#         3280
  C:9037H         LINE#         3283
  C:9037H         LINE#         3284
  C:9037H         LINE#         3285
  C:903CH         LINE#         3286
  C:9056H         LINE#         3289
  C:905CH         LINE#         3290
  C:9065H         LINE#         3291
  C:9065H         LINE#         3293
  C:906BH         LINE#         3295
  C:906EH         LINE#         3296
  C:906EH         LINE#         3297
  C:9075H         LINE#         3299
  C:908CH         LINE#         3300
  C:9094H         LINE#         3301
  C:90AAH         LINE#         3303
  C:90B1H         LINE#         3304
  C:90B6H         LINE#         3306
  C:90B9H         LINE#         3308
  C:90BCH         LINE#         3309
  C:90BCH         LINE#         3310
  C:90BCH         LINE#         3313
  -------         ENDPROC       OSDSELECT
  -------         PROC          _CAMOUTDSEL
  X:0015H         SYMBOL        val
  C:CB5FH         LINE#         3331
  C:CB64H         LINE#         3332
  C:CB64H         LINE#         3333
  C:CB66H         LINE#         3334
  C:CB6EH         LINE#         3335
  C:CB75H         LINE#         3336
  C:CB7DH         LINE#         3337
  C:CB84H         LINE#         3338
  C:CB8CH         LINE#         3339
  C:CB93H         LINE#         3340
  C:CB9BH         LINE#         3341
  C:CBA2H         LINE#         3342
  C:CBABH         LINE#         3343
  -------         ENDPROC       _CAMOUTDSEL
  -------         PROC          _DVRAODIOSEL
  X:0015H         SYMBOL        val
  C:D1F8H         LINE#         3349
BL51 BANKED LINKER/LOCATER V5.03                                                      01/25/2013  13:44:25  PAGE 136


  C:D1FDH         LINE#         3350
  C:D1FDH         LINE#         3352
  C:D1FFH         LINE#         3353
  C:D207H         LINE#         3354
  C:D20EH         LINE#         3355
  C:D216H         LINE#         3356
  C:D21DH         LINE#         3357
  C:D225H         LINE#         3358
  C:D22CH         LINE#         3359
  C:D235H         LINE#         3361
  -------         ENDPROC       _DVRAODIOSEL
  -------         PROC          CHKOSDMENU_TOPWIN
  C:DD1CH         LINE#         3364
  C:DD1CH         LINE#         3365
  C:DD1CH         LINE#         3366
  C:DD23H         LINE#         3367
  C:DD23H         LINE#         3368
  C:DD26H         LINE#         3369
  C:DD26H         LINE#         3370
  C:DD28H         LINE#         3371
  -------         ENDPROC       CHKOSDMENU_TOPWIN
  -------         PROC          CHKOSDMENU_WINDOW
  C:DD29H         LINE#         3372
  C:DD29H         LINE#         3373
  C:DD29H         LINE#         3374
  C:DD30H         LINE#         3375
  C:DD33H         LINE#         3376
  C:DD35H         LINE#         3377
  -------         ENDPROC       CHKOSDMENU_WINDOW
  -------         PROC          CHKOSDMENU
  C:DD36H         LINE#         3379
  C:DD36H         LINE#         3380
  C:DD36H         LINE#         3381
  C:DD3DH         LINE#         3382
  C:DD40H         LINE#         3384
  C:DD42H         LINE#         3385
  -------         ENDPROC       CHKOSDMENU
  -------         ENDMOD        OSDMENU

  -------         MODULE        PC_EEP
  C:0000H         SYMBOL        _ICE_DUMMY_
  -------         ENDMOD        PC_EEP

  -------         MODULE        PRINTF
  C:0000H         SYMBOL        _ICE_DUMMY_
  D:00E8H         PUBLIC        P4
  C:DB9BH         PUBLIC        _Puts
  C:64E0H         PUBLIC        _DoPrint
  C:DCA8H         PUBLIC        Hex
  D:0099H         PUBLIC        SBUF
  C:D83BH         PUBLIC        _Printf
  C:C867H         SYMBOL        Com005D
  C:C867H         SYMBOL        L?0094
  C:C867H         SYMBOL        L?0095
  C:C86AH         SYMBOL        L?0096
  C:C86BH         SYMBOL        L?0097
  C:C874H         SYMBOL        L?0098
BL51 BANKED LINKER/LOCATER V5.03                                                      01/25/2013  13:44:25  PAGE 137


  C:C874H         SYMBOL        L?0099
  C:C877H         SYMBOL        L?0100
  C:C885H         SYMBOL        L?0101
  C:C885H         SYMBOL        L?0102
  C:C88BH         SYMBOL        L?0103
  C:C891H         SYMBOL        L?0104
  C:C8A0H         SYMBOL        L?0105
  C:C8A6H         SYMBOL        L?0106
  C:C8A6H         SYMBOL        L?0107
  C:C8ACH         SYMBOL        L?0108
  C:C8AFH         SYMBOL        L?0109
  C:C8B6H         SYMBOL        L?0110
  C:C8B6H         SYMBOL        L?0111
  C:C8BCH         SYMBOL        L?0112
  C:C8BCH         SYMBOL        L?0113
  -------         PROC          COM005D
  -------         ENDPROC       COM005D
  -------         PROC          _DOPRINT
  X:005CH         SYMBOL        fmt
  X:005FH         SYMBOL        ap
  -------         DO            
  X:0062H         SYMBOL        ch
  X:0063H         SYMBOL        i
  X:0064H         SYMBOL        value
  B:0023H.1       SYMBOL        fl_zero
  B:0023H.2       SYMBOL        fl_num
  X:0068H         SYMBOL        fl_len
  X:0069H         SYMBOL        cnt
  X:006AH         SYMBOL        mask
  X:006EH         SYMBOL        ptr
  -------         ENDDO         
  C:64E0H         LINE#         17
  C:64E6H         LINE#         18
  C:64E6H         LINE#         26
  C:64F0H         LINE#         32
  C:64F0H         LINE#         36
  C:6500H         LINE#         37
  C:6500H         LINE#         38
  C:6509H         LINE#         39
  C:6513H         LINE#         40
  C:651CH         LINE#         41
  C:651CH         LINE#         42
  C:651CH         LINE#         46
  C:651EH         LINE#         47
  C:6520H         LINE#         48
  C:6525H         LINE#         50
  C:652FH         LINE#         52
  C:6534H         LINE#         53
  C:6536H         LINE#         54
  C:653DH         LINE#         55
  C:653EH         LINE#         56
  C:653EH         LINE#         57
  C:6540H         LINE#         58
  C:6554H         LINE#         59
  C:655BH         LINE#         60
  C:6562H         LINE#         61
  C:6562H         LINE#         65
BL51 BANKED LINKER/LOCATER V5.03                                                      01/25/2013  13:44:25  PAGE 138


  C:6568H         LINE#         67
  C:657CH         LINE#         68
  C:657CH         LINE#         69
  C:658BH         LINE#         70
  C:658BH         LINE#         71
  C:6598H         LINE#         72
  C:6598H         LINE#         76
  C:65C4H         LINE#         78
  C:65C4H         LINE#         79
  C:65C4H         LINE#         81
  C:65D4H         LINE#         82
  C:65D4H         LINE#         83
  C:65E7H         LINE#         84
  C:65EFH         LINE#         85
  C:65F1H         LINE#         87
  C:65F1H         LINE#         88
  C:6606H         LINE#         89
  C:660CH         LINE#         90
  C:660EH         LINE#         92
  C:660EH         LINE#         93
  C:6612H         LINE#         94
  C:661BH         LINE#         95
  C:661BH         LINE#         96
  C:661BH         LINE#         98
  C:6622H         LINE#         99
  C:662AH         LINE#         100
  C:6639H         LINE#         101
  C:6639H         LINE#         103
  C:663FH         LINE#         104
  C:6653H         LINE#         106
  C:6660H         LINE#         107
  C:6671H         LINE#         108
  C:6674H         LINE#         109
  C:667EH         LINE#         110
  C:667EH         LINE#         112
  C:66AEH         LINE#         114
  C:66AEH         LINE#         115
  C:66BCH         LINE#         116
  C:66D9H         LINE#         117
  C:66DBH         LINE#         118
  C:66E6H         LINE#         120
  C:66F7H         LINE#         121
  C:6709H         LINE#         123
  C:6717H         LINE#         124
  C:671AH         LINE#         125
  C:671AH         LINE#         126
  C:671AH         LINE#         128
  C:671AH         LINE#         129
  C:671AH         LINE#         131
  C:672AH         LINE#         132
  C:6737H         LINE#         133
  C:673FH         LINE#         134
  C:6748H         LINE#         135
  C:6748H         LINE#         137
  C:6756H         LINE#         139
  C:6776H         LINE#         140
  C:67A6H         LINE#         141
BL51 BANKED LINKER/LOCATER V5.03                                                      01/25/2013  13:44:25  PAGE 139


  C:67AEH         LINE#         142
  C:67AEH         LINE#         144
  C:67AEH         LINE#         155
  C:67BDH         LINE#         156
  C:67C8H         LINE#         157
  C:67D7H         LINE#         158
  C:67D7H         LINE#         163
  C:67D7H         LINE#         164
  C:67E3H         LINE#         165
  C:67F1H         LINE#         166
  C:67F1H         LINE#         168
  C:67F1H         LINE#         169
  C:67FAH         LINE#         170
  C:67FDH         LINE#         171
  C:67FDH         LINE#         172
  C:67FDH         LINE#         173
  -------         ENDPROC       _DOPRINT
  -------         PROC          _PRINTF
  X:002EH         SYMBOL        fmt
  -------         DO            
  X:0031H         SYMBOL        ellipsis_40
  X:0059H         SYMBOL        ap
  -------         ENDDO         
  C:D83BH         LINE#         180
  C:D841H         LINE#         181
  C:D841H         LINE#         184
  C:D84DH         LINE#         185
  -------         ENDPROC       _PRINTF
  -------         PROC          _PUTS
  X:001CH         SYMBOL        ptr
  C:DB9BH         LINE#         189
  C:DBA1H         LINE#         190
  C:DBA1H         LINE#         191
  C:DBA9H         LINE#         192
  C:DBB5H         LINE#         193
  -------         ENDPROC       _PUTS
  -------         ENDMOD        PRINTF

  -------         MODULE        TABLE
  C:0000H         SYMBOL        _ICE_DUMMY_
  C:7333H         PUBLIC        NTSC_Regs
  C:7483H         PUBLIC        PAL_Regs
  -------         ENDMOD        TABLE

  -------         MODULE        TW88
  C:0000H         SYMBOL        _ICE_DUMMY_
  C:DADBH         PUBLIC        COMPOSITE3Input
  C:DAF7H         PUBLIC        COMPOSITE4Input
  D:00E8H         PUBLIC        P4
  C:DCD7H         PUBLIC        GetLCDPowerState
  B:00B0H.5       PUBLIC        P3_5
  C:C9CAH         PUBLIC        DetectDecoderInput
  C:0029H         PUBLIC        ON_LVDS
  C:D363H         PUBLIC        LCDPowerOFF
  C:D93AH         PUBLIC        SetAutoDetectStd
  C:B4C6H         PUBLIC        _Mapping1
  C:C00AH         PUBLIC        _LCDPowerON
BL51 BANKED LINKER/LOCATER V5.03                                                      01/25/2013  13:44:25  PAGE 140


  C:D4F3H         PUBLIC        LCDPower
  X:013EH         SYMBOL        m_cStandard
  C:DA4EH         PUBLIC        _ClearAutoDetectStd
  C:002AH         PUBLIC        OFF_LVDS
  C:DAA3H         PUBLIC        COMPOSITE1Input
  C:DABFH         PUBLIC        COMPOSITE2Input
  C:C6F3H         SYMBOL        Com0021
  C:C6F3H         SYMBOL        L?0034
  C:C6FAH         SYMBOL        L?0035
  C:C6FDH         SYMBOL        L?0036
  C:C700H         SYMBOL        L?0037
  C:C706H         SYMBOL        L?0038
  C:C729H         SYMBOL        L?0039
  C:C729H         SYMBOL        L?0040
  C:C732H         SYMBOL        L?0041
  C:C742H         SYMBOL        L?0042
  C:C742H         SYMBOL        L?0043
  C:C749H         SYMBOL        L?0047
  -------         PROC          COM0021
  -------         ENDPROC       COM0021
  -------         PROC          SETAUTODETECTSTD
  -------         DO            
  D:0007H         SYMBOL        val
  -------         ENDDO         
  C:D93AH         LINE#         30
  C:D93AH         LINE#         31
  C:D93AH         LINE#         37
  C:D940H         LINE#         38
  C:D948H         LINE#         39
  C:D94FH         LINE#         40
  -------         ENDPROC       SETAUTODETECTSTD
  -------         PROC          _CLEARAUTODETECTSTD
  X:0022H         SYMBOL        std
  -------         DO            
  D:0007H         SYMBOL        val
  -------         ENDDO         
  C:DA4EH         LINE#         43
  C:DA53H         LINE#         44
  C:DA53H         LINE#         51
  C:DA5AH         LINE#         52
  C:DA63H         LINE#         53
  -------         ENDPROC       _CLEARAUTODETECTSTD
  C:CA15H         SYMBOL        L?0046
  -------         PROC          DETECTDECODERINPUT
  -------         DO            
  X:0021H         SYMBOL        std
  X:0022H         SYMBOL        val
  -------         ENDDO         
  C:C9CAH         LINE#         87
  C:C9CAH         LINE#         88
  C:C9CAH         LINE#         93
  C:C9CFH         LINE#         94
  C:C9D5H         LINE#         95
  C:C9DAH         LINE#         96
  C:C9DCH         LINE#         97
  C:C9DCH         LINE#         99
  C:C9E1H         LINE#         100
BL51 BANKED LINKER/LOCATER V5.03                                                      01/25/2013  13:44:25  PAGE 141


  C:C9E6H         LINE#         104
  C:C9E9H         LINE#         105
  C:C9EEH         LINE#         106
  C:C9F0H         LINE#         107
  C:C9F0H         LINE#         108
  C:C9F9H         LINE#         109
  C:C9FFH         LINE#         110
  C:CA06H         LINE#         111
  C:CA06H         LINE#         112
  C:CA12H         LINE#         125
  C:CA14H         LINE#         126
  -------         ENDPROC       DETECTDECODERINPUT
  -------         PROC          COMPOSITE1INPUT
  C:DAA3H         LINE#         133
  C:DAA3H         LINE#         134
  C:DAA3H         LINE#         135
  C:DAACH         LINE#         136
  C:DAB2H         LINE#         137
  -------         ENDPROC       COMPOSITE1INPUT
  -------         PROC          COMPOSITE2INPUT
  C:DABFH         LINE#         140
  C:DABFH         LINE#         141
  C:DABFH         LINE#         142
  C:DAC8H         LINE#         143
  C:DACEH         LINE#         144
  -------         ENDPROC       COMPOSITE2INPUT
  -------         PROC          COMPOSITE3INPUT
  C:DADBH         LINE#         147
  C:DADBH         LINE#         148
  C:DADBH         LINE#         149
  C:DAE4H         LINE#         150
  C:DAEAH         LINE#         151
  -------         ENDPROC       COMPOSITE3INPUT
  -------         PROC          COMPOSITE4INPUT
  C:DAF7H         LINE#         154
  C:DAF7H         LINE#         155
  C:DAF7H         LINE#         156
  C:DB00H         LINE#         157
  C:DB06H         LINE#         158
  -------         ENDPROC       COMPOSITE4INPUT
  -------         PROC          GETLCDPOWERSTATE
  -------         DO            
  D:0007H         SYMBOL        val
  -------         ENDDO         
  C:DCD7H         LINE#         238
  C:DCD7H         LINE#         239
  C:DCD7H         LINE#         242
  C:DCDEH         LINE#         243
  C:DCE1H         LINE#         244
  C:DCE5H         LINE#         245
  C:DCE5H         LINE#         246
  -------         ENDPROC       GETLCDPOWERSTATE
  -------         PROC          ON_LVDS
  C:0029H         LINE#         330
  C:0029H         LINE#         331
  C:0029H         LINE#         341
  -------         ENDPROC       ON_LVDS
BL51 BANKED LINKER/LOCATER V5.03                                                      01/25/2013  13:44:25  PAGE 142


  -------         PROC          OFF_LVDS
  C:002AH         LINE#         343
  C:002AH         LINE#         344
  C:002AH         LINE#         355
  -------         ENDPROC       OFF_LVDS
  C:C07EH         SYMBOL        L?0045
  -------         PROC          _LCDPOWERON
  X:0000H         SYMBOL        mute
  C:C00AH         LINE#         357
  C:C00AH         LINE#         358
  C:C00AH         LINE#         359
  C:C00AH         LINE#         360
  C:C01CH         LINE#         362
  C:C021H         LINE#         365
  C:C027H         LINE#         366
  C:C027H         LINE#         368
  C:C02AH         LINE#         370
  C:C02DH         LINE#         372
  C:C033H         LINE#         373
  C:C035H         LINE#         377
  C:C03AH         LINE#         378
  C:C03FH         LINE#         380
  C:C044H         LINE#         387
  C:C049H         LINE#         388
  C:C04CH         LINE#         392
  C:C055H         LINE#         420
  C:C05AH         LINE#         426
  C:C061H         LINE#         427
  C:C064H         LINE#         428
  C:C06DH         LINE#         429
  C:C074H         LINE#         430
  C:C07DH         LINE#         431
  C:C07DH         LINE#         434
  -------         ENDPROC       _LCDPOWERON
  C:D390H         SYMBOL        L?0044
  -------         PROC          LCDPOWEROFF
  C:D363H         LINE#         450
  C:D363H         LINE#         451
  C:D363H         LINE#         458
  C:D365H         LINE#         459
  C:D368H         LINE#         460
  C:D36AH         LINE#         461
  C:D36DH         LINE#         462
  C:D376H         LINE#         464
  C:D379H         LINE#         477
  C:D37CH         LINE#         478
  C:D383H         LINE#         479
  C:D385H         LINE#         480
  C:D38CH         LINE#         481
  C:D38FH         LINE#         485
  -------         ENDPROC       LCDPOWEROFF
  -------         PROC          LCDPOWER
  -------         DO            
  X:013DH         SYMBOL        state
  -------         ENDDO         
  C:D4F3H         LINE#         490
  C:D4F3H         LINE#         491
BL51 BANKED LINKER/LOCATER V5.03                                                      01/25/2013  13:44:25  PAGE 143


  C:D4F3H         LINE#         496
  C:D4FAH         LINE#         497
  C:D4FCH         LINE#         498
  C:D4FFH         LINE#         499
  C:D504H         LINE#         501
  C:D50AH         LINE#         502
  C:D50CH         LINE#         504
  C:D50CH         LINE#         506
  C:D511H         LINE#         507
  C:D516H         LINE#         514
  C:D51CH         LINE#         515
  C:D521H         LINE#         517
  C:D52AH         LINE#         519
  C:D52AH         LINE#         521
  -------         ENDPROC       LCDPOWER
  -------         PROC          _MAPPING1
  X:002DH         SYMBOL        fromValue
  X:002FH         SYMBOL        fromRange
  X:0032H         SYMBOL        toValue
  X:0035H         SYMBOL        toRange
  -------         DO            
  X:0038H         SYMBOL        a
  X:003AH         SYMBOL        b
  -------         ENDDO         
  C:B4C6H         LINE#         1732
  C:B4D2H         LINE#         1733
  C:B4D2H         LINE#         1740
  C:B4E4H         LINE#         1741
  C:B4F8H         LINE#         1742
  C:B50AH         LINE#         1744
  C:B511H         LINE#         1746
  C:B521H         LINE#         1747
  C:B524H         LINE#         1748
  C:B524H         LINE#         1749
  C:B52DH         LINE#         1750
  C:B533H         LINE#         1752
  C:B53AH         LINE#         1754
  C:B568H         LINE#         1755
  C:B568H         LINE#         1762
  C:B56AH         LINE#         1764
  -------         ENDPROC       _MAPPING1
  -------         ENDMOD        TW88

  -------         MODULE        UDFONT
  C:0000H         SYMBOL        _ICE_DUMMY_
  C:1866H         PUBLIC        OSD_Color_LookUp_Data_Table
  C:1876H         PUBLIC        RAMFONTDATA
  -------         ENDMOD        UDFONT

  -------         MODULE        HS_KEYREMO
  C:0000H         SYMBOL        _ICE_DUMMY_
  D:00E8H         PUBLIC        P4
  C:9DA0H         PUBLIC        JumpTable
  C:CEFFH         PUBLIC        _SetSourceMode
  B:0022H.1       PUBLIC        ParkFlag
  B:0080H.0       PUBLIC        P0_0
  B:0080H.1       PUBLIC        P0_1
BL51 BANKED LINKER/LOCATER V5.03                                                      01/25/2013  13:44:25  PAGE 144


  B:0080H.2       PUBLIC        P0_2
  B:0080H.3       PUBLIC        P0_3
  B:0022H.2       PUBLIC        AVFlag
  B:0080H.4       PUBLIC        P0_4
  X:0126H         PUBLIC        SelectBoxMode
  C:C17CH         PUBLIC        SetSelectMode
  D:00C6H         PUBLIC        ADCV
  C:D79BH         PUBLIC        SetRightSource
  C:D39DH         PUBLIC        SetRearSource
  X:0127H         PUBLIC        TimeStep
  C:D8F7H         PUBLIC        SetLeftSource
  C:B753H         PUBLIC        CheckTrigger
  C:9DBFH         PUBLIC        JumpTable_S
  X:0128H         PUBLIC        Attr_A
  X:0129H         PUBLIC        Attr_B
  C:DC3DH         PUBLIC        SetTriggerCSource
  X:012AH         PUBLIC        Attr_C
  X:012BH         PUBLIC        NowModeState
  X:012CH         PUBLIC        Attr_R
  C:842BH         PUBLIC        SelectBoxHandler
  C:CD64H         PUBLIC        SetJumpMode
  B:0022H.3       PUBLIC        VGAAudio
  C:9DBBH         PUBLIC        SEQTable
  X:012DH         PUBLIC        TriggerFlag
  X:012EH         PUBLIC        SelectBoxADC
  X:012FH         PUBLIC        TriggerMode
  X:0130H         PUBLIC        SEQIndex
  X:0131H         PUBLIC        SEQFlag
  D:00C5H         PUBLIC        ADCTL
  C:CE78H         PUBLIC        SetNowMode
  C:9DB3H         PUBLIC        RightTable
  C:D95AH         PUBLIC        SEQMode
  C:9DAEH         PUBLIC        RearTable
  C:9DB7H         PUBLIC        LeftTable
  C:9D82H         PUBLIC        ParkTable
  C:87C0H         PUBLIC        _TriggerHandler
  C:C2DEH         SYMBOL        Com0092
  C:C2DEH         SYMBOL        L?0147
  C:C2E2H         SYMBOL        L?0148
  C:C2E3H         SYMBOL        L?0149
  C:C2E4H         SYMBOL        L?0150
  C:C2FBH         SYMBOL        L?0151
  C:C303H         SYMBOL        L?0154
  C:C30AH         SYMBOL        L?0155
  C:C31CH         SYMBOL        L?0156
  C:C324H         SYMBOL        L?0157
  C:C327H         SYMBOL        L?0158
  C:C328H         SYMBOL        L?0159
  C:C32FH         SYMBOL        L?0162
  C:C32FH         SYMBOL        L?0163
  C:C336H         SYMBOL        L?0167
  C:C340H         SYMBOL        L?0168
  C:C34AH         SYMBOL        L?0169
  C:C34AH         SYMBOL        L?0170
  -------         PROC          COM0092
  -------         ENDPROC       COM0092
  -------         PROC          _SETSOURCEMODE
BL51 BANKED LINKER/LOCATER V5.03                                                      01/25/2013  13:44:25  PAGE 145


  D:0007H         SYMBOL        Index
  D:0005H         SYMBOL        attr0
  D:0003H         SYMBOL        attr1
  X:0019H         SYMBOL        attr2
  X:001AH         SYMBOL        attr3
  C:CEFFH         LINE#         146
  C:CEFFH         LINE#         147
  C:CEFFH         LINE#         149
  C:CF0EH         LINE#         150
  C:CF0EH         LINE#         151
  C:CF0EH         LINE#         152
  C:CF0EH         LINE#         153
  C:CF0EH         LINE#         154
  C:CF0EH         LINE#         155
  C:CF0EH         LINE#         156
  C:CF0EH         LINE#         157
  C:CF0EH         LINE#         158
  C:CF0EH         LINE#         159
  C:CF0EH         LINE#         160
  C:CF0EH         LINE#         161
  C:CF0EH         LINE#         162
  C:CF0EH         LINE#         163
  C:CF0EH         LINE#         164
  C:CF0EH         LINE#         165
  C:CF0EH         LINE#         166
  C:CF0EH         LINE#         167
  C:CF0EH         LINE#         168
  C:CF0EH         LINE#         169
  C:CF0EH         LINE#         170
  C:CF0EH         LINE#         171
  C:CF0EH         LINE#         172
  C:CF0EH         LINE#         173
  C:CF0EH         LINE#         174
  C:CF0EH         LINE#         175
  C:CF0EH         LINE#         176
  C:CF0EH         LINE#         177
  C:CF0EH         LINE#         178
  C:CF0EH         LINE#         180
  C:CF27H         LINE#         181
  C:CF29H         LINE#         185
  C:CF2BH         LINE#         202
  C:CF2BH         LINE#         203
  C:CF30H         LINE#         207
  C:CF30H         LINE#         208
  C:CF30H         LINE#         209
  C:CF35H         LINE#         210
  C:CF38H         LINE#         211
  C:CF40H         LINE#         212
  C:CF40H         LINE#         213
  C:CF40H         LINE#         214
  -------         ENDPROC       _SETSOURCEMODE
  -------         PROC          SETSELECTMODE
  -------         DO            
  X:0007H         SYMBOL        Maxsource
  -------         ENDDO         
  C:C17CH         LINE#         217
  C:C17CH         LINE#         218
BL51 BANKED LINKER/LOCATER V5.03                                                      01/25/2013  13:44:25  PAGE 146


  C:C17CH         LINE#         221
  C:C185H         LINE#         222
  C:C18AH         LINE#         224
  C:C18DH         LINE#         226
  C:C192H         LINE#         227
  C:C192H         LINE#         228
  C:C198H         LINE#         250
  C:C19BH         LINE#         251
  C:C19BH         LINE#         252
  C:C19EH         LINE#         253
  C:C19EH         LINE#         254
  C:C1A3H         LINE#         255
  C:C1A5H         LINE#         256
  C:C1A7H         LINE#         258
  C:C1A7H         LINE#         259
  C:C1AFH         LINE#         260
  C:C1B3H         LINE#         261
  C:C1B9H         LINE#         262
  C:C1B9H         LINE#         266
  C:C1BBH         LINE#         268
  C:C1BDH         LINE#         285
  C:C1BDH         LINE#         286
  C:C1C4H         LINE#         287
  C:C1C4H         LINE#         291
  C:C1C7H         LINE#         293
  C:C1C9H         LINE#         295
  C:C1CFH         LINE#         296
  C:C1CFH         LINE#         301
  C:C1D9H         LINE#         302
  C:C1E6H         LINE#         303
  C:C1EDH         LINE#         304
  -------         ENDPROC       SETSELECTMODE
  -------         PROC          SEQMODE
  C:D95AH         LINE#         426
  C:D95AH         LINE#         427
  C:D95AH         LINE#         429
  C:D967H         LINE#         438
  C:D970H         LINE#         440
  C:D974H         LINE#         443
  C:D979H         LINE#         447
  -------         ENDPROC       SEQMODE
  -------         PROC          SETJUMPMODE
  -------         DO            
  X:0007H         SYMBOL        val
  -------         ENDDO         
  C:CD64H         LINE#         448
  C:CD64H         LINE#         449
  C:CD64H         LINE#         452
  C:CD6CH         LINE#         453
  C:CD6CH         LINE#         455
  C:CD77H         LINE#         457
  C:CD7CH         LINE#         458
  C:CD82H         LINE#         460
  C:CD89H         LINE#         461
  C:CD91H         LINE#         465
  C:CD93H         LINE#         467
  C:CD93H         LINE#         469
BL51 BANKED LINKER/LOCATER V5.03                                                      01/25/2013  13:44:25  PAGE 147


  C:CD94H         LINE#         471
  C:CD9AH         LINE#         472
  C:CDA4H         LINE#         477
  C:CDA4H         LINE#         478
  -------         ENDPROC       SETJUMPMODE
  -------         PROC          SETNOWMODE
  -------         DO            
  X:0015H         SYMBOL        val
  -------         ENDDO         
  C:CE78H         LINE#         562
  C:CE78H         LINE#         563
  C:CE78H         LINE#         566
  C:CE7EH         LINE#         567
  C:CE7EH         LINE#         569
  C:CE84H         LINE#         570
  C:CE8EH         LINE#         574
  C:CE93H         LINE#         575
  C:CE94H         LINE#         577
  C:CE94H         LINE#         578
  C:CEA0H         LINE#         580
  C:CEA5H         LINE#         581
  C:CEABH         LINE#         583
  C:CEB2H         LINE#         584
  C:CEBBH         LINE#         588
  C:CEBBH         LINE#         590
  -------         ENDPROC       SETNOWMODE
  C:D3D0H         SYMBOL        L?0171
  -------         PROC          SETREARSOURCE
  -------         DO            
  D:0007H         SYMBOL        rev
  -------         ENDDO         
  C:D39DH         LINE#         591
  C:D39DH         LINE#         592
  C:D39DH         LINE#         595
  C:D39FH         LINE#         596
  C:D3BCH         LINE#         600
  C:D3CCH         LINE#         601
  C:D3CFH         LINE#         603
  -------         ENDPROC       SETREARSOURCE
  -------         PROC          SETLEFTSOURCE
  -------         DO            
  D:0007H         SYMBOL        rev
  -------         ENDDO         
  C:D8F7H         LINE#         605
  C:D8F7H         LINE#         606
  C:D8F7H         LINE#         613
  C:D8FEH         LINE#         615
  -------         ENDPROC       SETLEFTSOURCE
  -------         PROC          SETRIGHTSOURCE
  -------         DO            
  D:0007H         SYMBOL        rev
  -------         ENDDO         
  C:D79BH         LINE#         621
  C:D79BH         LINE#         622
  C:D79BH         LINE#         628
  C:D7A2H         LINE#         630
  -------         ENDPROC       SETRIGHTSOURCE
BL51 BANKED LINKER/LOCATER V5.03                                                      01/25/2013  13:44:25  PAGE 148


  -------         PROC          SETTRIGGERCSOURCE
  -------         DO            
  X:000FH         SYMBOL        rev
  -------         ENDDO         
  C:DC3DH         LINE#         637
  C:DC3DH         LINE#         638
  C:DC3DH         LINE#         640
  C:DC49H         LINE#         644
  -------         ENDPROC       SETTRIGGERCSOURCE
  C:B7D6H         SYMBOL        L?0160
  C:B7DEH         SYMBOL        L?0165
  C:B7EAH         SYMBOL        L?0166
  -------         PROC          CHECKTRIGGER
  C:B753H         LINE#         648
  C:B753H         LINE#         649
  C:B753H         LINE#         650
  C:B758H         LINE#         652
  C:B75AH         LINE#         653
  C:B75DH         LINE#         654
  C:B75DH         LINE#         655
  C:B768H         LINE#         656
  C:B76BH         LINE#         657
  C:B76EH         LINE#         658
  C:B775H         LINE#         659
  C:B775H         LINE#         661
  C:B777H         LINE#         662
  C:B77AH         LINE#         663
  C:B77AH         LINE#         664
  C:B77DH         LINE#         665
  C:B780H         LINE#         666
  C:B787H         LINE#         667
  C:B787H         LINE#         669
  C:B789H         LINE#         670
  C:B78CH         LINE#         671
  C:B78CH         LINE#         672
  C:B78FH         LINE#         673
  C:B792H         LINE#         674
  C:B799H         LINE#         675
  C:B799H         LINE#         677
  C:B79BH         LINE#         678
  C:B79EH         LINE#         679
  C:B79EH         LINE#         680
  C:B7A1H         LINE#         681
  C:B7A4H         LINE#         682
  C:B7A6H         LINE#         683
  C:B7A8H         LINE#         685
  C:B7AAH         LINE#         705
  C:B7ACH         LINE#         706
  C:B7AFH         LINE#         707
  C:B7AFH         LINE#         708
  C:B7B6H         LINE#         709
  C:B7B9H         LINE#         710
  C:B7C0H         LINE#         711
  C:B7C0H         LINE#         715
  C:B7C7H         LINE#         716
  C:B7D0H         LINE#         717
  C:B7D5H         LINE#         718
BL51 BANKED LINKER/LOCATER V5.03                                                      01/25/2013  13:44:25  PAGE 149


  -------         ENDPROC       CHECKTRIGGER
  C:8967H         SYMBOL        L?0164
  -------         PROC          _TRIGGERHANDLER
  X:0006H         SYMBOL        T_Flag
  -------         DO            
  X:0007H         SYMBOL        i
  X:0008H         SYMBOL        j
  D:0006H         SYMBOL        ReverseMask
  X:0009H         SYMBOL        LeftMask
  X:000AH         SYMBOL        RightMask
  X:000BH         SYMBOL        CamCMask
  X:000CH         SYMBOL        CamDMask
  X:000DH         SYMBOL        VGAMask
  X:000EH         SYMBOL        delaytrigger
  -------         ENDDO         
  C:87C0H         LINE#         721
  C:87C5H         LINE#         722
  C:87C5H         LINE#         729
  C:87C7H         LINE#         730
  C:87CDH         LINE#         731
  C:87D1H         LINE#         732
  C:87D5H         LINE#         733
  C:87D9H         LINE#         734
  C:87DDH         LINE#         746
  C:87E4H         LINE#         747
  C:87E4H         LINE#         748
  C:87EFH         LINE#         749
  C:87EFH         LINE#         750
  C:87F9H         LINE#         751
  C:87FFH         LINE#         752
  C:8802H         LINE#         753
  C:8807H         LINE#         754
  C:8807H         LINE#         755
  C:880AH         LINE#         757
  C:880AH         LINE#         759
  C:881BH         LINE#         760
  C:881BH         LINE#         761
  C:8826H         LINE#         762
  C:8826H         LINE#         763
  C:882DH         LINE#         764
  C:882DH         LINE#         765
  C:8833H         LINE#         766
  C:8836H         LINE#         767
  C:883BH         LINE#         768
  C:883BH         LINE#         769
  C:883EH         LINE#         771
  C:883EH         LINE#         772
  C:884FH         LINE#         773
  C:884FH         LINE#         774
  C:885AH         LINE#         775
  C:885AH         LINE#         776
  C:8861H         LINE#         777
  C:8861H         LINE#         778
  C:8867H         LINE#         779
  C:886AH         LINE#         780
  C:886FH         LINE#         781
  C:886FH         LINE#         782
BL51 BANKED LINKER/LOCATER V5.03                                                      01/25/2013  13:44:25  PAGE 150


  C:8871H         LINE#         784
  C:8871H         LINE#         787
  C:8882H         LINE#         788
  C:8882H         LINE#         789
  C:888DH         LINE#         790
  C:888DH         LINE#         791
  C:8897H         LINE#         792
  C:889AH         LINE#         793
  C:889FH         LINE#         794
  C:88A5H         LINE#         795
  C:88A8H         LINE#         797
  C:88AEH         LINE#         798
  C:88B3H         LINE#         799
  C:88B3H         LINE#         801
  C:88B3H         LINE#         833
  C:88BEH         LINE#         834
  C:88BEH         LINE#         835
  C:88CCH         LINE#         836
  C:88D2H         LINE#         837
  C:88D2H         LINE#         838
  C:88E4H         LINE#         839
  C:88E4H         LINE#         840
  C:88E4H         LINE#         841
  C:88E6H         LINE#         842
  C:88E8H         LINE#         844
  C:88E8H         LINE#         845
  C:88EAH         LINE#         846
  C:88ECH         LINE#         848
  C:88ECH         LINE#         849
  C:88EEH         LINE#         850
  C:88F0H         LINE#         852
  C:88F0H         LINE#         853
  C:88FCH         LINE#         854
  C:88FEH         LINE#         861
  C:88FEH         LINE#         862
  C:88FEH         LINE#         863
  C:88FEH         LINE#         864
  C:88FEH         LINE#         865
  C:8903H         LINE#         866
  C:8903H         LINE#         868
  C:8903H         LINE#         870
  C:8915H         LINE#         871
  C:8915H         LINE#         872
  C:891AH         LINE#         873
  C:891AH         LINE#         874
  C:891DH         LINE#         875
  C:8923H         LINE#         877
  C:892AH         LINE#         878
  C:8936H         LINE#         879
  C:893EH         LINE#         880
  C:893EH         LINE#         881
  C:8944H         LINE#         882
  C:8947H         LINE#         883
  C:894AH         LINE#         888
  C:894DH         LINE#         889
  C:894DH         LINE#         891
  C:8950H         LINE#         892
BL51 BANKED LINKER/LOCATER V5.03                                                      01/25/2013  13:44:25  PAGE 151


  C:8950H         LINE#         893
  C:8952H         LINE#         895
  C:8958H         LINE#         899
  C:8958H         LINE#         900
  C:8963H         LINE#         901
  C:8966H         LINE#         902
  C:8966H         LINE#         903
  C:8966H         LINE#         907
  -------         ENDPROC       _TRIGGERHANDLER
  C:85D3H         SYMBOL        L?0152
  C:85DEH         SYMBOL        L?0153
  C:85EFH         SYMBOL        L?0161
  -------         PROC          SELECTBOXHANDLER
  -------         DO            
  X:0141H         SYMBOL        val
  -------         ENDDO         
  C:842BH         LINE#         1004
  C:842BH         LINE#         1005
  C:842BH         LINE#         1010
  C:842EH         LINE#         1011
  C:8436H         LINE#         1012
  C:843DH         LINE#         1013
  C:8443H         LINE#         1018
  C:8448H         LINE#         1021
  C:844DH         LINE#         1022
  C:844DH         LINE#         1023
  C:8458H         LINE#         1024
  C:8458H         LINE#         1025
  C:845FH         LINE#         1026
  C:8465H         LINE#         1028
  C:846AH         LINE#         1029
  C:8471H         LINE#         1030
  C:8472H         LINE#         1032
  C:8472H         LINE#         1035
  C:847EH         LINE#         1036
  C:847EH         LINE#         1037
  C:8489H         LINE#         1038
  C:8489H         LINE#         1039
  C:8490H         LINE#         1040
  C:8496H         LINE#         1042
  C:8499H         LINE#         1043
  C:849EH         LINE#         1044
  C:849EH         LINE#         1045
  C:84A1H         LINE#         1047
  C:84A1H         LINE#         1050
  C:84ADH         LINE#         1051
  C:84ADH         LINE#         1052
  C:84B8H         LINE#         1053
  C:84B8H         LINE#         1054
  C:84BCH         LINE#         1055
  C:84BCH         LINE#         1056
  C:84C2H         LINE#         1058
  C:84C5H         LINE#         1059
  C:84CAH         LINE#         1060
  C:84CAH         LINE#         1061
  C:84CCH         LINE#         1063
  C:84CCH         LINE#         1066
BL51 BANKED LINKER/LOCATER V5.03                                                      01/25/2013  13:44:25  PAGE 152


  C:84D8H         LINE#         1067
  C:84D8H         LINE#         1068
  C:84E3H         LINE#         1069
  C:84E3H         LINE#         1070
  C:84E7H         LINE#         1071
  C:84E7H         LINE#         1072
  C:84EDH         LINE#         1074
  C:84F0H         LINE#         1075
  C:84F5H         LINE#         1076
  C:84F5H         LINE#         1077
  C:84F7H         LINE#         1079
  C:84F7H         LINE#         1082
  C:8503H         LINE#         1083
  C:8503H         LINE#         1084
  C:850EH         LINE#         1085
  C:850EH         LINE#         1086
  C:8515H         LINE#         1087
  C:8518H         LINE#         1088
  C:851DH         LINE#         1090
  C:8523H         LINE#         1091
  C:8526H         LINE#         1092
  C:852CH         LINE#         1093
  C:8531H         LINE#         1094
  C:8531H         LINE#         1096
  C:8531H         LINE#         1098
  C:853DH         LINE#         1099
  C:853DH         LINE#         1100
  C:8548H         LINE#         1101
  C:8548H         LINE#         1102
  C:854FH         LINE#         1103
  C:8552H         LINE#         1104
  C:8558H         LINE#         1106
  C:8564H         LINE#         1107
  C:8569H         LINE#         1108
  C:856FH         LINE#         1110
  C:8576H         LINE#         1112
  C:857FH         LINE#         1116
  C:857FH         LINE#         1118
  C:857FH         LINE#         1122
  C:8588H         LINE#         1123
  C:8588H         LINE#         1124
  C:858EH         LINE#         1125
  C:858EH         LINE#         1126
  C:859CH         LINE#         1173
  C:85A4H         LINE#         1174
  C:85A4H         LINE#         1176
  C:85AAH         LINE#         1177
  C:85AAH         LINE#         1178
  C:85B5H         LINE#         1179
  C:85B8H         LINE#         1180
  C:85BBH         LINE#         1181
  C:85BEH         LINE#         1182
  C:85C0H         LINE#         1184
  C:85C6H         LINE#         1185
  C:85C6H         LINE#         1186
  C:85CDH         LINE#         1187
  C:85D2H         LINE#         1189
BL51 BANKED LINKER/LOCATER V5.03                                                      01/25/2013  13:44:25  PAGE 153


  C:85D2H         LINE#         1190
  C:85D2H         LINE#         1192
  -------         ENDPROC       SELECTBOXHANDLER
  -------         ENDMOD        HS_KEYREMO

  -------         MODULE        HS_DISPLAYOSD
  C:0000H         SYMBOL        _ICE_DUMMY_
  C:DCE6H         PUBLIC        ClearGAUGEINFO
  C:7971H         PUBLIC        GaugeString1
  C:7975H         PUBLIC        GaugeString2
  C:7979H         PUBLIC        GaugeString3
  C:797DH         PUBLIC        GaugeString4
  C:7981H         PUBLIC        GaugeString5
  C:799AH         PUBLIC        GaugeString6
  C:79B7H         PUBLIC        GaugeString7
  C:9217H         PUBLIC        _DisplayNumber
  C:A3BFH         PUBLIC        DisplayGaugeOSD
  C:79D4H         PUBLIC        Init_Osd_DisplayGAUGEWindow
  C:79E7H         SYMBOL        _?ix1000
  C:79EDH         SYMBOL        _?ix1001
  C:79F3H         SYMBOL        _?ix1002
  C:79F9H         SYMBOL        _?ix1003
  C:7A2BH         SYMBOL        _?ix1004
  C:7A3DH         PUBLIC        _DisplayInformation
  C:8056H         PUBLIC        DisplayDVRStatus
  C:BD01H         PUBLIC        DisplayFWVersion
  B:0023H.4       PUBLIC        Init_DisplayInput
  C:795AH         PUBLIC        GaugeString
  C:B88FH         SYMBOL        Com0061
  C:B88FH         SYMBOL        L?0098
  C:B892H         SYMBOL        L?0099
  C:B8A6H         SYMBOL        L?0100
  C:B8AFH         SYMBOL        L?0101
  C:B8B8H         SYMBOL        L?0106
  C:B8BCH         SYMBOL        L?0107
  C:B8BEH         SYMBOL        L?0108
  C:B8C5H         SYMBOL        L?0111
  C:B8C8H         SYMBOL        L?0112
  C:B8D4H         SYMBOL        L?0113
  C:B8E0H         SYMBOL        L?0114
  C:B8E2H         SYMBOL        L?0115
  C:B8E9H         SYMBOL        L?0117
  C:B8EDH         SYMBOL        L?0118
  C:B8EFH         SYMBOL        L?0119
  C:B8F6H         SYMBOL        L?0122
  C:B8FAH         SYMBOL        L?0123
  C:B901H         SYMBOL        L?0127
  C:B908H         SYMBOL        L?0128
  C:B908H         SYMBOL        L?0129
  C:B90FH         SYMBOL        L?0130
  C:B90FH         SYMBOL        L?0131
  C:B917H         SYMBOL        L?0133
  C:B917H         SYMBOL        L?0134
  C:B91EH         SYMBOL        L?0135
  -------         PROC          COM0061
  -------         ENDPROC       COM0061
  -------         PROC          DISPLAYGAUGEOSD
BL51 BANKED LINKER/LOCATER V5.03                                                      01/25/2013  13:44:25  PAGE 154


  -------         DO            
  X:000FH         SYMBOL        i
  -------         ENDDO         
  C:A3BFH         LINE#         81
  C:A3BFH         LINE#         82
  C:A3BFH         LINE#         85
  C:A3C2H         LINE#         86
  C:A3C8H         LINE#         87
  C:A3D0H         LINE#         88
  C:A3D9H         LINE#         91
  C:A3FCH         LINE#         93
  C:A406H         LINE#         94
  C:A416H         LINE#         95
  C:A426H         LINE#         97
  C:A431H         LINE#         98
  C:A43BH         LINE#         99
  C:A449H         LINE#         101
  C:A451H         LINE#         102
  C:A457H         LINE#         104
  C:A468H         LINE#         106
  C:A473H         LINE#         107
  C:A47DH         LINE#         108
  C:A48DH         LINE#         111
  C:A492H         LINE#         113
  C:A499H         LINE#         114
  C:A49EH         LINE#         115
  -------         ENDPROC       DISPLAYGAUGEOSD
  -------         PROC          CLEARGAUGEINFO
  C:DCE6H         LINE#         120
  C:DCE6H         LINE#         121
  C:DCE6H         LINE#         122
  C:DCEDH         LINE#         123
  C:DCF4H         LINE#         124
  -------         ENDPROC       CLEARGAUGEINFO
  C:9347H         SYMBOL        L?0116
  -------         PROC          _DISPLAYNUMBER
  X:0007H         SYMBOL        addr
  X:0008H         SYMBOL        val
  X:000AH         SYMBOL        type
  -------         DO            
  X:000BH         SYMBOL        Bar_str
  X:0011H         SYMBOL        Bar_str_AC
  X:0017H         SYMBOL        Bar_str_Battery
  X:001DH         SYMBOL        Num_str
  -------         ENDDO         
  C:9217H         LINE#         130
  C:9225H         LINE#         131
  C:9225H         LINE#         139
  C:9230H         LINE#         140
  C:923BH         LINE#         141
  C:924AH         LINE#         142
  C:9257H         LINE#         147
  C:9272H         LINE#         148
  C:9272H         LINE#         150
  C:9272H         LINE#         154
  C:9278H         LINE#         155
  C:927EH         LINE#         156
BL51 BANKED LINKER/LOCATER V5.03                                                      01/25/2013  13:44:25  PAGE 155


  C:928DH         LINE#         157
  C:9295H         LINE#         158
  C:929BH         LINE#         159
  C:92ADH         LINE#         161
  C:92ADH         LINE#         162
  C:92B6H         LINE#         165
  C:92B9H         LINE#         167
  C:92B9H         LINE#         169
  C:92C2H         LINE#         170
  C:92CBH         LINE#         171
  C:92D1H         LINE#         172
  C:92D8H         LINE#         174
  C:92D8H         LINE#         175
  C:92E1H         LINE#         178
  C:92E4H         LINE#         180
  C:92E4H         LINE#         184
  C:92EDH         LINE#         185
  C:92F6H         LINE#         186
  C:92FCH         LINE#         187
  C:9304H         LINE#         188
  C:930AH         LINE#         191
  C:9314H         LINE#         192
  C:9322H         LINE#         194
  C:9324H         LINE#         197
  C:9324H         LINE#         200
  C:932DH         LINE#         201
  C:9334H         LINE#         205
  C:9346H         LINE#         207
  C:9346H         LINE#         212
  C:9346H         LINE#         213
  -------         ENDPROC       _DISPLAYNUMBER
  C:7BDDH         SYMBOL        L?0102
  C:7BEAH         SYMBOL        L?0103
  C:7BF7H         SYMBOL        L?0104
  C:7C04H         SYMBOL        L?0105
  C:7C11H         SYMBOL        L?0109
  C:7C1EH         SYMBOL        L?0110
  C:7C2BH         SYMBOL        L?0120
  C:7C38H         SYMBOL        L?0124
  C:7C43H         SYMBOL        L?0126
  -------         PROC          _DISPLAYINFORMATION
  X:000CH         SYMBOL        info
  -------         DO            
  C:79FBH         SYMBOL        Str_LOCK_Mirror
  C:7A13H         SYMBOL        Str_ACTIVE_Mirror
  -------         ENDDO         
  C:7A3DH         LINE#         217
  C:7A42H         LINE#         218
  C:7A42H         LINE#         223
  C:7A48H         LINE#         225
  C:7A4BH         LINE#         226
  C:7A53H         LINE#         230
  C:7A97H         LINE#         231
  C:7A97H         LINE#         232
  C:7A97H         LINE#         245
  C:7A97H         LINE#         246
  C:7A9EH         LINE#         248
BL51 BANKED LINKER/LOCATER V5.03                                                      01/25/2013  13:44:25  PAGE 156


  C:7AA0H         LINE#         250
  C:7AA0H         LINE#         263
  C:7AA0H         LINE#         264
  C:7AACH         LINE#         266
  C:7AAFH         LINE#         268
  C:7AAFH         LINE#         269
  C:7AAFH         LINE#         270
  C:7AB6H         LINE#         271
  C:7AB8H         LINE#         273
  C:7AB8H         LINE#         274
  C:7AB8H         LINE#         275
  C:7ABFH         LINE#         276
  C:7AC1H         LINE#         278
  C:7AC1H         LINE#         279
  C:7AC1H         LINE#         280
  C:7ACDH         LINE#         281
  C:7ACFH         LINE#         283
  C:7ACFH         LINE#         284
  C:7ACFH         LINE#         285
  C:7ADBH         LINE#         286
  C:7ADEH         LINE#         288
  C:7ADEH         LINE#         289
  C:7ADEH         LINE#         290
  C:7AEDH         LINE#         291
  C:7AF0H         LINE#         293
  C:7AF0H         LINE#         294
  C:7AF0H         LINE#         295
  C:7AFFH         LINE#         296
  C:7B02H         LINE#         298
  C:7B02H         LINE#         299
  C:7B02H         LINE#         300
  C:7B11H         LINE#         301
  C:7B14H         LINE#         303
  C:7B14H         LINE#         304
  C:7B14H         LINE#         305
  C:7B23H         LINE#         306
  C:7B26H         LINE#         308
  C:7B26H         LINE#         309
  C:7B26H         LINE#         310
  C:7B35H         LINE#         311
  C:7B38H         LINE#         313
  C:7B38H         LINE#         314
  C:7B38H         LINE#         315
  C:7B47H         LINE#         316
  C:7B4AH         LINE#         318
  C:7B4AH         LINE#         319
  C:7B4AH         LINE#         320
  C:7B59H         LINE#         321
  C:7B5CH         LINE#         323
  C:7B5CH         LINE#         324
  C:7B5CH         LINE#         325
  C:7B6BH         LINE#         326
  C:7B6EH         LINE#         328
  C:7B6EH         LINE#         329
  C:7B6EH         LINE#         330
  C:7B7DH         LINE#         331
  C:7B7FH         LINE#         333
BL51 BANKED LINKER/LOCATER V5.03                                                      01/25/2013  13:44:25  PAGE 157


  C:7B7FH         LINE#         334
  C:7B7FH         LINE#         335
  C:7B8EH         LINE#         336
  C:7B90H         LINE#         338
  C:7B90H         LINE#         339
  C:7B93H         LINE#         340
  C:7B9CH         LINE#         341
  C:7B9EH         LINE#         343
  C:7B9EH         LINE#         344
  C:7BA1H         LINE#         345
  C:7BACH         LINE#         346
  C:7BAEH         LINE#         348
  C:7BAEH         LINE#         349
  C:7BB8H         LINE#         350
  C:7BCBH         LINE#         351
  C:7BCBH         LINE#         352
  C:7BCBH         LINE#         354
  C:7BD2H         LINE#         355
  C:7BD7H         LINE#         356
  C:7BDDH         LINE#         357
  -------         ENDPROC       _DISPLAYINFORMATION
  -------         PROC          DISPLAYFWVERSION
  -------         DO            
  D:0007H         SYMBOL        i
  X:002CH         SYMBOL        Str_DVRVersion
  -------         ENDDO         
  C:BD01H         LINE#         359
  C:BD01H         LINE#         360
  C:BD01H         LINE#         363
  C:BD0EH         LINE#         366
  C:BD1AH         LINE#         367
  C:BD1AH         LINE#         368
  C:BD32H         LINE#         369
  C:BD35H         LINE#         371
  C:BD38H         LINE#         372
  C:BD3EH         LINE#         373
  C:BD46H         LINE#         374
  C:BD50H         LINE#         375
  C:BD5DH         LINE#         376
  C:BD70H         LINE#         387
  C:BD75H         LINE#         388
  C:BD7CH         LINE#         389
  C:BD81H         LINE#         390
  -------         ENDPROC       DISPLAYFWVERSION
  C:821FH         SYMBOL        L?0121
  C:8229H         SYMBOL        L?0125
  C:8233H         SYMBOL        L?0132
  C:823BH         SYMBOL        L?0136
  -------         PROC          DISPLAYDVRSTATUS
  -------         DO            
  X:0006H         SYMBOL        RecordStatus
  -------         ENDDO         
  C:8056H         LINE#         395
  C:8056H         LINE#         396
  C:8056H         LINE#         413
  C:805BH         LINE#         415
  C:805EH         LINE#         416
BL51 BANKED LINKER/LOCATER V5.03                                                      01/25/2013  13:44:25  PAGE 158


  C:805EH         LINE#         417
  C:8067H         LINE#         418
  C:807FH         LINE#         419
  C:8082H         LINE#         420
  C:808BH         LINE#         421
  C:8095H         LINE#         422
  C:809CH         LINE#         423
  C:809EH         LINE#         424
  C:80ACH         LINE#         425
  C:80ACH         LINE#         427
  C:80B7H         LINE#         428
  C:80C2H         LINE#         429
  C:80CDH         LINE#         430
  C:80D5H         LINE#         431
  C:80DDH         LINE#         432
  C:80E7H         LINE#         433
  C:80EFH         LINE#         434
  C:80F9H         LINE#         435
  C:8101H         LINE#         436
  C:8109H         LINE#         437
  C:8111H         LINE#         439
  C:8118H         LINE#         440
  C:812AH         LINE#         442
  C:8133H         LINE#         449
  C:813AH         LINE#         450
  C:813AH         LINE#         452
  C:8141H         LINE#         453
  C:8141H         LINE#         455
  C:8146H         LINE#         456
  C:8146H         LINE#         457
  C:814AH         LINE#         460
  C:814CH         LINE#         462
  C:8156H         LINE#         465
  C:8156H         LINE#         466
  C:8158H         LINE#         468
  C:8158H         LINE#         469
  C:8164H         LINE#         472
  C:8164H         LINE#         527
  C:8166H         LINE#         529
  C:8166H         LINE#         530
  C:8176H         LINE#         531
  C:817CH         LINE#         534
  C:817CH         LINE#         538
  C:8185H         LINE#         539
  C:818BH         LINE#         541
  C:8199H         LINE#         550
  C:81A2H         LINE#         551
  C:81A8H         LINE#         553
  C:81B6H         LINE#         555
  C:81BDH         LINE#         556
  C:81BDH         LINE#         557
  C:81C2H         LINE#         558
  C:81C8H         LINE#         560
  C:81CCH         LINE#         561
  C:81CEH         LINE#         563
  C:81DEH         LINE#         565
  C:81E4H         LINE#         566
BL51 BANKED LINKER/LOCATER V5.03                                                      01/25/2013  13:44:25  PAGE 159


  C:81F6H         LINE#         568
  C:81FFH         LINE#         571
  C:8209H         LINE#         572
  C:820DH         LINE#         574
  C:8214H         LINE#         576
  C:8219H         LINE#         577
  C:821FH         LINE#         579
  -------         ENDPROC       DISPLAYDVRSTATUS
  -------         ENDMOD        HS_DISPLAYOSD

  -------         MODULE        AUDIO
  C:0000H         SYMBOL        _ICE_DUMMY_
  D:00E8H         PUBLIC        P4
  C:DDD6H         PUBLIC        AudioMute
  B:0090H.7       PUBLIC        P1_7
  X:013FH         PUBLIC        AudioVol
  X:0140H         PUBLIC        PCAudioVol
  C:9A77H         PUBLIC        _ChangeVol
  -------         PROC          AUDIOMUTE
  B:0023H.1       SYMBOL        mute
  C:DDD6H         LINE#         291
  C:DDD6H         LINE#         292
  C:DDD6H         LINE#         310
  C:DDD9H         LINE#         311
  C:DDDCH         LINE#         313
  C:DDDEH         LINE#         322
  -------         ENDPROC       AUDIOMUTE
  C:9B7AH         SYMBOL        L?0027
  C:9B8AH         SYMBOL        L?0028
  -------         PROC          _CHANGEVOL
  D:0007H         SYMBOL        amount
  -------         DO            
  D:0006H         SYMBOL        chg
  X:001CH         SYMBOL        VCOM
  X:001DH         SYMBOL        AudioTemp
  X:001EH         SYMBOL        AudioTemp2
  X:001FH         SYMBOL        ALC106Volume
  -------         ENDDO         
  C:9A77H         LINE#         324
  C:9A77H         LINE#         325
  C:9A77H         LINE#         327
  C:9A79H         LINE#         331
  C:9A7CH         LINE#         332
  C:9A7CH         LINE#         333
  C:9A7FH         LINE#         334
  C:9A81H         LINE#         336
  C:9A81H         LINE#         337
  C:9A89H         LINE#         338
  C:9A89H         LINE#         340
  C:9A95H         LINE#         341
  C:9A99H         LINE#         343
  C:9A9EH         LINE#         345
  C:9AA6H         LINE#         346
  C:9AA6H         LINE#         347
  C:9AC8H         LINE#         348
  C:9ACAH         LINE#         349
  C:9ACCH         LINE#         351
BL51 BANKED LINKER/LOCATER V5.03                                                      01/25/2013  13:44:25  PAGE 160


  C:9ACCH         LINE#         352
  C:9AE3H         LINE#         353
  C:9AE5H         LINE#         354
  C:9AE5H         LINE#         356
  C:9AE8H         LINE#         357
  C:9AE8H         LINE#         358
  C:9AEEH         LINE#         362
  C:9AFFH         LINE#         363
  C:9B07H         LINE#         365
  C:9B1AH         LINE#         367
  C:9B1FH         LINE#         369
  C:9B2BH         LINE#         371
  C:9B30H         LINE#         378
  C:9B3AH         LINE#         379
  C:9B3AH         LINE#         395
  C:9B44H         LINE#         397
  C:9B4AH         LINE#         398
  C:9B4EH         LINE#         400
  C:9B53H         LINE#         402
  C:9B5BH         LINE#         403
  C:9B5BH         LINE#         404
  C:9B5FH         LINE#         405
  C:9B62H         LINE#         406
  C:9B64H         LINE#         408
  C:9B64H         LINE#         409
  C:9B68H         LINE#         410
  C:9B6BH         LINE#         411
  C:9B6BH         LINE#         415
  C:9B6EH         LINE#         416
  C:9B74H         LINE#         418
  C:9B79H         LINE#         420
  -------         ENDPROC       _CHANGEVOL
  -------         ENDMOD        AUDIO

  -------         MODULE        DEBUG
  C:0000H         SYMBOL        _ICE_DUMMY_
  D:00E8H         PUBLIC        P4
  -------         ENDMOD        DEBUG

  -------         MODULE        HS_DVRPROTOCOL
  C:0000H         SYMBOL        _ICE_DUMMY_
  X:0071H         PUBLIC        PresetMode
  B:0021H.0       PUBLIC        FormatStart
  X:0072H         PUBLIC        second
  X:0073H         PUBLIC        UpdateOK
  B:0021H.1       PUBLIC        SpeedDomeMode
  D:00E8H         PUBLIC        P4
  X:0074H         PUBLIC        DVR_Resolution
  X:0075H         PUBLIC        DVR_timebeginesmonth
  C:6DBDH         PUBLIC        _Hs_DvrTxCmdPaser
  X:0076H         PUBLIC        Information
  X:0084H         PUBLIC        DVR_timebeginesweek
  X:0085H         PUBLIC        minute
  B:0080H.6       PUBLIC        P0_6
  X:0086H         PUBLIC        DVR_RecordLength
  B:00B0H.6       PUBLIC        P3_6
  B:0021H.2       PUBLIC        DoorState
BL51 BANKED LINKER/LOCATER V5.03                                                      01/25/2013  13:44:25  PAGE 161


  X:0087H         PUBLIC        CommandBuffer
  X:0089H         PUBLIC        month
  X:008AH         PUBLIC        InformationLen
  C:7C50H         PUBLIC        _CAM_TxCommand_toRS485
  B:0021H.3       PUBLIC        GetDVRStatusflag
  X:008BH         PUBLIC        DVR_daylightsaving
  X:008CH         PUBLIC        DVR_FPS
  X:008DH         PUBLIC        DVR_RecordMode
  X:008EH         PUBLIC        DVR_RecordStatus
  X:008FH         PUBLIC        DVR_Quality
  X:0090H         PUBLIC        day
  X:0091H         PUBLIC        hour
  B:0021H.4       PUBLIC        DVR_Ready
  X:0092H         PUBLIC        DVR_standardtimebeginesWeek
  X:0093H         PUBLIC        DVR_standardtimebeginesTime
  C:C269H         PUBLIC        Send_PelcoD_Command
  X:0094H         PUBLIC        DVR_PostAlarmLength
  X:0095H         PUBLIC        DVR_PreAlarmLength
  D:008DH         PUBLIC        TH1
  X:0096H         PUBLIC        DVR_sandardtimebeginesMonth
  X:0097H         PUBLIC        SerialNumber
  X:0098H         PUBLIC        DVR_System
  C:BF0FH         PUBLIC        Send_PelcoP_Command
  X:0099H         PUBLIC        DVRVersion
  X:00AAH         PUBLIC        TriggerStatus
  X:00ABH         PUBLIC        PresetNumber
  X:00ACH         PUBLIC        year1
  X:00ADH         PUBLIC        year2
  X:00AEH         PUBLIC        DVR_SDCardAvailable
  C:C102H         PUBLIC        Hs_Protocol_Init
  D:00BAH         PUBLIC        S2BRT
  X:00AFH         PUBLIC        GPSState
  X:00B0H         PUBLIC        DVR_Busy
  X:00B1H         PUBLIC        DVR_timebeginesTime
  C:516FH         PUBLIC        DvrReceivePaser
  X:00B2H         PUBLIC        FormatStatus
  C:B927H         PUBLIC        DVRCommandReSend
  C:BBEEH         PUBLIC        _Hs_Send_DVR_Command
  X:00B3H         PUBLIC        DVRVersionLen
  X:00B4H         PUBLIC        gb_P_Com
  X:00B6H         PUBLIC        DVR_OverWrite
  X:00B7H         PUBLIC        gb_PTZ_Speed
  X:00B8H         PUBLIC        DVR_TimeZone
  C:7E5CH         SYMBOL        Com00FE
  C:7E5CH         SYMBOL        L?0255
  C:7E5CH         SYMBOL        L?0256
  C:7E94H         SYMBOL        L?0257
  C:7E9FH         SYMBOL        L?0258
  C:7E9FH         SYMBOL        L?0259
  C:7EBBH         SYMBOL        L?0260
  C:7F07H         SYMBOL        L?0261
  C:7F10H         SYMBOL        L?0262
  C:7F10H         SYMBOL        L?0263
  C:7F1BH         SYMBOL        L?0264
  C:7F23H         SYMBOL        L?0265
  C:7F26H         SYMBOL        L?0266
  C:7F27H         SYMBOL        L?0267
BL51 BANKED LINKER/LOCATER V5.03                                                      01/25/2013  13:44:25  PAGE 162


  C:7F31H         SYMBOL        L?0269
  C:7F39H         SYMBOL        L?0270
  C:7F39H         SYMBOL        L?0271
  C:7F40H         SYMBOL        L?0273
  C:7F48H         SYMBOL        L?0274
  C:7F55H         SYMBOL        L?0275
  C:7F5EH         SYMBOL        L?0276
  C:7F66H         SYMBOL        L?0277
  C:7F66H         SYMBOL        L?0278
  C:7F6FH         SYMBOL        L?0279
  C:7F6FH         SYMBOL        L?0280
  C:7F72H         SYMBOL        L?0281
  C:7F7AH         SYMBOL        L?0282
  C:7F82H         SYMBOL        L?0283
  C:7F86H         SYMBOL        L?0284
  C:7F8DH         SYMBOL        L?0285
  C:7F8DH         SYMBOL        L?0286
  C:7F90H         SYMBOL        L?0287
  C:7F98H         SYMBOL        L?0288
  C:7F9BH         SYMBOL        L?0289
  C:7FA4H         SYMBOL        L?0290
  C:7FA7H         SYMBOL        L?0291
  C:7FB2H         SYMBOL        L?0292
  C:7FB2H         SYMBOL        L?0293
  C:7FBBH         SYMBOL        L?0294
  C:7FCCH         SYMBOL        L?0295
  C:7FCCH         SYMBOL        L?0296
  C:7FD3H         SYMBOL        L?0297
  C:7FE3H         SYMBOL        L?0298
  C:7FEAH         SYMBOL        L?0299
  C:7FF9H         SYMBOL        L?0300
  C:7FFEH         SYMBOL        L?0301
  C:8005H         SYMBOL        L?0302
  C:800EH         SYMBOL        L?0303
  C:8012H         SYMBOL        L?0304
  C:8019H         SYMBOL        L?0305
  C:8019H         SYMBOL        L?0306
  C:8022H         SYMBOL        L?0307
  C:802FH         SYMBOL        L?0308
  C:802FH         SYMBOL        L?0309
  C:8036H         SYMBOL        L?0311
  C:8036H         SYMBOL        L?0312
  C:803CH         SYMBOL        L?0313
  C:8045H         SYMBOL        L?0314
  C:804CH         SYMBOL        L?0315
  -------         PROC          COM00FE
  -------         ENDPROC       COM00FE
  -------         PROC          HS_PROTOCOL_INIT
  C:C102H         LINE#         126
  C:C102H         LINE#         127
  C:C102H         LINE#         129
  C:C107H         LINE#         130
  C:C10BH         LINE#         131
  C:C10DH         LINE#         132
  C:C111H         LINE#         133
  C:C115H         LINE#         134
  C:C117H         LINE#         135
BL51 BANKED LINKER/LOCATER V5.03                                                      01/25/2013  13:44:25  PAGE 163


  C:C11BH         LINE#         136
  C:C11FH         LINE#         138
  C:C124H         LINE#         139
  C:C128H         LINE#         140
  C:C12CH         LINE#         141
  C:C130H         LINE#         142
  C:C134H         LINE#         143
  C:C138H         LINE#         144
  C:C13CH         LINE#         145
  C:C140H         LINE#         146
  C:C144H         LINE#         147
  C:C148H         LINE#         148
  C:C14CH         LINE#         149
  C:C150H         LINE#         150
  C:C154H         LINE#         151
  C:C158H         LINE#         152
  C:C15AH         LINE#         153
  C:C15FH         LINE#         154
  C:C164H         LINE#         155
  C:C169H         LINE#         156
  C:C16BH         LINE#         157
  C:C16FH         LINE#         158
  C:C171H         LINE#         159
  C:C176H         LINE#         160
  C:C17BH         LINE#         161
  -------         ENDPROC       HS_PROTOCOL_INIT
  -------         PROC          _HS_DVRTXCMDPASER
  D:0007H         SYMBOL        Cmd_Id
  -------         DO            
  D:0006H         SYMBOL        j
  X:0015H         SYMBOL        DVR_Com
  -------         ENDDO         
  C:6DBDH         LINE#         164
  C:6DBDH         LINE#         165
  C:6DBDH         LINE#         170
  C:6DBDH         LINE#         171
  C:6DC9H         LINE#         173
  C:6DCFH         LINE#         174
  C:6DD3H         LINE#         175
  C:6DD7H         LINE#         176
  C:6DDFH         LINE#         179
  C:6E20H         LINE#         180
  C:6E20H         LINE#         181
  C:6E20H         LINE#         182
  C:6E26H         LINE#         183
  C:6E2AH         LINE#         184
  C:6E32H         LINE#         185
  C:6E3AH         LINE#         186
  C:6E42H         LINE#         187
  C:6E4AH         LINE#         188
  C:6E52H         LINE#         189
  C:6E5AH         LINE#         190
  C:6E62H         LINE#         191
  C:6E6AH         LINE#         193
  C:6E71H         LINE#         195
  C:6E77H         LINE#         197
  C:6E7AH         LINE#         199
BL51 BANKED LINKER/LOCATER V5.03                                                      01/25/2013  13:44:25  PAGE 164


  C:6E7AH         LINE#         200
  C:6E7CH         LINE#         201
  C:6E7FH         LINE#         202
  C:6E86H         LINE#         204
  C:6E8CH         LINE#         206
  C:6E8FH         LINE#         208
  C:6E8FH         LINE#         209
  C:6E95H         LINE#         210
  C:6E99H         LINE#         211
  C:6EA1H         LINE#         212
  C:6EA9H         LINE#         213
  C:6EB1H         LINE#         214
  C:6EB9H         LINE#         215
  C:6EC1H         LINE#         216
  C:6EC9H         LINE#         217
  C:6ED1H         LINE#         218
  C:6ED9H         LINE#         219
  C:6EE1H         LINE#         220
  C:6EE9H         LINE#         221
  C:6EF1H         LINE#         222
  C:6EF9H         LINE#         223
  C:6F01H         LINE#         224
  C:6F09H         LINE#         225
  C:6F11H         LINE#         226
  C:6F18H         LINE#         228
  C:6F1EH         LINE#         230
  C:6F21H         LINE#         233
  C:6F21H         LINE#         234
  C:6F23H         LINE#         235
  C:6F26H         LINE#         236
  C:6F2DH         LINE#         238
  C:6F33H         LINE#         240
  C:6F36H         LINE#         242
  C:6F36H         LINE#         243
  C:6F38H         LINE#         244
  C:6F3BH         LINE#         245
  C:6F3EH         LINE#         246
  C:6F45H         LINE#         248
  C:6F4BH         LINE#         250
  C:6F4DH         LINE#         252
  C:6F4DH         LINE#         253
  C:6F4FH         LINE#         254
  C:6F52H         LINE#         255
  C:6F59H         LINE#         257
  C:6F5FH         LINE#         259
  C:6F61H         LINE#         261
  C:6F61H         LINE#         262
  C:6F63H         LINE#         263
  C:6F66H         LINE#         265
  C:6F6CH         LINE#         267
  C:6F6FH         LINE#         269
  C:6F6FH         LINE#         270
  C:6F71H         LINE#         271
  C:6F74H         LINE#         273
  C:6F7AH         LINE#         275
  C:6F7DH         LINE#         277
  C:6F7DH         LINE#         278
BL51 BANKED LINKER/LOCATER V5.03                                                      01/25/2013  13:44:25  PAGE 165


  C:6F7FH         LINE#         279
  C:6F82H         LINE#         281
  C:6F88H         LINE#         283
  C:6F8BH         LINE#         285
  C:6F8BH         LINE#         286
  C:6F8DH         LINE#         287
  C:6F90H         LINE#         288
  C:6F97H         LINE#         290
  C:6F9EH         LINE#         292
  C:6FA1H         LINE#         294
  C:6FA1H         LINE#         295
  C:6FA3H         LINE#         296
  C:6FA6H         LINE#         297
  C:6FAEH         LINE#         298
  C:6FB5H         LINE#         300
  C:6FBCH         LINE#         302
  C:6FBFH         LINE#         304
  C:6FBFH         LINE#         305
  C:6FC1H         LINE#         306
  C:6FC1H         LINE#         307
  C:6FC6H         LINE#         309
  C:6FCEH         LINE#         311
  C:6FD1H         LINE#         313
  C:6FD1H         LINE#         314
  C:6FD3H         LINE#         315
  C:6FD6H         LINE#         317
  C:6FDCH         LINE#         319
  C:6FE4H         LINE#         321
  C:6FE7H         LINE#         323
  C:6FE7H         LINE#         324
  C:6FEDH         LINE#         325
  C:6FF1H         LINE#         326
  C:6FF4H         LINE#         328
  C:6FFAH         LINE#         330
  C:6FFDH         LINE#         332
  C:6FFDH         LINE#         333
  C:6FFFH         LINE#         334
  C:6FFFH         LINE#         335
  C:7004H         LINE#         337
  C:700CH         LINE#         340
  C:700EH         LINE#         342
  C:700EH         LINE#         343
  C:7013H         LINE#         344
  C:7013H         LINE#         345
  C:7018H         LINE#         348
  C:7020H         LINE#         350
  C:7022H         LINE#         352
  C:7022H         LINE#         353
  C:7027H         LINE#         354
  C:7027H         LINE#         355
  C:702CH         LINE#         358
  C:7034H         LINE#         360
  C:7036H         LINE#         362
  C:7036H         LINE#         363
  C:7038H         LINE#         364
  C:7038H         LINE#         365
  C:703BH         LINE#         366
BL51 BANKED LINKER/LOCATER V5.03                                                      01/25/2013  13:44:25  PAGE 166


  C:7044H         LINE#         368
  C:7046H         LINE#         370
  C:704CH         LINE#         372
  C:704EH         LINE#         374
  C:704EH         LINE#         375
  C:7050H         LINE#         376
  C:7050H         LINE#         377
  C:7053H         LINE#         378
  C:705CH         LINE#         379
  C:705EH         LINE#         381
  C:706BH         LINE#         383
  C:706BH         LINE#         386
  C:706BH         LINE#         390
  C:706EH         LINE#         391
  -------         ENDPROC       _HS_DVRTXCMDPASER
  -------         PROC          _HS_SEND_DVR_COMMAND
  X:002EH         SYMBOL        DVR_Com
  X:0031H         SYMBOL        len
  -------         DO            
  X:0032H         SYMBOL        ii
  X:0033H         SYMBOL        j
  -------         ENDDO         
  C:BBEEH         LINE#         411
  C:BBF9H         LINE#         412
  C:BBF9H         LINE#         416
  C:BC0AH         LINE#         419
  C:BC21H         LINE#         420
  C:BC4FH         LINE#         426
  C:BC63H         LINE#         427
  C:BC63H         LINE#         428
  C:BC70H         LINE#         429
  C:BC78H         LINE#         440
  -------         ENDPROC       _HS_SEND_DVR_COMMAND
  C:5560H         SYMBOL        L?0268
  C:5570H         SYMBOL        L?0272
  C:5580H         SYMBOL        L?0310
  -------         PROC          DVRRECEIVEPASER
  -------         DO            
  X:000CH         SYMBOL        i
  X:000DH         SYMBOL        j
  D:0007H         SYMBOL        CheckSum
  X:000EH         SYMBOL        DVR_Com
  -------         ENDDO         
  C:516FH         LINE#         442
  C:516FH         LINE#         443
  C:516FH         LINE#         456
  C:517EH         LINE#         457
  C:517EH         LINE#         458
  C:5186H         LINE#         459
  C:5186H         LINE#         460
  C:518FH         LINE#         461
  C:518FH         LINE#         462
  C:518FH         LINE#         463
  C:5197H         LINE#         478
  C:51A0H         LINE#         480
  C:51BEH         LINE#         481
  C:51CBH         LINE#         483
BL51 BANKED LINKER/LOCATER V5.03                                                      01/25/2013  13:44:25  PAGE 167


  C:51E4H         LINE#         484
  C:51E7H         LINE#         486
  C:523BH         LINE#         487
  C:523BH         LINE#         488
  C:523BH         LINE#         489
  C:523BH         LINE#         491
  C:5242H         LINE#         493
  C:5245H         LINE#         495
  C:5245H         LINE#         496
  C:5245H         LINE#         498
  C:524CH         LINE#         500
  C:524FH         LINE#         502
  C:524FH         LINE#         503
  C:524FH         LINE#         505
  C:5256H         LINE#         507
  C:5259H         LINE#         509
  C:5259H         LINE#         510
  C:5259H         LINE#         512
  C:5260H         LINE#         514
  C:5263H         LINE#         516
  C:5263H         LINE#         517
  C:5263H         LINE#         519
  C:526AH         LINE#         521
  C:526DH         LINE#         523
  C:526DH         LINE#         530
  C:526DH         LINE#         531
  C:526DH         LINE#         533
  C:5274H         LINE#         535
  C:5277H         LINE#         537
  C:5277H         LINE#         538
  C:5277H         LINE#         539
  C:527DH         LINE#         540
  C:5280H         LINE#         541
  C:5280H         LINE#         542
  C:528BH         LINE#         543
  C:528EH         LINE#         544
  C:5291H         LINE#         545
  C:5297H         LINE#         547
  C:5297H         LINE#         549
  C:529EH         LINE#         551
  C:52A1H         LINE#         554
  C:52A1H         LINE#         555
  C:52A1H         LINE#         556
  C:52A1H         LINE#         557
  C:52A1H         LINE#         558
  C:52A1H         LINE#         559
  C:52A1H         LINE#         560
  C:52A1H         LINE#         561
  C:52ACH         LINE#         562
  C:52B1H         LINE#         563
  C:52B4H         LINE#         564
  C:52B7H         LINE#         565
  C:52B7H         LINE#         567
  C:52BEH         LINE#         569
  C:52C1H         LINE#         571
  C:52C1H         LINE#         572
  C:52C1H         LINE#         573
BL51 BANKED LINKER/LOCATER V5.03                                                      01/25/2013  13:44:25  PAGE 168


  C:52C1H         LINE#         574
  C:52C1H         LINE#         575
  C:52C1H         LINE#         576
  C:52C1H         LINE#         577
  C:52C1H         LINE#         578
  C:52C4H         LINE#         579
  C:52C4H         LINE#         580
  C:52C4H         LINE#         581
  C:52C4H         LINE#         582
  C:52C4H         LINE#         583
  C:52C4H         LINE#         584
  C:52C4H         LINE#         585
  C:52C4H         LINE#         586
  C:52CEH         LINE#         587
  C:52CEH         LINE#         589
  C:52D5H         LINE#         591
  C:52D8H         LINE#         593
  C:52D8H         LINE#         594
  C:52D8H         LINE#         595
  C:52D8H         LINE#         596
  C:52D8H         LINE#         597
  C:52D8H         LINE#         598
  C:52D8H         LINE#         599
  C:52D8H         LINE#         600
  C:52DEH         LINE#         601
  C:52E5H         LINE#         602
  C:52E9H         LINE#         603
  C:52ECH         LINE#         605
  C:52F4H         LINE#         606
  C:52F9H         LINE#         608
  C:52F9H         LINE#         609
  C:52F9H         LINE#         610
  C:52F9H         LINE#         611
  C:52F9H         LINE#         612
  C:52FEH         LINE#         613
  C:52FEH         LINE#         614
  C:5301H         LINE#         616
  C:530CH         LINE#         617
  C:5317H         LINE#         619
  C:531AH         LINE#         621
  C:531AH         LINE#         622
  C:531AH         LINE#         623
  C:5324H         LINE#         624
  C:5328H         LINE#         625
  C:5328H         LINE#         626
  C:5333H         LINE#         627
  C:533CH         LINE#         628
  C:5340H         LINE#         629
  C:5346H         LINE#         632
  C:534EH         LINE#         633
  C:5353H         LINE#         635
  C:5353H         LINE#         636
  C:5353H         LINE#         637
  C:5353H         LINE#         638
  C:5353H         LINE#         639
  C:5358H         LINE#         640
  C:5358H         LINE#         641
BL51 BANKED LINKER/LOCATER V5.03                                                      01/25/2013  13:44:25  PAGE 169


  C:535BH         LINE#         643
  C:5365H         LINE#         645
  C:5368H         LINE#         647
  C:5368H         LINE#         649
  C:5368H         LINE#         650
  C:5368H         LINE#         651
  C:5368H         LINE#         652
  C:5368H         LINE#         653
  C:5368H         LINE#         654
  C:5368H         LINE#         655
  C:536BH         LINE#         656
  C:536BH         LINE#         657
  C:536BH         LINE#         658
  C:536BH         LINE#         659
  C:536BH         LINE#         660
  C:536BH         LINE#         661
  C:536BH         LINE#         662
  C:536BH         LINE#         663
  C:5375H         LINE#         665
  C:537DH         LINE#         666
  C:5382H         LINE#         668
  C:5382H         LINE#         669
  C:5382H         LINE#         670
  C:5382H         LINE#         671
  C:5382H         LINE#         672
  C:5387H         LINE#         673
  C:5387H         LINE#         674
  C:538AH         LINE#         676
  C:5391H         LINE#         678
  C:5394H         LINE#         680
  C:5394H         LINE#         681
  C:539EH         LINE#         682
  C:53A3H         LINE#         684
  C:53A3H         LINE#         685
  C:53A3H         LINE#         686
  C:53A3H         LINE#         687
  C:53A3H         LINE#         688
  C:53A9H         LINE#         689
  C:53ADH         LINE#         690
  C:53B0H         LINE#         691
  C:53BBH         LINE#         693
  C:53C2H         LINE#         695
  C:53C5H         LINE#         697
  C:53C5H         LINE#         698
  C:53C5H         LINE#         700
  C:53C5H         LINE#         701
  C:53C5H         LINE#         703
  C:53C5H         LINE#         704
  C:53C5H         LINE#         706
  C:53C5H         LINE#         707
  C:53CFH         LINE#         708
  C:53D4H         LINE#         712
  C:53D7H         LINE#         713
  C:53D7H         LINE#         715
  C:53D9H         LINE#         719
  C:53DBH         LINE#         721
  C:53DBH         LINE#         722
BL51 BANKED LINKER/LOCATER V5.03                                                      01/25/2013  13:44:25  PAGE 170


  C:53DBH         LINE#         723
  C:53DBH         LINE#         724
  C:53DBH         LINE#         725
  C:53DBH         LINE#         726
  C:53E1H         LINE#         727
  C:53E4H         LINE#         728
  C:53E4H         LINE#         729
  C:53EFH         LINE#         730
  C:53F1H         LINE#         731
  C:53F6H         LINE#         732
  C:53F8H         LINE#         733
  C:53F8H         LINE#         735
  C:53FFH         LINE#         738
  C:5402H         LINE#         742
  C:5402H         LINE#         744
  C:540CH         LINE#         745
  C:5411H         LINE#         747
  C:5411H         LINE#         748
  C:5411H         LINE#         749
  C:5411H         LINE#         750
  C:5411H         LINE#         751
  C:5416H         LINE#         752
  C:5416H         LINE#         753
  C:5419H         LINE#         754
  C:541FH         LINE#         755
  C:541FH         LINE#         756
  C:541FH         LINE#         758
  C:5429H         LINE#         760
  C:542CH         LINE#         762
  C:542CH         LINE#         766
  C:5437H         LINE#         768
  C:543FH         LINE#         769
  C:5444H         LINE#         771
  C:5444H         LINE#         772
  C:5444H         LINE#         773
  C:5444H         LINE#         774
  C:5444H         LINE#         775
  C:5449H         LINE#         776
  C:5449H         LINE#         777
  C:544CH         LINE#         778
  C:544FH         LINE#         779
  C:544FH         LINE#         781
  C:5459H         LINE#         783
  C:545CH         LINE#         786
  C:545CH         LINE#         788
  C:5463H         LINE#         789
  C:5473H         LINE#         790
  C:5473H         LINE#         791
  C:5481H         LINE#         792
  C:5486H         LINE#         794
  C:5489H         LINE#         795
  C:5489H         LINE#         797
  C:5493H         LINE#         799
  C:5496H         LINE#         801
  C:5496H         LINE#         803
  C:549DH         LINE#         804
  C:54ADH         LINE#         805
BL51 BANKED LINKER/LOCATER V5.03                                                      01/25/2013  13:44:25  PAGE 171


  C:54ADH         LINE#         806
  C:54BBH         LINE#         807
  C:54C0H         LINE#         809
  C:54C0H         LINE#         810
  C:54C0H         LINE#         811
  C:54C0H         LINE#         812
  C:54C0H         LINE#         813
  C:54C5H         LINE#         814
  C:54C5H         LINE#         815
  C:54CDH         LINE#         822
  C:54D7H         LINE#         824
  C:54DAH         LINE#         826
  C:54DAH         LINE#         828
  C:54E4H         LINE#         829
  C:54E9H         LINE#         831
  C:54E9H         LINE#         832
  C:54E9H         LINE#         833
  C:54E9H         LINE#         834
  C:54E9H         LINE#         835
  C:54EEH         LINE#         836
  C:54EEH         LINE#         837
  C:54F1H         LINE#         838
  C:54F5H         LINE#         839
  C:54FDH         LINE#         841
  C:54FDH         LINE#         843
  C:5507H         LINE#         845
  C:5509H         LINE#         876
  C:5509H         LINE#         877
  C:5509H         LINE#         879
  C:5513H         LINE#         881
  C:5515H         LINE#         883
  C:5515H         LINE#         884
  C:5517H         LINE#         885
  C:5517H         LINE#         887
  C:5521H         LINE#         889
  C:5523H         LINE#         891
  C:5523H         LINE#         892
  C:5525H         LINE#         893
  C:5525H         LINE#         895
  C:5533H         LINE#         897
  C:5533H         LINE#         900
  C:5533H         LINE#         904
  C:5542H         LINE#         905
  C:554DH         LINE#         908
  C:5553H         LINE#         910
  C:5556H         LINE#         912
  C:5559H         LINE#         913
  C:5559H         LINE#         914
  C:555BH         LINE#         915
  C:555DH         LINE#         916
  C:555DH         LINE#         920
  C:555FH         LINE#         922
  -------         ENDPROC       DVRRECEIVEPASER
  -------         PROC          DVRCOMMANDRESEND
  C:B927H         LINE#         924
  C:B927H         LINE#         925
  C:B927H         LINE#         927
BL51 BANKED LINKER/LOCATER V5.03                                                      01/25/2013  13:44:25  PAGE 172


  C:B92EH         LINE#         928
  C:B933H         LINE#         930
  C:B93AH         LINE#         931
  C:B93FH         LINE#         933
  C:B946H         LINE#         934
  C:B94BH         LINE#         936
  C:B952H         LINE#         937
  C:B957H         LINE#         939
  C:B95EH         LINE#         940
  C:B963H         LINE#         942
  C:B96AH         LINE#         943
  C:B96FH         LINE#         945
  C:B976H         LINE#         946
  C:B97BH         LINE#         948
  C:B982H         LINE#         949
  C:B987H         LINE#         951
  C:B98EH         LINE#         952
  C:B993H         LINE#         954
  C:B99AH         LINE#         955
  C:B99FH         LINE#         957
  C:B9A6H         LINE#         958
  C:B9ABH         LINE#         960
  C:B9B2H         LINE#         961
  C:B9B7H         LINE#         965
  -------         ENDPROC       DVRCOMMANDRESEND
  -------         PROC          _CAM_TXCOMMAND_TORS485
  X:000CH         SYMBOL        Com_ID
  -------         DO            
  X:000DH         SYMBOL        j
  -------         ENDDO         
  C:7C50H         LINE#         1027
  C:7C55H         LINE#         1028
  C:7C55H         LINE#         1034
  C:7C65H         LINE#         1035
  C:7C65H         LINE#         1036
  C:7C65H         LINE#         1038
  C:7C74H         LINE#         1039
  C:7C81H         LINE#         1040
  C:7C87H         LINE#         1042
  C:7C90H         LINE#         1043
  C:7C96H         LINE#         1045
  C:7CC2H         LINE#         1046
  C:7CC2H         LINE#         1059
  C:7CC2H         LINE#         1060
  C:7CC2H         LINE#         1061
  C:7CC7H         LINE#         1062
  C:7CC7H         LINE#         1063
  C:7CC7H         LINE#         1064
  C:7CC7H         LINE#         1065
  C:7CC9H         LINE#         1073
  C:7CC9H         LINE#         1074
  C:7CCEH         LINE#         1075
  C:7CCEH         LINE#         1076
  C:7CCEH         LINE#         1077
  C:7CCEH         LINE#         1078
  C:7CCEH         LINE#         1079
  C:7CD1H         LINE#         1081
BL51 BANKED LINKER/LOCATER V5.03                                                      01/25/2013  13:44:25  PAGE 173


  C:7CD1H         LINE#         1082
  C:7CD1H         LINE#         1083
  C:7CD7H         LINE#         1084
  C:7CD8H         LINE#         1085
  C:7CD8H         LINE#         1086
  C:7CD8H         LINE#         1087
  C:7CDBH         LINE#         1145
  C:7CDBH         LINE#         1146
  C:7CDBH         LINE#         1147
  C:7CE0H         LINE#         1148
  C:7CE0H         LINE#         1152
  C:7CE0H         LINE#         1153
  C:7CE0H         LINE#         1154
  C:7CE2H         LINE#         1155
  C:7CE2H         LINE#         1156
  C:7CE2H         LINE#         1157
  C:7CE7H         LINE#         1158
  C:7CE7H         LINE#         1162
  C:7CEAH         LINE#         1163
  C:7CEAH         LINE#         1164
  C:7CECH         LINE#         1165
  C:7CECH         LINE#         1166
  C:7CECH         LINE#         1167
  C:7CF2H         LINE#         1168
  C:7CF5H         LINE#         1169
  C:7CFBH         LINE#         1171
  C:7CFEH         LINE#         1172
  C:7CFFH         LINE#         1173
  C:7CFFH         LINE#         1174
  C:7D01H         LINE#         1175
  C:7D01H         LINE#         1176
  C:7D01H         LINE#         1177
  C:7D07H         LINE#         1178
  C:7D0AH         LINE#         1179
  C:7D10H         LINE#         1181
  C:7D13H         LINE#         1182
  C:7D17H         LINE#         1183
  C:7D17H         LINE#         1184
  C:7D19H         LINE#         1185
  C:7D19H         LINE#         1186
  C:7D19H         LINE#         1187
  C:7D1FH         LINE#         1188
  C:7D22H         LINE#         1189
  C:7D25H         LINE#         1190
  C:7D2BH         LINE#         1192
  C:7D2EH         LINE#         1193
  C:7D2EH         LINE#         1194
  C:7D30H         LINE#         1195
  C:7D30H         LINE#         1196
  C:7D30H         LINE#         1197
  C:7D36H         LINE#         1198
  C:7D39H         LINE#         1199
  C:7D3CH         LINE#         1200
  C:7D42H         LINE#         1202
  C:7D45H         LINE#         1203
  C:7D45H         LINE#         1204
  C:7D47H         LINE#         1205
BL51 BANKED LINKER/LOCATER V5.03                                                      01/25/2013  13:44:25  PAGE 174


  C:7D47H         LINE#         1206
  C:7D47H         LINE#         1207
  C:7D4AH         LINE#         1208
  C:7D4AH         LINE#         1209
  C:7D4EH         LINE#         1210
  C:7D4EH         LINE#         1211
  C:7D50H         LINE#         1212
  C:7D50H         LINE#         1213
  C:7D56H         LINE#         1214
  C:7D59H         LINE#         1215
  C:7D5BH         LINE#         1216
  C:7D5DH         LINE#         1217
  C:7D60H         LINE#         1218
  C:7D60H         LINE#         1249
  C:7D60H         LINE#         1250
  C:7D60H         LINE#         1251
  C:7D60H         LINE#         1253
  C:7D6FH         LINE#         1254
  C:7D7CH         LINE#         1255
  C:7D82H         LINE#         1257
  C:7D8AH         LINE#         1259
  C:7DB6H         LINE#         1260
  C:7DB6H         LINE#         1273
  C:7DB6H         LINE#         1274
  C:7DB6H         LINE#         1275
  C:7DBBH         LINE#         1276
  C:7DBBH         LINE#         1277
  C:7DBBH         LINE#         1278
  C:7DBBH         LINE#         1279
  C:7DBDH         LINE#         1287
  C:7DBDH         LINE#         1288
  C:7DC2H         LINE#         1289
  C:7DC2H         LINE#         1290
  C:7DC2H         LINE#         1291
  C:7DC2H         LINE#         1292
  C:7DC2H         LINE#         1293
  C:7DC5H         LINE#         1295
  C:7DC5H         LINE#         1296
  C:7DC5H         LINE#         1297
  C:7DCBH         LINE#         1298
  C:7DCCH         LINE#         1299
  C:7DCCH         LINE#         1300
  C:7DCCH         LINE#         1301
  C:7DCFH         LINE#         1353
  C:7DCFH         LINE#         1354
  C:7DCFH         LINE#         1355
  C:7DD5H         LINE#         1356
  C:7DD8H         LINE#         1357
  C:7DDEH         LINE#         1359
  C:7DE1H         LINE#         1360
  C:7DE1H         LINE#         1361
  C:7DE1H         LINE#         1362
  C:7DE3H         LINE#         1363
  C:7DE3H         LINE#         1364
  C:7DE3H         LINE#         1365
  C:7DE9H         LINE#         1366
  C:7DECH         LINE#         1367
BL51 BANKED LINKER/LOCATER V5.03                                                      01/25/2013  13:44:25  PAGE 175


  C:7DF2H         LINE#         1369
  C:7DF5H         LINE#         1370
  C:7DF6H         LINE#         1371
  C:7DF6H         LINE#         1372
  C:7DF8H         LINE#         1373
  C:7DF8H         LINE#         1374
  C:7DF8H         LINE#         1375
  C:7DFEH         LINE#         1376
  C:7E01H         LINE#         1377
  C:7E04H         LINE#         1378
  C:7E0AH         LINE#         1380
  C:7E0DH         LINE#         1381
  C:7E0DH         LINE#         1382
  C:7E0FH         LINE#         1383
  C:7E0FH         LINE#         1384
  C:7E0FH         LINE#         1385
  C:7E15H         LINE#         1386
  C:7E18H         LINE#         1387
  C:7E1BH         LINE#         1388
  C:7E21H         LINE#         1390
  C:7E24H         LINE#         1391
  C:7E24H         LINE#         1392
  C:7E26H         LINE#         1393
  C:7E26H         LINE#         1394
  C:7E26H         LINE#         1395
  C:7E2BH         LINE#         1396
  C:7E2BH         LINE#         1400
  C:7E32H         LINE#         1401
  C:7E32H         LINE#         1402
  C:7E34H         LINE#         1403
  C:7E34H         LINE#         1404
  C:7E34H         LINE#         1405
  C:7E39H         LINE#         1406
  C:7E39H         LINE#         1410
  C:7E40H         LINE#         1411
  C:7E40H         LINE#         1412
  C:7E42H         LINE#         1413
  C:7E42H         LINE#         1414
  C:7E42H         LINE#         1415
  C:7E45H         LINE#         1416
  C:7E45H         LINE#         1417
  C:7E49H         LINE#         1418
  C:7E49H         LINE#         1419
  C:7E4BH         LINE#         1420
  C:7E4BH         LINE#         1421
  C:7E51H         LINE#         1422
  C:7E54H         LINE#         1423
  C:7E56H         LINE#         1424
  C:7E58H         LINE#         1425
  C:7E5BH         LINE#         1426
  C:7E5BH         LINE#         1457
  C:7E5BH         LINE#         1458
  C:7E5BH         LINE#         1531
  C:7E5BH         LINE#         1533
  -------         ENDPROC       _CAM_TXCOMMAND_TORS485
  -------         PROC          SEND_PELCOP_COMMAND
  -------         DO            
BL51 BANKED LINKER/LOCATER V5.03                                                      01/25/2013  13:44:25  PAGE 176


  X:000EH         SYMBOL        ii
  D:0004H         SYMBOL        j
  -------         ENDDO         
  C:BF0FH         LINE#         1541
  C:BF0FH         LINE#         1542
  C:BF0FH         LINE#         1546
  C:BF17H         LINE#         1547
  C:BF19H         LINE#         1548
  C:BF31H         LINE#         1554
  C:BF3FH         LINE#         1555
  C:BF3FH         LINE#         1556
  C:BF3FH         LINE#         1557
  C:BF42H         LINE#         1558
  C:BF44H         LINE#         1559
  C:BF44H         LINE#         1560
  C:BF47H         LINE#         1561
  C:BF49H         LINE#         1562
  C:BF49H         LINE#         1563
  C:BF4CH         LINE#         1564
  C:BF4CH         LINE#         1565
  C:BF4CH         LINE#         1567
  C:BF5CH         LINE#         1568
  C:BF63H         LINE#         1569
  C:BF72H         LINE#         1570
  C:BF72H         LINE#         1571
  C:BF7AH         LINE#         1572
  C:BF82H         LINE#         1573
  C:BF89H         LINE#         1574
  C:BF8CH         LINE#         1579
  -------         ENDPROC       SEND_PELCOP_COMMAND
  -------         PROC          SEND_PELCOD_COMMAND
  -------         DO            
  X:000EH         SYMBOL        ii
  D:0007H         SYMBOL        j
  -------         ENDDO         
  C:C269H         LINE#         1587
  C:C269H         LINE#         1588
  C:C269H         LINE#         1592
  C:C271H         LINE#         1593
  C:C273H         LINE#         1594
  C:C283H         LINE#         1596
  C:C291H         LINE#         1597
  C:C291H         LINE#         1598
  C:C291H         LINE#         1599
  C:C294H         LINE#         1600
  C:C296H         LINE#         1601
  C:C296H         LINE#         1602
  C:C299H         LINE#         1603
  C:C29BH         LINE#         1604
  C:C29BH         LINE#         1605
  C:C29EH         LINE#         1606
  C:C29EH         LINE#         1607
  C:C29EH         LINE#         1609
  C:C2ADH         LINE#         1610
  C:C2B4H         LINE#         1613
  C:C2C3H         LINE#         1614
  C:C2C3H         LINE#         1615
BL51 BANKED LINKER/LOCATER V5.03                                                      01/25/2013  13:44:25  PAGE 177


  C:C2CBH         LINE#         1616
  C:C2D3H         LINE#         1618
  C:C2DAH         LINE#         1619
  C:C2DDH         LINE#         1622
  -------         ENDPROC       SEND_PELCOD_COMMAND
  -------         ENDMOD        HS_DVRPROTOCOL

  -------         MODULE        MONITOR
  C:0000H         SYMBOL        _ICE_DUMMY_
  D:00A0H         PUBLIC        P2
  C:A745H         PUBLIC        MonDumpI2C
  D:00E8H         PUBLIC        P4
  C:DE45H         PUBLIC        _SetMonAddress
  C:D9B8H         PUBLIC        Prompt
  C:D2ECH         PUBLIC        MonTxDump
  C:8971H         PUBLIC        MonGetCommand
  C:CC42H         PUBLIC        MonNewReadI2C
  B:00B0H.4       PUBLIC        P3_4
  B:0080H.7       PUBLIC        P0_7
  B:00B0H.7       PUBLIC        P3_7
  X:00BCH         PUBLIC        MonRdata
  X:00BDH         PUBLIC        argc
  X:00BEH         PUBLIC        MonWdata
  B:0022H.4       PUBLIC        AccessEnable
  B:0022H.5       PUBLIC        echo
  C:CA20H         PUBLIC        MonNewWriteI2C
  X:00BFH         PUBLIC        monstr
  X:00DDH         PUBLIC        MonIndex
  C:ADE4H         PUBLIC        MonNewDumpI2C
  X:00DEH         PUBLIC        argv
  C:B6B1H         PUBLIC        MonHelp
  C:D5C5H         PUBLIC        _Asc1Bin
  C:D488H         PUBLIC        _Asc2Bin
  B:0022H.6       SYMBOL        indirect
  C:DE42H         PUBLIC        _Mon_tx
  C:A2CDH         PUBLIC        MonWriteBit
  C:C351H         PUBLIC        _a2i
  C:D2B0H         PUBLIC        _stricmp
  C:CAC4H         PUBLIC        MonReadI2C
  C:59A0H         PUBLIC        Monitor
  C:DB1EH         PUBLIC        _toupper
  C:C086H         PUBLIC        _MonIncDecI2C
  D:001FH         PUBLIC        MonAddress
  C:BF8DH         PUBLIC        MonWriteI2C
  C:90BDH         SYMBOL        Com011B
  C:90BDH         SYMBOL        L?0284
  C:90C3H         SYMBOL        L?0285
  C:90E1H         SYMBOL        L?0286
  C:90E8H         SYMBOL        L?0292
  C:90FBH         SYMBOL        L?0293
  C:90FEH         SYMBOL        L?0294
  C:9102H         SYMBOL        L?0295
  C:9109H         SYMBOL        L?0300
  C:9116H         SYMBOL        L?0301
  C:9117H         SYMBOL        L?0302
  C:911AH         SYMBOL        L?0303
  C:9120H         SYMBOL        L?0305
BL51 BANKED LINKER/LOCATER V5.03                                                      01/25/2013  13:44:25  PAGE 178


  C:9120H         SYMBOL        L?0306
  C:9132H         SYMBOL        L?0308
  C:9132H         SYMBOL        L?0309
  C:9142H         SYMBOL        L?0310
  C:9142H         SYMBOL        L?0311
  C:9149H         SYMBOL        L?0312
  C:9150H         SYMBOL        L?0313
  C:9150H         SYMBOL        L?0314
  C:9153H         SYMBOL        L?0315
  C:915BH         SYMBOL        L?0317
  C:915EH         SYMBOL        L?0318
  C:9166H         SYMBOL        L?0319
  C:9166H         SYMBOL        L?0320
  C:916EH         SYMBOL        L?0322
  C:917CH         SYMBOL        L?0323
  C:9183H         SYMBOL        L?0324
  C:9183H         SYMBOL        L?0325
  C:9186H         SYMBOL        L?0326
  C:918EH         SYMBOL        L?0327
  C:9196H         SYMBOL        L?0328
  C:919DH         SYMBOL        L?0330
  C:919DH         SYMBOL        L?0331
  C:91A9H         SYMBOL        L?0332
  C:91A9H         SYMBOL        L?0333
  C:91B1H         SYMBOL        L?0334
  C:91B1H         SYMBOL        L?0335
  C:91B8H         SYMBOL        L?0336
  C:91B8H         SYMBOL        L?0337
  C:91C0H         SYMBOL        L?0339
  C:91CEH         SYMBOL        L?0341
  C:91D1H         SYMBOL        L?0342
  C:91D7H         SYMBOL        L?0343
  C:91E4H         SYMBOL        L?0344
  C:91E4H         SYMBOL        L?0345
  C:91ECH         SYMBOL        L?0346
  C:91EDH         SYMBOL        L?0347
  C:91F4H         SYMBOL        L?0348
  C:91FFH         SYMBOL        L?0349
  C:9206H         SYMBOL        L?0350
  C:9206H         SYMBOL        L?0351
  C:920DH         SYMBOL        L?0352
  -------         PROC          COM011B
  -------         ENDPROC       COM011B
  -------         PROC          PROMPT
  C:D9B8H         LINE#         51
  C:D9B8H         LINE#         52
  C:D9B8H         LINE#         54
  C:D9BFH         LINE#         55
  C:D9C9H         LINE#         57
  C:D9D6H         LINE#         58
  -------         ENDPROC       PROMPT
  -------         PROC          _MON_TX
  D:0007H         SYMBOL        ch
  C:DE42H         LINE#         60
  C:DE42H         LINE#         61
  C:DE42H         LINE#         62
  -------         ENDPROC       _MON_TX
BL51 BANKED LINKER/LOCATER V5.03                                                      01/25/2013  13:44:25  PAGE 179


  -------         PROC          _A2I
  X:0007H         SYMBOL        str
  -------         DO            
  X:000AH         SYMBOL        num
  X:000EH         SYMBOL        i
  -------         ENDDO         
  C:C351H         LINE#         70
  C:C357H         LINE#         71
  C:C357H         LINE#         72
  C:C361H         LINE#         75
  C:C366H         LINE#         76
  C:C370H         LINE#         77
  C:C3AEH         LINE#         78
  C:C3BCH         LINE#         79
  C:C3C2H         LINE#         80
  -------         ENDPROC       _A2I
  -------         PROC          _ASC1BIN
  D:0007H         SYMBOL        asc
  C:D5C5H         LINE#         82
  C:D5C5H         LINE#         83
  C:D5C5H         LINE#         84
  C:D5D6H         LINE#         85
  C:D5E7H         LINE#         86
  C:D5F7H         LINE#         87
  -------         ENDPROC       _ASC1BIN
  C:D482H         SYMBOL        L?0290
  -------         PROC          L?0289
  -------         ENDPROC       L?0289
  C:D482H         SYMBOL        L?0290
  -------         PROC          _ASC2BIN
  D:0001H         SYMBOL        s
  -------         DO            
  D:0004H         SYMBOL        bin
  -------         ENDDO         
  C:D488H         LINE#         89
  C:D488H         LINE#         90
  C:D488H         LINE#         93
  C:D48BH         LINE#         94
  C:D494H         LINE#         95
  C:D4A2H         LINE#         96
  C:D4AFH         LINE#         97
  C:D4B6H         LINE#         98
  C:D4B8H         LINE#         99
  C:D4BAH         LINE#         100
  -------         ENDPROC       _ASC2BIN
  -------         PROC          L?0338
  -------         ENDPROC       L?0338
  -------         PROC          _TOUPPER
  D:0007H         SYMBOL        ch
  C:DB1EH         LINE#         104
  C:DB1EH         LINE#         105
  C:DB1EH         LINE#         106
  C:DB2AH         LINE#         107
  C:DB2EH         LINE#         108
  -------         ENDPROC       _TOUPPER
  -------         PROC          _STRICMP
  X:0005H         SYMBOL        ptr1
BL51 BANKED LINKER/LOCATER V5.03                                                      01/25/2013  13:44:25  PAGE 180


  X:0008H         SYMBOL        ptr2
  -------         DO            
  X:000BH         SYMBOL        i
  D:0006H         SYMBOL        ret
  -------         ENDDO         
  C:D2B0H         LINE#         110
  C:D2B6H         LINE#         111
  C:D2B6H         LINE#         115
  C:D2C5H         LINE#         116
  C:D2DCH         LINE#         117
  C:D2E0H         LINE#         118
  C:D2E8H         LINE#         119
  C:D2EBH         LINE#         120
  -------         ENDPROC       _STRICMP
  -------         PROC          _SETMONADDRESS
  D:0007H         SYMBOL        addr
  C:DE45H         LINE#         126
  C:DE45H         LINE#         127
  C:DE45H         LINE#         128
  C:DE47H         LINE#         129
  -------         ENDPROC       _SETMONADDRESS
  -------         PROC          MONREADI2C
  C:CAC4H         LINE#         131
  C:CAC4H         LINE#         132
  C:CAC4H         LINE#         133
  C:CAD3H         LINE#         134
  C:CAD3H         LINE#         135
  C:CAD9H         LINE#         137
  C:CAD9H         LINE#         139
  C:CAE1H         LINE#         140
  C:CAE7H         LINE#         142
  C:CAF3H         LINE#         144
  C:CAF6H         LINE#         145
  C:CB09H         LINE#         147
  C:CB11H         LINE#         148
  -------         ENDPROC       MONREADI2C
  -------         PROC          MONWRITEI2C
  C:BF8DH         LINE#         151
  C:BF8DH         LINE#         152
  C:BF8DH         LINE#         153
  C:BF92H         LINE#         154
  C:BF98H         LINE#         156
  C:BF98H         LINE#         158
  C:BFA0H         LINE#         159
  C:BFABH         LINE#         161
  C:BFAEH         LINE#         162
  C:BFC4H         LINE#         163
  C:BFCCH         LINE#         164
  C:BFD4H         LINE#         165
  C:BFD7H         LINE#         166
  C:BFD9H         LINE#         167
  C:BFD9H         LINE#         168
  C:BFE1H         LINE#         169
  C:BFECH         LINE#         170
  C:BFECH         LINE#         171
  C:BFF2H         LINE#         172
  C:BFF2H         LINE#         173
BL51 BANKED LINKER/LOCATER V5.03                                                      01/25/2013  13:44:25  PAGE 181


  C:BFF2H         LINE#         174
  C:BFFAH         LINE#         175
  C:BFFFH         LINE#         176
  C:C001H         LINE#         177
  C:C001H         LINE#         178
  C:C009H         LINE#         179
  C:C009H         LINE#         180
  C:C009H         LINE#         181
  -------         ENDPROC       MONWRITEI2C
  -------         PROC          _MONINCDECI2C
  D:0007H         SYMBOL        inc
  C:C086H         LINE#         184
  C:C086H         LINE#         185
  C:C086H         LINE#         187
  C:C095H         LINE#         188
  C:C09DH         LINE#         189
  C:C0A5H         LINE#         190
  C:C0AEH         LINE#         191
  C:C0B5H         LINE#         192
  C:C0B5H         LINE#         195
  C:C0BDH         LINE#         196
  C:C0C5H         LINE#         197
  C:C0C8H         LINE#         198
  C:C0CAH         LINE#         199
  C:C0CAH         LINE#         200
  C:C0D2H         LINE#         201
  C:C0DDH         LINE#         202
  C:C0DDH         LINE#         204
  C:C0E0H         LINE#         205
  C:C0F9H         LINE#         206
  C:C0FFH         LINE#         207
  C:C0FFH         LINE#         209
  -------         ENDPROC       _MONINCDECI2C
  C:A7E7H         SYMBOL        L?0296
  -------         PROC          MONDUMPI2C
  -------         DO            
  X:0005H         SYMBOL        ToMonIndex
  X:0006H         SYMBOL        cnt
  -------         ENDDO         
  C:A745H         LINE#         213
  C:A745H         LINE#         214
  C:A745H         LINE#         216
  C:A74EH         LINE#         218
  C:A75BH         LINE#         219
  C:A76DH         LINE#         220
  C:A77BH         LINE#         221
  C:A78BH         LINE#         222
  C:A7A0H         LINE#         224
  C:A7A3H         LINE#         225
  C:A7A9H         LINE#         226
  C:A7AEH         LINE#         227
  C:A7B0H         LINE#         228
  C:A7B0H         LINE#         229
  C:A7B0H         LINE#         230
  C:A7B5H         LINE#         231
  C:A7B5H         LINE#         232
  C:A7B5H         LINE#         233
BL51 BANKED LINKER/LOCATER V5.03                                                      01/25/2013  13:44:25  PAGE 182


  C:A7BAH         LINE#         234
  C:A7BCH         LINE#         235
  C:A7BCH         LINE#         236
  C:A7BCH         LINE#         237
  C:A7C1H         LINE#         238
  C:A7C1H         LINE#         239
  C:A7C1H         LINE#         240
  C:A7C1H         LINE#         241
  C:A7C6H         LINE#         242
  C:A7CBH         LINE#         243
  C:A7D1H         LINE#         244
  C:A7D1H         LINE#         245
  C:A7D6H         LINE#         246
  C:A7D6H         LINE#         247
  C:A7D6H         LINE#         248
  C:A7DBH         LINE#         249
  C:A7E1H         LINE#         250
  C:A7E1H         LINE#         251
  C:A7E6H         LINE#         252
  C:A7E6H         LINE#         253
  C:A7E6H         LINE#         254
  -------         ENDPROC       MONDUMPI2C
  -------         PROC          MONNEWREADI2C
  -------         DO            
  X:0005H         SYMBOL        Slave
  -------         ENDDO         
  C:CC42H         LINE#         258
  C:CC42H         LINE#         259
  C:CC42H         LINE#         262
  C:CC54H         LINE#         263
  C:CC54H         LINE#         264
  C:CC5AH         LINE#         266
  C:CC5AH         LINE#         267
  C:CC62H         LINE#         269
  C:CC65H         LINE#         270
  C:CC6AH         LINE#         272
  C:CC78H         LINE#         274
  C:CC7BH         LINE#         275
  C:CC84H         LINE#         277
  C:CC8CH         LINE#         278
  -------         ENDPROC       MONNEWREADI2C
  -------         PROC          MONNEWWRITEI2C
  -------         DO            
  X:0005H         SYMBOL        Slave
  -------         ENDDO         
  C:CA20H         LINE#         280
  C:CA20H         LINE#         281
  C:CA20H         LINE#         284
  C:CA29H         LINE#         285
  C:CA2FH         LINE#         287
  C:CA2FH         LINE#         289
  C:CA2FH         LINE#         290
  C:CA37H         LINE#         291
  C:CA3FH         LINE#         293
  C:CA42H         LINE#         294
  C:CA4AH         LINE#         295
  C:CA4DH         LINE#         296
BL51 BANKED LINKER/LOCATER V5.03                                                      01/25/2013  13:44:25  PAGE 183


  C:CA4FH         LINE#         297
  C:CA4FH         LINE#         298
  C:CA5AH         LINE#         299
  C:CA68H         LINE#         300
  C:CA68H         LINE#         302
  C:CA6BH         LINE#         303
  C:CA74H         LINE#         305
  -------         ENDPROC       MONNEWWRITEI2C
  C:AE64H         SYMBOL        L?0299
  -------         PROC          MONNEWDUMPI2C
  -------         DO            
  X:0005H         SYMBOL        ToMonIndex
  X:0006H         SYMBOL        Slave
  X:0007H         SYMBOL        i
  -------         ENDDO         
  C:ADE4H         LINE#         307
  C:ADE4H         LINE#         308
  C:ADE4H         LINE#         312
  C:ADF4H         LINE#         313
  C:AE01H         LINE#         314
  C:AE09H         LINE#         316
  C:AE0CH         LINE#         317
  C:AE11H         LINE#         318
  C:AE19H         LINE#         319
  C:AE1EH         LINE#         320
  C:AE1EH         LINE#         321
  C:AE23H         LINE#         322
  C:AE23H         LINE#         323
  C:AE23H         LINE#         324
  C:AE2BH         LINE#         325
  C:AE2EH         LINE#         326
  C:AE2EH         LINE#         327
  C:AE33H         LINE#         328
  C:AE33H         LINE#         329
  C:AE33H         LINE#         330
  C:AE33H         LINE#         331
  C:AE3BH         LINE#         332
  C:AE43H         LINE#         333
  C:AE4BH         LINE#         334
  C:AE50H         LINE#         335
  C:AE50H         LINE#         336
  C:AE50H         LINE#         337
  C:AE58H         LINE#         338
  C:AE5EH         LINE#         339
  C:AE63H         LINE#         340
  C:AE63H         LINE#         341
  C:AE63H         LINE#         342
  -------         ENDPROC       MONNEWDUMPI2C
  C:A3A3H         SYMBOL        L?0321
  -------         PROC          MONWRITEBIT
  -------         DO            
  X:0005H         SYMBOL        mask
  D:0006H         SYMBOL        i
  X:0006H         SYMBOL        FromBit
  X:0007H         SYMBOL        ToBit
  X:0008H         SYMBOL        MonMask
  D:0004H         SYMBOL        val
BL51 BANKED LINKER/LOCATER V5.03                                                      01/25/2013  13:44:25  PAGE 184


  X:0009H         SYMBOL        Slave
  -------         ENDDO         
  C:A2CDH         LINE#         345
  C:A2CDH         LINE#         346
  C:A2CDH         LINE#         351
  C:A2D6H         LINE#         352
  C:A2DCH         LINE#         354
  C:A2DCH         LINE#         355
  C:A2E4H         LINE#         357
  C:A2E4H         LINE#         358
  C:A2EEH         LINE#         359
  C:A2F8H         LINE#         360
  C:A303H         LINE#         362
  C:A31CH         LINE#         363
  C:A325H         LINE#         365
  C:A325H         LINE#         367
  C:A32BH         LINE#         368
  C:A32DH         LINE#         369
  C:A339H         LINE#         370
  C:A33FH         LINE#         371
  C:A342H         LINE#         372
  C:A345H         LINE#         374
  C:A347H         LINE#         375
  C:A353H         LINE#         376
  C:A359H         LINE#         377
  C:A35DH         LINE#         378
  C:A360H         LINE#         380
  C:A368H         LINE#         381
  C:A36BH         LINE#         382
  C:A36EH         LINE#         384
  C:A374H         LINE#         385
  C:A377H         LINE#         386
  C:A379H         LINE#         387
  C:A379H         LINE#         388
  C:A37CH         LINE#         389
  C:A37FH         LINE#         391
  C:A385H         LINE#         392
  C:A390H         LINE#         393
  C:A390H         LINE#         395
  C:A393H         LINE#         396
  C:A3A2H         LINE#         398
  -------         ENDPROC       MONWRITEBIT
  -------         PROC          MONTXDUMP
  -------         DO            
  X:0005H         SYMBOL        count
  -------         ENDDO         
  C:D2ECH         LINE#         422
  C:D2ECH         LINE#         423
  C:D2ECH         LINE#         426
  C:D2F1H         LINE#         427
  C:D2FAH         LINE#         429
  C:D2FAH         LINE#         430
  C:D30BH         LINE#         431
  C:D30BH         LINE#         432
  C:D317H         LINE#         433
  C:D31DH         LINE#         434
  C:D327H         LINE#         435
BL51 BANKED LINKER/LOCATER V5.03                                                      01/25/2013  13:44:25  PAGE 185


  -------         ENDPROC       MONTXDUMP
  C:B732H         SYMBOL        L?0298
  C:B743H         SYMBOL        L?0316
  C:B74BH         SYMBOL        L?0329
  -------         PROC          MONHELP
  C:B6B1H         LINE#         440
  C:B6B1H         LINE#         441
  C:B6B1H         LINE#         442
  C:B6BAH         LINE#         443
  C:B6BEH         LINE#         444
  C:B6BEH         LINE#         445
  C:B6C8H         LINE#         446
  C:B6CCH         LINE#         447
  C:B6D6H         LINE#         448
  C:B6DAH         LINE#         449
  C:B6E4H         LINE#         450
  C:B6E8H         LINE#         451
  C:B6F2H         LINE#         452
  C:B6F6H         LINE#         453
  C:B700H         LINE#         454
  C:B709H         LINE#         455
  C:B712H         LINE#         456
  C:B71BH         LINE#         457
  C:B724H         LINE#         458
  C:B728H         LINE#         459
  C:B728H         LINE#         460
  C:B732H         LINE#         461
  -------         ENDPROC       MONHELP
  C:8B17H         SYMBOL        L?0340
  -------         PROC          MONGETCOMMAND
  -------         DO            
  X:00B9H         SYMBOL        comment
  X:00BAH         SYMBOL        incnt
  X:00BBH         SYMBOL        last_argc
  X:0005H         SYMBOL        i
  X:0006H         SYMBOL        ch
  X:0007H         SYMBOL        ret
  -------         ENDDO         
  C:8971H         LINE#         466
  C:8971H         LINE#         467
  C:8971H         LINE#         471
  C:8976H         LINE#         473
  C:897EH         LINE#         474
  C:8986H         LINE#         477
  C:898CH         LINE#         478
  C:89A0H         LINE#         479
  C:89A0H         LINE#         480
  C:89A0H         LINE#         481
  C:89A2H         LINE#         482
  C:89A2H         LINE#         483
  C:89A2H         LINE#         484
  C:89AAH         LINE#         485
  C:89B0H         LINE#         486
  C:89B3H         LINE#         487
  C:89B6H         LINE#         488
  C:89B6H         LINE#         491
  C:89D9H         LINE#         493
BL51 BANKED LINKER/LOCATER V5.03                                                      01/25/2013  13:44:25  PAGE 186


  C:89D9H         LINE#         494
  C:89DEH         LINE#         495
  C:89DEH         LINE#         496
  C:89DEH         LINE#         497
  C:89DEH         LINE#         498
  C:89E0H         LINE#         501
  C:89E0H         LINE#         503
  C:89E6H         LINE#         504
  C:89E9H         LINE#         505
  C:89ECH         LINE#         506
  C:89ECH         LINE#         508
  C:89FBH         LINE#         509
  C:89FFH         LINE#         511
  C:8A14H         LINE#         513
  C:8A1AH         LINE#         514
  C:8A1EH         LINE#         515
  C:8A22H         LINE#         516
  C:8A25H         LINE#         517
  C:8A28H         LINE#         518
  C:8A28H         LINE#         519
  C:8A31H         LINE#         520
  C:8A36H         LINE#         521
  C:8A42H         LINE#         522
  C:8A47H         LINE#         524
  C:8A49H         LINE#         525
  C:8A5CH         LINE#         526
  C:8A62H         LINE#         527
  C:8A65H         LINE#         528
  C:8A7CH         LINE#         529
  C:8A7CH         LINE#         530
  C:8A7CH         LINE#         531
  C:8A81H         LINE#         533
  C:8A86H         LINE#         534
  C:8A89H         LINE#         535
  C:8A8EH         LINE#         537
  C:8A91H         LINE#         540
  C:8A91H         LINE#         541
  C:8A99H         LINE#         542
  C:8A9FH         LINE#         543
  C:8AA1H         LINE#         546
  C:8AA1H         LINE#         547
  C:8AA7H         LINE#         548
  C:8AA9H         LINE#         549
  C:8AACH         LINE#         550
  C:8AB1H         LINE#         551
  C:8AB4H         LINE#         552
  C:8AB4H         LINE#         553
  C:8AB6H         LINE#         556
  C:8AB6H         LINE#         557
  C:8ABCH         LINE#         558
  C:8ABCH         LINE#         559
  C:8ABCH         LINE#         560
  C:8ABEH         LINE#         562
  C:8AC0H         LINE#         563
  C:8AC2H         LINE#         565
  C:8AC2H         LINE#         566
  C:8AC8H         LINE#         567
BL51 BANKED LINKER/LOCATER V5.03                                                      01/25/2013  13:44:25  PAGE 187


  C:8AC8H         LINE#         568
  C:8AC8H         LINE#         569
  C:8ACAH         LINE#         571
  C:8ACCH         LINE#         572
  C:8ACEH         LINE#         574
  C:8ACEH         LINE#         575
  C:8AD4H         LINE#         576
  C:8AD4H         LINE#         577
  C:8AD4H         LINE#         578
  C:8AD6H         LINE#         580
  C:8AD8H         LINE#         581
  C:8ADAH         LINE#         583
  C:8ADAH         LINE#         584
  C:8AE0H         LINE#         585
  C:8AE0H         LINE#         586
  C:8AE0H         LINE#         587
  C:8AE2H         LINE#         589
  C:8AE7H         LINE#         590
  C:8AE9H         LINE#         592
  C:8AE9H         LINE#         593
  C:8AF1H         LINE#         594
  C:8B02H         LINE#         595
  C:8B02H         LINE#         596
  C:8B02H         LINE#         598
  C:8B09H         LINE#         599
  C:8B0DH         LINE#         600
  C:8B10H         LINE#         601
  C:8B11H         LINE#         602
  C:8B11H         LINE#         603
  C:8B11H         LINE#         604
  C:8B16H         LINE#         605
  C:8B16H         LINE#         606
  -------         ENDPROC       MONGETCOMMAND
  C:5C62H         SYMBOL        L?0273
  C:5C76H         SYMBOL        L?0274
  C:5C8AH         SYMBOL        L?0275
  C:5C9EH         SYMBOL        L?0276
  C:5CB2H         SYMBOL        L?0277
  C:5CCAH         SYMBOL        L?0278
  C:5CDEH         SYMBOL        L?0279
  C:5CF6H         SYMBOL        L?0280
  C:5D0AH         SYMBOL        L?0281
  C:5D22H         SYMBOL        L?0282
  C:5D36H         SYMBOL        L?0287
  C:5D4AH         SYMBOL        L?0288
  C:5D5EH         SYMBOL        L?0291
  C:5D72H         SYMBOL        L?0297
  C:5D86H         SYMBOL        L?0304
  C:5D9AH         SYMBOL        L?0307
  -------         PROC          MONITOR
  -------         DO            
  X:0004H         SYMBOL        mode
  -------         ENDDO         
  C:59A0H         LINE#         612
  C:59A0H         LINE#         613
  C:59A0H         LINE#         614
  C:59A9H         LINE#         628
BL51 BANKED LINKER/LOCATER V5.03                                                      01/25/2013  13:44:25  PAGE 188


  C:59ABH         LINE#         631
  C:59B4H         LINE#         632
  C:59B7H         LINE#         633
  C:59BAH         LINE#         634
  C:59C3H         LINE#         635
  C:59C5H         LINE#         636
  C:59C8H         LINE#         637
  C:59CBH         LINE#         649
  C:59D4H         LINE#         650
  C:59D7H         LINE#         651
  C:59DAH         LINE#         652
  C:59E3H         LINE#         653
  C:59E5H         LINE#         654
  C:59E8H         LINE#         655
  C:59EBH         LINE#         666
  C:59F4H         LINE#         667
  C:59FDH         LINE#         668
  C:5A00H         LINE#         669
  C:5A03H         LINE#         670
  C:5A0CH         LINE#         671
  C:5A0EH         LINE#         672
  C:5A11H         LINE#         673
  C:5A14H         LINE#         676
  C:5A1DH         LINE#         677
  C:5A20H         LINE#         678
  C:5A23H         LINE#         762
  C:5A2CH         LINE#         763
  C:5A31H         LINE#         764
  C:5A34H         LINE#         767
  C:5A4FH         LINE#         768
  C:5A52H         LINE#         770
  C:5A55H         LINE#         772
  C:5A5EH         LINE#         774
  C:5A65H         LINE#         775
  C:5A6EH         LINE#         776
  C:5A77H         LINE#         777
  C:5A7DH         LINE#         778
  C:5A80H         LINE#         779
  C:5A80H         LINE#         781
  C:5A88H         LINE#         783
  C:5A88H         LINE#         784
  C:5A8BH         LINE#         794
  C:5A94H         LINE#         795
  C:5A97H         LINE#         796
  C:5A9AH         LINE#         848
  C:5AA3H         LINE#         849
  C:5AAAH         LINE#         850
  C:5AB2H         LINE#         851
  C:5AB5H         LINE#         852
  C:5AB5H         LINE#         853
  C:5AC4H         LINE#         854
  C:5AC7H         LINE#         857
  C:5AD0H         LINE#         858
  C:5AD5H         LINE#         859
  C:5AD7H         LINE#         860
  C:5ADDH         LINE#         861
  C:5AE0H         LINE#         862
BL51 BANKED LINKER/LOCATER V5.03                                                      01/25/2013  13:44:25  PAGE 189


  C:5AE0H         LINE#         863
  C:5AE2H         LINE#         864
  C:5AE8H         LINE#         865
  C:5AE8H         LINE#         866
  C:5AEBH         LINE#         868
  C:5AF4H         LINE#         869
  C:5AF9H         LINE#         870
  C:5AFBH         LINE#         871
  C:5B01H         LINE#         872
  C:5B04H         LINE#         873
  C:5B09H         LINE#         874
  C:5B0BH         LINE#         875
  C:5B11H         LINE#         876
  C:5B14H         LINE#         877
  C:5B14H         LINE#         878
  C:5B1FH         LINE#         879
  C:5B1FH         LINE#         880
  C:5B22H         LINE#         881
  C:5B2BH         LINE#         882
  C:5B30H         LINE#         884
  C:5B36H         LINE#         885
  C:5B39H         LINE#         886
  C:5B40H         LINE#         888
  C:5B44H         LINE#         889
  C:5B47H         LINE#         890
  C:5B47H         LINE#         891
  C:5B50H         LINE#         892
  C:5B50H         LINE#         893
  C:5B53H         LINE#         894
  C:5B5CH         LINE#         895
  C:5B65H         LINE#         896
  C:5B67H         LINE#         897
  C:5B6DH         LINE#         898
  C:5B70H         LINE#         899
  C:5B79H         LINE#         900
  C:5B7BH         LINE#         901
  C:5B81H         LINE#         902
  C:5B84H         LINE#         903
  C:5B84H         LINE#         904
  C:5B8FH         LINE#         905
  C:5B8FH         LINE#         906
  C:5B92H         LINE#         908
  C:5B9BH         LINE#         909
  C:5BA4H         LINE#         910
  C:5BA7H         LINE#         911
  C:5BAAH         LINE#         912
  C:5BB3H         LINE#         913
  C:5BBCH         LINE#         914
  C:5BC5H         LINE#         915
  C:5BCEH         LINE#         916
  C:5BD0H         LINE#         917
  C:5BD0H         LINE#         918
  C:5BD9H         LINE#         919
  C:5BDCH         LINE#         920
  C:5BDFH         LINE#         921
  C:5BE4H         LINE#         922
  C:5BE8H         LINE#         923
BL51 BANKED LINKER/LOCATER V5.03                                                      01/25/2013  13:44:25  PAGE 190


  C:5BE8H         LINE#         1065
  C:5BEBH         LINE#         1068
  C:5BF4H         LINE#         1069
  C:5BF7H         LINE#         1070
  C:5BF9H         LINE#         1072
  C:5C12H         LINE#         1073
  C:5C1BH         LINE#         1074
  C:5C24H         LINE#         1075
  C:5C26H         LINE#         1076
  C:5C3FH         LINE#         1077
  C:5C48H         LINE#         1078
  C:5C4AH         LINE#         1079
  C:5C4AH         LINE#         1080
  C:5C53H         LINE#         1081
  C:5C53H         LINE#         1082
  C:5C55H         LINE#         1107
  C:5C55H         LINE#         1108
  C:5C5EH         LINE#         1109
  C:5C5EH         LINE#         1112
  C:5C61H         LINE#         1115
  -------         ENDPROC       MONITOR
  -------         ENDMOD        MONITOR

  -------         MODULE        ?C?COPY
  C:4CE5H         PUBLIC        ?C?COPY
  -------         ENDMOD        ?C?COPY

  -------         MODULE        ?C?CLDPTR
  C:4D0BH         PUBLIC        ?C?CLDPTR
  -------         ENDMOD        ?C?CLDPTR

  -------         MODULE        ?C?CLDOPTR
  C:4D24H         PUBLIC        ?C?CLDOPTR
  -------         ENDMOD        ?C?CLDOPTR

  -------         MODULE        ?C?CSTPTR
  C:4D51H         PUBLIC        ?C?CSTPTR
  -------         ENDMOD        ?C?CSTPTR

  -------         MODULE        ?C?CSTOPTR
  C:4D63H         PUBLIC        ?C?CSTOPTR
  -------         ENDMOD        ?C?CSTOPTR

  -------         MODULE        ?C?IMUL
  C:4D85H         PUBLIC        ?C?IMUL
  -------         ENDMOD        ?C?IMUL

  -------         MODULE        ?C?UIDIV
  C:4D97H         PUBLIC        ?C?UIDIV
  -------         ENDMOD        ?C?UIDIV

  -------         MODULE        ?C?SIDIV
  C:4DECH         PUBLIC        ?C?SIDIV
  -------         ENDMOD        ?C?SIDIV

  -------         MODULE        ?C?IILDX
  C:4E22H         PUBLIC        ?C?IILDX
BL51 BANKED LINKER/LOCATER V5.03                                                      01/25/2013  13:44:25  PAGE 191


  -------         ENDMOD        ?C?IILDX

  -------         MODULE        ?C?ILDPTR
  C:4E38H         PUBLIC        ?C?ILDPTR
  -------         ENDMOD        ?C?ILDPTR

  -------         MODULE        ?C?ILDOPTR
  C:4E63H         PUBLIC        ?C?ILDOPTR
  -------         ENDMOD        ?C?ILDOPTR

  -------         MODULE        ?C?ISTPTR
  C:4E9BH         PUBLIC        ?C?ISTPTR
  -------         ENDMOD        ?C?ISTPTR

  -------         MODULE        ?C?LADD
  C:4EBAH         PUBLIC        ?C?LADD
  -------         ENDMOD        ?C?LADD

  -------         MODULE        ?C?LMUL
  C:4EC7H         PUBLIC        ?C?LMUL
  -------         ENDMOD        ?C?LMUL

  -------         MODULE        ?C?ULDIV
  C:4F52H         PUBLIC        ?C?ULDIV
  -------         ENDMOD        ?C?ULDIV

  -------         MODULE        ?C?ULCMP
  C:4FE4H         PUBLIC        ?C?ULCMP
  -------         ENDMOD        ?C?ULCMP

  -------         MODULE        ?C?SLSHR
  C:4FF5H         PUBLIC        ?C?SLSHR
  -------         ENDMOD        ?C?SLSHR

  -------         MODULE        ?C?LLDPTR
  C:5009H         PUBLIC        ?C?LLDPTR
  -------         ENDMOD        ?C?LLDPTR

  -------         MODULE        ?C?LLDXDATA
  C:5029H         PUBLIC        ?C?LLDXDATA
  -------         ENDMOD        ?C?LLDXDATA

  -------         MODULE        ?C?LLDXDATA0
  C:5035H         PUBLIC        ?C?LLDXDATA0
  -------         ENDMOD        ?C?LLDXDATA0

  -------         MODULE        ?C?LSTXDATA
  C:5041H         PUBLIC        ?C?LSTXDATA
  -------         ENDMOD        ?C?LSTXDATA

  -------         MODULE        ?C?LSTKXDATA
  C:504DH         PUBLIC        ?C?LSTKXDATA
  -------         ENDMOD        ?C?LSTKXDATA

  -------         MODULE        ?C?OFFXADD
  C:507EH         PUBLIC        ?C?OFFXADD
  -------         ENDMOD        ?C?OFFXADD
BL51 BANKED LINKER/LOCATER V5.03                                                      01/25/2013  13:44:25  PAGE 192



  -------         MODULE        ?C?PLDXDATA
  C:508AH         PUBLIC        ?C?PLDXDATA
  -------         ENDMOD        ?C?PLDXDATA

  -------         MODULE        ?C?PLDIXDATA
  C:5093H         PUBLIC        ?C?PLDIXDATA
  -------         ENDMOD        ?C?PLDIXDATA

  -------         MODULE        ?C?PSTXDATA
  C:50AAH         PUBLIC        ?C?PSTXDATA
  -------         ENDMOD        ?C?PSTXDATA

  -------         MODULE        ?C?PLDCODE
  C:50B3H         PUBLIC        ?C?PLDCODE
  -------         ENDMOD        ?C?PLDCODE

  -------         MODULE        ?C?PLDPTR
  C:50BFH         PUBLIC        ?C?PLDPTR
  -------         ENDMOD        ?C?PLDPTR

  -------         MODULE        ?C?PLDOPTR
  C:50DFH         PUBLIC        ?C?PLDOPTR
  -------         ENDMOD        ?C?PLDOPTR

  -------         MODULE        ?C?CCASE
  C:510FH         PUBLIC        ?C?CCASE
  -------         ENDMOD        ?C?CCASE

  -------         MODULE        ABS
  C:DC63H         PUBLIC        _abs
  -------         ENDMOD        ABS

  -------         MODULE        ?C?LLDIDATA
  C:5135H         PUBLIC        ?C?LLDIDATA
  -------         ENDMOD        ?C?LLDIDATA

  -------         MODULE        ?C?LLDPDATA
  C:5141H         PUBLIC        ?C?LLDPDATA
  -------         ENDMOD        ?C?LLDPDATA

  -------         MODULE        ?C?LLDCODE
  C:514DH         PUBLIC        ?C?LLDCODE
  -------         ENDMOD        ?C?LLDCODE

  -------         MODULE        ?C?PLDIDATA
  C:515DH         PUBLIC        ?C?PLDIDATA
  -------         ENDMOD        ?C?PLDIDATA

  -------         MODULE        ?C?PLDPDATA
  C:5166H         PUBLIC        ?C?PLDPDATA
  -------         ENDMOD        ?C?PLDPDATA

*** WARNING L16: UNCALLED SEGMENT, IGNORED FOR OVERLAY PROCESS
    SEGMENT: ?PR?ACCPOWERCONTROL?MAIN

*** WARNING L16: UNCALLED SEGMENT, IGNORED FOR OVERLAY PROCESS
BL51 BANKED LINKER/LOCATER V5.03                                                      01/25/2013  13:44:25  PAGE 193


    SEGMENT: ?PR?CHKOSDMENU_TOPWIN?OSDMENU

*** WARNING L16: UNCALLED SEGMENT, IGNORED FOR OVERLAY PROCESS
    SEGMENT: ?PR?CHKOSDMENU_WINDOW?OSDMENU

*** WARNING L16: UNCALLED SEGMENT, IGNORED FOR OVERLAY PROCESS
    SEGMENT: ?PR?CHKOSDMENU?OSDMENU

*** WARNING L16: UNCALLED SEGMENT, IGNORED FOR OVERLAY PROCESS
    SEGMENT: ?PR?SELECTBOXHANDLER?HS_KEYREMO

*** WARNING L16: UNCALLED SEGMENT, IGNORED FOR OVERLAY PROCESS
    SEGMENT: ?PR?HS_PROTOCOL_INIT?HS_DVRPROTOCOL

*** WARNING L16: UNCALLED SEGMENT, IGNORED FOR OVERLAY PROCESS
    SEGMENT: ?PR?DVRCOMMANDRESEND?HS_DVRPROTOCOL

Program Size: data=108.5 xdata=322 code=56904
LINK/LOCATE RUN COMPLETE.  7 WARNING(S),  0 ERROR(S)
