BL51 BANKED LINKER/LOCATER V6.22                                                        12/09/2015  15:21:44  PAGE 1


BL51 BANKED LINKER/LOCATER V6.22, INVOKED BY:
C:\KEIL\C51\BIN\BL51.EXE .\Output\adc.obj, .\Output\cpu.obj, .\Output\dispinfo.obj, .\Output\etc_eep.obj, .\Output\I2c.o
>> bj, .\Output\keyremo.obj, .\Output\Main.obj, .\Output\Measure.obj, .\Output\Osdbasic.obj, .\Output\osdmenu.obj, .\Out
>> put\pc_eep.obj, .\Output\Printf.obj, .\Output\table.obj, .\Output\TW88.obj, .\Output\udfont.obj, .\Output\HS_keyremo.
>> obj, .\Output\HS_DisplayOSD.obj, .\Output\audio.obj, .\Output\Debug.obj, .\Output\HS_DVRProtocol.obj TO .\Output\HTRV
>> _ML072Q PRINT (.\Source\HTRV_ML072Q.m51) RAMSIZE (256)




PROGRAM RECURSIONS REMOVED FROM CALL TREE
=========================================
+--> ?PR?_SETSOURCEMODE?HS_KEYREMO
|  | ?PR?_CHANGEINPUT?MAIN
|  | ?PR?DISPLAYINPUT?DISPINFO
|  | ?PR?CLEAROSDINFO?DISPINFO
|  | ?PR?CLOSEOSDMENU?OSDMENU
<--+ ?PR?SETNOWMODE?HS_KEYREMO



MEMORY MODEL: LARGE


INPUT MODULES INCLUDED:
  .\Output\adc.obj (ADC)
  .\Output\cpu.obj (CPU)
  .\Output\dispinfo.obj (DISPINFO)
  .\Output\etc_eep.obj (ETC_EEP)
  .\Output\I2c.obj (I2C)
  .\Output\keyremo.obj (KEYREMO)
  .\Output\Main.obj (MAIN)
  .\Output\Measure.obj (MEASURE)
  .\Output\Osdbasic.obj (OSDBASIC)
  .\Output\osdmenu.obj (OSDMENU)
  .\Output\pc_eep.obj (PC_EEP)
  .\Output\Printf.obj (PRINTF)
  .\Output\table.obj (TABLE)
  .\Output\TW88.obj (TW88)
  .\Output\udfont.obj (UDFONT)
  .\Output\HS_keyremo.obj (HS_KEYREMO)
  .\Output\HS_DisplayOSD.obj (HS_DISPLAYOSD)
  .\Output\audio.obj (AUDIO)
  .\Output\Debug.obj (DEBUG)
  .\Output\HS_DVRProtocol.obj (HS_DVRPROTOCOL)
  C:\KEIL\C51\LIB\C51L.LIB (?C_STARTUP)
  C:\KEIL\C51\LIB\C51L.LIB (?C?COPY)
  C:\KEIL\C51\LIB\C51L.LIB (?C?CLDPTR)
  C:\KEIL\C51\LIB\C51L.LIB (?C?CLDOPTR)
  C:\KEIL\C51\LIB\C51L.LIB (?C?CSTPTR)
  C:\KEIL\C51\LIB\C51L.LIB (?C?IMUL)
  C:\KEIL\C51\LIB\C51L.LIB (?C?UIDIV)
  C:\KEIL\C51\LIB\C51L.LIB (?C?SIDIV)
  C:\KEIL\C51\LIB\C51L.LIB (?C?IILDX)
  C:\KEIL\C51\LIB\C51L.LIB (?C?ILDPTR)
  C:\KEIL\C51\LIB\C51L.LIB (?C?ILDOPTR)
  C:\KEIL\C51\LIB\C51L.LIB (?C?ISTPTR)
  C:\KEIL\C51\LIB\C51L.LIB (?C?LMUL)
BL51 BANKED LINKER/LOCATER V6.22                                                      12/09/2015  15:21:44  PAGE 2


  C:\KEIL\C51\LIB\C51L.LIB (?C?ULDIV)
  C:\KEIL\C51\LIB\C51L.LIB (?C?ULCMP)
  C:\KEIL\C51\LIB\C51L.LIB (?C?SLSHR)
  C:\KEIL\C51\LIB\C51L.LIB (?C?LLDPTR)
  C:\KEIL\C51\LIB\C51L.LIB (?C?LLDXDATA)
  C:\KEIL\C51\LIB\C51L.LIB (?C?LLDXDATA0)
  C:\KEIL\C51\LIB\C51L.LIB (?C?LSTXDATA)
  C:\KEIL\C51\LIB\C51L.LIB (?C?LSTKXDATA)
  C:\KEIL\C51\LIB\C51L.LIB (?C?OFFXADD)
  C:\KEIL\C51\LIB\C51L.LIB (?C?PLDXDATA)
  C:\KEIL\C51\LIB\C51L.LIB (?C?PLDIXDATA)
  C:\KEIL\C51\LIB\C51L.LIB (?C?PSTXDATA)
  C:\KEIL\C51\LIB\C51L.LIB (?C?PLDCODE)
  C:\KEIL\C51\LIB\C51L.LIB (?C?PLDPTR)
  C:\KEIL\C51\LIB\C51L.LIB (?C?PLDOPTR)
  C:\KEIL\C51\LIB\C51L.LIB (?C?CCASE)
  C:\KEIL\C51\LIB\C51L.LIB (ABS)
  C:\KEIL\C51\LIB\C51L.LIB (?C_INIT)
  C:\KEIL\C51\LIB\C51L.LIB (?C?LLDIDATA)
  C:\KEIL\C51\LIB\C51L.LIB (?C?LLDPDATA)
  C:\KEIL\C51\LIB\C51L.LIB (?C?LLDCODE)
  C:\KEIL\C51\LIB\C51L.LIB (?C?PLDIDATA)
  C:\KEIL\C51\LIB\C51L.LIB (?C?PLDPDATA)


LINK MAP OF MODULE:  .\Output\HTRV_ML072Q (ADC)


            TYPE    BASE      LENGTH    RELOCATION   SEGMENT NAME
            -----------------------------------------------------

            * * * * * * *   D A T A   M E M O R Y   * * * * * * *
            REG     0000H     0008H     ABSOLUTE     "REG BANK 0"
            REG     0008H     0008H     ABSOLUTE     "REG BANK 1"
            DATA    0010H     000AH     UNIT         ?DT?OSDBASIC
            DATA    001AH     0005H     UNIT         ?DT?OSDMENU
                    001FH     0001H                  *** GAP ***
            BIT     0020H.0   0001H.0   UNIT         ?BI?MAIN
            BIT     0021H.0   0000H.5   UNIT         ?BI?CPU
            BIT     0021H.5   0000H.5   UNIT         ?BI?HS_DVRPROTOCOL
            BIT     0022H.2   0000H.3   UNIT         ?BI?HS_KEYREMO
            BIT     0022H.5   0000H.2   UNIT         ?BI?OSDMENU
            BIT     0022H.7   0000H.2   UNIT         _BIT_GROUP_
            BIT     0023H.1   0000H.1   UNIT         ?BI?KEYREMO
            BIT     0023H.2   0000H.1   UNIT         ?BI?HS_DISPLAYOSD
                    0023H.3   0000H.5                *** GAP ***
            DATA    0024H     003FH     UNIT         ?DT?CPU
            DATA    0063H     0007H     UNIT         ?DT?MAIN
            DATA    006AH     0002H     UNIT         ?DT?DISPINFO
            IDATA   006CH     0001H     UNIT         ?STACK

            * * * * * * *  X D A T A   M E M O R Y  * * * * * * *
            XDATA   0000H     0067H     UNIT         _XDATA_GROUP_
            XDATA   0067H     0048H     UNIT         ?XD?HS_DVRPROTOCOL
            XDATA   00AFH     0021H     UNIT         ?XD?OSDMENU
            XDATA   00D0H     0014H     UNIT         ?XD?MAIN
            XDATA   00E4H     000DH     UNIT         ?XD?HS_KEYREMO
BL51 BANKED LINKER/LOCATER V6.22                                                      12/09/2015  15:21:44  PAGE 3


            XDATA   00F1H     000AH     UNIT         ?XD?CPU
            XDATA   00FBH     0008H     UNIT         ?XD?KEYREMO
            XDATA   0103H     0003H     UNIT         ?XD?DISPINFO
            XDATA   0106H     0003H     UNIT         ?XD?AUDIO
            XDATA   0109H     0002H     UNIT         ?XD?TW88
            XDATA   010BH     0001H     UNIT         ?XD?ETC_EEP
            XDATA   010CH     0001H     UNIT         ?XD?HS_DISPLAYOSD

            * * * * * * *   C O D E   M E M O R Y   * * * * * * *
            CODE    0000H     0003H     ABSOLUTE     
            CODE    0003H     0008H     UNIT         ?PR?_RS_TX?CPU
            CODE    000BH     0003H     ABSOLUTE     
            CODE    000EH     0004H     UNIT         ?PR?GETOSDPOSITIONMODE?OSDMENU
            CODE    0012H     0001H     UNIT         ?PR?DD?I2C
            CODE    0013H     0003H     ABSOLUTE     
            CODE    0016H     000DH     UNIT         ?PR?I2CSTOP?I2C
            CODE    0023H     0003H     ABSOLUTE     
            CODE    0026H     0003H     UNIT         ?PR?EXT1_INT?CPU
            CODE    0029H     0001H     UNIT         ?PR?ON_LVDS?TW88
            CODE    002AH     0001H     UNIT         ?PR?OFF_LVDS?TW88
            CODE    002BH     0003H     ABSOLUTE     
            CODE    002EH     0035H     UNIT         ?PR?OSDHIGHMENU?OSDMENU
            CODE    0063H     0003H     ABSOLUTE     
            CODE    0066H     1777H     UNIT         ?CO?OSDMENU
            CODE    17DDH     14F2H     UNIT         ?CO?UDFONT
            CODE    2CCFH     08B6H     UNIT         ?PR?_SETITEMVALUE?OSDMENU
            CODE    3585H     088DH     UNIT         ?CO?CPU
            CODE    3E12H     052BH     UNIT         ?C?LIB_CODE
            CODE    433DH     03C4H     UNIT         ?PR?OSDMENU
            CODE    4701H     0392H     UNIT         ?PR?_DISPLAYOSDMENUONEITEM?OSDMENU
            CODE    4A93H     0321H     UNIT         ?PR?_DOPRINT?PRINTF
            CODE    4DB4H     02D8H     UNIT         ?PR?CHECKKEYIN?KEYREMO
            CODE    508CH     02A0H     UNIT         ?CO?TABLE
            CODE    532CH     0255H     UNIT         ?PR?_TW2835COMMAND?CPU
            CODE    5581H     0210H     UNIT         ?PR?_GETITEMVALUE?OSDMENU
            CODE    5791H     020CH     UNIT         ?PR?_CAM_TXCOMMAND_TORS485?HS_DVRPROTOCOL
            CODE    599DH     01E4H     UNIT         ?PR?_TRIGGERHANDLER?HS_KEYREMO
            CODE    5B81H     01CBH     UNIT         ?PR?RESETOSDVALUE?OSDMENU
            CODE    5D4CH     01BBH     UNIT         ?PR?_DRAWMENULIST?OSDMENU
            CODE    5F07H     01B3H     UNIT         ?PR?OSDSELECT?OSDMENU
            CODE    60BAH     0190H     UNIT         ?PR?_OSDCURSORMOVE?OSDMENU
            CODE    624AH     016DH     UNIT         ?PR?DISPLAYINFO_OSD?OSDMENU
            CODE    63B7H     0169H     UNIT         ?PR?_SETOSDPOSITIONMODE?OSDMENU
            CODE    6520H     0150H     UNIT         ?PR?TIMER0_INT?CPU
            CODE    6670H     0125H     UNIT         ?PR?_OSDVALUEUPDN?OSDMENU
            CODE    6795H     0121H     UNIT         ?PR?_UTOA?OSDBASIC
            CODE    68B6H     0121H     UNIT         ?PR?_CHANGEVOL?AUDIO
            CODE    69D7H     0114H     UNIT         ?PR?MAIN_LOOP?MAIN
            CODE    6AEBH     0114H     UNIT         ?CO?MAIN
            CODE    6BFFH     010DH     UNIT         ?PR?MAIN_INIT?CPU
            CODE    6D0CH     010DH     UNIT         ?CO?HS_KEYREMO
            CODE    6E19H     0108H     UNIT         ?CO?KEYREMO
            CODE    6F21H     0102H     UNIT         ?PR?_SET4WIDESCREEN?OSDMENU
            CODE    7023H     0101H     UNIT         ?PR?DISPLAYGAUGEOSD?HS_DISPLAYOSD
            CODE    7124H     00FDH     UNIT         ?PR?LOADEEPROM?MAIN
            CODE    7221H     00FBH     UNIT         ?PR?DISPLAYOSDMENU?OSDMENU
            CODE    731CH     00F4H     UNIT         ?PR?_GETKEY?KEYREMO
BL51 BANKED LINKER/LOCATER V6.22                                                      12/09/2015  15:21:44  PAGE 4


            CODE    7410H     00EDH     UNIT         ?PR?_SETVIDEOMODE?OSDMENU
            CODE    74FDH     00E6H     UNIT         ?CO?OSDBASIC
            CODE    75E3H     00DFH     UNIT         ?C_INITSEG
            CODE    76C2H     00DDH     UNIT         ?PR?DISPLAYCURSOR?OSDMENU
            CODE    779FH     00DBH     UNIT         ?PR?_DISPLAYVIEWBAR?OSDMENU
            CODE    787AH     00DAH     UNIT         ?PR?_ACTIONREMO?KEYREMO
            CODE    7954H     00D5H     UNIT         ?PR?DISPLAYINPUT?DISPINFO
            CODE    7A29H     00D2H     UNIT         ?PR?_DRAWNUM?OSDMENU
            CODE    7AFBH     00D1H     UNIT         ?PR?_ADJUSTAUTODAYNIGHT?MAIN
            CODE    7BCCH     00D0H     UNIT         ?PR?_DRAWSTRINGBYLANG?OSDMENU
            CODE    7C9CH     00CDH     UNIT         ?PR?DISPLAYVOL?DISPINFO
            CODE    7D69H     00C3H     UNIT         ?CO?HS_DISPLAYOSD
            CODE    7E2CH     00B1H     UNIT         ?PR?_DISPLAYINFORMATION?HS_DISPLAYOSD
            CODE    7EDDH     00ADH     UNIT         ?PR?_SETPCCOLOR?OSDMENU
            CODE    7F8AH     00ADH     UNIT         ?PR?_DOACTION?OSDMENU
            CODE    8037H     00A6H     UNIT         ?PR?OSDHIGHMENU_SUB?OSDMENU
            CODE    80DDH     00A5H     UNIT         ?PR?_MAPPING1?TW88
            CODE    8182H     00A4H     UNIT         ?CO?DISPINFO
            CODE    8226H     00A3H     UNIT         ?PR?_SETVIDEOSHARPNESS?OSDMENU
            CODE    82C9H     00A2H     UNIT         ?PR?_INITOSDWINDOW?OSDBASIC
            CODE    836BH     009EH     UNIT         ?PR?CHECKDECODERINPUT?MAIN
            CODE    8409H     009EH     UNIT         ?PR?_CHANGEVIDEODATA?OSDMENU
            CODE    84A7H     0099H     UNIT         ?PR?_CHANGEINPUT?MAIN
            CODE    8540H     0098H     UNIT         ?PR?CHECKANDCLEAROSD?DISPINFO
            CODE    85D8H     0091H     UNIT         ?PR?CHECKTRIGGER?HS_KEYREMO
            CODE    8669H     0090H     UNIT         ?PR?_DISPLAYVOLUMEBAR?OSDMENU
            CODE    86F9H     008CH     UNIT         ?C_C51STARTUP
            CODE    8785H     008BH     UNIT         ?PR?INITTECHWELL?CPU
            CODE    8810H     0088H     UNIT         ?PR?SETPOSSIBLEAUTODETECTSTDEE?ETC_EEP
            CODE    8898H     0088H     UNIT         ?PR?OSDBASIC
            CODE    8920H     0083H     UNIT         ?PR?INITOSDMENU?OSDMENU
            CODE    89A3H     0082H     UNIT         ?PR?_INITVIDEODATA?MAIN
            CODE    8A25H     0081H     UNIT         ?PR?SEND_PELCOP_COMMAND?HS_DVRPROTOCOL
            CODE    8AA6H     0080H     UNIT         ?PR?SETSELECTMODE?HS_KEYREMO
            CODE    8B26H     007DH     UNIT         ?PR?WAITPOWERON?MAIN
            CODE    8BA3H     007CH     UNIT         ?PR?_LCDPOWERON?TW88
            CODE    8C1FH     007CH     UNIT         ?PR?SEND_PELCOD_COMMAND?HS_DVRPROTOCOL
            CODE    8C9BH     007BH     UNIT         ?PR?_SETPCCOLORTEMP?OSDMENU
            CODE    8D16H     0070H     UNIT         ?PR?_SETVIDEOSATURATION?OSDMENU
            CODE    8D86H     006CH     UNIT         ?PR?_SETVIDEOHUE?OSDMENU
            CODE    8DF2H     006CH     UNIT         ?PR?HS_KEYREMO
            CODE    8E5EH     0069H     UNIT         ?PR?_I2CWRITEDATA?I2C
            CODE    8EC7H     0069H     UNIT         ?PR?_SETVIDEOBACKLIGHT?OSDMENU
            CODE    8F30H     0068H     UNIT         ?PR?_SETRGBCONTRAST?OSDMENU
            CODE    8F98H     0066H     UNIT         ?PR?RESETVIDEOVALUE?OSDMENU
            CODE    8FFEH     0061H     UNIT         ?PR?GETFWREVEE?ETC_EEP
            CODE    905FH     005EH     UNIT         ?PR?_DOWNLOADFONT?OSDBASIC
            CODE    90BDH     005EH     UNIT         ?PR?INITOSDMENUXY?OSDMENU
            CODE    911BH     005BH     UNIT         ?PR?CHANGE_OSDCOLORLOOKUP?OSDBASIC
            CODE    9176H     005BH     UNIT         ?PR?PRINTF
            CODE    91D1H     0059H     UNIT         ?PR?GETVINPUTSTDINX?MAIN
            CODE    922AH     0058H     UNIT         ?PR?CHECKPANELIMAGE?OSDMENU
            CODE    9282H     0057H     UNIT         ?PR?MAIN?MAIN
            CODE    92D9H     0057H     UNIT         ?PR?_GETOSDWINDOWY?OSDBASIC
            CODE    9330H     0056H     UNIT         ?PR?DETECTDECODERINPUT?TW88
            CODE    9386H     0055H     UNIT         ?PR?SETNOWMODE?HS_KEYREMO
            CODE    93DBH     0054H     UNIT         ?PR?SETJUMPMODE?HS_KEYREMO
BL51 BANKED LINKER/LOCATER V6.22                                                      12/09/2015  15:21:44  PAGE 5


            CODE    942FH     0054H     UNIT         ?PR?DISPLAYFWVERSION?HS_DISPLAYOSD
            CODE    9483H     0053H     UNIT         ?PR?CLEAROSDINFO?DISPINFO
            CODE    94D6H     0052H     UNIT         ?PR?SETREARSOURCE?HS_KEYREMO
            CODE    9528H     0050H     UNIT         ?PR?TW88
            CODE    9578H     004FH     UNIT         ?PR?_I2CDEVICEINITIALIZE?MAIN
            CODE    95C7H     004DH     UNIT         ?PR?CLEARCURSOR?OSDMENU
            CODE    9614H     004DH     UNIT         ?PR?_CAMOUTDSEL?OSDMENU
            CODE    9661H     004CH     UNIT         ?PR?_SETVIDEOBRIGHTNESS?OSDMENU
            CODE    96ADH     004BH     UNIT         ?PR?INITCPU?CPU
            CODE    96F8H     004BH     UNIT         ?PR?_GETOSDWINDOWX?OSDBASIC
            CODE    9743H     0048H     UNIT         ?PR?_WAIT_MS?CPU
            CODE    978BH     0047H     UNIT         ?PR?_WRITEEEP?I2C
            CODE    97D2H     0045H     UNIT         ?PR?_GETLOWERMENUITEM?OSDMENU
            CODE    9817H     0044H     UNIT         ?PR?_SAVEFWREVEE?ETC_EEP
            CODE    985BH     0044H     UNIT         ?PR?_SHOWOSDWINDOW_TW88?OSDBASIC
            CODE    989FH     0042H     UNIT         ?PR?_SETOSDWINDOWY_TW88?OSDBASIC
            CODE    98E1H     0041H     UNIT         ?PR?_WRITEI2CN?I2C
            CODE    9922H     0041H     UNIT         ?PR?_GETTARGETCHILD?OSDMENU
            CODE    9963H     003FH     UNIT         ?PR?CPU
            CODE    99A2H     003FH     UNIT         ?PR?_SETOSDWINDOWX_TW88?OSDBASIC
            CODE    99E1H     003FH     UNIT         ?PR?_SETVIDEOCONTRAST?OSDMENU
            CODE    9A20H     003EH     UNIT         ?PR?_WRITEI2CND?I2C
            CODE    9A5EH     003EH     UNIT         ?PR?CLOSEOSDMENU?OSDMENU
            CODE    9A9CH     003EH     UNIT         ?PR?_SETSOURCEMODE?HS_KEYREMO
            CODE    9ADAH     003DH     UNIT         ?PR?GETTIME_MS?CPU
            CODE    9B17H     003CH     UNIT         ?PR?CLEARBASICEE?ETC_EEP
            CODE    9B53H     003AH     UNIT         ?PR?LCDPOWEROFF?TW88
            CODE    9B8DH     0039H     UNIT         ?PR?_READI2C?I2C
            CODE    9BC6H     0039H     UNIT         ?PR?_WRITEI2CN_?I2C
            CODE    9BFFH     0039H     UNIT         ?PR?_SETVINPUTSTD?MAIN
            CODE    9C38H     0038H     UNIT         ?PR?DOWNLOADUDFONT?OSDBASIC
            CODE    9C70H     0035H     UNIT         ?PR?HS_DVRPROTOCOL
            CODE    9CA5H     0034H     UNIT         ?PR?SERIAL_INT?CPU
            CODE    9CD9H     0034H     UNIT         ?PR?OPENOSDMENU?OSDMENU
            CODE    9D0DH     0033H     UNIT         ?PR?_WRITESTRINGTOADDR?OSDBASIC
            CODE    9D40H     0031H     UNIT         ?PR?SERIAL2_INT?CPU
            CODE    9D71H     0031H     UNIT         ?PR?_DRAWATTRCNT?OSDBASIC
            CODE    9DA2H     0030H     UNIT         ?PR?I2CREADDATA?I2C
            CODE    9DD2H     0030H     UNIT         ?PR?_GET_CURSOR_ITEM?OSDMENU
            CODE    9E02H     002FH     UNIT         ?PR?_SHOWOSDWINDOWALL?OSDBASIC
            CODE    9E31H     002DH     UNIT         ?PR?WAITENDOFDISPLAYAREA?OSDBASIC
            CODE    9E5EH     002DH     UNIT         ?PR?_CLEARDATACNT?OSDBASIC
            CODE    9E8BH     002CH     UNIT         ?PR?PUSHMENU?OSDMENU
            CODE    9EB7H     002CH     UNIT         ?CO?HS_DVRPROTOCOL
            CODE    9EE3H     0029H     UNIT         ?PR?SETRIGHTSOURCE?HS_KEYREMO
            CODE    9F0CH     0029H     UNIT         ?PR?HS_DISPLAYOSD
            CODE    9F35H     0028H     UNIT         ?PR?MAIN
            CODE    9F5DH     0028H     UNIT         ?PR?SAVEVALUE1?OSDMENU
            CODE    9F85H     0027H     UNIT         ?PR?_PRINTF?PRINTF
            CODE    9FACH     0026H     UNIT         ?PR?CLEARTVINFO?DISPINFO
            CODE    9FD2H     0026H     UNIT         ?PR?_READEEP?I2C
            CODE    9FF8H     0026H     UNIT         ?PR?_WRITEI2C?I2C
            CODE    A01EH     0026H     UNIT         ?CO?TW88
            CODE    A044H     0024H     UNIT         ?PR?COMPOSITE1INPUT?TW88
            CODE    A068H     0024H     UNIT         ?PR?COMPOSITE2INPUT?TW88
            CODE    A08CH     0023H     UNIT         ?PR?REMOVOLUP_RIGHTKEY?KEYREMO
            CODE    A0AFH     0023H     UNIT         ?PR?REMOVOLDN_LEFTKEY?KEYREMO
BL51 BANKED LINKER/LOCATER V6.22                                                      12/09/2015  15:21:44  PAGE 6


            CODE    A0D2H     0023H     UNIT         ?PR?READVINPUTSTD?MAIN
            CODE    A0F5H     0022H     UNIT         ?PR?SETLEFTSOURCE?HS_KEYREMO
            CODE    A117H     0021H     UNIT         ?PR?_GETVIDEODATAFROMEE?ETC_EEP
            CODE    A138H     0021H     UNIT         ?PR?SEQMODE?HS_KEYREMO
            CODE    A159H     0020H     UNIT         ?PR?SETAUTODETECTSTD?TW88
            CODE    A179H     001FH     UNIT         ?PR?_DIFFTIME_MS?CPU
            CODE    A198H     001FH     UNIT         ?PR?GETNEXTINPUTSELECTION?MAIN
            CODE    A1B7H     001EH     UNIT         ?PR?INITVARS?CPU
            CODE    A1D5H     001EH     UNIT         ?PR?_POWERLED?CPU
            CODE    A1F3H     001EH     UNIT         ?PR?I2C
            CODE    A211H     001DH     UNIT         ?PR?_SETLANGUAGE?OSDMENU
            CODE    A22EH     001DH     UNIT         ?PR?_CLEARAUTODETECTSTD?TW88
            CODE    A24BH     001CH     UNIT         ?PR?POPMENU?OSDMENU
            CODE    A267H     001CH     UNIT         ?PR?_GETNEXTCURSORMENUITEM?OSDMENU
            CODE    A283H     001BH     UNIT         ?PR?_STRLEN?OSDBASIC
            CODE    A29EH     001BH     UNIT         ?PR?_PUTS?PRINTF
            CODE    A2B9H     0019H     UNIT         ?CO?AUDIO
            CODE    A2D2H     0018H     UNIT         ?PR?_DELAY?CPU
            CODE    A2EAH     0016H     UNIT         ?PR?CLEARINPUT?DISPINFO
            CODE    A300H     0012H     UNIT         ?PR?I2CSTART?I2C
            CODE    A312H     0011H     UNIT         ?PR?_SAVEVIDEODATATOEE?ETC_EEP
            CODE    A323H     0011H     UNIT         ?PR?ISNOINPUT?MAIN
            CODE    A334H     0011H     UNIT         ?PR?GETOSDLANG?OSDMENU
            CODE    A345H     0011H     UNIT         ?CO?PRINTF
            CODE    A356H     0010H     UNIT         ?PR?HS_INITVARS?MAIN
            CODE    A366H     000FH     UNIT         ?PR?TIMER2_INT?CPU
            CODE    A375H     000FH     UNIT         ?PR?CLEARMUTEINFO?DISPINFO
            CODE    A384H     000FH     UNIT         ?PR?DISPINFO
            CODE    A393H     000FH     UNIT         ?PR?GETLCDPOWERSTATE?TW88
            CODE    A3A2H     000FH     UNIT         ?PR?CLEARGAUGEINFO?HS_DISPLAYOSD
            CODE    A3B1H     000EH     UNIT         ?PR?REMOMENU_MENUKEY?KEYREMO
            CODE    A3BFH     000DH     UNIT         ?PR?REMOCHNUP_UPKEY?KEYREMO
            CODE    A3CCH     000DH     UNIT         ?PR?REMOCHNDN_DNKEY?KEYREMO
            CODE    A3D9H     000DH     UNIT         ?PR?POWEROFF?MAIN
            CODE    A3E6H     000CH     UNIT         ?PR?_CLEARDISPLAYEDOSD?DISPINFO
            CODE    A3F2H     000CH     UNIT         ?PR?SETOSDLASTKEYINTIME?MAIN
            CODE    A3FEH     000CH     UNIT         ?PR?CLEARVALUEWIN?OSDMENU
            CODE    A40AH     000CH     UNIT         ?PR?_ABS?ABS
            CODE    A416H     000BH     UNIT         ?PR?RS_READY?CPU
            CODE    A421H     0009H     UNIT         ?PR?_SAVEDEBUGLEVELEE?ETC_EEP
            CODE    A42AH     0009H     UNIT         ?PR?_SAVEWIDEMODEEE?ETC_EEP
            CODE    A433H     0009H     UNIT         ?PR?_SAVEOSDPOSITIONMODEEE?ETC_EEP
            CODE    A43CH     0009H     UNIT         ?PR?_SAVEINPUTSELECTIONEE?ETC_EEP
            CODE    A445H     0009H     UNIT         ?PR?_SAVEOSDLANGEE?ETC_EEP
            CODE    A44EH     0009H     UNIT         ?PR?_SETAUDIOVOLEE?ETC_EEP
            CODE    A457H     0009H     UNIT         ?PR?_SETPCAUDIOVOLEE?ETC_EEP
            CODE    A460H     0009H     UNIT         ?PR?POWERDOWN_XTAL?MAIN
            CODE    A469H     0009H     UNIT         ?PR?GETOSDLASTKEYINTIME?MAIN
            CODE    A472H     0009H     UNIT         ?PR?_GETUPPERMENUITEM?OSDMENU
            CODE    A47BH     0009H     UNIT         ?PR?AUDIOMUTE?AUDIO
            CODE    A484H     0008H     UNIT         ?PR?_RS2_TX?CPU
            CODE    A48CH     0008H     UNIT         ?PR?GETDEBUGLEVELEE?ETC_EEP
            CODE    A494H     0008H     UNIT         ?PR?GETWIDEMODEEE?ETC_EEP
            CODE    A49CH     0008H     UNIT         ?PR?GETPOSSIBLEAUTODETECTSTDEE?ETC_EEP
            CODE    A4A4H     0008H     UNIT         ?PR?GETOSDPOSITIONMODEEE?ETC_EEP
            CODE    A4ACH     0008H     UNIT         ?PR?GETOSDLANGEE?ETC_EEP
            CODE    A4B4H     0008H     UNIT         ?PR?GETAUDIOVOLEE?ETC_EEP
BL51 BANKED LINKER/LOCATER V6.22                                                      12/09/2015  15:21:44  PAGE 7


            CODE    A4BCH     0008H     UNIT         ?PR?GETPCAUDIOVOLEE?ETC_EEP
            CODE    A4C4H     0008H     UNIT         ?PR?KEYREMO
            CODE    A4CCH     0007H     UNIT         ?PR?_SETDISPLAYEDOSD?DISPINFO
            CODE    A4D3H     0007H     UNIT         ?PR?_GETVIDEODATAWITHOFFSET?OSDMENU
            CODE    A4DAH     0006H     UNIT         ?PR?GETDISPLAYEDOSD?DISPINFO
            CODE    A4E0H     0006H     UNIT         ?PR?GETVINPUTSTD?MAIN
            CODE    A4E6H     0006H     UNIT         ?PR?GETINPUTSELECTION?MAIN
            CODE    A4ECH     0003H     UNIT         ?PR?ISINPUTANALOGRGB?OSDMENU



OVERLAY MAP OF MODULE:   .\Output\HTRV_ML072Q (ADC)


SEGMENT                                             BIT_GROUP          XDATA_GROUP
  +--> CALLED SEGMENT                            START    LENGTH     START    LENGTH
------------------------------------------------------------------------------------
?C_C51STARTUP                                    -----    -----      -----    -----
  +--> ?PR?MAIN?MAIN
  +--> ?C_INITSEG

?PR?MAIN?MAIN                                    -----    -----      -----    -----
  +--> ?PR?AUDIOMUTE?AUDIO
  +--> ?PR?_WAIT_MS?CPU
  +--> ?PR?INITCPU?CPU
  +--> ?PR?_POWERLED?CPU
  +--> ?PR?INITVARS?CPU
  +--> ?PR?HS_INITVARS?MAIN
  +--> ?PR?INITTECHWELL?CPU
  +--> ?PR?MAIN_INIT?CPU
  +--> ?PR?LOADEEPROM?MAIN
  +--> ?PR?_READEEP?I2C
  +--> ?PR?_CAMOUTDSEL?OSDMENU
  +--> ?PR?MAIN_LOOP?MAIN
  +--> ?PR?WAITPOWERON?MAIN

?PR?AUDIOMUTE?AUDIO                              0022H.7  0000H.1    -----    -----

?PR?_WAIT_MS?CPU                                 -----    -----      0024H    0004H

?PR?INITVARS?CPU                                 -----    -----      -----    -----
  +--> ?PR?_DELAY?CPU
  +--> ?PR?POWERDOWN_XTAL?MAIN

?PR?POWERDOWN_XTAL?MAIN                          0022H.7  0000H.1    -----    -----

?PR?INITTECHWELL?CPU                             -----    -----      -----    -----
  +--> ?PR?_READI2C?I2C
  +--> ?CO?CPU
  +--> ?PR?_PUTS?PRINTF
  +--> ?PR?_PRINTF?PRINTF
  +--> ?PR?RS_READY?CPU
  +--> ?PR?_DELAY?CPU
  +--> ?PR?CPU

?PR?_READI2C?I2C                                 -----    -----      0034H    0003H
  +--> ?PR?I2CSTART?I2C
BL51 BANKED LINKER/LOCATER V6.22                                                      12/09/2015  15:21:44  PAGE 8


  +--> ?PR?_I2CWRITEDATA?I2C
  +--> ?PR?I2CREADDATA?I2C
  +--> ?PR?I2CSTOP?I2C

?PR?I2CSTART?I2C                                 -----    -----      -----    -----
  +--> ?PR?DD?I2C

?PR?_I2CWRITEDATA?I2C                            -----    -----      -----    -----
  +--> ?PR?I2C

?PR?I2C                                          -----    -----      -----    -----
  +--> ?PR?DD?I2C

?PR?I2CREADDATA?I2C                              -----    -----      -----    -----
  +--> ?PR?DD?I2C

?PR?I2CSTOP?I2C                                  -----    -----      -----    -----
  +--> ?PR?DD?I2C

?PR?_PUTS?PRINTF                                 -----    -----      001EH    0003H
  +--> ?PR?PRINTF
  +--> ?PR?_RS_TX?CPU

?PR?_PRINTF?PRINTF                               -----    -----      0024H    002EH
  +--> ?PR?_DOPRINT?PRINTF

?PR?_DOPRINT?PRINTF                              0022H.7  0000H.2    0052H    0015H
  +--> ?PR?PRINTF
  +--> ?CO?PRINTF

?PR?MAIN_INIT?CPU                                -----    -----      0000H    0002H
  +--> ?PR?_WRITEI2C?I2C
  +--> ?PR?GETFWREVEE?ETC_EEP
  +--> ?PR?CPU
  +--> ?CO?CPU
  +--> ?PR?_PRINTF?PRINTF
  +--> ?PR?_SAVEFWREVEE?ETC_EEP
  +--> ?PR?_SAVEDEBUGLEVELEE?ETC_EEP
  +--> ?PR?_SAVEINPUTSELECTIONEE?ETC_EEP
  +--> ?PR?CLEARBASICEE?ETC_EEP
  +--> ?PR?GETDEBUGLEVELEE?ETC_EEP
  +--> ?PR?_SETVINPUTSTD?MAIN
  +--> ?PR?_LCDPOWERON?TW88
  +--> ?PR?_READEEP?I2C
  +--> ?PR?SETPOSSIBLEAUTODETECTSTDEE?ETC_EEP
  +--> ?PR?CHANGE_OSDCOLORLOOKUP?OSDBASIC
  +--> ?PR?DOWNLOADUDFONT?OSDBASIC

?PR?_WRITEI2C?I2C                                -----    -----      0055H    0003H
  +--> ?PR?I2C
  +--> ?PR?I2CSTART?I2C
  +--> ?PR?_I2CWRITEDATA?I2C
  +--> ?PR?I2CSTOP?I2C

?PR?GETFWREVEE?ETC_EEP                           -----    -----      0002H    0002H
  +--> ?PR?_READEEP?I2C

BL51 BANKED LINKER/LOCATER V6.22                                                      12/09/2015  15:21:44  PAGE 9


?PR?_READEEP?I2C                                 -----    -----      0033H    0001H
  +--> ?PR?_READI2C?I2C
  +--> ?PR?_DELAY?CPU

?PR?_SAVEFWREVEE?ETC_EEP                         -----    -----      0002H    0002H
  +--> ?PR?_WRITEEEP?I2C

?PR?_WRITEEEP?I2C                                -----    -----      0028H    0004H
  +--> ?PR?I2CSTART?I2C
  +--> ?PR?_I2CWRITEDATA?I2C
  +--> ?PR?I2CSTOP?I2C
  +--> ?PR?_DELAY?CPU

?PR?_SAVEDEBUGLEVELEE?ETC_EEP                    -----    -----      -----    -----
  +--> ?PR?_WRITEEEP?I2C

?PR?_SAVEINPUTSELECTIONEE?ETC_EEP                -----    -----      -----    -----
  +--> ?PR?_WRITEEEP?I2C

?PR?CLEARBASICEE?ETC_EEP                         -----    -----      -----    -----
  +--> ?PR?_WRITEEEP?I2C
  +--> ?PR?_READEEP?I2C
  +--> ?PR?RESETOSDVALUE?OSDMENU
  +--> ?PR?RESETVIDEOVALUE?OSDMENU
  +--> ?PR?_SET4WIDESCREEN?OSDMENU

?PR?RESETOSDVALUE?OSDMENU                        -----    -----      -----    -----
  +--> ?CO?OSDMENU
  +--> ?PR?_SAVEOSDPOSITIONMODEEE?ETC_EEP
  +--> ?PR?_READEEP?I2C
  +--> ?PR?_WRITEEEP?I2C
  +--> ?PR?_CHANGEVOL?AUDIO
  +--> ?PR?_CAMOUTDSEL?OSDMENU
  +--> ?PR?_PUTS?PRINTF
  +--> ?PR?_CLEARDATACNT?OSDBASIC
  +--> ?PR?LOADEEPROM?MAIN
  +--> ?PR?_SAVEOSDLANGEE?ETC_EEP
  +--> ?PR?INITOSDMENU?OSDMENU

?PR?_SAVEOSDPOSITIONMODEEE?ETC_EEP               -----    -----      -----    -----
  +--> ?PR?_WRITEEEP?I2C

?PR?_CHANGEVOL?AUDIO                             -----    -----      0018H    0002H
  +--> ?PR?AUDIOMUTE?AUDIO
  +--> ?CO?OSDMENU
  +--> ?PR?_WRITEI2C?I2C
  +--> ?CO?AUDIO
  +--> ?PR?_SETPCAUDIOVOLEE?ETC_EEP
  +--> ?PR?_SETAUDIOVOLEE?ETC_EEP
  +--> ?PR?_PRINTF?PRINTF

?PR?_SETPCAUDIOVOLEE?ETC_EEP                     -----    -----      -----    -----
  +--> ?PR?_WRITEEEP?I2C

?PR?_SETAUDIOVOLEE?ETC_EEP                       -----    -----      -----    -----
  +--> ?PR?_WRITEEEP?I2C

BL51 BANKED LINKER/LOCATER V6.22                                                      12/09/2015  15:21:44  PAGE 10


?PR?_CAMOUTDSEL?OSDMENU                          -----    -----      0012H    0001H
  +--> ?CO?OSDMENU
  +--> ?PR?_PUTS?PRINTF

?PR?_CLEARDATACNT?OSDBASIC                       -----    -----      0030H    0003H
  +--> ?PR?OSDBASIC
  +--> ?PR?_WRITEI2C?I2C
  +--> ?PR?_WRITEI2CND?I2C

?PR?_WRITEI2CND?I2C                              -----    -----      0034H    0005H
  +--> ?PR?I2C
  +--> ?PR?I2CSTART?I2C
  +--> ?PR?_I2CWRITEDATA?I2C
  +--> ?PR?I2CSTOP?I2C

?PR?LOADEEPROM?MAIN                              -----    -----      -----    -----
  +--> ?PR?_READEEP?I2C
  +--> ?PR?GETAUDIOVOLEE?ETC_EEP
  +--> ?PR?GETPCAUDIOVOLEE?ETC_EEP

?PR?GETAUDIOVOLEE?ETC_EEP                        -----    -----      -----    -----
  +--> ?PR?_READEEP?I2C

?PR?GETPCAUDIOVOLEE?ETC_EEP                      -----    -----      -----    -----
  +--> ?PR?_READEEP?I2C

?PR?_SAVEOSDLANGEE?ETC_EEP                       -----    -----      -----    -----
  +--> ?PR?_WRITEEEP?I2C

?PR?INITOSDMENU?OSDMENU                          -----    -----      000DH    0001H
  +--> ?PR?GETOSDLANGEE?ETC_EEP
  +--> ?PR?GETINPUTSELECTION?MAIN
  +--> ?CO?OSDMENU
  +--> ?PR?OSDMENU
  +--> ?CO?OSDBASIC
  +--> ?PR?_INITOSDWINDOW?OSDBASIC
  +--> ?PR?_CLEARDATACNT?OSDBASIC
  +--> ?PR?GETOSDPOSITIONMODEEE?ETC_EEP
  +--> ?PR?INITOSDMENUXY?OSDMENU
  +--> ?PR?DISPLAYOSDMENU?OSDMENU

?PR?GETOSDLANGEE?ETC_EEP                         -----    -----      -----    -----
  +--> ?PR?_READEEP?I2C

?PR?OSDMENU                                      -----    -----      -----    -----
  +--> ?CO?OSDMENU
  +--> ?CO?MAIN

?PR?_INITOSDWINDOW?OSDBASIC                      -----    -----      001BH    0005H
  +--> ?PR?_READI2C?I2C
  +--> ?PR?_WRITEI2C?I2C
  +--> ?PR?OSDBASIC
  +--> ?PR?_WRITEI2CN_?I2C

?PR?_WRITEI2CN_?I2C                              -----    -----      0020H    0006H
  +--> ?PR?I2CSTART?I2C
  +--> ?PR?_I2CWRITEDATA?I2C
BL51 BANKED LINKER/LOCATER V6.22                                                      12/09/2015  15:21:44  PAGE 11


  +--> ?PR?I2C
  +--> ?PR?I2CSTOP?I2C

?PR?GETOSDPOSITIONMODEEE?ETC_EEP                 -----    -----      -----    -----
  +--> ?PR?_READEEP?I2C

?PR?INITOSDMENUXY?OSDMENU                        -----    -----      000EH    0007H
  +--> ?CO?OSDMENU
  +--> ?PR?OSDMENU
  +--> ?PR?_GETOSDWINDOWX?OSDBASIC
  +--> ?PR?_SETOSDWINDOWX_TW88?OSDBASIC
  +--> ?PR?_GETOSDWINDOWY?OSDBASIC
  +--> ?PR?_SETOSDWINDOWY_TW88?OSDBASIC

?PR?_GETOSDWINDOWX?OSDBASIC                      -----    -----      0028H    0002H
  +--> ?PR?OSDBASIC
  +--> ?PR?_WRITEI2C?I2C
  +--> ?PR?_READI2C?I2C

?PR?_SETOSDWINDOWX_TW88?OSDBASIC                 -----    -----      0015H    0003H
  +--> ?PR?OSDBASIC
  +--> ?PR?_WRITEI2C?I2C
  +--> ?PR?_READI2C?I2C

?PR?_GETOSDWINDOWY?OSDBASIC                      -----    -----      0028H    0002H
  +--> ?PR?OSDBASIC
  +--> ?PR?_WRITEI2C?I2C
  +--> ?PR?_READI2C?I2C

?PR?_SETOSDWINDOWY_TW88?OSDBASIC                 -----    -----      0015H    0003H
  +--> ?PR?OSDBASIC
  +--> ?PR?_WRITEI2C?I2C
  +--> ?PR?_READI2C?I2C

?PR?DISPLAYOSDMENU?OSDMENU                       -----    -----      -----    -----
  +--> ?PR?_DRAWATTRCNT?OSDBASIC
  +--> ?PR?OSDMENU
  +--> ?PR?GETINPUTSELECTION?MAIN
  +--> ?PR?_READEEP?I2C
  +--> ?PR?_DRAWMENULIST?OSDMENU
  +--> ?PR?PUSHMENU?OSDMENU
  +--> ?PR?POPMENU?OSDMENU
  +--> ?PR?DISPLAYCURSOR?OSDMENU

?PR?_DRAWATTRCNT?OSDBASIC                        -----    -----      0030H    0004H
  +--> ?PR?OSDBASIC
  +--> ?PR?_WRITEI2C?I2C
  +--> ?PR?_WRITEI2CND?I2C

?PR?_DRAWMENULIST?OSDMENU                        -----    -----      0011H    000CH
  +--> ?PR?OSDMENU
  +--> ?PR?_STRLEN?OSDBASIC
  +--> ?PR?_DRAWATTRCNT?OSDBASIC
  +--> ?PR?_WRITESTRINGTOADDR?OSDBASIC
  +--> ?PR?_CLEARDATACNT?OSDBASIC
  +--> ?PR?_WRITEI2C?I2C
  +--> ?PR?_DISPLAYOSDMENUONEITEM?OSDMENU
BL51 BANKED LINKER/LOCATER V6.22                                                      12/09/2015  15:21:44  PAGE 12


  +--> ?PR?_GETLOWERMENUITEM?OSDMENU

?PR?_STRLEN?OSDBASIC                             -----    -----      004FH    0003H

?PR?_WRITESTRINGTOADDR?OSDBASIC                  -----    -----      004FH    0006H
  +--> ?PR?OSDBASIC
  +--> ?PR?_WRITEI2C?I2C
  +--> ?PR?_WRITEI2CN?I2C

?PR?_WRITEI2CN?I2C                               -----    -----      0055H    0007H
  +--> ?PR?I2C
  +--> ?PR?I2CSTART?I2C
  +--> ?PR?_I2CWRITEDATA?I2C
  +--> ?PR?I2CSTOP?I2C

?PR?_DISPLAYOSDMENUONEITEM?OSDMENU               -----    -----      001DH    0013H
  +--> ?PR?OSDMENU
  +--> ?PR?_DRAWATTRCNT?OSDBASIC
  +--> ?PR?_CLEARDATACNT?OSDBASIC
  +--> ?PR?_GETITEMVALUE?OSDMENU
  +--> ?PR?_DISPLAYVIEWBAR?OSDMENU
  +--> ?PR?_DRAWNUM?OSDMENU
  +--> ?CO?OSDMENU
  +--> ?PR?_WRITESTRINGTOADDR?OSDBASIC
  +--> ?PR?_DRAWSTRINGBYLANG?OSDMENU
  +--> ?PR?_STRLEN?OSDBASIC

?PR?_GETITEMVALUE?OSDMENU                        -----    -----      0030H    0003H
  +--> ?PR?_READEEP?I2C
  +--> ?PR?GETOSDPOSITIONMODE?OSDMENU
  +--> ?PR?_GETVIDEODATAWITHOFFSET?OSDMENU
  +--> ?PR?OSDMENU

?PR?GETOSDPOSITIONMODE?OSDMENU                   -----    -----      -----    -----
  +--> ?PR?GETOSDPOSITIONMODEEE?ETC_EEP

?PR?_GETVIDEODATAWITHOFFSET?OSDMENU              -----    -----      -----    -----
  +--> ?PR?_GETVIDEODATAFROMEE?ETC_EEP
  +--> ?PR?OSDMENU

?PR?_GETVIDEODATAFROMEE?ETC_EEP                  -----    -----      -----    -----
  +--> ?PR?_READEEP?I2C

?PR?_DISPLAYVIEWBAR?OSDMENU                      -----    -----      0030H    0010H
  +--> ?CO?OSDMENU
  +--> ?PR?OSDMENU
  +--> ?PR?_WRITESTRINGTOADDR?OSDBASIC

?PR?_DRAWNUM?OSDMENU                             -----    -----      0030H    001FH
  +--> ?PR?OSDMENU
  +--> ?CO?OSDMENU
  +--> ?PR?_UTOA?OSDBASIC
  +--> ?PR?_STRLEN?OSDBASIC
  +--> ?PR?_WRITESTRINGTOADDR?OSDBASIC

?PR?_UTOA?OSDBASIC                               -----    -----      004FH    000EH
  +--> ?PR?OSDBASIC
BL51 BANKED LINKER/LOCATER V6.22                                                      12/09/2015  15:21:44  PAGE 13



?PR?_DRAWSTRINGBYLANG?OSDMENU                    -----    -----      0030H    0018H
  +--> ?PR?OSDMENU
  +--> ?CO?OSDMENU
  +--> ?PR?_WRITESTRINGTOADDR?OSDBASIC
  +--> ?PR?_STRLEN?OSDBASIC

?PR?_GETLOWERMENUITEM?OSDMENU                    -----    -----      001DH    0004H

?PR?PUSHMENU?OSDMENU                             -----    -----      -----    -----
  +--> ?PR?OSDMENU

?PR?POPMENU?OSDMENU                              -----    -----      -----    -----
  +--> ?PR?OSDMENU

?PR?DISPLAYCURSOR?OSDMENU                        -----    -----      000EH    0004H
  +--> ?PR?OSDMENU
  +--> ?PR?_DRAWATTRCNT?OSDBASIC
  +--> ?PR?_GETITEMVALUE?OSDMENU

?PR?RESETVIDEOVALUE?OSDMENU                      -----    -----      0009H    0002H
  +--> ?CO?OSDMENU
  +--> ?PR?_SETVIDEOMODE?OSDMENU
  +--> ?PR?_SAVEVIDEODATATOEE?ETC_EEP

?PR?_SETVIDEOMODE?OSDMENU                        -----    -----      001EH    0007H
  +--> ?PR?_WRITEEEP?I2C
  +--> ?CO?OSDMENU
  +--> ?PR?_WRITEI2C?I2C
  +--> ?PR?OSDMENU
  +--> ?PR?_GETVIDEODATAWITHOFFSET?OSDMENU
  +--> ?PR?_SETVIDEOCONTRAST?OSDMENU
  +--> ?PR?_SETVIDEOBRIGHTNESS?OSDMENU
  +--> ?PR?_SETVIDEOSATURATION?OSDMENU
  +--> ?PR?_SETVIDEOHUE?OSDMENU
  +--> ?PR?_MAPPING1?TW88
  +--> ?PR?_READI2C?I2C

?PR?_SETVIDEOCONTRAST?OSDMENU                    -----    -----      0025H    0003H
  +--> ?PR?GETINPUTSELECTION?MAIN
  +--> ?PR?OSDMENU
  +--> ?CO?OSDMENU
  +--> ?PR?_MAPPING1?TW88
  +--> ?PR?_WRITEI2C?I2C

?PR?_MAPPING1?TW88                               -----    -----      0029H    000FH
  +--> ?PR?TW88

?PR?_SETVIDEOBRIGHTNESS?OSDMENU                  -----    -----      0025H    0003H
  +--> ?PR?OSDMENU
  +--> ?CO?OSDMENU
  +--> ?PR?_MAPPING1?TW88
  +--> ?PR?ISINPUTANALOGRGB?OSDMENU
  +--> ?PR?_WRITEI2C?I2C

?PR?_SETVIDEOSATURATION?OSDMENU                  -----    -----      0025H    0004H
  +--> ?PR?ISINPUTANALOGRGB?OSDMENU
BL51 BANKED LINKER/LOCATER V6.22                                                      12/09/2015  15:21:44  PAGE 14


  +--> ?PR?OSDMENU
  +--> ?CO?OSDMENU
  +--> ?PR?_MAPPING1?TW88
  +--> ?PR?_READI2C?I2C
  +--> ?PR?_WRITEI2C?I2C

?PR?_SETVIDEOHUE?OSDMENU                         -----    -----      0025H    0003H
  +--> ?PR?OSDMENU
  +--> ?CO?OSDMENU
  +--> ?PR?_MAPPING1?TW88
  +--> ?PR?_READI2C?I2C
  +--> ?PR?ISINPUTANALOGRGB?OSDMENU
  +--> ?PR?_WRITEI2C?I2C

?PR?_SAVEVIDEODATATOEE?ETC_EEP                   -----    -----      -----    -----
  +--> ?PR?_WRITEEEP?I2C

?PR?_SET4WIDESCREEN?OSDMENU                      -----    -----      001EH    0006H
  +--> ?PR?_READEEP?I2C
  +--> ?PR?GETVINPUTSTD?MAIN
  +--> ?CO?OSDMENU
  +--> ?PR?WAITENDOFDISPLAYAREA?OSDBASIC
  +--> ?PR?OSDMENU
  +--> ?PR?_WRITEI2C?I2C
  +--> ?PR?_SAVEWIDEMODEEE?ETC_EEP

?PR?WAITENDOFDISPLAYAREA?OSDBASIC                -----    -----      0028H    0002H
  +--> ?PR?_READI2C?I2C

?PR?_SAVEWIDEMODEEE?ETC_EEP                      -----    -----      -----    -----
  +--> ?PR?_WRITEEEP?I2C

?PR?GETDEBUGLEVELEE?ETC_EEP                      -----    -----      -----    -----
  +--> ?PR?_READEEP?I2C

?PR?_SETVINPUTSTD?MAIN                           -----    -----      -----    -----
  +--> ?PR?MAIN

?PR?MAIN                                         -----    -----      -----    -----
  +--> ?CO?MAIN

?PR?_LCDPOWERON?TW88                             -----    -----      -----    -----
  +--> ?PR?CHECKTRIGGER?HS_KEYREMO
  +--> ?PR?_POWERLED?CPU
  +--> ?PR?GETLCDPOWERSTATE?TW88
  +--> ?PR?OFF_LVDS?TW88
  +--> ?PR?_WAIT_MS?CPU
  +--> ?PR?_DELAY?CPU
  +--> ?PR?ON_LVDS?TW88
  +--> ?PR?_WRITEI2C?I2C
  +--> ?CO?TW88
  +--> ?PR?_PUTS?PRINTF

?PR?CHECKTRIGGER?HS_KEYREMO                      -----    -----      0018H    0001H
  +--> ?PR?_WAIT_MS?CPU
  +--> ?CO?HS_KEYREMO
  +--> ?PR?HS_KEYREMO
BL51 BANKED LINKER/LOCATER V6.22                                                      12/09/2015  15:21:44  PAGE 15


  +--> ?PR?_PRINTF?PRINTF

?PR?HS_KEYREMO                                   -----    -----      -----    -----
  +--> ?CO?HS_KEYREMO

?PR?GETLCDPOWERSTATE?TW88                        -----    -----      -----    -----
  +--> ?PR?_READI2C?I2C

?PR?SETPOSSIBLEAUTODETECTSTDEE?ETC_EEP           -----    -----      0002H    0002H
  +--> ?CO?MAIN
  +--> ?PR?_WRITEEEP?I2C

?PR?CHANGE_OSDCOLORLOOKUP?OSDBASIC               -----    -----      000DH    0002H
  +--> ?CO?UDFONT
  +--> ?PR?_WRITEI2C?I2C

?PR?DOWNLOADUDFONT?OSDBASIC                      -----    -----      0002H    0001H
  +--> ?PR?_WRITEI2C?I2C
  +--> ?CO?UDFONT
  +--> ?PR?_DOWNLOADFONT?OSDBASIC

?PR?_DOWNLOADFONT?OSDBASIC                       -----    -----      0003H    0004H
  +--> ?PR?_READI2C?I2C
  +--> ?PR?_WRITEI2C?I2C
  +--> ?PR?_WRITEI2CN?I2C

?PR?MAIN_LOOP?MAIN                               -----    -----      0000H    0001H
  +--> ?CO?MAIN
  +--> ?PR?_PUTS?PRINTF
  +--> ?PR?CHECKTRIGGER?HS_KEYREMO
  +--> ?PR?_TRIGGERHANDLER?HS_KEYREMO
  +--> ?PR?SEQMODE?HS_KEYREMO
  +--> ?PR?_READI2C?I2C
  +--> ?PR?_ADJUSTAUTODAYNIGHT?MAIN
  +--> ?PR?CHECKKEYIN?KEYREMO
  +--> ?PR?_READEEP?I2C
  +--> ?PR?GETDISPLAYEDOSD?DISPINFO
  +--> ?PR?CLEARINPUT?DISPINFO
  +--> ?PR?SETNOWMODE?HS_KEYREMO
  +--> ?PR?CHECKANDCLEAROSD?DISPINFO
  +--> ?PR?GETINPUTSELECTION?MAIN
  +--> ?PR?CHECKDECODERINPUT?MAIN
  +--> ?PR?_WRITEI2C?I2C
  +--> ?PR?_POWERLED?CPU
  +--> ?PR?_WAIT_MS?CPU

?PR?_TRIGGERHANDLER?HS_KEYREMO                   -----    -----      0003H    000AH
  +--> ?PR?GETDISPLAYEDOSD?DISPINFO
  +--> ?CO?HS_KEYREMO
  +--> ?PR?SETREARSOURCE?HS_KEYREMO
  +--> ?PR?CLEARGAUGEINFO?HS_DISPLAYOSD
  +--> ?PR?SETLEFTSOURCE?HS_KEYREMO
  +--> ?PR?CLEAROSDINFO?DISPINFO
  +--> ?PR?INITOSDMENU?OSDMENU
  +--> ?PR?CHANGE_OSDCOLORLOOKUP?OSDBASIC
  +--> ?PR?SETRIGHTSOURCE?HS_KEYREMO
  +--> ?PR?_READEEP?I2C
BL51 BANKED LINKER/LOCATER V6.22                                                      12/09/2015  15:21:44  PAGE 16


  +--> ?PR?CHECKTRIGGER?HS_KEYREMO
  +--> ?PR?_WAIT_MS?CPU
  +--> ?PR?DISPLAYINPUT?DISPINFO
  +--> ?PR?SETNOWMODE?HS_KEYREMO
  +--> ?PR?HS_KEYREMO
  +--> ?PR?_PRINTF?PRINTF

?PR?SETREARSOURCE?HS_KEYREMO                     -----    -----      000DH    0001H
  +--> ?PR?_READEEP?I2C
  +--> ?CO?HS_KEYREMO
  +--> ?PR?HS_KEYREMO
  +--> ?PR?_SETSOURCEMODE?HS_KEYREMO
  +--> ?PR?_PRINTF?PRINTF
  +--> ?PR?DISPLAYGAUGEOSD?HS_DISPLAYOSD

?PR?_SETSOURCEMODE?HS_KEYREMO                    -----    -----      0012H    0005H
  +--> ?CO?HS_KEYREMO
  +--> ?PR?_TW2835COMMAND?CPU
  +--> ?PR?_CHANGEINPUT?MAIN

?PR?_TW2835COMMAND?CPU                           -----    -----      0017H    000DH
  +--> ?PR?CPU
  +--> ?CO?CPU
  +--> ?PR?_PRINTF?PRINTF
  +--> ?PR?GETTIME_MS?CPU
  +--> ?PR?_ABS?ABS
  +--> ?PR?_WAIT_MS?CPU

?PR?GETTIME_MS?CPU                               -----    -----      0024H    0002H

?PR?_CHANGEINPUT?MAIN                            -----    -----      0017H    0001H
  +--> ?PR?LCDPOWEROFF?TW88
  +--> ?PR?_INITVIDEODATA?MAIN
  +--> ?PR?COMPOSITE1INPUT?TW88
  +--> ?CO?MAIN
  +--> ?PR?COMPOSITE2INPUT?TW88
  +--> ?PR?_PRINTF?PRINTF
  +--> ?PR?CHECKPANELIMAGE?OSDMENU
  +--> ?PR?_SAVEINPUTSELECTIONEE?ETC_EEP
  +--> ?PR?_DELAY?CPU
  +--> ?PR?CHECKDECODERINPUT?MAIN
  +--> ?PR?DISPLAYINPUT?DISPINFO
  +--> ?PR?_LCDPOWERON?TW88
  +--> ?PR?_WRITEI2C?I2C
  +--> ?PR?_CHANGEVOL?AUDIO

?PR?LCDPOWEROFF?TW88                             -----    -----      -----    -----
  +--> ?PR?_WRITEI2C?I2C
  +--> ?PR?OFF_LVDS?TW88
  +--> ?PR?_WAIT_MS?CPU
  +--> ?PR?_DELAY?CPU

?PR?_INITVIDEODATA?MAIN                          -----    -----      001DH    0001H
  +--> ?CO?TABLE
  +--> ?PR?_I2CDEVICEINITIALIZE?MAIN
  +--> ?PR?MAIN
  +--> ?PR?_WRITEI2C?I2C
BL51 BANKED LINKER/LOCATER V6.22                                                      12/09/2015  15:21:44  PAGE 17


  +--> ?PR?_CLEARAUTODETECTSTD?TW88
  +--> ?PR?SETAUTODETECTSTD?TW88
  +--> ?PR?_READEEP?I2C
  +--> ?PR?_SETVIDEOMODE?OSDMENU
  +--> ?PR?GETWIDEMODEEE?ETC_EEP
  +--> ?PR?_SET4WIDESCREEN?OSDMENU

?PR?_I2CDEVICEINITIALIZE?MAIN                    -----    -----      001EH    0006H
  +--> ?PR?MAIN
  +--> ?PR?_WRITEI2C?I2C

?PR?_CLEARAUTODETECTSTD?TW88                     -----    -----      001EH    0001H
  +--> ?PR?_READI2C?I2C
  +--> ?PR?_WRITEI2C?I2C

?PR?SETAUTODETECTSTD?TW88                        -----    -----      -----    -----
  +--> ?PR?GETPOSSIBLEAUTODETECTSTDEE?ETC_EEP
  +--> ?PR?_WRITEI2C?I2C
  +--> ?PR?_READI2C?I2C

?PR?GETPOSSIBLEAUTODETECTSTDEE?ETC_EEP           -----    -----      -----    -----
  +--> ?PR?_READEEP?I2C

?PR?GETWIDEMODEEE?ETC_EEP                        -----    -----      -----    -----
  +--> ?PR?_READEEP?I2C

?PR?COMPOSITE1INPUT?TW88                         -----    -----      -----    -----
  +--> ?PR?_WRITEI2C?I2C
  +--> ?PR?_READI2C?I2C

?PR?COMPOSITE2INPUT?TW88                         -----    -----      -----    -----
  +--> ?PR?_WRITEI2C?I2C
  +--> ?PR?_READI2C?I2C

?PR?CHECKPANELIMAGE?OSDMENU                      -----    -----      -----    -----
  +--> ?PR?_READI2C?I2C
  +--> ?PR?_WRITEI2C?I2C

?PR?CHECKDECODERINPUT?MAIN                       -----    -----      0018H    0005H
  +--> ?PR?DETECTDECODERINPUT?TW88
  +--> ?PR?_SETVINPUTSTD?MAIN
  +--> ?PR?_DELAY?CPU
  +--> ?PR?_INITVIDEODATA?MAIN

?PR?DETECTDECODERINPUT?TW88                      -----    -----      001DH    0002H
  +--> ?PR?_DELAY?CPU
  +--> ?PR?_READI2C?I2C

?PR?DISPLAYINPUT?DISPINFO                        -----    -----      0018H    0003H
  +--> ?PR?CLEAROSDINFO?DISPINFO
  +--> ?CO?OSDBASIC
  +--> ?PR?_INITOSDWINDOW?OSDBASIC
  +--> ?PR?_CLEARDATACNT?OSDBASIC
  +--> ?PR?_DRAWATTRCNT?OSDBASIC
  +--> ?CO?DISPINFO
  +--> ?PR?_WRITESTRINGTOADDR?OSDBASIC
  +--> ?PR?GETINPUTSELECTION?MAIN
BL51 BANKED LINKER/LOCATER V6.22                                                      12/09/2015  15:21:44  PAGE 18


  +--> ?CO?MAIN
  +--> ?PR?DISPINFO
  +--> ?PR?_STRLEN?OSDBASIC
  +--> ?PR?_READEEP?I2C
  +--> ?PR?_PRINTF?PRINTF
  +--> ?PR?_SHOWOSDWINDOW_TW88?OSDBASIC
  +--> ?PR?_SHOWOSDWINDOWALL?OSDBASIC
  +--> ?PR?GETTIME_MS?CPU

?PR?CLEAROSDINFO?DISPINFO                        -----    -----      001BH    0001H
  +--> ?PR?GETDISPLAYEDOSD?DISPINFO
  +--> ?CO?DISPINFO
  +--> ?PR?_PRINTF?PRINTF
  +--> ?PR?CLEARTVINFO?DISPINFO
  +--> ?PR?CLEARMUTEINFO?DISPINFO
  +--> ?PR?CLEARINPUT?DISPINFO
  +--> ?PR?CLOSEOSDMENU?OSDMENU
  +--> ?PR?CLEARGAUGEINFO?HS_DISPLAYOSD

?PR?CLEARTVINFO?DISPINFO                         -----    -----      -----    -----
  +--> ?PR?_SHOWOSDWINDOW_TW88?OSDBASIC

?PR?_SHOWOSDWINDOW_TW88?OSDBASIC                 -----    -----      001CH    0002H
  +--> ?PR?OSDBASIC
  +--> ?PR?_WRITEI2C?I2C
  +--> ?PR?_READI2C?I2C
  +--> ?PR?WAITENDOFDISPLAYAREA?OSDBASIC

?PR?CLEARMUTEINFO?DISPINFO                       -----    -----      -----    -----
  +--> ?PR?_SHOWOSDWINDOW_TW88?OSDBASIC

?PR?CLEARINPUT?DISPINFO                          -----    -----      -----    -----
  +--> ?PR?_SHOWOSDWINDOWALL?OSDBASIC
  +--> ?PR?_SHOWOSDWINDOW_TW88?OSDBASIC

?PR?_SHOWOSDWINDOWALL?OSDBASIC                   -----    -----      001DH    0002H
  +--> ?PR?WAITENDOFDISPLAYAREA?OSDBASIC
  +--> ?PR?_READI2C?I2C
  +--> ?PR?_WRITEI2C?I2C

?PR?CLOSEOSDMENU?OSDMENU                         -----    -----      001CH    0001H
  +--> ?PR?_SHOWOSDWINDOWALL?OSDBASIC
  +--> ?PR?WAITENDOFDISPLAYAREA?OSDBASIC
  +--> ?PR?_WRITEI2C?I2C
  +--> ?PR?_CLEARDISPLAYEDOSD?DISPINFO
  +--> ?PR?SETNOWMODE?HS_KEYREMO

?PR?SETNOWMODE?HS_KEYREMO                        -----    -----      001DH    0001H
  +--> ?CO?HS_KEYREMO
  +--> ?PR?HS_KEYREMO
  +--> ?PR?_PRINTF?PRINTF
  +--> ?PR?_PUTS?PRINTF
  +--> ?PR?_READEEP?I2C

?PR?CLEARGAUGEINFO?HS_DISPLAYOSD                 -----    -----      -----    -----
  +--> ?PR?_SHOWOSDWINDOW_TW88?OSDBASIC

BL51 BANKED LINKER/LOCATER V6.22                                                      12/09/2015  15:21:44  PAGE 19


?PR?DISPINFO                                     -----    -----      -----    -----
  +--> ?CO?MAIN

?PR?DISPLAYGAUGEOSD?HS_DISPLAYOSD                -----    -----      000EH    0001H
  +--> ?PR?CLEAROSDINFO?DISPINFO
  +--> ?PR?HS_DISPLAYOSD
  +--> ?PR?_INITOSDWINDOW?OSDBASIC
  +--> ?PR?_CLEARDATACNT?OSDBASIC
  +--> ?PR?_DRAWATTRCNT?OSDBASIC
  +--> ?PR?_READEEP?I2C
  +--> ?PR?_WRITEI2C?I2C
  +--> ?CO?HS_DISPLAYOSD
  +--> ?PR?_WRITESTRINGTOADDR?OSDBASIC
  +--> ?PR?_SETDISPLAYEDOSD?DISPINFO
  +--> ?PR?_SHOWOSDWINDOW_TW88?OSDBASIC
  +--> ?PR?_SHOWOSDWINDOWALL?OSDBASIC

?PR?HS_DISPLAYOSD                                -----    -----      -----    -----
  +--> ?CO?HS_DISPLAYOSD

?PR?SETLEFTSOURCE?HS_KEYREMO                     -----    -----      -----    -----
  +--> ?PR?_READEEP?I2C
  +--> ?CO?HS_KEYREMO
  +--> ?PR?HS_KEYREMO
  +--> ?PR?_SETSOURCEMODE?HS_KEYREMO

?PR?SETRIGHTSOURCE?HS_KEYREMO                    -----    -----      -----    -----
  +--> ?PR?_READEEP?I2C
  +--> ?CO?HS_KEYREMO
  +--> ?PR?HS_KEYREMO
  +--> ?PR?_SETSOURCEMODE?HS_KEYREMO

?PR?SEQMODE?HS_KEYREMO                           -----    -----      -----    -----
  +--> ?CO?HS_KEYREMO
  +--> ?PR?HS_KEYREMO
  +--> ?PR?_SETSOURCEMODE?HS_KEYREMO

?PR?_ADJUSTAUTODAYNIGHT?MAIN                     -----    -----      0001H    0002H
  +--> ?PR?_READI2C?I2C
  +--> ?PR?MAIN
  +--> ?PR?_WRITEI2C?I2C

?PR?CHECKKEYIN?KEYREMO                           -----    -----      0001H    0003H
  +--> ?PR?_GETKEY?KEYREMO
  +--> ?CO?KEYREMO
  +--> ?PR?_PRINTF?PRINTF
  +--> ?PR?_READEEP?I2C
  +--> ?PR?_WAIT_MS?CPU
  +--> ?PR?CLEARGAUGEINFO?HS_DISPLAYOSD
  +--> ?PR?DISPLAYINPUT?DISPINFO
  +--> ?PR?_POWERLED?CPU
  +--> ?PR?SETOSDLASTKEYINTIME?MAIN
  +--> ?PR?_ACTIONREMO?KEYREMO
  +--> ?PR?_WRITEEEP?I2C
  +--> ?PR?_WRITEI2C?I2C
  +--> ?PR?CLEAROSDINFO?DISPINFO
  +--> ?PR?CLOSEOSDMENU?OSDMENU
BL51 BANKED LINKER/LOCATER V6.22                                                      12/09/2015  15:21:44  PAGE 20


  +--> ?PR?_DISPLAYINFORMATION?HS_DISPLAYOSD
  +--> ?PR?_DELAY?CPU
  +--> ?PR?KEYREMO
  +--> ?PR?GETDISPLAYEDOSD?DISPINFO
  +--> ?PR?OSDSELECT?OSDMENU
  +--> ?PR?_OSDVALUEUPDN?OSDMENU
  +--> ?PR?_OSDCURSORMOVE?OSDMENU
  +--> ?PR?SETSELECTMODE?HS_KEYREMO
  +--> ?PR?SETJUMPMODE?HS_KEYREMO
  +--> ?PR?_CAM_TXCOMMAND_TORS485?HS_DVRPROT...
  +--> ?PR?DISPLAYFWVERSION?HS_DISPLAYOSD

?PR?_GETKEY?KEYREMO                              0022H.7  0000H.1    0004H    0001H
  +--> ?PR?GETDISPLAYEDOSD?DISPINFO

?PR?SETOSDLASTKEYINTIME?MAIN                     -----    -----      -----    -----
  +--> ?PR?GETTIME_MS?CPU

?PR?_ACTIONREMO?KEYREMO                          -----    -----      0004H    0002H
  +--> ?PR?SETOSDLASTKEYINTIME?MAIN
  +--> ?PR?GETNEXTINPUTSELECTION?MAIN
  +--> ?PR?_CHANGEINPUT?MAIN
  +--> ?PR?GETDISPLAYEDOSD?DISPINFO
  +--> ?PR?CLEARINPUT?DISPINFO
  +--> ?PR?DISPLAYINPUT?DISPINFO
  +--> ?PR?REMOCHNUP_UPKEY?KEYREMO
  +--> ?PR?REMOCHNDN_DNKEY?KEYREMO
  +--> ?PR?OSDSELECT?OSDMENU
  +--> ?PR?REMOVOLUP_RIGHTKEY?KEYREMO
  +--> ?PR?REMOVOLDN_LEFTKEY?KEYREMO
  +--> ?PR?REMOMENU_MENUKEY?KEYREMO
  +--> ?PR?_DOACTION?OSDMENU
  +--> ?PR?_SETITEMVALUE?OSDMENU

?PR?GETNEXTINPUTSELECTION?MAIN                   -----    -----      -----    -----
  +--> ?PR?MAIN

?PR?REMOCHNUP_UPKEY?KEYREMO                      -----    -----      -----    -----
  +--> ?PR?GETDISPLAYEDOSD?DISPINFO
  +--> ?PR?_OSDCURSORMOVE?OSDMENU

?PR?_OSDCURSORMOVE?OSDMENU                       0022H.7  0000H.1    0006H    0004H
  +--> ?PR?OSDMENU
  +--> ?PR?_READEEP?I2C
  +--> ?PR?_GETNEXTCURSORMENUITEM?OSDMENU
  +--> ?PR?_GETLOWERMENUITEM?OSDMENU
  +--> ?PR?CLEARVALUEWIN?OSDMENU
  +--> ?PR?CLEARCURSOR?OSDMENU
  +--> ?PR?WAITENDOFDISPLAYAREA?OSDBASIC
  +--> ?PR?_GETOSDWINDOWY?OSDBASIC
  +--> ?PR?_SETOSDWINDOWY_TW88?OSDBASIC
  +--> ?PR?_WRITEI2C?I2C
  +--> ?PR?DISPLAYOSDMENU?OSDMENU
  +--> ?PR?_DRAWMENULIST?OSDMENU
  +--> ?PR?DISPLAYCURSOR?OSDMENU

?PR?_GETNEXTCURSORMENUITEM?OSDMENU               -----    -----      000AH    0005H
BL51 BANKED LINKER/LOCATER V6.22                                                      12/09/2015  15:21:44  PAGE 21


  +--> ?PR?_GETUPPERMENUITEM?OSDMENU
  +--> ?PR?_GETLOWERMENUITEM?OSDMENU

?PR?CLEARVALUEWIN?OSDMENU                        -----    -----      -----    -----
  +--> ?PR?SAVEVALUE1?OSDMENU

?PR?SAVEVALUE1?OSDMENU                           -----    -----      -----    -----
  +--> ?PR?OSDMENU

?PR?CLEARCURSOR?OSDMENU                          -----    -----      000AH    0002H
  +--> ?PR?OSDMENU
  +--> ?PR?_DRAWATTRCNT?OSDBASIC

?PR?REMOCHNDN_DNKEY?KEYREMO                      -----    -----      -----    -----
  +--> ?PR?GETDISPLAYEDOSD?DISPINFO
  +--> ?PR?_OSDCURSORMOVE?OSDMENU

?PR?OSDSELECT?OSDMENU                            -----    -----      0006H    0002H
  +--> ?PR?OSDMENU
  +--> ?PR?GETINPUTSELECTION?MAIN
  +--> ?PR?READVINPUTSTD?MAIN
  +--> ?PR?_DOACTION?OSDMENU
  +--> ?PR?CLEARCURSOR?OSDMENU
  +--> ?PR?CLOSEOSDMENU?OSDMENU
  +--> ?PR?DISPLAYCURSOR?OSDMENU
  +--> ?PR?_GETITEMVALUE?OSDMENU
  +--> ?PR?_CHANGEINPUT?MAIN
  +--> ?PR?DISPLAYGAUGEOSD?HS_DISPLAYOSD
  +--> ?CO?OSDMENU
  +--> ?PR?_PRINTF?PRINTF
  +--> ?PR?_WRITEI2C?I2C
  +--> ?PR?PUSHMENU?OSDMENU
  +--> ?PR?_GET_CURSOR_ITEM?OSDMENU
  +--> ?PR?DISPLAYOSDMENU?OSDMENU

?PR?READVINPUTSTD?MAIN                           -----    -----      -----    -----
  +--> ?PR?ISNOINPUT?MAIN
  +--> ?PR?_READI2C?I2C

?PR?ISNOINPUT?MAIN                               -----    -----      -----    -----
  +--> ?PR?_READI2C?I2C

?PR?_DOACTION?OSDMENU                            -----    -----      0008H    0001H
  +--> ?PR?_CHANGEINPUT?MAIN
  +--> ?PR?CLEAROSDINFO?DISPINFO
  +--> ?PR?_WRITEEEP?I2C
  +--> ?PR?_READEEP?I2C
  +--> ?CO?OSDMENU
  +--> ?PR?_PRINTF?PRINTF
  +--> ?PR?OSDHIGHMENU_SUB?OSDMENU
  +--> ?PR?DISPLAYINFO_OSD?OSDMENU
  +--> ?PR?CLOSEOSDMENU?OSDMENU
  +--> ?PR?DISPLAYINPUT?DISPINFO
  +--> ?PR?RESETVIDEOVALUE?OSDMENU
  +--> ?PR?RESETOSDVALUE?OSDMENU
  +--> ?PR?SETNOWMODE?HS_KEYREMO

BL51 BANKED LINKER/LOCATER V6.22                                                      12/09/2015  15:21:44  PAGE 22


?PR?OSDHIGHMENU_SUB?OSDMENU                      -----    -----      0009H    0001H
  +--> ?PR?OSDMENU
  +--> ?PR?POPMENU?OSDMENU
  +--> ?PR?CLOSEOSDMENU?OSDMENU
  +--> ?CO?OSDMENU
  +--> ?PR?_PRINTF?PRINTF
  +--> ?PR?DISPLAYOSDMENU?OSDMENU
  +--> ?PR?_DRAWMENULIST?OSDMENU
  +--> ?PR?DISPLAYCURSOR?OSDMENU
  +--> ?PR?_WRITEI2C?I2C

?PR?DISPLAYINFO_OSD?OSDMENU                      -----    -----      0009H    0008H
  +--> ?PR?PUSHMENU?OSDMENU
  +--> ?PR?OSDMENU
  +--> ?PR?_DRAWMENULIST?OSDMENU
  +--> ?PR?_DRAWATTRCNT?OSDBASIC
  +--> ?CO?OSDMENU
  +--> ?PR?_WRITESTRINGTOADDR?OSDBASIC
  +--> ?PR?GETINPUTSELECTION?MAIN
  +--> ?CO?MAIN
  +--> ?PR?_STRLEN?OSDBASIC
  +--> ?PR?GETVINPUTSTDINX?MAIN
  +--> ?PR?_READEEP?I2C

?PR?GETVINPUTSTDINX?MAIN                         -----    -----      -----    -----
  +--> ?PR?READVINPUTSTD?MAIN
  +--> ?PR?MAIN
  +--> ?CO?MAIN

?PR?_GET_CURSOR_ITEM?OSDMENU                     -----    -----      0008H    0002H
  +--> ?PR?GETINPUTSELECTION?MAIN
  +--> ?PR?_GETTARGETCHILD?OSDMENU

?PR?_GETTARGETCHILD?OSDMENU                      -----    -----      -----    -----
  +--> ?PR?OSDMENU
  +--> ?PR?_GETLOWERMENUITEM?OSDMENU

?PR?REMOVOLUP_RIGHTKEY?KEYREMO                   -----    -----      -----    -----
  +--> ?PR?GETDISPLAYEDOSD?DISPINFO
  +--> ?PR?OSDSELECT?OSDMENU
  +--> ?PR?_OSDVALUEUPDN?OSDMENU
  +--> ?PR?_CHANGEVOL?AUDIO
  +--> ?PR?DISPLAYVOL?DISPINFO

?PR?_OSDVALUEUPDN?OSDMENU                        -----    -----      0006H    0008H
  +--> ?PR?OSDMENU
  +--> ?PR?_DISPLAYVIEWBAR?OSDMENU
  +--> ?PR?DISPLAYGAUGEOSD?HS_DISPLAYOSD
  +--> ?PR?_DRAWNUM?OSDMENU
  +--> ?PR?_DRAWSTRINGBYLANG?OSDMENU
  +--> ?PR?_SETITEMVALUE?OSDMENU

?PR?_SETITEMVALUE?OSDMENU                        -----    -----      000EH    0004H
  +--> ?PR?OSDMENU
  +--> ?CO?OSDMENU
  +--> ?PR?_PRINTF?PRINTF
  +--> ?PR?_READEEP?I2C
BL51 BANKED LINKER/LOCATER V6.22                                                      12/09/2015  15:21:44  PAGE 23


  +--> ?PR?_WRITEEEP?I2C
  +--> ?PR?_SETOSDPOSITIONMODE?OSDMENU
  +--> ?PR?_SETLANGUAGE?OSDMENU
  +--> ?PR?_SETPCCOLORTEMP?OSDMENU
  +--> ?PR?_SETPCCOLOR?OSDMENU
  +--> ?PR?_SETVIDEOMODE?OSDMENU
  +--> ?PR?_DRAWATTRCNT?OSDBASIC
  +--> ?PR?_CHANGEVIDEODATA?OSDMENU
  +--> ?PR?_SETVIDEOSHARPNESS?OSDMENU
  +--> ?PR?_CHANGEVOL?AUDIO
  +--> ?PR?_SET4WIDESCREEN?OSDMENU
  +--> ?PR?SETNOWMODE?HS_KEYREMO
  +--> ?PR?GETINPUTSELECTION?MAIN
  +--> ?PR?_TW2835COMMAND?CPU
  +--> ?PR?SEQMODE?HS_KEYREMO
  +--> ?PR?_CAMOUTDSEL?OSDMENU

?PR?_SETOSDPOSITIONMODE?OSDMENU                  -----    -----      0012H    0016H
  +--> ?PR?GETOSDPOSITIONMODE?OSDMENU
  +--> ?PR?OSDMENU
  +--> ?PR?_GETOSDWINDOWX?OSDBASIC
  +--> ?PR?_GETOSDWINDOWY?OSDBASIC
  +--> ?PR?WAITENDOFDISPLAYAREA?OSDBASIC
  +--> ?PR?_READI2C?I2C
  +--> ?PR?_WRITEI2C?I2C
  +--> ?PR?_WRITEI2CN?I2C
  +--> ?PR?_SAVEOSDPOSITIONMODEEE?ETC_EEP

?PR?_SETLANGUAGE?OSDMENU                         -----    -----      -----    -----
  +--> ?PR?OSDMENU
  +--> ?PR?_SAVEOSDLANGEE?ETC_EEP

?PR?_SETPCCOLORTEMP?OSDMENU                      -----    -----      0012H    0002H
  +--> ?PR?OSDMENU
  +--> ?PR?_WRITEEEP?I2C
  +--> ?PR?_READEEP?I2C
  +--> ?CO?OSDMENU
  +--> ?PR?_MAPPING1?TW88
  +--> ?PR?_SETRGBCONTRAST?OSDMENU
  +--> ?PR?_DRAWATTRCNT?OSDBASIC

?PR?_SETRGBCONTRAST?OSDMENU                      -----    -----      0014H    0008H
  +--> ?PR?_READEEP?I2C
  +--> ?PR?OSDMENU
  +--> ?PR?_MAPPING1?TW88
  +--> ?PR?_WRITEI2C?I2C

?PR?_SETPCCOLOR?OSDMENU                          -----    -----      0012H    0007H
  +--> ?PR?OSDMENU
  +--> ?PR?_MAPPING1?TW88
  +--> ?PR?_WRITEEEP?I2C
  +--> ?PR?_READEEP?I2C
  +--> ?CO?OSDMENU
  +--> ?PR?_WRITEI2C?I2C

?PR?_CHANGEVIDEODATA?OSDMENU                     -----    -----      0012H    0003H
  +--> ?PR?OSDMENU
BL51 BANKED LINKER/LOCATER V6.22                                                      12/09/2015  15:21:44  PAGE 24


  +--> ?PR?_SETVIDEOCONTRAST?OSDMENU
  +--> ?PR?_SETVIDEOBRIGHTNESS?OSDMENU
  +--> ?PR?_SETVIDEOSATURATION?OSDMENU
  +--> ?PR?_SETVIDEOHUE?OSDMENU
  +--> ?PR?_SETVIDEOBACKLIGHT?OSDMENU
  +--> ?PR?_SAVEVIDEODATATOEE?ETC_EEP

?PR?_SETVIDEOBACKLIGHT?OSDMENU                   -----    -----      0015H    0003H
  +--> ?PR?OSDMENU
  +--> ?CO?OSDMENU
  +--> ?PR?_MAPPING1?TW88
  +--> ?PR?_READI2C?I2C
  +--> ?PR?_WRITEI2C?I2C

?PR?_SETVIDEOSHARPNESS?OSDMENU                   -----    -----      0012H    0005H
  +--> ?PR?_READI2C?I2C
  +--> ?PR?OSDMENU
  +--> ?CO?OSDMENU
  +--> ?PR?_MAPPING1?TW88
  +--> ?PR?_WRITEI2C?I2C
  +--> ?PR?_SAVEVIDEODATATOEE?ETC_EEP

?PR?DISPLAYVOL?DISPINFO                          -----    -----      0006H    0002H
  +--> ?CO?DISPINFO
  +--> ?PR?_PRINTF?PRINTF
  +--> ?PR?_WRITEI2C?I2C
  +--> ?PR?CLEAROSDINFO?DISPINFO
  +--> ?PR?_DELAY?CPU
  +--> ?CO?OSDBASIC
  +--> ?PR?_INITOSDWINDOW?OSDBASIC
  +--> ?PR?_CLEARDATACNT?OSDBASIC
  +--> ?PR?_DRAWATTRCNT?OSDBASIC
  +--> ?PR?GETOSDLANG?OSDMENU
  +--> ?CO?OSDMENU
  +--> ?PR?_STRLEN?OSDBASIC
  +--> ?PR?_WRITESTRINGTOADDR?OSDBASIC
  +--> ?PR?_SHOWOSDWINDOW_TW88?OSDBASIC
  +--> ?PR?_SHOWOSDWINDOWALL?OSDBASIC
  +--> ?PR?_DISPLAYVOLUMEBAR?OSDMENU
  +--> ?PR?GETTIME_MS?CPU
  +--> ?PR?_WAIT_MS?CPU

?PR?GETOSDLANG?OSDMENU                           -----    -----      -----    -----
  +--> ?PR?GETOSDLANGEE?ETC_EEP

?PR?_DISPLAYVOLUMEBAR?OSDMENU                    -----    -----      0008H    0019H
  +--> ?CO?OSDMENU
  +--> ?PR?OSDMENU
  +--> ?PR?_WRITESTRINGTOADDR?OSDBASIC

?PR?REMOVOLDN_LEFTKEY?KEYREMO                    -----    -----      -----    -----
  +--> ?PR?GETDISPLAYEDOSD?DISPINFO
  +--> ?PR?OSDHIGHMENU?OSDMENU
  +--> ?PR?_OSDVALUEUPDN?OSDMENU
  +--> ?PR?_CHANGEVOL?AUDIO
  +--> ?PR?DISPLAYVOL?DISPINFO

BL51 BANKED LINKER/LOCATER V6.22                                                      12/09/2015  15:21:44  PAGE 25


?PR?OSDHIGHMENU?OSDMENU                          -----    -----      -----    -----
  +--> ?PR?CLEARVALUEWIN?OSDMENU
  +--> ?PR?_DRAWMENULIST?OSDMENU
  +--> ?PR?DISPLAYCURSOR?OSDMENU
  +--> ?PR?OSDMENU
  +--> ?PR?_DOACTION?OSDMENU
  +--> ?PR?CLEARCURSOR?OSDMENU
  +--> ?PR?OSDHIGHMENU_SUB?OSDMENU

?PR?REMOMENU_MENUKEY?KEYREMO                     -----    -----      -----    -----
  +--> ?PR?GETDISPLAYEDOSD?DISPINFO
  +--> ?PR?OSDHIGHMENU?OSDMENU
  +--> ?PR?OPENOSDMENU?OSDMENU

?PR?OPENOSDMENU?OSDMENU                          -----    -----      0006H    0001H
  +--> ?PR?CLEAROSDINFO?DISPINFO
  +--> ?PR?INITOSDMENU?OSDMENU
  +--> ?PR?_SHOWOSDWINDOW_TW88?OSDBASIC
  +--> ?PR?_SHOWOSDWINDOWALL?OSDBASIC
  +--> ?PR?_SETDISPLAYEDOSD?DISPINFO

?PR?_DISPLAYINFORMATION?HS_DISPLAYOSD            -----    -----      0004H    0001H
  +--> ?PR?HS_DISPLAYOSD
  +--> ?PR?_INITOSDWINDOW?OSDBASIC
  +--> ?PR?CLEAROSDINFO?DISPINFO
  +--> ?PR?_CLEARDATACNT?OSDBASIC
  +--> ?PR?_DRAWATTRCNT?OSDBASIC
  +--> ?CO?HS_DISPLAYOSD
  +--> ?PR?_WRITESTRINGTOADDR?OSDBASIC
  +--> ?PR?_SETDISPLAYEDOSD?DISPINFO
  +--> ?PR?_SHOWOSDWINDOW_TW88?OSDBASIC
  +--> ?PR?_SHOWOSDWINDOWALL?OSDBASIC
  +--> ?PR?_WRITEI2C?I2C

?PR?SETSELECTMODE?HS_KEYREMO                     -----    -----      0004H    0001H
  +--> ?PR?HS_KEYREMO
  +--> ?PR?_PUTS?PRINTF
  +--> ?PR?_SETSOURCEMODE?HS_KEYREMO
  +--> ?PR?_WRITEEEP?I2C
  +--> ?PR?_READEEP?I2C

?PR?SETJUMPMODE?HS_KEYREMO                       -----    -----      0004H    0001H
  +--> ?PR?_READEEP?I2C
  +--> ?CO?HS_KEYREMO
  +--> ?PR?_PUTS?PRINTF
  +--> ?PR?HS_KEYREMO
  +--> ?PR?_SETSOURCEMODE?HS_KEYREMO
  +--> ?PR?_WRITEEEP?I2C

?PR?_CAM_TXCOMMAND_TORS485?HS_DVRPROT...         -----    -----      0004H    0002H
  +--> ?PR?HS_DVRPROTOCOL
  +--> ?PR?SEND_PELCOP_COMMAND?HS_DVRPROTOCOL
  +--> ?PR?SEND_PELCOD_COMMAND?HS_DVRPROTOCOL

?PR?SEND_PELCOP_COMMAND?HS_DVRPROTOCOL           -----    -----      0006H    0001H
  +--> ?PR?HS_DVRPROTOCOL
  +--> ?CO?HS_DVRPROTOCOL
BL51 BANKED LINKER/LOCATER V6.22                                                      12/09/2015  15:21:44  PAGE 26


  +--> ?PR?_PRINTF?PRINTF
  +--> ?PR?_WAIT_MS?CPU
  +--> ?PR?_RS2_TX?CPU

?PR?SEND_PELCOD_COMMAND?HS_DVRPROTOCOL           -----    -----      0006H    0001H
  +--> ?PR?HS_DVRPROTOCOL
  +--> ?CO?HS_DVRPROTOCOL
  +--> ?PR?_PRINTF?PRINTF
  +--> ?PR?_WAIT_MS?CPU
  +--> ?PR?_RS2_TX?CPU

?PR?DISPLAYFWVERSION?HS_DISPLAYOSD               -----    -----      -----    -----
  +--> ?PR?CLEAROSDINFO?DISPINFO
  +--> ?PR?HS_DISPLAYOSD
  +--> ?PR?_INITOSDWINDOW?OSDBASIC
  +--> ?PR?_CLEARDATACNT?OSDBASIC
  +--> ?PR?_DRAWATTRCNT?OSDBASIC
  +--> ?CO?HS_DISPLAYOSD
  +--> ?PR?_WRITESTRINGTOADDR?OSDBASIC
  +--> ?CO?OSDMENU
  +--> ?PR?_SETDISPLAYEDOSD?DISPINFO
  +--> ?PR?_SHOWOSDWINDOW_TW88?OSDBASIC
  +--> ?PR?_SHOWOSDWINDOWALL?OSDBASIC
  +--> ?PR?_WRITEI2C?I2C

?PR?CHECKANDCLEAROSD?DISPINFO                    -----    -----      0001H    0006H
  +--> ?PR?GETDISPLAYEDOSD?DISPINFO
  +--> ?PR?GETOSDLASTKEYINTIME?MAIN
  +--> ?PR?GETTIME_MS?CPU
  +--> ?PR?_DIFFTIME_MS?CPU
  +--> ?PR?CLEARTVINFO?DISPINFO
  +--> ?PR?DISPLAYINPUT?DISPINFO
  +--> ?PR?CLOSEOSDMENU?OSDMENU
  +--> ?PR?_READEEP?I2C

?PR?WAITPOWERON?MAIN                             -----    -----      0000H    0003H
  +--> ?PR?CHECKTRIGGER?HS_KEYREMO
  +--> ?PR?_TRIGGERHANDLER?HS_KEYREMO
  +--> ?PR?_LCDPOWERON?TW88
  +--> ?PR?POWEROFF?MAIN
  +--> ?PR?AUDIOMUTE?AUDIO
  +--> ?PR?_GETKEY?KEYREMO
  +--> ?PR?_WRITEEEP?I2C
  +--> ?PR?DISPLAYINPUT?DISPINFO
  +--> ?PR?SETNOWMODE?HS_KEYREMO
  +--> ?PR?_READEEP?I2C

?PR?POWEROFF?MAIN                                -----    -----      -----    -----
  +--> ?PR?AUDIOMUTE?AUDIO
  +--> ?PR?LCDPOWEROFF?TW88
  +--> ?PR?_POWERLED?CPU



SYMBOL TABLE OF MODULE:  .\Output\HTRV_ML072Q (ADC)

  VALUE           TYPE          NAME
BL51 BANKED LINKER/LOCATER V6.22                                                      12/09/2015  15:21:44  PAGE 27


  ----------------------------------

  -------         MODULE        ADC
  C:0000H         SYMBOL        _ICE_DUMMY_
  -------         ENDMOD        ADC

  -------         MODULE        CPU
  C:0000H         SYMBOL        _ICE_DUMMY_
  C:96ADH         PUBLIC        InitCPU
  D:00B1H         PUBLIC        P3M0
  C:6520H         PUBLIC        timer0_int
  X:00F1H         PUBLIC        FormatSDCard
  D:00B2H         PUBLIC        P3M1
  D:00A0H         PUBLIC        P2
  C:A366H         PUBLIC        timer2_int
  D:00E8H         PUBLIC        P4
  X:00F2H         PUBLIC        FormatWait
  D:0024H         PUBLIC        DVR_buf
  D:0042H         PUBLIC        keytic
  D:00A8H         PUBLIC        IE
  D:0043H         PUBLIC        RS2_in
  B:0021H.0       PUBLIC        RepeatKey
  C:A2D2H         PUBLIC        _delay
  B:00B0H.4       PUBLIC        P3_4
  B:00A8H.4       PUBLIC        ES
  D:00B8H         PUBLIC        IP
  D:00DEH         PUBLIC        CCAPM4
  B:0098H.0       PUBLIC        RI
  B:0098H.1       PUBLIC        TI
  C:A416H         PUBLIC        RS_ready
  D:0044H         PUBLIC        tic01
  B:0021H.1       PUBLIC        KeyReady
  B:0021H.2       PUBLIC        RS_Xbusy
  D:00D8H         PUBLIC        CCON
  C:A484H         PUBLIC        _RS2_tx
  X:00F3H         PUBLIC        Time5ms
  X:00F4H         PUBLIC        keyticSec
  D:0045H         PUBLIC        Key
  C:9CA5H         PUBLIC        serial_int
  C:0026H         PUBLIC        ext1_int
  D:0099H         PUBLIC        SBUF
  D:0087H         PUBLIC        PCON
  D:0098H         PUBLIC        SCON
  C:A1B7H         PUBLIC        InitVars
  D:0089H         PUBLIC        TMOD
  D:0088H         PUBLIC        TCON
  C:3DE3H         PUBLIC        PanelInfoStr
  D:00BFH         PUBLIC        CHPCON
  C:6BFFH         PUBLIC        main_init
  D:00F6H         PUBLIC        CHPENR
  X:00F5H         PUBLIC        PowerDownWait
  D:0046H         PUBLIC        tm01
  D:0048H         PUBLIC        stopWatch
  C:532CH         PUBLIC        _TW2835Command
  D:004AH         SYMBOL        RS_buf
  B:00A8H.5       PUBLIC        ET2
  B:00C8H.7       PUBLIC        TF2
BL51 BANKED LINKER/LOCATER V6.22                                                      12/09/2015  15:21:44  PAGE 28


  D:008CH         PUBLIC        TH0
  D:008DH         PUBLIC        TH1
  C:A179H         PUBLIC        _DiffTime_ms
  B:00A8H.2       PUBLIC        EX1
  D:008AH         PUBLIC        TL0
  X:00F6H         SYMBOL        GaugeVStart
  C:8785H         PUBLIC        InitTechwell
  B:0021H.3       PUBLIC        RS2_Xbusy
  C:9743H         PUBLIC        _Wait_ms
  B:00C8H.2       PUBLIC        TR2
  X:00F7H         PUBLIC        updn_reg
  D:0052H         PUBLIC        RS_in
  D:0053H         PUBLIC        RS_out
  C:9D40H         PUBLIC        serial2_int
  D:009AH         PUBLIC        S2BUF
  C:A1D5H         PUBLIC        _PowerLED
  D:00AAH         PUBLIC        S2CON
  D:00C8H         PUBLIC        T2CON
  D:00BAH         PUBLIC        S2BRT
  C:0003H         PUBLIC        _RS_tx
  D:0054H         PUBLIC        tm001
  D:00A6H         PUBLIC        AUXR2
  B:0021H.4       PUBLIC        ChangeKey
  C:9ADAH         PUBLIC        GetTime_ms
  D:0055H         PUBLIC        tic_pc
  D:0057H         PUBLIC        RS_buf2
  D:005FH         PUBLIC        SystemClock
  C:3D7AH         PUBLIC        CommTable
  D:00ADH         PUBLIC        AUXIE
  C:9963H         SYMBOL        Com00A5
  C:9963H         SYMBOL        L?0166
  C:9964H         SYMBOL        L?0167
  C:9967H         SYMBOL        L?0168
  C:9970H         SYMBOL        L?0169
  C:9970H         SYMBOL        L?0170
  C:9979H         SYMBOL        L?0171
  C:997AH         SYMBOL        L?0172
  C:997BH         SYMBOL        L?0173
  C:9984H         SYMBOL        L?0175
  C:9984H         SYMBOL        L?0176
  C:998CH         SYMBOL        L?0177
  C:9990H         SYMBOL        L?0178
  C:9998H         SYMBOL        L?0179
  C:999BH         SYMBOL        L?0180
  -------         PROC          COM00A5
  -------         ENDPROC       COM00A5
  C:6D04H         SYMBOL        L?0181
  -------         PROC          MAIN_INIT
  -------         DO            
  X:0000H         SYMBOL        rev
  -------         ENDDO         
  C:6BFFH         LINE#         281
  C:6BFFH         LINE#         282
  C:6BFFH         LINE#         288
  C:6C08H         LINE#         300
  C:6C0FH         LINE#         301
  C:6C21H         LINE#         303
BL51 BANKED LINKER/LOCATER V6.22                                                      12/09/2015  15:21:44  PAGE 29


  C:6C2EH         LINE#         304
  C:6C2EH         LINE#         305
  C:6C41H         LINE#         306
  C:6C48H         LINE#         307
  C:6C56H         LINE#         308
  C:6C56H         LINE#         312
  C:6C63H         LINE#         313
  C:6C63H         LINE#         314
  C:6C71H         LINE#         315
  C:6C71H         LINE#         316
  C:6C79H         LINE#         319
  C:6C7EH         LINE#         320
  C:6C81H         LINE#         321
  C:6C8AH         LINE#         326
  C:6C8CH         LINE#         328
  C:6C8CH         LINE#         330
  C:6C94H         LINE#         332
  C:6C94H         LINE#         333
  C:6C96H         LINE#         335
  C:6C96H         LINE#         336
  C:6C9FH         LINE#         337
  C:6CA8H         LINE#         338
  C:6CAEH         LINE#         339
  C:6CB3H         LINE#         344
  C:6CB8H         LINE#         346
  C:6CB8H         LINE#         353
  C:6CC4H         LINE#         354
  C:6CC6H         LINE#         355
  C:6CCAH         LINE#         357
  C:6CCFH         LINE#         359
  C:6CD2H         LINE#         362
  C:6CD8H         LINE#         367
  C:6CDBH         LINE#         368
  C:6CDEH         LINE#         388
  C:6CE3H         LINE#         389
  C:6CE8H         LINE#         391
  C:6CF1H         LINE#         395
  C:6CFAH         LINE#         396
  C:6D03H         LINE#         397
  -------         ENDPROC       MAIN_INIT
  -------         PROC          INITCPU
  C:96ADH         LINE#         402
  C:96ADH         LINE#         403
  C:96ADH         LINE#         404
  C:96B0H         LINE#         405
  C:96B3H         LINE#         406
  C:96B6H         LINE#         407
  C:96B9H         LINE#         411
  C:96BCH         LINE#         418
  C:96BFH         LINE#         420
  C:96C2H         LINE#         422
  C:96C5H         LINE#         426
  C:96CBH         LINE#         428
  C:96CEH         LINE#         429
  C:96D1H         LINE#         433
  C:96D4H         LINE#         436
  C:96D6H         LINE#         437
BL51 BANKED LINKER/LOCATER V6.22                                                      12/09/2015  15:21:44  PAGE 30


  C:96D8H         LINE#         443
  C:96DAH         LINE#         444
  C:96DCH         LINE#         445
  C:96DEH         LINE#         451
  C:96E1H         LINE#         452
  C:96E4H         LINE#         455
  C:96E7H         LINE#         458
  C:96EAH         LINE#         460
  C:96ECH         LINE#         463
  C:96EFH         LINE#         464
  C:96F2H         LINE#         471
  C:96F4H         LINE#         472
  C:96F7H         LINE#         473
  -------         ENDPROC       INITCPU
  -------         PROC          TIMER0_INT
  -------         DO            
  D:000FH         SYMBOL        TempKey
  -------         ENDDO         
  C:6520H         LINE#         491
  C:652BH         LINE#         495
  C:652DH         LINE#         498
  C:6533H         LINE#         499
  C:6535H         LINE#         500
  C:653BH         LINE#         501
  C:653BH         LINE#         505
  C:6544H         LINE#         507
  C:654BH         LINE#         508
  C:654BH         LINE#         509
  C:6553H         LINE#         510
  C:655BH         LINE#         511
  C:6563H         LINE#         512
  C:6566H         LINE#         513
  C:6568H         LINE#         516
  C:656EH         LINE#         517
  C:656EH         LINE#         518
  C:656EH         LINE#         526
  C:6578H         LINE#         529
  C:6580H         LINE#         530
  C:6583H         LINE#         531
  C:6585H         LINE#         533
  C:658EH         LINE#         534
  C:658EH         LINE#         535
  C:6599H         LINE#         536
  C:65B1H         LINE#         537
  C:65B4H         LINE#         541
  C:65BDH         LINE#         542
  C:65C0H         LINE#         544
  C:65C6H         LINE#         546
  C:65CFH         LINE#         547
  C:65D2H         LINE#         549
  C:65D5H         LINE#         550
  C:65DBH         LINE#         551
  C:65DEH         LINE#         552
  C:65E4H         LINE#         553
  C:65EBH         LINE#         554
  C:65EBH         LINE#         555
  C:65EDH         LINE#         556
BL51 BANKED LINKER/LOCATER V6.22                                                      12/09/2015  15:21:44  PAGE 31


  C:65F3H         LINE#         557
  C:65F3H         LINE#         559
  C:65FAH         LINE#         560
  C:65FAH         LINE#         561
  C:65FCH         LINE#         562
  C:6602H         LINE#         563
  C:6602H         LINE#         565
  C:6609H         LINE#         566
  C:6609H         LINE#         567
  C:660BH         LINE#         568
  C:6611H         LINE#         569
  C:6611H         LINE#         571
  C:6618H         LINE#         572
  C:661DH         LINE#         574
  C:661FH         LINE#         581
  C:661FH         LINE#         582
  C:6629H         LINE#         583
  C:6631H         LINE#         586
  C:6638H         LINE#         587
  C:663DH         LINE#         588
  C:6644H         LINE#         589
  C:6646H         LINE#         590
  C:6648H         LINE#         591
  C:664AH         LINE#         592
  C:664FH         LINE#         593
  C:6656H         LINE#         594
  C:6658H         LINE#         595
  C:665AH         LINE#         596
  C:665DH         LINE#         597
  C:665DH         LINE#         598
  C:665FH         LINE#         599
  C:6661H         LINE#         601
  C:6661H         LINE#         602
  C:6664H         LINE#         603
  C:6667H         LINE#         604
  C:6667H         LINE#         606
  C:6667H         LINE#         607
  -------         ENDPROC       TIMER0_INT
  -------         PROC          INITVARS
  C:A1B7H         LINE#         612
  C:A1B7H         LINE#         613
  C:A1B7H         LINE#         614
  C:A1C0H         LINE#         623
  C:A1C4H         LINE#         628
  C:A1C9H         LINE#         629
  C:A1CEH         LINE#         631
  C:A1D0H         LINE#         632
  -------         ENDPROC       INITVARS
  C:87F1H         SYMBOL        L?0164
  C:8803H         SYMBOL        L?0174
  -------         PROC          INITTECHWELL
  C:8785H         LINE#         638
  C:8785H         LINE#         639
  C:8785H         LINE#         656
  C:8799H         LINE#         657
  C:87A1H         LINE#         658
  C:87A9H         LINE#         659
BL51 BANKED LINKER/LOCATER V6.22                                                      12/09/2015  15:21:44  PAGE 32


  C:87B2H         LINE#         660
  C:87BCH         LINE#         661
  C:87BCH         LINE#         663
  C:87C2H         LINE#         666
  C:87CCH         LINE#         667
  C:87CCH         LINE#         668
  C:87D2H         LINE#         669
  C:87DDH         LINE#         670
  C:87DDH         LINE#         671
  C:87DDH         LINE#         673
  C:87E2H         LINE#         674
  C:87E2H         LINE#         675
  C:87F0H         LINE#         676
  C:87F0H         LINE#         677
  C:87F0H         LINE#         683
  -------         ENDPROC       INITTECHWELL
  -------         PROC          _POWERLED
  D:0007H         SYMBOL        flag
  C:A1D5H         LINE#         689
  C:A1D5H         LINE#         690
  C:A1D5H         LINE#         694
  C:A1D9H         LINE#         696
  C:A1DCH         LINE#         697
  C:A1DCH         LINE#         699
  C:A1DEH         LINE#         700
  C:A1E1H         LINE#         701
  C:A1E1H         LINE#         703
  C:A1E4H         LINE#         704
  C:A1E7H         LINE#         706
  C:A1E8H         LINE#         707
  C:A1ECH         LINE#         708
  C:A1ECH         LINE#         710
  C:A1EFH         LINE#         711
  C:A1F2H         LINE#         713
  C:A1F2H         LINE#         714
  -------         ENDPROC       _POWERLED
  -------         PROC          EXT1_INT
  C:0026H         LINE#         723
  C:0026H         LINE#         725
  C:0028H         LINE#         726
  -------         ENDPROC       EXT1_INT
  -------         PROC          SERIAL_INT
  C:9CA5H         LINE#         841
  C:9CACH         LINE#         847
  C:9CAFH         LINE#         848
  C:9CB1H         LINE#         849
  C:9CC1H         LINE#         851
  C:9CC3H         LINE#         852
  C:9CCDH         LINE#         853
  C:9CCDH         LINE#         855
  C:9CD0H         LINE#         856
  C:9CD2H         LINE#         857
  C:9CD4H         LINE#         858
  C:9CD4H         LINE#         859
  -------         ENDPROC       SERIAL_INT
  -------         PROC          SERIAL2_INT
  C:9D40H         LINE#         863
BL51 BANKED LINKER/LOCATER V6.22                                                      12/09/2015  15:21:44  PAGE 33


  C:9D47H         LINE#         868
  C:9D4CH         LINE#         869
  C:9D4CH         LINE#         871
  C:9D4FH         LINE#         872
  C:9D56H         LINE#         874
  C:9D58H         LINE#         875
  C:9D62H         LINE#         876
  C:9D62H         LINE#         878
  C:9D67H         LINE#         879
  C:9D67H         LINE#         880
  C:9D6AH         LINE#         881
  C:9D6CH         LINE#         882
  C:9D6CH         LINE#         883
  -------         ENDPROC       SERIAL2_INT
  -------         PROC          RS_READY
  C:A416H         LINE#         890
  C:A416H         LINE#         891
  C:A416H         LINE#         892
  C:A41EH         LINE#         893
  C:A420H         LINE#         894
  -------         ENDPROC       RS_READY
  -------         PROC          _RS_TX
  D:0007H         SYMBOL        tx_buf
  C:0003H         LINE#         918
  C:0003H         LINE#         919
  C:0003H         LINE#         920
  C:0006H         LINE#         921
  C:0008H         LINE#         922
  C:000AH         LINE#         923
  -------         ENDPROC       _RS_TX
  -------         PROC          _RS2_TX
  D:0007H         SYMBOL        tx_buf
  C:A484H         LINE#         928
  C:A484H         LINE#         929
  C:A484H         LINE#         938
  C:A487H         LINE#         939
  C:A489H         LINE#         940
  C:A48BH         LINE#         941
  -------         ENDPROC       _RS2_TX
  -------         PROC          TIMER2_INT
  C:A366H         LINE#         979
  C:A368H         LINE#         981
  C:A36AH         LINE#         983
  C:A372H         LINE#         1114
  -------         ENDPROC       TIMER2_INT
  -------         PROC          _DELAY
  D:0007H         SYMBOL        cnt
  -------         DO            
  D:0004H         SYMBOL        ttic01
  -------         ENDDO         
  C:A2D2H         LINE#         1117
  C:A2D2H         LINE#         1118
  C:A2D2H         LINE#         1121
  C:A2E0H         LINE#         1122
  C:A2E0H         LINE#         1124
  C:A2E9H         LINE#         1125
  -------         ENDPROC       _DELAY
BL51 BANKED LINKER/LOCATER V6.22                                                      12/09/2015  15:21:44  PAGE 34


  -------         PROC          GETTIME_MS
  -------         DO            
  X:0024H         SYMBOL        tms
  -------         ENDDO         
  C:9ADAH         LINE#         1132
  C:9ADAH         LINE#         1133
  C:9ADAH         LINE#         1136
  C:9AE3H         LINE#         1137
  C:9B0EH         LINE#         1138
  C:9B16H         LINE#         1139
  -------         ENDPROC       GETTIME_MS
  -------         PROC          _DIFFTIME_MS
  D:0006H         SYMBOL        stime
  D:0004H         SYMBOL        etime
  C:A179H         LINE#         1188
  C:A179H         LINE#         1189
  C:A179H         LINE#         1193
  C:A180H         LINE#         1194
  C:A190H         LINE#         1195
  C:A190H         LINE#         1196
  C:A190H         LINE#         1197
  C:A197H         LINE#         1198
  C:A197H         LINE#         1199
  -------         ENDPROC       _DIFFTIME_MS
  -------         PROC          _WAIT_MS
  X:0024H         SYMBOL        Tms
  -------         DO            
  X:0026H         SYMBOL        count
  -------         ENDDO         
  C:9743H         LINE#         1201
  C:974BH         LINE#         1202
  C:974BH         LINE#         1208
  C:9755H         LINE#         1209
  C:9755H         LINE#         1210
  C:977EH         LINE#         1211
  C:9788H         LINE#         1212
  C:978AH         LINE#         1213
  -------         ENDPROC       _WAIT_MS
  -------         PROC          _TW2835COMMAND
  X:0017H         SYMBOL        _commid
  D:0005H         SYMBOL        _attr0
  D:0003H         SYMBOL        _attr1
  X:001AH         SYMBOL        _attr2
  X:001BH         SYMBOL        _attr3
  -------         DO            
  X:001CH         SYMBOL        AttrBuf
  X:0020H         SYMBOL        i
  X:0021H         SYMBOL        j
  X:0022H         SYMBOL        WaitCnt
  -------         ENDDO         
  C:532CH         LINE#         1215
  C:5332H         LINE#         1216
  C:5332H         LINE#         1221
  C:5336H         LINE#         1222
  C:533AH         LINE#         1226
  C:5341H         LINE#         1227
  C:5346H         LINE#         1231
BL51 BANKED LINKER/LOCATER V6.22                                                      12/09/2015  15:21:44  PAGE 35


  C:53B7H         LINE#         1232
  C:53B7H         LINE#         1234
  C:53B7H         LINE#         1235
  C:53B7H         LINE#         1236
  C:53B7H         LINE#         1237
  C:53B7H         LINE#         1238
  C:53B7H         LINE#         1239
  C:53B7H         LINE#         1240
  C:53B9H         LINE#         1243
  C:53B9H         LINE#         1244
  C:53B9H         LINE#         1245
  C:53B9H         LINE#         1246
  C:53BEH         LINE#         1247
  C:53C0H         LINE#         1248
  C:53C0H         LINE#         1249
  C:53C0H         LINE#         1250
  C:53C2H         LINE#         1253
  C:53C2H         LINE#         1254
  C:53C2H         LINE#         1255
  C:53C2H         LINE#         1256
  C:53C5H         LINE#         1257
  C:53C7H         LINE#         1258
  C:53C7H         LINE#         1259
  C:53C7H         LINE#         1260
  C:53C9H         LINE#         1263
  C:53C9H         LINE#         1264
  C:53C9H         LINE#         1265
  C:53C9H         LINE#         1266
  C:53C9H         LINE#         1267
  C:53CDH         LINE#         1268
  C:53CDH         LINE#         1269
  C:53CDH         LINE#         1270
  C:53CFH         LINE#         1273
  C:53CFH         LINE#         1274
  C:53CFH         LINE#         1275
  C:53D4H         LINE#         1276
  C:53D7H         LINE#         1277
  C:53DEH         LINE#         1278
  C:53DEH         LINE#         1279
  C:53E0H         LINE#         1282
  C:53E0H         LINE#         1283
  C:53E0H         LINE#         1284
  C:53E0H         LINE#         1285
  C:53E0H         LINE#         1286
  C:53E0H         LINE#         1287
  C:53E3H         LINE#         1290
  C:53E3H         LINE#         1291
  C:53E4H         LINE#         1292
  C:53E8H         LINE#         1293
  C:53EAH         LINE#         1294
  C:53EAH         LINE#         1295
  C:53ECH         LINE#         1298
  C:53ECH         LINE#         1299
  C:53ECH         LINE#         1300
  C:53F1H         LINE#         1301
  C:53F3H         LINE#         1302
  C:53F3H         LINE#         1303
BL51 BANKED LINKER/LOCATER V6.22                                                      12/09/2015  15:21:44  PAGE 36


  C:53F5H         LINE#         1307
  C:53F5H         LINE#         1308
  C:53F5H         LINE#         1309
  C:53F9H         LINE#         1310
  C:53FBH         LINE#         1311
  C:53FBH         LINE#         1312
  C:53FDH         LINE#         1315
  C:53FDH         LINE#         1316
  C:5400H         LINE#         1317
  C:5403H         LINE#         1318
  C:5406H         LINE#         1319
  C:5409H         LINE#         1320
  C:540CH         LINE#         1326
  C:540CH         LINE#         1327
  C:540CH         LINE#         1328
  C:5411H         LINE#         1329
  C:5411H         LINE#         1330
  C:5415H         LINE#         1331
  C:5418H         LINE#         1332
  C:541BH         LINE#         1338
  C:541BH         LINE#         1340
  C:541BH         LINE#         1342
  C:5420H         LINE#         1343
  C:5424H         LINE#         1344
  C:5426H         LINE#         1345
  C:5426H         LINE#         1346
  C:5429H         LINE#         1349
  C:5429H         LINE#         1350
  C:5429H         LINE#         1351
  C:5429H         LINE#         1352
  C:542EH         LINE#         1353
  C:5431H         LINE#         1354
  C:5431H         LINE#         1355
  C:5434H         LINE#         1358
  C:5434H         LINE#         1359
  C:5434H         LINE#         1360
  C:5434H         LINE#         1361
  C:5439H         LINE#         1362
  C:5440H         LINE#         1363
  C:5440H         LINE#         1364
  C:5442H         LINE#         1367
  C:5442H         LINE#         1368
  C:5442H         LINE#         1369
  C:5446H         LINE#         1370
  C:5449H         LINE#         1371
  C:5449H         LINE#         1372
  C:544CH         LINE#         1375
  C:544CH         LINE#         1376
  C:544CH         LINE#         1377
  C:544DH         LINE#         1378
  C:5450H         LINE#         1379
  C:5453H         LINE#         1380
  C:5453H         LINE#         1381
  C:5455H         LINE#         1384
  C:5455H         LINE#         1385
  C:5456H         LINE#         1386
  C:545AH         LINE#         1387
BL51 BANKED LINKER/LOCATER V6.22                                                      12/09/2015  15:21:44  PAGE 37


  C:545DH         LINE#         1388
  C:5460H         LINE#         1389
  C:5462H         LINE#         1392
  C:5462H         LINE#         1393
  C:5467H         LINE#         1394
  C:5468H         LINE#         1395
  C:546CH         LINE#         1396
  C:5474H         LINE#         1397
  C:5476H         LINE#         1400
  C:5476H         LINE#         1401
  C:5476H         LINE#         1402
  C:5479H         LINE#         1403
  C:5479H         LINE#         1404
  C:547DH         LINE#         1405
  C:5480H         LINE#         1406
  C:5482H         LINE#         1409
  C:5485H         LINE#         1411
  C:5489H         LINE#         1412
  C:548BH         LINE#         1413
  C:548BH         LINE#         1414
  C:548DH         LINE#         1417
  C:548DH         LINE#         1418
  C:5490H         LINE#         1419
  C:5493H         LINE#         1420
  C:549BH         LINE#         1421
  C:549EH         LINE#         1422
  C:549EH         LINE#         1423
  C:549EH         LINE#         1425
  C:54BEH         LINE#         1427
  C:54C3H         LINE#         1428
  C:54C3H         LINE#         1429
  C:5505H         LINE#         1430
  C:5510H         LINE#         1431
  C:552EH         LINE#         1432
  C:552EH         LINE#         1433
  C:553DH         LINE#         1434
  C:553DH         LINE#         1435
  C:5546H         LINE#         1436
  C:5546H         LINE#         1437
  C:555DH         LINE#         1438
  C:5560H         LINE#         1439
  C:5560H         LINE#         1440
  C:5568H         LINE#         1441
  C:5568H         LINE#         1442
  C:556FH         LINE#         1443
  C:557EH         LINE#         1444
  C:5580H         LINE#         1446
  -------         ENDPROC       _TW2835COMMAND
  -------         ENDMOD        CPU

  -------         MODULE        DISPINFO
  C:0000H         SYMBOL        _ICE_DUMMY_
  C:820CH         PUBLIC        TW8806String
  X:0103H         PUBLIC        DisplayedOSD
  C:7C9CH         PUBLIC        DisplayVol
  C:A375H         PUBLIC        ClearMuteInfo
  X:0104H         PUBLIC        mirror_flag
BL51 BANKED LINKER/LOCATER V6.22                                                      12/09/2015  15:21:44  PAGE 38


  D:006AH         SYMBOL        OSDDisplayedTime
  C:9FACH         PUBLIC        ClearTVInfo
  C:A4DAH         PUBLIC        GetDisplayedOSD
  C:8219H         PUBLIC        TechwellString
  C:A4CCH         PUBLIC        _SetDisplayedOSD
  C:8540H         PUBLIC        CheckAndClearOSD
  X:0105H         SYMBOL        GaugeVStart
  C:9483H         PUBLIC        ClearOSDInfo
  C:7954H         PUBLIC        DisplayInput
  C:A3E6H         PUBLIC        _ClearDisplayedOSD
  C:A2EAH         PUBLIC        ClearInput
  C:A384H         SYMBOL        Com0027
  C:A384H         SYMBOL        L?0040
  -------         PROC          COM0027
  -------         ENDPROC       COM0027
  -------         PROC          _CLEARDISPLAYEDOSD
  D:0007H         SYMBOL        newd
  C:A3E6H         LINE#         130
  C:A3E6H         LINE#         131
  C:A3E6H         LINE#         132
  C:A3F1H         LINE#         133
  -------         ENDPROC       _CLEARDISPLAYEDOSD
  -------         PROC          _SETDISPLAYEDOSD
  D:0007H         SYMBOL        newd
  C:A4CCH         LINE#         135
  C:A4CCH         LINE#         136
  C:A4CCH         LINE#         137
  C:A4D2H         LINE#         138
  -------         ENDPROC       _SETDISPLAYEDOSD
  -------         PROC          GETDISPLAYEDOSD
  C:A4DAH         LINE#         140
  C:A4DAH         LINE#         141
  C:A4DAH         LINE#         142
  C:A4DFH         LINE#         143
  -------         ENDPROC       GETDISPLAYEDOSD
  -------         PROC          CLEAROSDINFO
  -------         DO            
  X:001BH         SYMBOL        dt
  -------         ENDDO         
  C:9483H         LINE#         145
  C:9483H         LINE#         146
  C:9483H         LINE#         152
  C:948BH         LINE#         154
  C:949FH         LINE#         160
  C:94ADH         LINE#         162
  C:94B7H         LINE#         163
  C:94C1H         LINE#         164
  C:94CBH         LINE#         165
  C:94D5H         LINE#         166
  -------         ENDPROC       CLEAROSDINFO
  -------         PROC          DISPLAYINPUT
  -------         DO            
  D:0007H         SYMBOL        inputs
  X:0018H         SYMBOL        len1
  X:0019H         SYMBOL        i
  X:001AH         SYMBOL        SystemAddr
  -------         ENDDO         
BL51 BANKED LINKER/LOCATER V6.22                                                      12/09/2015  15:21:44  PAGE 39


  C:7954H         LINE#         168
  C:7954H         LINE#         169
  C:7954H         LINE#         191
  C:795AH         LINE#         193
  C:795DH         LINE#         195
  C:7966H         LINE#         196
  C:796FH         LINE#         197
  C:797AH         LINE#         198
  C:79A2H         LINE#         199
  C:79A9H         LINE#         201
  C:79ACH         LINE#         213
  C:79B1H         LINE#         219
  C:79B7H         LINE#         220
  C:79D2H         LINE#         222
  C:79DEH         LINE#         223
  C:79F2H         LINE#         225
  C:7A02H         LINE#         226
  C:7A02H         LINE#         227
  C:7A08H         LINE#         228
  C:7A15H         LINE#         229
  C:7A15H         LINE#         431
  C:7A1CH         LINE#         441
  C:7A21H         LINE#         443
  C:7A28H         LINE#         444
  -------         ENDPROC       DISPLAYINPUT
  -------         PROC          CLEARINPUT
  C:A2EAH         LINE#         708
  C:A2EAH         LINE#         709
  C:A2EAH         LINE#         710
  C:A2EFH         LINE#         711
  C:A2F6H         LINE#         714
  C:A2FDH         LINE#         719
  C:A2FFH         LINE#         721
  -------         ENDPROC       CLEARINPUT
  C:7D5AH         SYMBOL        L?0041
  -------         PROC          DISPLAYVOL
  -------         DO            
  X:0006H         SYMBOL        Str
  D:0007H         SYMBOL        len
  -------         ENDDO         
  C:7C9CH         LINE#         723
  C:7C9CH         LINE#         724
  C:7C9CH         LINE#         729
  C:7CA5H         LINE#         732
  C:7CA7H         LINE#         733
  C:7CAAH         LINE#         735
  C:7CACH         LINE#         736
  C:7CAFH         LINE#         737
  C:7CB8H         LINE#         739
  C:7CBFH         LINE#         740
  C:7CBFH         LINE#         741
  C:7CC2H         LINE#         745
  C:7CC7H         LINE#         747
  C:7CD0H         LINE#         749
  C:7CD9H         LINE#         750
  C:7CE4H         LINE#         751
  C:7CEFH         LINE#         755
BL51 BANKED LINKER/LOCATER V6.22                                                      12/09/2015  15:21:44  PAGE 40


  C:7D0BH         LINE#         757
  C:7D10H         LINE#         758
  C:7D28H         LINE#         760
  C:7D2FH         LINE#         761
  C:7D36H         LINE#         762
  C:7D3BH         LINE#         763
  C:7D3BH         LINE#         765
  C:7D3EH         LINE#         766
  C:7D43H         LINE#         768
  C:7D4BH         LINE#         770
  C:7D52H         LINE#         771
  C:7D59H         LINE#         772
  -------         ENDPROC       DISPLAYVOL
  -------         PROC          CLEARMUTEINFO
  C:A375H         LINE#         843
  C:A375H         LINE#         844
  C:A375H         LINE#         845
  C:A37CH         LINE#         846
  C:A383H         LINE#         847
  -------         ENDPROC       CLEARMUTEINFO
  -------         PROC          CHECKANDCLEAROSD
  -------         DO            
  D:0004H         SYMBOL        ctime
  X:0001H         SYMBOL        stime
  X:0003H         SYMBOL        diff
  X:0005H         SYMBOL        dt
  X:0006H         SYMBOL        Result
  -------         ENDDO         
  C:8540H         LINE#         849
  C:8540H         LINE#         850
  C:8540H         LINE#         853
  C:8545H         LINE#         855
  C:854DH         LINE#         856
  C:8554H         LINE#         858
  C:8558H         LINE#         859
  C:8563H         LINE#         860
  C:856BH         LINE#         861
  C:856DH         LINE#         862
  C:856DH         LINE#         863
  C:8577H         LINE#         864
  C:857EH         LINE#         865
  C:857EH         LINE#         867
  C:8585H         LINE#         869
  C:859DH         LINE#         871
  C:85A5H         LINE#         872
  C:85A5H         LINE#         876
  C:85ADH         LINE#         877
  C:85B0H         LINE#         878
  C:85B0H         LINE#         880
  C:85B7H         LINE#         881
  C:85B7H         LINE#         885
  C:85BFH         LINE#         887
  C:85C9H         LINE#         888
  C:85CFH         LINE#         890
  C:85D2H         LINE#         894
  C:85D2H         LINE#         905
  C:85D5H         LINE#         906
BL51 BANKED LINKER/LOCATER V6.22                                                      12/09/2015  15:21:44  PAGE 41


  C:85D5H         LINE#         907
  C:85D5H         LINE#         909
  C:85D7H         LINE#         910
  -------         ENDPROC       CHECKANDCLEAROSD
  C:9FC8H         SYMBOL        L?0042
  -------         PROC          CLEARTVINFO
  C:9FACH         LINE#         1000
  C:9FACH         LINE#         1001
  C:9FACH         LINE#         1003
  C:9FB3H         LINE#         1004
  C:9FB5H         LINE#         1005
  C:9FBBH         LINE#         1006
  C:9FBDH         LINE#         1008
  C:9FBDH         LINE#         1009
  C:9FBFH         LINE#         1010
  C:9FC5H         LINE#         1011
  C:9FC5H         LINE#         1015
  C:9FC7H         LINE#         1016
  -------         ENDPROC       CLEARTVINFO
  -------         ENDMOD        DISPINFO

  -------         MODULE        ETC_EEP
  C:0000H         SYMBOL        _ICE_DUMMY_
  C:A421H         PUBLIC        _SaveDebugLevelEE
  C:A445H         PUBLIC        _SaveOSDLangEE
  C:A48CH         PUBLIC        GetDebugLevelEE
  C:A4ACH         PUBLIC        GetOSDLangEE
  C:A49CH         PUBLIC        GetPossibleAutoDetectStdEE
  C:8810H         PUBLIC        SetPossibleAutoDetectStdEE
  C:A42AH         PUBLIC        _SaveWideModeEE
  C:A494H         PUBLIC        GetWideModeEE
  X:010BH         SYMBOL        GaugeVStart
  C:A4B4H         PUBLIC        GetAudioVolEE
  C:9B17H         PUBLIC        ClearBasicEE
  C:A117H         PUBLIC        _GetVideoDatafromEE
  C:A43CH         PUBLIC        _SaveInputSelectionEE
  C:A44EH         PUBLIC        _SetAudioVolEE
  C:A433H         PUBLIC        _SaveOSDPositionModeEE
  C:A4BCH         PUBLIC        GetPCAudioVolEE
  C:9817H         PUBLIC        _SaveFWRevEE
  C:A457H         PUBLIC        _SetPCAudioVolEE
  C:A4A4H         PUBLIC        GetOSDPositionModeEE
  C:A312H         PUBLIC        _SaveVideoDatatoEE
  C:8FFEH         PUBLIC        GetFWRevEE
  -------         PROC          GETFWREVEE
  -------         DO            
  X:0002H         SYMBOL        rev
  -------         ENDDO         
  C:8FFEH         LINE#         23
  C:8FFEH         LINE#         24
  C:8FFEH         LINE#         27
  C:900BH         LINE#         28
  C:9019H         LINE#         29
  C:9027H         LINE#         30
  C:9037H         LINE#         32
  C:9046H         LINE#         33
  C:905EH         LINE#         35
BL51 BANKED LINKER/LOCATER V6.22                                                      12/09/2015  15:21:44  PAGE 42


  C:905EH         LINE#         36
  -------         ENDPROC       GETFWREVEE
  -------         PROC          _SAVEFWREVEE
  X:0002H         SYMBOL        rev
  C:9817H         LINE#         38
  C:981FH         LINE#         39
  C:981FH         LINE#         40
  C:9827H         LINE#         41
  C:9830H         LINE#         42
  C:9839H         LINE#         43
  C:9842H         LINE#         45
  C:984EH         LINE#         46
  -------         ENDPROC       _SAVEFWREVEE
  -------         PROC          GETDEBUGLEVELEE
  C:A48CH         LINE#         49
  C:A48CH         LINE#         50
  C:A48CH         LINE#         51
  C:A493H         LINE#         52
  -------         ENDPROC       GETDEBUGLEVELEE
  -------         PROC          _SAVEDEBUGLEVELEE
  D:0007H         SYMBOL        dl
  C:A421H         LINE#         54
  C:A421H         LINE#         55
  C:A421H         LINE#         56
  -------         ENDPROC       _SAVEDEBUGLEVELEE
  -------         PROC          GETWIDEMODEEE
  C:A494H         LINE#         61
  C:A494H         LINE#         62
  C:A494H         LINE#         63
  C:A49BH         LINE#         64
  -------         ENDPROC       GETWIDEMODEEE
  -------         PROC          _SAVEWIDEMODEEE
  D:0007H         SYMBOL        dl
  C:A42AH         LINE#         66
  C:A42AH         LINE#         67
  C:A42AH         LINE#         68
  -------         ENDPROC       _SAVEWIDEMODEEE
  -------         PROC          GETPOSSIBLEAUTODETECTSTDEE
  -------         DO            
  D:0007H         SYMBOL        val
  -------         ENDDO         
  C:A49CH         LINE#         73
  C:A49CH         LINE#         74
  C:A49CH         LINE#         77
  C:A4A3H         LINE#         83
  C:A4A3H         LINE#         84
  -------         ENDPROC       GETPOSSIBLEAUTODETECTSTDEE
  -------         PROC          SETPOSSIBLEAUTODETECTSTDEE
  -------         DO            
  X:0002H         SYMBOL        i
  X:0003H         SYMBOL        val
  -------         ENDDO         
  C:8810H         LINE#         86
  C:8810H         LINE#         87
  C:8810H         LINE#         88
  C:8815H         LINE#         91
  C:8819H         LINE#         92
BL51 BANKED LINKER/LOCATER V6.22                                                      12/09/2015  15:21:44  PAGE 43


  C:8847H         LINE#         93
  C:8847H         LINE#         94
  C:8853H         LINE#         100
  C:8853H         LINE#         101
  C:885CH         LINE#         102
  C:8865H         LINE#         103
  C:886EH         LINE#         104
  C:8877H         LINE#         105
  C:8880H         LINE#         106
  C:8889H         LINE#         107
  C:8890H         LINE#         108
  C:8890H         LINE#         109
  C:8890H         LINE#         110
  -------         ENDPROC       SETPOSSIBLEAUTODETECTSTDEE
  -------         PROC          GETOSDPOSITIONMODEEE
  -------         DO            
  D:0007H         SYMBOL        val
  -------         ENDDO         
  C:A4A4H         LINE#         117
  C:A4A4H         LINE#         118
  C:A4A4H         LINE#         121
  C:A4ABH         LINE#         123
  C:A4ABH         LINE#         124
  -------         ENDPROC       GETOSDPOSITIONMODEEE
  -------         PROC          _SAVEOSDPOSITIONMODEEE
  D:0007H         SYMBOL        ndata
  C:A433H         LINE#         126
  C:A433H         LINE#         127
  C:A433H         LINE#         129
  -------         ENDPROC       _SAVEOSDPOSITIONMODEEE
  -------         PROC          _GETVIDEODATAFROMEE
  D:0003H         SYMBOL        offset
  -------         DO            
  D:0007H         SYMBOL        val
  -------         ENDDO         
  C:A117H         LINE#         136
  C:A119H         LINE#         137
  C:A119H         LINE#         140
  C:A137H         LINE#         142
  C:A137H         LINE#         143
  -------         ENDPROC       _GETVIDEODATAFROMEE
  -------         PROC          _SAVEVIDEODATATOEE
  D:0007H         SYMBOL        offset
  D:0005H         SYMBOL        ndata
  -------         DO            
  D:0007H         SYMBOL        tot
  -------         ENDDO         
  C:A312H         LINE#         145
  C:A312H         LINE#         146
  C:A312H         LINE#         149
  C:A31EH         LINE#         151
  -------         ENDPROC       _SAVEVIDEODATATOEE
  -------         PROC          _SAVEINPUTSELECTIONEE
  D:0007H         SYMBOL        val
  C:A43CH         LINE#         154
  C:A43CH         LINE#         155
  C:A43CH         LINE#         156
BL51 BANKED LINKER/LOCATER V6.22                                                      12/09/2015  15:21:44  PAGE 44


  -------         ENDPROC       _SAVEINPUTSELECTIONEE
  -------         PROC          GETOSDLANGEE
  -------         DO            
  D:0007H         SYMBOL        val
  -------         ENDDO         
  C:A4ACH         LINE#         180
  C:A4ACH         LINE#         181
  C:A4ACH         LINE#         184
  C:A4B3H         LINE#         190
  C:A4B3H         LINE#         191
  -------         ENDPROC       GETOSDLANGEE
  -------         PROC          _SAVEOSDLANGEE
  D:0007H         SYMBOL        val
  C:A445H         LINE#         193
  C:A445H         LINE#         194
  C:A445H         LINE#         195
  -------         ENDPROC       _SAVEOSDLANGEE
  -------         PROC          GETAUDIOVOLEE
  C:A4B4H         LINE#         220
  C:A4B4H         LINE#         221
  C:A4B4H         LINE#         222
  C:A4BBH         LINE#         223
  -------         ENDPROC       GETAUDIOVOLEE
  -------         PROC          _SETAUDIOVOLEE
  D:0007H         SYMBOL        vol
  C:A44EH         LINE#         225
  C:A44EH         LINE#         226
  C:A44EH         LINE#         227
  -------         ENDPROC       _SETAUDIOVOLEE
  -------         PROC          GETPCAUDIOVOLEE
  C:A4BCH         LINE#         230
  C:A4BCH         LINE#         231
  C:A4BCH         LINE#         232
  C:A4C3H         LINE#         233
  -------         ENDPROC       GETPCAUDIOVOLEE
  -------         PROC          _SETPCAUDIOVOLEE
  D:0007H         SYMBOL        vol
  C:A457H         LINE#         234
  C:A457H         LINE#         235
  C:A457H         LINE#         236
  -------         ENDPROC       _SETPCAUDIOVOLEE
  -------         PROC          CLEARBASICEE
  C:9B17H         LINE#         401
  C:9B17H         LINE#         402
  C:9B17H         LINE#         403
  C:9B1FH         LINE#         404
  C:9B24H         LINE#         406
  C:9B2BH         LINE#         407
  C:9B33H         LINE#         410
  C:9B3CH         LINE#         411
  C:9B48H         LINE#         414
  C:9B4BH         LINE#         418
  C:9B4EH         LINE#         421
  -------         ENDPROC       CLEARBASICEE
  -------         ENDMOD        ETC_EEP

  -------         MODULE        I2C
BL51 BANKED LINKER/LOCATER V6.22                                                      12/09/2015  15:21:44  PAGE 45


  C:0000H         SYMBOL        _ICE_DUMMY_
  C:9A20H         PUBLIC        _WriteI2CnD
  D:00E8H         PUBLIC        P4
  B:0090H.0       PUBLIC        P1_0
  B:0090H.1       PUBLIC        P1_1
  C:9BC6H         PUBLIC        _WriteI2Cn_
  C:9DA2H         PUBLIC        I2CReadData
  C:98E1H         PUBLIC        _WriteI2Cn
  C:9B8DH         PUBLIC        _ReadI2C
  C:0012H         PUBLIC        dd
  C:8E5EH         PUBLIC        _I2CWriteData
  C:9FF8H         PUBLIC        _WriteI2C
  C:A300H         PUBLIC        I2CStart
  C:9FD2H         PUBLIC        _ReadEEP
  C:0016H         PUBLIC        I2CStop
  C:978BH         PUBLIC        _WriteEEP
  C:A1F3H         SYMBOL        Com002D
  C:A1F3H         SYMBOL        L?0046
  C:A1F3H         SYMBOL        L?0047
  C:A1FDH         SYMBOL        L?0048
  C:A20AH         SYMBOL        L?0049
  C:A20AH         SYMBOL        L?0050
  -------         PROC          COM002D
  -------         ENDPROC       COM002D
  -------         PROC          _WRITEEEP
  X:0028H         SYMBOL        index
  X:002AH         SYMBOL        dat
  -------         DO            
  X:002BH         SYMBOL        addr
  -------         ENDDO         
  C:978BH         LINE#         91
  C:9796H         LINE#         92
  C:9796H         LINE#         95
  C:97AEH         LINE#         97
  C:97B1H         LINE#         98
  C:97B9H         LINE#         99
  C:97C2H         LINE#         100
  C:97CAH         LINE#         101
  C:97CDH         LINE#         107
  -------         ENDPROC       _WRITEEEP
  -------         PROC          _READEEP
  D:0004H         SYMBOL        index
  -------         DO            
  X:0033H         SYMBOL        val
  D:0007H         SYMBOL        addr
  -------         ENDDO         
  C:9FD2H         LINE#         110
  C:9FD6H         LINE#         111
  C:9FD6H         LINE#         115
  C:9FE5H         LINE#         117
  C:9FEDH         LINE#         122
  C:9FF2H         LINE#         123
  C:9FF7H         LINE#         124
  -------         ENDPROC       _READEEP
  -------         PROC          _READI2C
  X:0034H         SYMBOL        addr
  X:0035H         SYMBOL        index
BL51 BANKED LINKER/LOCATER V6.22                                                      12/09/2015  15:21:44  PAGE 46


  -------         DO            
  X:0036H         SYMBOL        val
  -------         ENDDO         
  C:9B8DH         LINE#         126
  C:9B95H         LINE#         127
  C:9B95H         LINE#         130
  C:9B98H         LINE#         131
  C:9BA0H         LINE#         132
  C:9BA8H         LINE#         133
  C:9BABH         LINE#         134
  C:9BB5H         LINE#         135
  C:9BBDH         LINE#         136
  C:9BC0H         LINE#         138
  C:9BC5H         LINE#         139
  -------         ENDPROC       _READI2C
  -------         PROC          _WRITEI2C
  X:0055H         SYMBOL        addr
  X:0056H         SYMBOL        index
  X:0057H         SYMBOL        val
  C:9FF8H         LINE#         142
  C:A000H         LINE#         143
  C:A000H         LINE#         144
  C:A003H         LINE#         145
  C:A00BH         LINE#         146
  C:A013H         LINE#         147
  C:A01BH         LINE#         148
  -------         ENDPROC       _WRITEI2C
  -------         PROC          _WRITEI2CND
  X:0034H         SYMBOL        addr
  X:0035H         SYMBOL        index
  X:0036H         SYMBOL        val
  X:0037H         SYMBOL        cnt
  -------         DO            
  X:0038H         SYMBOL        i
  -------         ENDDO         
  C:9A20H         LINE#         151
  C:9A28H         LINE#         152
  C:9A28H         LINE#         155
  C:9A2BH         LINE#         156
  C:9A33H         LINE#         157
  C:9A3BH         LINE#         159
  C:9A4BH         LINE#         160
  C:9A53H         LINE#         162
  C:9A5BH         LINE#         164
  -------         ENDPROC       _WRITEI2CND
  -------         PROC          _WRITEI2CN
  X:0055H         SYMBOL        addr
  X:0056H         SYMBOL        index
  X:0057H         SYMBOL        val
  X:005AH         SYMBOL        cnt
  -------         DO            
  X:005BH         SYMBOL        i
  -------         ENDDO         
  C:98E1H         LINE#         167
  C:98EAH         LINE#         168
  C:98EAH         LINE#         172
  C:98EDH         LINE#         173
BL51 BANKED LINKER/LOCATER V6.22                                                      12/09/2015  15:21:44  PAGE 47


  C:98F5H         LINE#         174
  C:98FDH         LINE#         176
  C:990EH         LINE#         177
  C:9917H         LINE#         179
  C:991FH         LINE#         180
  -------         ENDPROC       _WRITEI2CN
  -------         PROC          _WRITEI2CN_
  X:0020H         SYMBOL        addr
  X:0021H         SYMBOL        val
  X:0024H         SYMBOL        cnt
  -------         DO            
  X:0025H         SYMBOL        i
  -------         ENDDO         
  C:9BC6H         LINE#         183
  C:9BCFH         LINE#         184
  C:9BCFH         LINE#         187
  C:9BD2H         LINE#         188
  C:9BDAH         LINE#         190
  C:9BEBH         LINE#         191
  C:9BF4H         LINE#         192
  C:9BFCH         LINE#         193
  -------         ENDPROC       _WRITEI2CN_
  -------         PROC          DD
  C:0012H         LINE#         249
  C:0012H         LINE#         250
  C:0012H         LINE#         254
  -------         ENDPROC       DD
  -------         PROC          I2CSTART
  C:A300H         LINE#         259
  C:A300H         LINE#         260
  C:A300H         LINE#         261
  C:A305H         LINE#         262
  C:A30AH         LINE#         263
  C:A30FH         LINE#         264
  C:A311H         LINE#         265
  -------         ENDPROC       I2CSTART
  -------         PROC          I2CSTOP
  C:0016H         LINE#         267
  C:0016H         LINE#         268
  C:0016H         LINE#         269
  C:001BH         LINE#         270
  C:0020H         LINE#         271
  C:0022H         LINE#         272
  -------         ENDPROC       I2CSTOP
  -------         PROC          _I2CWRITEDATA
  D:0007H         SYMBOL        value
  C:8E5EH         LINE#         274
  C:8E5EH         LINE#         275
  C:8E5EH         LINE#         289
  C:8E68H         LINE#         290
  C:8E73H         LINE#         291
  C:8E7EH         LINE#         292
  C:8E89H         LINE#         294
  C:8E94H         LINE#         295
  C:8E9FH         LINE#         296
  C:8EAAH         LINE#         297
  C:8EB5H         LINE#         300
BL51 BANKED LINKER/LOCATER V6.22                                                      12/09/2015  15:21:44  PAGE 48


  C:8EB8H         LINE#         301
  C:8EBAH         LINE#         302
  C:8EBCH         LINE#         303
  C:8EBEH         LINE#         305
  C:8EC0H         LINE#         306
  C:8EC2H         LINE#         307
  C:8EC4H         LINE#         308
  C:8EC6H         LINE#         309
  -------         ENDPROC       _I2CWRITEDATA
  -------         PROC          I2CREADDATA
  -------         DO            
  D:0004H         SYMBOL        i
  D:0007H         SYMBOL        value
  -------         ENDDO         
  C:9DA2H         LINE#         311
  C:9DA2H         LINE#         312
  C:9DA2H         LINE#         314
  C:9DA4H         LINE#         316
  C:9DA9H         LINE#         317
  C:9DABH         LINE#         319
  C:9DADH         LINE#         320
  C:9DAFH         LINE#         321
  C:9DB3H         LINE#         322
  C:9DB9H         LINE#         323
  C:9DBBH         LINE#         324
  C:9DC6H         LINE#         325
  C:9DC9H         LINE#         327
  C:9DCBH         LINE#         328
  C:9DCDH         LINE#         329
  C:9DCFH         LINE#         330
  C:9DD1H         LINE#         332
  C:9DD1H         LINE#         334
  -------         ENDPROC       I2CREADDATA
  -------         ENDMOD        I2C

  -------         MODULE        KEYREMO
  C:0000H         SYMBOL        _ICE_DUMMY_
  X:00FBH         PUBLIC        GaugeSetup
  D:00A0H         PUBLIC        P2
  D:00E8H         PUBLIC        P4
  B:0023H.1       PUBLIC        CAM_PTZ_RUN_flag
  X:00FCH         PUBLIC        KeyBuffer
  C:A0AFH         PUBLIC        RemoVolDn_LeftKey
  X:00FDH         PUBLIC        DayNightLevel
  C:A08CH         PUBLIC        RemoVolUp_RightKey
  X:00FEH         PUBLIC        lock_keycnt
  X:00FFH         PUBLIC        BookMarkState
  C:A3CCH         PUBLIC        RemoChnDn_DnKey
  X:0100H         PUBLIC        LockKeyState
  C:4DB4H         PUBLIC        CheckKeyIn
  C:A3BFH         PUBLIC        RemoChnUp_UpKey
  C:731CH         PUBLIC        _GetKey
  C:A3B1H         PUBLIC        RemoMenu_MenuKey
  X:0101H         SYMBOL        GaugeVStart
  X:0102H         PUBLIC        GaugeInfoOSD
  C:787AH         PUBLIC        _ActionRemo
  C:A4C4H         SYMBOL        Com0097
BL51 BANKED LINKER/LOCATER V6.22                                                      12/09/2015  15:21:44  PAGE 49


  C:A4C4H         SYMBOL        L?0152
  -------         PROC          COM0097
  -------         ENDPROC       COM0097
  -------         PROC          REMOMENU_MENUKEY
  C:A3B1H         LINE#         96
  C:A3B1H         LINE#         97
  C:A3B1H         LINE#         98
  C:A3BBH         LINE#         99
  C:A3BEH         LINE#         100
  -------         ENDPROC       REMOMENU_MENUKEY
  -------         PROC          REMOCHNUP_UPKEY
  C:A3BFH         LINE#         103
  C:A3BFH         LINE#         104
  C:A3BFH         LINE#         113
  C:A3C6H         LINE#         124
  C:A3CBH         LINE#         131
  -------         ENDPROC       REMOCHNUP_UPKEY
  -------         PROC          REMOCHNDN_DNKEY
  C:A3CCH         LINE#         133
  C:A3CCH         LINE#         134
  C:A3CCH         LINE#         142
  C:A3D3H         LINE#         143
  C:A3D8H         LINE#         144
  C:A3D8H         LINE#         150
  -------         ENDPROC       REMOCHNDN_DNKEY
  -------         PROC          REMOVOLUP_RIGHTKEY
  C:A08CH         LINE#         152
  C:A08CH         LINE#         153
  C:A08CH         LINE#         161
  C:A093H         LINE#         162
  C:A09AH         LINE#         163
  C:A09DH         LINE#         164
  C:A09DH         LINE#         166
  C:A09DH         LINE#         168
  C:A0A5H         LINE#         169
  C:A0A8H         LINE#         172
  C:A0A8H         LINE#         173
  C:A0ABH         LINE#         174
  C:A0AEH         LINE#         175
  C:A0AEH         LINE#         176
  C:A0AEH         LINE#         177
  -------         ENDPROC       REMOVOLUP_RIGHTKEY
  -------         PROC          REMOVOLDN_LEFTKEY
  C:A0AFH         LINE#         179
  C:A0AFH         LINE#         180
  C:A0AFH         LINE#         188
  C:A0B6H         LINE#         189
  C:A0B6H         LINE#         190
  C:A0B9H         LINE#         191
  C:A0BBH         LINE#         193
  C:A0BEH         LINE#         194
  C:A0BEH         LINE#         196
  C:A0BEH         LINE#         198
  C:A0C4H         LINE#         199
  C:A0C9H         LINE#         202
  C:A0C9H         LINE#         203
  C:A0CEH         LINE#         204
BL51 BANKED LINKER/LOCATER V6.22                                                      12/09/2015  15:21:44  PAGE 50


  C:A0D1H         LINE#         205
  C:A0D1H         LINE#         206
  C:A0D1H         LINE#         207
  -------         ENDPROC       REMOVOLDN_LEFTKEY
  -------         PROC          _ACTIONREMO
  X:0004H         SYMBOL        _RemoDataCode
  X:0005H         SYMBOL        AutoKey
  C:787AH         LINE#         212
  C:7882H         LINE#         213
  C:7882H         LINE#         214
  C:7885H         LINE#         234
  C:78CFH         LINE#         236
  C:78CFH         LINE#         240
  C:78D7H         LINE#         241
  C:78E0H         LINE#         242
  C:78E3H         LINE#         244
  C:78E3H         LINE#         257
  C:78E3H         LINE#         259
  C:78E3H         LINE#         263
  C:78E9H         LINE#         264
  C:78ECH         LINE#         266
  C:78ECH         LINE#         270
  C:78F8H         LINE#         271
  C:78FBH         LINE#         272
  C:78FEH         LINE#         274
  C:78FEH         LINE#         275
  C:78FEH         LINE#         276
  C:78FEH         LINE#         277
  C:78FEH         LINE#         278
  C:78FEH         LINE#         279
  C:78FEH         LINE#         280
  C:78FEH         LINE#         281
  C:78FEH         LINE#         282
  C:78FEH         LINE#         283
  C:78FEH         LINE#         287
  C:7902H         LINE#         289
  C:7905H         LINE#         290
  C:7905H         LINE#         292
  C:7905H         LINE#         296
  C:7908H         LINE#         297
  C:790AH         LINE#         299
  C:790AH         LINE#         303
  C:790DH         LINE#         304
  C:790FH         LINE#         306
  C:790FH         LINE#         310
  C:7918H         LINE#         311
  C:791FH         LINE#         312
  C:7922H         LINE#         313
  C:7922H         LINE#         314
  C:7924H         LINE#         316
  C:7924H         LINE#         320
  C:7927H         LINE#         321
  C:7929H         LINE#         322
  C:7929H         LINE#         326
  C:792CH         LINE#         327
  C:792EH         LINE#         330
  C:792EH         LINE#         334
BL51 BANKED LINKER/LOCATER V6.22                                                      12/09/2015  15:21:44  PAGE 51


  C:7937H         LINE#         338
  C:793AH         LINE#         340
  C:793CH         LINE#         342
  C:793CH         LINE#         346
  C:7943H         LINE#         347
  C:7948H         LINE#         348
  C:794AH         LINE#         361
  C:794AH         LINE#         365
  C:7951H         LINE#         366
  C:7951H         LINE#         368
  C:7951H         LINE#         380
  C:7953H         LINE#         381
  -------         ENDPROC       _ACTIONREMO
  C:505FH         SYMBOL        L?0148
  C:5073H         SYMBOL        L?0149
  C:507DH         SYMBOL        L?0150
  -------         PROC          CHECKKEYIN
  -------         DO            
  X:0001H         SYMBOL        ret
  X:0002H         SYMBOL        ikey
  X:0003H         SYMBOL        OSD_LOCK
  -------         ENDDO         
  C:4DB4H         LINE#         383
  C:4DB4H         LINE#         384
  C:4DB4H         LINE#         385
  C:4DBAH         LINE#         387
  C:4DC8H         LINE#         388
  C:4DC8H         LINE#         389
  C:4DE1H         LINE#         390
  C:4DE9H         LINE#         391
  C:4DF1H         LINE#         392
  C:4DF9H         LINE#         393
  C:4E01H         LINE#         394
  C:4E09H         LINE#         395
  C:4E11H         LINE#         396
  C:4E1AH         LINE#         397
  C:4E1AH         LINE#         399
  C:4E20H         LINE#         400
  C:4E20H         LINE#         401
  C:4E24H         LINE#         402
  C:4E27H         LINE#         403
  C:4E27H         LINE#         405
  C:4E33H         LINE#         409
  C:4E3FH         LINE#         411
  C:4E3FH         LINE#         412
  C:4E46H         LINE#         416
  C:4E56H         LINE#         418
  C:4E56H         LINE#         419
  C:4E58H         LINE#         420
  C:4E58H         LINE#         421
  C:4E5BH         LINE#         422
  C:4E5EH         LINE#         423
  C:4E63H         LINE#         424
  C:4E67H         LINE#         425
  C:4E6AH         LINE#         428
  C:4E6AH         LINE#         429
  C:4E6AH         LINE#         432
BL51 BANKED LINKER/LOCATER V6.22                                                      12/09/2015  15:21:44  PAGE 52


  C:4E78H         LINE#         433
  C:4E78H         LINE#         434
  C:4E79H         LINE#         435
  C:4E79H         LINE#         436
  C:4E7CH         LINE#         437
  C:4E7FH         LINE#         439
  C:4E82H         LINE#         440
  C:4E87H         LINE#         441
  C:4E8CH         LINE#         442
  C:4E8CH         LINE#         445
  C:4E9EH         LINE#         446
  C:4E9EH         LINE#         447
  C:4EA0H         LINE#         448
  C:4EA5H         LINE#         449
  C:4EA5H         LINE#         467
  C:4EA8H         LINE#         469
  C:4ECBH         LINE#         470
  C:4ECBH         LINE#         471
  C:4ED4H         LINE#         472
  C:4ED7H         LINE#         473
  C:4ED7H         LINE#         474
  C:4EE0H         LINE#         475
  C:4EE0H         LINE#         477
  C:4EEBH         LINE#         478
  C:4EF0H         LINE#         480
  C:4EF7H         LINE#         481
  C:4EF7H         LINE#         482
  C:4EFAH         LINE#         484
  C:4EFAH         LINE#         485
  C:4EFCH         LINE#         489
  C:4EFCH         LINE#         490
  C:4EFCH         LINE#         491
  C:4EFFH         LINE#         493
  C:4EFFH         LINE#         494
  C:4F08H         LINE#         497
  C:4F0EH         LINE#         498
  C:4F0EH         LINE#         499
  C:4F10H         LINE#         500
  C:4F14H         LINE#         501
  C:4F1DH         LINE#         502
  C:4F26H         LINE#         503
  C:4F2FH         LINE#         505
  C:4F3BH         LINE#         508
  C:4F3EH         LINE#         509
  C:4F41H         LINE#         515
  C:4F44H         LINE#         516
  C:4F44H         LINE#         519
  C:4F47H         LINE#         520
  C:4F47H         LINE#         522
  C:4F4DH         LINE#         523
  C:4F4DH         LINE#         525
  C:4F51H         LINE#         526
  C:4F56H         LINE#         527
  C:4F59H         LINE#         528
  C:4F5CH         LINE#         529
  C:4F63H         LINE#         530
  C:4F66H         LINE#         533
BL51 BANKED LINKER/LOCATER V6.22                                                      12/09/2015  15:21:44  PAGE 53


  C:4F66H         LINE#         534
  C:4F6DH         LINE#         535
  C:4F6DH         LINE#         536
  C:4F70H         LINE#         537
  C:4F72H         LINE#         540
  C:4F75H         LINE#         541
  C:4F78H         LINE#         542
  C:4F7FH         LINE#         543
  C:4F7FH         LINE#         544
  C:4F82H         LINE#         545
  C:4F85H         LINE#         546
  C:4F88H         LINE#         547
  C:4F8BH         LINE#         549
  C:4F8BH         LINE#         569
  C:4F91H         LINE#         570
  C:4F91H         LINE#         571
  C:4F91H         LINE#         572
  C:4F94H         LINE#         574
  C:4F94H         LINE#         575
  C:4F96H         LINE#         576
  C:4F96H         LINE#         577
  C:4F96H         LINE#         579
  C:4F99H         LINE#         583
  C:4F99H         LINE#         584
  C:4F9CH         LINE#         585
  C:4F9CH         LINE#         586
  C:4FA3H         LINE#         587
  C:4FA3H         LINE#         588
  C:4FA8H         LINE#         589
  C:4FAAH         LINE#         599
  C:4FAAH         LINE#         600
  C:4FB4H         LINE#         601
  C:4FB9H         LINE#         602
  C:4FBBH         LINE#         603
  C:4FBBH         LINE#         604
  C:4FBBH         LINE#         606
  C:4FBBH         LINE#         607
  C:4FBDH         LINE#         608
  C:4FBDH         LINE#         610
  C:4FBDH         LINE#         611
  C:4FBFH         LINE#         613
  C:4FBFH         LINE#         614
  C:4FC2H         LINE#         615
  C:4FC2H         LINE#         616
  C:4FC9H         LINE#         617
  C:4FC9H         LINE#         618
  C:4FCEH         LINE#         619
  C:4FD4H         LINE#         621
  C:4FD4H         LINE#         625
  C:4FD7H         LINE#         626
  C:4FD7H         LINE#         627
  C:4FDAH         LINE#         629
  C:4FDAH         LINE#         630
  C:4FE8H         LINE#         631
  C:4FF4H         LINE#         632
  C:4FF7H         LINE#         633
  C:4FF7H         LINE#         634
BL51 BANKED LINKER/LOCATER V6.22                                                      12/09/2015  15:21:44  PAGE 54


  C:4FF7H         LINE#         636
  C:4FF7H         LINE#         637
  C:4FF9H         LINE#         638
  C:4FF9H         LINE#         640
  C:4FF9H         LINE#         641
  C:4FFBH         LINE#         643
  C:4FFBH         LINE#         644
  C:4FFEH         LINE#         645
  C:4FFEH         LINE#         646
  C:5001H         LINE#         647
  C:5003H         LINE#         649
  C:5003H         LINE#         650
  C:5005H         LINE#         651
  C:5005H         LINE#         653
  C:5005H         LINE#         654
  C:5007H         LINE#         658
  C:5007H         LINE#         659
  C:500AH         LINE#         660
  C:500AH         LINE#         661
  C:5010H         LINE#         662
  C:5014H         LINE#         664
  C:5019H         LINE#         666
  C:501CH         LINE#         667
  C:501EH         LINE#         669
  C:501EH         LINE#         670
  C:5023H         LINE#         671
  C:5025H         LINE#         673
  C:5025H         LINE#         674
  C:5027H         LINE#         677
  C:5027H         LINE#         678
  C:5030H         LINE#         680
  C:5032H         LINE#         683
  C:5032H         LINE#         687
  C:503BH         LINE#         703
  C:5043H         LINE#         704
  C:5043H         LINE#         705
  C:5045H         LINE#         706
  C:5048H         LINE#         708
  C:504AH         LINE#         709
  C:504DH         LINE#         710
  C:5056H         LINE#         711
  C:5059H         LINE#         712
  C:5059H         LINE#         720
  C:5059H         LINE#         722
  C:5059H         LINE#         724
  C:5059H         LINE#         725
  C:505EH         LINE#         726
  -------         ENDPROC       CHECKKEYIN
  -------         PROC          _GETKEY
  X:0004H         SYMBOL        repeat
  -------         DO            
  B:0022H.7       SYMBOL        ready
  -------         ENDDO         
  C:731CH         LINE#         732
  C:7321H         LINE#         733
  C:7321H         LINE#         737
  C:7325H         LINE#         738
BL51 BANKED LINKER/LOCATER V6.22                                                      12/09/2015  15:21:44  PAGE 55


  C:7327H         LINE#         740
  C:732DH         LINE#         741
  C:732DH         LINE#         742
  C:732FH         LINE#         744
  C:7345H         LINE#         745
  C:7348H         LINE#         746
  C:735CH         LINE#         747
  C:735FH         LINE#         749
  C:7374H         LINE#         750
  C:7377H         LINE#         751
  C:738CH         LINE#         752
  C:738FH         LINE#         755
  C:7396H         LINE#         756
  C:7396H         LINE#         757
  C:73ACH         LINE#         758
  C:73AFH         LINE#         759
  C:73C3H         LINE#         760
  C:73C6H         LINE#         761
  C:73DBH         LINE#         762
  C:73DEH         LINE#         763
  C:73F3H         LINE#         764
  C:73F6H         LINE#         765
  C:73F6H         LINE#         766
  C:73F8H         LINE#         767
  C:73F8H         LINE#         769
  C:73FEH         LINE#         770
  C:7407H         LINE#         771
  C:740DH         LINE#         773
  C:740FH         LINE#         775
  -------         ENDPROC       _GETKEY
  -------         ENDMOD        KEYREMO

  -------         MODULE        MAIN
  C:0000H         SYMBOL        _ICE_DUMMY_
  D:00E8H         PUBLIC        P4
  C:A198H         PUBLIC        GetNextInputSelection
  B:0020H.0       PUBLIC        Range4Coarse
  X:00D0H         PUBLIC        Baud_rate
  X:00D1H         PUBLIC        PowerFlag
  C:89A3H         PUBLIC        _InitVideoData
  C:A323H         PUBLIC        IsNoInput
  X:00D2H         PUBLIC        SelectModeType
  B:0090H.4       PUBLIC        P1_4
  C:A469H         PUBLIC        GetOSDLastKeyInTime
  B:0090H.5       PUBLIC        P1_5
  X:00D3H         PUBLIC        VInputStd
  B:00B0H.4       PUBLIC        P3_4
  B:00B0H.5       PUBLIC        P3_5
  B:00B0H.7       PUBLIC        P3_7
  C:6B66H         PUBLIC        struct_VInputStd
  X:00D4H         PUBLIC        displayhold_flag
  C:A3F2H         PUBLIC        SetOSDLastKeyInTime
  X:00D5H         PUBLIC        DVR_AudioRecord
  C:9282H         PUBLIC        main
  C:7AFBH         PUBLIC        _AdjustAutoDayNight
  X:00D6H         PUBLIC        AutoDayNightDelay
  C:A3D9H         PUBLIC        PowerOff
BL51 BANKED LINKER/LOCATER V6.22                                                      12/09/2015  15:21:44  PAGE 56


  C:9578H         PUBLIC        _I2CDeviceInitialize
  C:836BH         PUBLIC        CheckDecoderInput
  B:0020H.1       PUBLIC        I2CAutoIncFlagOn
  B:0020H.2       PUBLIC        AccPowerDown
  C:A4E0H         PUBLIC        GetVInputStd
  B:0020H.3       PUBLIC        PowerDownStart
  X:00D7H         PUBLIC        CAMNumber
  X:00D8H         PUBLIC        InputSelection
  C:69D7H         PUBLIC        main_loop
  C:9BFFH         PUBLIC        _SetVInputStd
  C:A460H         PUBLIC        PowerDown_XTAL
  C:6B11H         PUBLIC        struct_InputSelection
  C:7124H         PUBLIC        LoadEEPROM
  C:A356H         PUBLIC        Hs_InitVars
  B:0020H.4       PUBLIC        Flag4AutoPanelRegs
  X:00D9H         SYMBOL        GaugeVStart
  C:A0D2H         PUBLIC        ReadVInputSTD
  D:0063H         PUBLIC        IHF
  C:84A7H         PUBLIC        _ChangeInput
  X:00DAH         PUBLIC        PelcoChoiceFLAG
  C:A4E6H         PUBLIC        GetInputSelection
  X:00DBH         PUBLIC        DebugLevel
  D:0067H         PUBLIC        IVF
  X:00DCH         PUBLIC        ReverseModeFlag
  C:8B26H         PUBLIC        WaitPowerOn
  X:00DDH         PUBLIC        Priority
  C:91D1H         PUBLIC        GetVInputStdInx
  B:0020H.5       PUBLIC        DVRReSendDisable
  D:0069H         PUBLIC        PWMLevel
  X:00DEH         PUBLIC        Commanderror
  X:00DFH         PUBLIC        OSDLastKeyInTime
  B:0020H.6       PUBLIC        SDCardCoverDetect
  X:00E1H         PUBLIC        WideScreenMode
  B:0020H.7       PUBLIC        VGAflag
  X:00E2H         PUBLIC        SEQTime
  X:00E3H         PUBLIC        VInputStdDetectMode
  C:9F35H         SYMBOL        Com009B
  C:9F35H         SYMBOL        L?0156
  C:9F35H         SYMBOL        L?0157
  C:9F46H         SYMBOL        L?0160
  C:9F46H         SYMBOL        L?0161
  C:9F4CH         SYMBOL        L?0162
  C:9F4CH         SYMBOL        L?0163
  C:9F53H         SYMBOL        L?0164
  -------         PROC          COM009B
  -------         ENDPROC       COM009B
  -------         PROC          _I2CDEVICEINITIALIZE
  X:001EH         SYMBOL        RegSet
  -------         DO            
  D:0006H         SYMBOL        cnt
  X:0021H         SYMBOL        addr
  X:0022H         SYMBOL        index
  X:0023H         SYMBOL        val
  -------         ENDDO         
  C:9578H         LINE#         323
  C:957EH         LINE#         324
  C:957EH         LINE#         325
BL51 BANKED LINKER/LOCATER V6.22                                                      12/09/2015  15:21:44  PAGE 57


  C:9580H         LINE#         328
  C:9587H         LINE#         332
  C:958AH         LINE#         333
  C:958CH         LINE#         335
  C:959FH         LINE#         336
  C:95A5H         LINE#         337
  C:95ADH         LINE#         351
  C:95B5H         LINE#         357
  C:95BFH         LINE#         358
  C:95C1H         LINE#         359
  -------         ENDPROC       _I2CDEVICEINITIALIZE
  -------         PROC          _INITVIDEODATA
  X:001DH         SYMBOL        src
  C:89A3H         LINE#         379
  C:89A8H         LINE#         380
  C:89A8H         LINE#         390
  C:89B1H         LINE#         391
  C:89B7H         LINE#         393
  C:89D2H         LINE#         396
  C:89D2H         LINE#         406
  C:89D2H         LINE#         412
  C:89D2H         LINE#         413
  C:89D2H         LINE#         416
  C:89DBH         LINE#         423
  C:89DDH         LINE#         427
  C:89DDH         LINE#         430
  C:89DDH         LINE#         433
  C:89DDH         LINE#         435
  C:89DDH         LINE#         437
  C:89DDH         LINE#         438
  C:89E3H         LINE#         439
  C:89E3H         LINE#         441
  C:89EAH         LINE#         442
  C:89EAH         LINE#         443
  C:89F2H         LINE#         444
  C:89FBH         LINE#         445
  C:89FDH         LINE#         447
  C:8A00H         LINE#         453
  C:8A09H         LINE#         455
  C:8A12H         LINE#         459
  C:8A1CH         LINE#         465
  C:8A22H         LINE#         467
  C:8A24H         LINE#         468
  -------         ENDPROC       _INITVIDEODATA
  -------         PROC          ISNOINPUT
  C:A323H         LINE#         471
  C:A323H         LINE#         472
  C:A323H         LINE#         473
  C:A331H         LINE#         474
  C:A333H         LINE#         475
  -------         ENDPROC       ISNOINPUT
  C:83FBH         SYMBOL        L?0159
  -------         PROC          CHECKDECODERINPUT
  -------         DO            
  X:0018H         SYMBOL        std1
  X:0019H         SYMBOL        std
  X:001AH         SYMBOL        cnt
BL51 BANKED LINKER/LOCATER V6.22                                                      12/09/2015  15:21:44  PAGE 58


  X:001BH         SYMBOL        trycnt
  X:001CH         SYMBOL        ChangedNoinput
  -------         ENDDO         
  C:836BH         LINE#         566
  C:836BH         LINE#         567
  C:836BH         LINE#         706
  C:8372H         LINE#         715
  C:837FH         LINE#         718
  C:8384H         LINE#         719
  C:8384H         LINE#         720
  C:838CH         LINE#         725
  C:8392H         LINE#         726
  C:8398H         LINE#         727
  C:8398H         LINE#         729
  C:83AAH         LINE#         730
  C:83AAH         LINE#         733
  C:83B5H         LINE#         734
  C:83BBH         LINE#         736
  C:83BBH         LINE#         737
  C:83C0H         LINE#         738
  C:83C5H         LINE#         739
  C:83C5H         LINE#         741
  C:83CEH         LINE#         747
  C:83D5H         LINE#         748
  C:83D5H         LINE#         750
  C:83D8H         LINE#         751
  C:83DEH         LINE#         752
  C:83DFH         LINE#         753
  C:83E8H         LINE#         754
  C:83E8H         LINE#         762
  C:83E8H         LINE#         763
  C:83EBH         LINE#         764
  C:83EBH         LINE#         765
  C:83EDH         LINE#         767
  C:83EDH         LINE#         777
  C:83EDH         LINE#         778
  C:83F0H         LINE#         779
  C:83F5H         LINE#         781
  C:83FAH         LINE#         782
  C:83FAH         LINE#         792
  C:83FAH         LINE#         793
  C:83FAH         LINE#         794
  C:83FAH         LINE#         805
  C:83FAH         LINE#         811
  -------         ENDPROC       CHECKDECODERINPUT
  -------         PROC          READVINPUTSTD
  -------         DO            
  D:0007H         SYMBOL        std
  -------         ENDDO         
  C:A0D2H         LINE#         813
  C:A0D2H         LINE#         814
  C:A0D2H         LINE#         817
  C:A0DBH         LINE#         819
  C:A0E6H         LINE#         820
  C:A0ECH         LINE#         822
  C:A0F4H         LINE#         823
  -------         ENDPROC       READVINPUTSTD
BL51 BANKED LINKER/LOCATER V6.22                                                      12/09/2015  15:21:44  PAGE 59


  -------         PROC          GETVINPUTSTDINX
  -------         DO            
  D:0007H         SYMBOL        i
  D:0003H         SYMBOL        std
  -------         ENDDO         
  C:91D1H         LINE#         825
  C:91D1H         LINE#         826
  C:91D1H         LINE#         829
  C:91D6H         LINE#         831
  C:91ECH         LINE#         833
  C:91ECH         LINE#         834
  C:91ECH         LINE#         835
  C:91ECH         LINE#         836
  C:91F4H         LINE#         838
  C:91F4H         LINE#         839
  C:91F4H         LINE#         840
  C:9203H         LINE#         841
  C:920AH         LINE#         842
  C:920AH         LINE#         844
  C:920CH         LINE#         845
  C:9220H         LINE#         846
  C:9221H         LINE#         847
  C:9224H         LINE#         848
  C:9224H         LINE#         849
  C:9227H         LINE#         850
  C:9229H         LINE#         851
  -------         ENDPROC       GETVINPUTSTDINX
  -------         PROC          GETVINPUTSTD
  C:A4E0H         LINE#         854
  C:A4E0H         LINE#         855
  C:A4E0H         LINE#         856
  C:A4E5H         LINE#         857
  -------         ENDPROC       GETVINPUTSTD
  -------         PROC          _SETVINPUTSTD
  D:0007H         SYMBOL        newd
  C:9BFFH         LINE#         860
  C:9BFFH         LINE#         861
  C:9BFFH         LINE#         862
  C:9C04H         LINE#         876
  C:9C19H         LINE#         879
  C:9C19H         LINE#         882
  C:9C19H         LINE#         885
  C:9C19H         LINE#         887
  C:9C21H         LINE#         890
  C:9C21H         LINE#         893
  C:9C21H         LINE#         896
  C:9C30H         LINE#         899
  C:9C37H         LINE#         900
  C:9C37H         LINE#         901
  -------         ENDPROC       _SETVINPUTSTD
  -------         PROC          GETINPUTSELECTION
  C:A4E6H         LINE#         903
  C:A4E6H         LINE#         904
  C:A4E6H         LINE#         905
  C:A4EBH         LINE#         906
  -------         ENDPROC       GETINPUTSELECTION
  -------         PROC          GETNEXTINPUTSELECTION
BL51 BANKED LINKER/LOCATER V6.22                                                      12/09/2015  15:21:44  PAGE 60


  -------         DO            
  D:0007H         SYMBOL        i
  -------         ENDDO         
  C:A198H         LINE#         908
  C:A198H         LINE#         909
  C:A198H         LINE#         913
  C:A19AH         LINE#         914
  C:A1AAH         LINE#         915
  C:A1ABH         LINE#         916
  C:A1B2H         LINE#         918
  C:A1B6H         LINE#         927
  -------         ENDPROC       GETNEXTINPUTSELECTION
  -------         PROC          POWERDOWN_XTAL
  B:0022H.7       SYMBOL        flag
  C:A460H         LINE#         929
  C:A460H         LINE#         930
  C:A460H         LINE#         931
  C:A466H         LINE#         932
  C:A468H         LINE#         933
  -------         ENDPROC       POWERDOWN_XTAL
  C:8536H         SYMBOL        L?0165
  -------         PROC          _CHANGEINPUT
  X:0017H         SYMBOL        newsel
  C:84A7H         LINE#         956
  C:84ACH         LINE#         957
  C:84ACH         LINE#         967
  C:84B6H         LINE#         979
  C:84B9H         LINE#         984
  C:84C1H         LINE#         992
  C:84C9H         LINE#         994
  C:84D5H         LINE#         995
  C:84D5H         LINE#         1011
  C:84D5H         LINE#         1012
  C:84D8H         LINE#         1015
  C:84D8H         LINE#         1016
  C:84D8H         LINE#         1017
  C:84DBH         LINE#         1018
  C:84DDH         LINE#         1020
  C:84E3H         LINE#         1021
  C:84E5H         LINE#         1045
  C:84E5H         LINE#         1055
  C:84E8H         LINE#         1061
  C:84E8H         LINE#         1062
  C:84E8H         LINE#         1065
  C:84EBH         LINE#         1066
  C:84EDH         LINE#         1072
  C:8503H         LINE#         1073
  C:8503H         LINE#         1087
  C:8503H         LINE#         1088
  C:8506H         LINE#         1089
  C:850EH         LINE#         1122
  C:850EH         LINE#         1133
  C:850EH         LINE#         1134
  C:8513H         LINE#         1135
  C:8516H         LINE#         1136
  C:8516H         LINE#         1146
  C:8516H         LINE#         1159
BL51 BANKED LINKER/LOCATER V6.22                                                      12/09/2015  15:21:44  PAGE 61


  C:8519H         LINE#         1160
  C:851EH         LINE#         1161
  C:8523H         LINE#         1163
  C:852CH         LINE#         1164
  C:8535H         LINE#         1165
  -------         ENDPROC       _CHANGEINPUT
  -------         PROC          POWEROFF
  C:A3D9H         LINE#         1167
  C:A3D9H         LINE#         1168
  C:A3D9H         LINE#         1173
  C:A3DEH         LINE#         1175
  C:A3E1H         LINE#         1176
  -------         ENDPROC       POWEROFF
  -------         PROC          SETOSDLASTKEYINTIME
  C:A3F2H         LINE#         1179
  C:A3F2H         LINE#         1180
  C:A3F2H         LINE#         1181
  C:A3FDH         LINE#         1182
  -------         ENDPROC       SETOSDLASTKEYINTIME
  -------         PROC          GETOSDLASTKEYINTIME
  C:A469H         LINE#         1184
  C:A469H         LINE#         1185
  C:A469H         LINE#         1186
  C:A471H         LINE#         1187
  -------         ENDPROC       GETOSDLASTKEYINTIME
  -------         PROC          _ADJUSTAUTODAYNIGHT
  D:0007H         SYMBOL        val
  -------         DO            
  X:0001H         SYMBOL        page
  X:0002H         SYMBOL        PWMLevelTemp
  -------         ENDDO         
  C:7AFBH         LINE#         1204
  C:7AFBH         LINE#         1205
  C:7AFBH         LINE#         1208
  C:7B00H         LINE#         1210
  C:7B0AH         LINE#         1211
  C:7B11H         LINE#         1212
  C:7B1CH         LINE#         1213
  C:7B24H         LINE#         1214
  C:7B2FH         LINE#         1215
  C:7B37H         LINE#         1216
  C:7B42H         LINE#         1217
  C:7B4AH         LINE#         1218
  C:7B56H         LINE#         1219
  C:7B56H         LINE#         1221
  C:7B5CH         LINE#         1225
  C:7B5CH         LINE#         1230
  C:7B62H         LINE#         1234
  C:7B62H         LINE#         1238
  C:7B62H         LINE#         1239
  C:7B6DH         LINE#         1240
  C:7B71H         LINE#         1241
  C:7B77H         LINE#         1242
  C:7B79H         LINE#         1244
  C:7B7EH         LINE#         1245
  C:7B7EH         LINE#         1246
  C:7B80H         LINE#         1248
BL51 BANKED LINKER/LOCATER V6.22                                                      12/09/2015  15:21:44  PAGE 62


  C:7B80H         LINE#         1249
  C:7B86H         LINE#         1251
  C:7B86H         LINE#         1254
  C:7B92H         LINE#         1255
  C:7B98H         LINE#         1256
  C:7BACH         LINE#         1258
  C:7BC0H         LINE#         1259
  -------         ENDPROC       _ADJUSTAUTODAYNIGHT
  -------         PROC          HS_INITVARS
  C:A356H         LINE#         1262
  C:A356H         LINE#         1263
  C:A356H         LINE#         1267
  C:A35BH         LINE#         1268
  C:A35FH         LINE#         1269
  C:A365H         LINE#         1283
  -------         ENDPROC       HS_INITVARS
  C:7219H         SYMBOL        L?0158
  -------         PROC          LOADEEPROM
  -------         DO            
  D:0006H         SYMBOL        val
  -------         ENDDO         
  C:7124H         LINE#         1285
  C:7124H         LINE#         1286
  C:7124H         LINE#         1288
  C:7130H         LINE#         1290
  C:713CH         LINE#         1292
  C:7148H         LINE#         1296
  C:714DH         LINE#         1298
  C:7158H         LINE#         1299
  C:7164H         LINE#         1300
  C:7170H         LINE#         1301
  C:717CH         LINE#         1302
  C:7188H         LINE#         1303
  C:7194H         LINE#         1308
  C:71A0H         LINE#         1331
  C:71A5H         LINE#         1332
  C:71ABH         LINE#         1333
  C:71B1H         LINE#         1335
  C:71B5H         LINE#         1337
  C:71BAH         LINE#         1338
  C:71C0H         LINE#         1339
  C:71C6H         LINE#         1341
  C:71CAH         LINE#         1343
  C:71D3H         LINE#         1344
  C:71D9H         LINE#         1345
  C:71DFH         LINE#         1347
  C:71E3H         LINE#         1349
  C:71ECH         LINE#         1350
  C:71F2H         LINE#         1351
  C:71F8H         LINE#         1353
  C:71FCH         LINE#         1355
  C:7204H         LINE#         1356
  C:720CH         LINE#         1357
  C:7218H         LINE#         1360
  -------         ENDPROC       LOADEEPROM
  -------         PROC          MAIN_LOOP
  -------         DO            
BL51 BANKED LINKER/LOCATER V6.22                                                      12/09/2015  15:21:44  PAGE 63


  X:0000H         SYMBOL        val
  -------         ENDDO         
  C:69D7H         LINE#         1489
  C:69D7H         LINE#         1490
  C:69D7H         LINE#         1494
  C:69E0H         LINE#         1499
  C:69E0H         LINE#         1557
  C:69E0H         LINE#         1558
  C:69E8H         LINE#         1559
  C:69EBH         LINE#         1560
  C:69EBH         LINE#         1562
  C:69F1H         LINE#         1563
  C:69F1H         LINE#         1564
  C:69F7H         LINE#         1565
  C:69F7H         LINE#         1566
  C:6A04H         LINE#         1567
  C:6A04H         LINE#         1568
  C:6A07H         LINE#         1569
  C:6A0CH         LINE#         1570
  C:6A0CH         LINE#         1571
  C:6A0CH         LINE#         1572
  C:6A0CH         LINE#         1577
  C:6A12H         LINE#         1578
  C:6A12H         LINE#         1579
  C:6A1EH         LINE#         1580
  C:6A1EH         LINE#         1581
  C:6A20H         LINE#         1583
  C:6A20H         LINE#         1584
  C:6A25H         LINE#         1585
  C:6A25H         LINE#         1610
  C:6A2EH         LINE#         1614
  C:6A47H         LINE#         1615
  C:6A47H         LINE#         1616
  C:6A4EH         LINE#         1617
  C:6A4EH         LINE#         1621
  C:6A54H         LINE#         1623
  C:6A54H         LINE#         1624
  C:6A5AH         LINE#         1625
  C:6A5AH         LINE#         1626
  C:6A5DH         LINE#         1627
  C:6A5FH         LINE#         1629
  C:6A5FH         LINE#         1631
  C:6A66H         LINE#         1632
  C:6A6DH         LINE#         1633
  C:6A74H         LINE#         1634
  C:6A7BH         LINE#         1636
  C:6A7EH         LINE#         1638
  C:6A85H         LINE#         1639
  C:6A8CH         LINE#         1640
  C:6A93H         LINE#         1641
  C:6A9AH         LINE#         1643
  C:6A9AH         LINE#         1644
  C:6A9AH         LINE#         1646
  C:6A9FH         LINE#         1647
  C:6A9FH         LINE#         1648
  C:6A9FH         LINE#         1655
  C:6AA2H         LINE#         1658
BL51 BANKED LINKER/LOCATER V6.22                                                      12/09/2015  15:21:44  PAGE 64


  C:6AADH         LINE#         1660
  C:6AADH         LINE#         1661
  C:6AADH         LINE#         1662
  C:6AADH         LINE#         1665
  C:6AB4H         LINE#         1666
  C:6AB4H         LINE#         1669
  C:6AB7H         LINE#         1678
  C:6AB7H         LINE#         1680
  C:6AB7H         LINE#         1690
  C:6AB7H         LINE#         1694
  C:6AC4H         LINE#         1695
  C:6AC4H         LINE#         1696
  C:6ACDH         LINE#         1697
  C:6AD2H         LINE#         1698
  C:6AD9H         LINE#         1699
  C:6ADEH         LINE#         1700
  C:6AE7H         LINE#         1701
  C:6AE7H         LINE#         1711
  C:6AEAH         LINE#         1712
  -------         ENDPROC       MAIN_LOOP
  -------         PROC          MAIN
  C:9282H         LINE#         1714
  C:9282H         LINE#         1715
  C:9282H         LINE#         1720
  C:9284H         LINE#         1721
  C:9289H         LINE#         1739
  C:9290H         LINE#         1740
  C:9292H         LINE#         1743
  C:9295H         LINE#         1744
  C:929AH         LINE#         1746
  C:929DH         LINE#         1747
  C:92A0H         LINE#         1748
  C:92A3H         LINE#         1757
  C:92A6H         LINE#         1759
  C:92ADH         LINE#         1760
  C:92B0H         LINE#         1775
  C:92BAH         LINE#         1777
  C:92BFH         LINE#         1782
  C:92CBH         LINE#         1789
  C:92CBH         LINE#         1790
  C:92D1H         LINE#         1791
  C:92D4H         LINE#         1799
  C:92D7H         LINE#         1805
  -------         ENDPROC       MAIN
  -------         PROC          WAITPOWERON
  -------         DO            
  X:0000H         SYMBOL        ikey
  X:0001H         SYMBOL        val
  X:0002H         SYMBOL        VGATrigger
  -------         ENDDO         
  C:8B26H         LINE#         1808
  C:8B26H         LINE#         1809
  C:8B26H         LINE#         1811
  C:8B2BH         LINE#         1814
  C:8B2BH         LINE#         1815
  C:8B2BH         LINE#         1845
  C:8B33H         LINE#         1846
BL51 BANKED LINKER/LOCATER V6.22                                                      12/09/2015  15:21:44  PAGE 65


  C:8B35H         LINE#         1847
  C:8B35H         LINE#         1848
  C:8B3AH         LINE#         1850
  C:8B47H         LINE#         1851
  C:8B47H         LINE#         1852
  C:8B4CH         LINE#         1853
  C:8B4EH         LINE#         1854
  C:8B4EH         LINE#         1855
  C:8B50H         LINE#         1857
  C:8B50H         LINE#         1858
  C:8B58H         LINE#         1859
  C:8B5BH         LINE#         1860
  C:8B60H         LINE#         1862
  C:8B60H         LINE#         1868
  C:8B6CH         LINE#         1870
  C:8B76H         LINE#         1871
  C:8B76H         LINE#         1872
  C:8B7BH         LINE#         1873
  C:8B83H         LINE#         1874
  C:8B83H         LINE#         1875
  C:8B83H         LINE#         1877
  C:8B83H         LINE#         1884
  C:8B83H         LINE#         1895
  C:8B86H         LINE#         1896
  C:8B89H         LINE#         1898
  C:8B93H         LINE#         1899
  C:8B99H         LINE#         1906
  C:8B9EH         LINE#         1908
  -------         ENDPROC       WAITPOWERON
  -------         ENDMOD        MAIN

  -------         MODULE        MEASURE
  C:0000H         SYMBOL        _ICE_DUMMY_
  -------         ENDMOD        MEASURE

  -------         MODULE        OSDBASIC
  C:0000H         SYMBOL        _ICE_DUMMY_
  C:985BH         PUBLIC        _ShowOSDWindow_TW88
  C:753BH         PUBLIC        Init_Osd_DisplayMuteInfo
  C:9E5EH         PUBLIC        _ClearDataCnt
  C:75D0H         PUBLIC        Init_Osd_BarWindow
  C:911BH         PUBLIC        Change_OSDColorLookup
  C:A283H         PUBLIC        _strlen
  C:7599H         PUBLIC        Init_Osd_MainMenu
  C:9E02H         PUBLIC        _ShowOSDWindowAll
  D:0010H         PUBLIC        OSDStrInfo
  C:74FDH         PUBLIC        FontTestWindow
  C:6795H         PUBLIC        _utoa
  C:754EH         PUBLIC        Init_Osd_DisplayTVChannel
  C:9D0DH         PUBLIC        _WriteStringToAddr
  C:7528H         PUBLIC        Init_Osd_DisplayVchipWindow
  C:9D71H         PUBLIC        _DrawAttrCnt
  C:905FH         PUBLIC        _DownloadFont
  C:9E31H         PUBLIC        WaitEndofDisplayArea
  C:96F8H         PUBLIC        _GetOSDWindowX
  C:92D9H         PUBLIC        _GetOSDWindowY
  C:99A2H         PUBLIC        _SetOSDWindowX_TW88
BL51 BANKED LINKER/LOCATER V6.22                                                      12/09/2015  15:21:44  PAGE 66


  C:989FH         PUBLIC        _SetOSDWindowY_TW88
  C:7574H         PUBLIC        Init_Osd_DisplayInput
  C:7515H         PUBLIC        Init_Osd_DisplayLogo
  D:0018H         PUBLIC        ptrFont
  C:9C38H         PUBLIC        DownloadUDFont
  C:82C9H         PUBLIC        _InitOSDWindow
  C:7561H         PUBLIC        Init_Osd_DisplayPCInfo
  C:8898H         SYMBOL        Com0047
  C:8898H         SYMBOL        L?0072
  C:889BH         SYMBOL        L?0073
  C:889CH         SYMBOL        L?0074
  C:88A7H         SYMBOL        L?0075
  C:88A7H         SYMBOL        L?0076
  C:88B0H         SYMBOL        L?0077
  C:88B0H         SYMBOL        L?0078
  C:88B8H         SYMBOL        L?0079
  C:88CAH         SYMBOL        L?0080
  C:88D9H         SYMBOL        L?0081
  C:88D9H         SYMBOL        L?0082
  C:88E2H         SYMBOL        L?0083
  C:88E2H         SYMBOL        L?0084
  C:88E9H         SYMBOL        L?0085
  C:88F6H         SYMBOL        L?0086
  C:88F6H         SYMBOL        L?0087
  C:88FEH         SYMBOL        L?0088
  C:890AH         SYMBOL        L?0091
  C:890BH         SYMBOL        L?0092
  C:8912H         SYMBOL        L?0095
  C:8912H         SYMBOL        L?0096
  C:8919H         SYMBOL        L?0097
  C:8919H         SYMBOL        L?0098
  -------         PROC          COM0047
  -------         ENDPROC       COM0047
  C:9E53H         SYMBOL        L?0093
  -------         PROC          WAITENDOFDISPLAYAREA
  -------         DO            
  X:0028H         SYMBOL        ret
  X:0029H         SYMBOL        i
  -------         ENDDO         
  C:9E31H         LINE#         41
  C:9E31H         LINE#         42
  C:9E31H         LINE#         45
  C:9E38H         LINE#         47
  C:9E3BH         LINE#         48
  C:9E46H         LINE#         49
  C:9E52H         LINE#         50
  -------         ENDPROC       WAITENDOFDISPLAYAREA
  C:916BH         SYMBOL        L?0094
  -------         PROC          CHANGE_OSDCOLORLOOKUP
  -------         DO            
  X:000DH         SYMBOL        i
  X:000EH         SYMBOL        j
  -------         ENDDO         
  C:911BH         LINE#         55
  C:911BH         LINE#         56
  C:911BH         LINE#         58
  C:9120H         LINE#         59
BL51 BANKED LINKER/LOCATER V6.22                                                      12/09/2015  15:21:44  PAGE 67


  C:912FH         LINE#         60
  C:913AH         LINE#         61
  C:9157H         LINE#         62
  C:915EH         LINE#         63
  C:916AH         LINE#         64
  -------         ENDPROC       CHANGE_OSDCOLORLOOKUP
  C:90ADH         SYMBOL        L?0089
  C:90B6H         SYMBOL        L?0099
  -------         PROC          _DOWNLOADFONT
  X:0003H         SYMBOL        cod
  X:0004H         SYMBOL        fontdata
  C:905FH         LINE#         97
  C:9068H         LINE#         98
  C:9068H         LINE#         99
  C:9072H         LINE#         100
  C:907BH         LINE#         103
  C:908DH         LINE#         104
  C:90A0H         LINE#         106
  C:90ADH         LINE#         107
  -------         ENDPROC       _DOWNLOADFONT
  -------         PROC          DOWNLOADUDFONT
  -------         DO            
  X:0002H         SYMBOL        i
  -------         ENDDO         
  C:9C38H         LINE#         109
  C:9C38H         LINE#         110
  C:9C38H         LINE#         113
  C:9C41H         LINE#         115
  C:9C55H         LINE#         116
  C:9C67H         LINE#         117
  C:9C6FH         LINE#         118
  -------         ENDPROC       DOWNLOADUDFONT
  -------         PROC          _SETOSDWINDOWX_TW88
  D:0007H         SYMBOL        winno
  X:0015H         SYMBOL        x
  -------         DO            
  X:0016H         SYMBOL        tmp
  D:0005H         SYMBOL        dat
  -------         ENDDO         
  C:99A2H         LINE#         176
  C:99A5H         LINE#         177
  C:99A5H         LINE#         181
  C:99B0H         LINE#         182
  C:99B6H         LINE#         184
  C:99BCH         LINE#         186
  C:99C6H         LINE#         187
  C:99CBH         LINE#         189
  C:99D3H         LINE#         190
  C:99E0H         LINE#         191
  -------         ENDPROC       _SETOSDWINDOWX_TW88
  -------         PROC          _SETOSDWINDOWY_TW88
  D:0007H         SYMBOL        winno
  X:0015H         SYMBOL        y
  -------         DO            
  X:0016H         SYMBOL        tmp
  D:0005H         SYMBOL        dat
  -------         ENDDO         
BL51 BANKED LINKER/LOCATER V6.22                                                      12/09/2015  15:21:44  PAGE 68


  C:989FH         LINE#         193
  C:98A2H         LINE#         194
  C:98A2H         LINE#         198
  C:98ADH         LINE#         199
  C:98B3H         LINE#         201
  C:98B9H         LINE#         203
  C:98C3H         LINE#         204
  C:98CBH         LINE#         206
  C:98D3H         LINE#         207
  C:98E0H         LINE#         208
  -------         ENDPROC       _SETOSDWINDOWY_TW88
  -------         PROC          _SHOWOSDWINDOWALL
  X:001DH         SYMBOL        on
  -------         DO            
  X:001EH         SYMBOL        rd
  -------         ENDDO         
  C:9E02H         LINE#         213
  C:9E07H         LINE#         214
  C:9E07H         LINE#         217
  C:9E0AH         LINE#         218
  C:9E16H         LINE#         220
  C:9E1CH         LINE#         221
  C:9E22H         LINE#         223
  C:9E30H         LINE#         225
  -------         ENDPROC       _SHOWOSDWINDOWALL
  -------         PROC          _SHOWOSDWINDOW_TW88
  D:0007H         SYMBOL        winno
  X:001CH         SYMBOL        onoff
  -------         DO            
  X:001DH         SYMBOL        rd
  -------         ENDDO         
  C:985BH         LINE#         226
  C:985EH         LINE#         227
  C:985EH         LINE#         230
  C:9869H         LINE#         231
  C:986FH         LINE#         233
  C:987BH         LINE#         234
  C:9888H         LINE#         235
  C:988FH         LINE#         237
  C:9892H         LINE#         238
  C:989EH         LINE#         239
  -------         ENDPROC       _SHOWOSDWINDOW_TW88
  -------         PROC          _GETOSDWINDOWX
  D:0007H         SYMBOL        winno
  -------         DO            
  X:0028H         SYMBOL        x
  -------         ENDDO         
  C:96F8H         LINE#         242
  C:96F8H         LINE#         243
  C:96F8H         LINE#         246
  C:9708H         LINE#         247
  C:970EH         LINE#         249
  C:971FH         LINE#         250
  C:972FH         LINE#         252
  C:9742H         LINE#         253
  -------         ENDPROC       _GETOSDWINDOWX
  -------         PROC          _GETOSDWINDOWY
BL51 BANKED LINKER/LOCATER V6.22                                                      12/09/2015  15:21:44  PAGE 69


  D:0007H         SYMBOL        winno
  -------         DO            
  X:0028H         SYMBOL        y
  -------         ENDDO         
  C:92D9H         LINE#         256
  C:92D9H         LINE#         257
  C:92D9H         LINE#         260
  C:92E9H         LINE#         261
  C:92EFH         LINE#         263
  C:930CH         LINE#         264
  C:931CH         LINE#         266
  C:932FH         LINE#         267
  -------         ENDPROC       _GETOSDWINDOWY
  -------         PROC          _WRITESTRINGTOADDR
  X:004FH         SYMBOL        addr
  X:0051H         SYMBOL        str
  X:0054H         SYMBOL        cnt
  C:9D0DH         LINE#         907
  C:9D16H         LINE#         908
  C:9D16H         LINE#         910
  C:9D1CH         LINE#         912
  C:9D25H         LINE#         913
  C:9D3AH         LINE#         916
  -------         ENDPROC       _WRITESTRINGTOADDR
  -------         PROC          _DRAWATTRCNT
  X:0030H         SYMBOL        addr
  X:0032H         SYMBOL        color
  X:0033H         SYMBOL        cnt
  C:9D71H         LINE#         931
  C:9D7BH         LINE#         932
  C:9D7BH         LINE#         933
  C:9D81H         LINE#         934
  C:9D8AH         LINE#         935
  C:9D9CH         LINE#         937
  -------         ENDPROC       _DRAWATTRCNT
  -------         PROC          _CLEARDATACNT
  X:0030H         SYMBOL        addr
  X:0032H         SYMBOL        cnt
  C:9E5EH         LINE#         940
  C:9E65H         LINE#         941
  C:9E65H         LINE#         943
  C:9E6BH         LINE#         944
  C:9E74H         LINE#         945
  C:9E85H         LINE#         948
  -------         ENDPROC       _CLEARDATACNT
  -------         PROC          _UTOA
  X:004FH         SYMBOL        value
  X:0051H         SYMBOL        str
  X:0054H         SYMBOL        radix
  -------         DO            
  X:0055H         SYMBOL        cnt
  X:0056H         SYMBOL        str1
  X:0059H         SYMBOL        i
  X:005BH         SYMBOL        div
  -------         ENDDO         
  C:6795H         LINE#         956
  C:679EH         LINE#         957
BL51 BANKED LINKER/LOCATER V6.22                                                      12/09/2015  15:21:44  PAGE 70


  C:679EH         LINE#         965
  C:67A4H         LINE#         966
  C:67A9H         LINE#         967
  C:67B1H         LINE#         968
  C:67C6H         LINE#         969
  C:67C9H         LINE#         970
  C:67CEH         LINE#         971
  C:67D8H         LINE#         972
  C:67DEH         LINE#         973
  C:67E0H         LINE#         974
  C:67E6H         LINE#         975
  C:67F5H         LINE#         977
  C:6806H         LINE#         978
  C:681CH         LINE#         979
  C:6827H         LINE#         980
  C:6827H         LINE#         981
  C:682AH         LINE#         982
  C:6835H         LINE#         983
  C:6849H         LINE#         984
  C:684CH         LINE#         985
  C:6851H         LINE#         986
  C:6861H         LINE#         987
  C:6866H         LINE#         989
  C:6870H         LINE#         990
  C:6879H         LINE#         991
  C:6879H         LINE#         992
  C:688DH         LINE#         993
  C:6898H         LINE#         994
  C:689DH         LINE#         996
  C:68A9H         LINE#         997
  C:68B3H         LINE#         998
  C:68B3H         LINE#         999
  C:68B5H         LINE#         1000
  -------         ENDPROC       _UTOA
  -------         PROC          _STRLEN
  X:004FH         SYMBOL        str
  -------         DO            
  D:0007H         SYMBOL        i
  -------         ENDDO         
  C:A283H         LINE#         1001
  C:A289H         LINE#         1002
  C:A289H         LINE#         1003
  C:A28BH         LINE#         1005
  C:A29DH         LINE#         1006
  C:A29DH         LINE#         1007
  -------         ENDPROC       _STRLEN
  C:8358H         SYMBOL        L?0090
  C:8361H         SYMBOL        L?0100
  -------         PROC          _INITOSDWINDOW
  X:001BH         SYMBOL        ptr
  -------         DO            
  X:001EH         SYMBOL        i
  X:001FH         SYMBOL        page
  -------         ENDDO         
  C:82C9H         LINE#         1013
  C:82CFH         LINE#         1014
  C:82CFH         LINE#         1017
BL51 BANKED LINKER/LOCATER V6.22                                                      12/09/2015  15:21:44  PAGE 71


  C:82DBH         LINE#         1018
  C:82E5H         LINE#         1020
  C:82F2H         LINE#         1022
  C:82F7H         LINE#         1023
  C:82FDH         LINE#         1024
  C:8317H         LINE#         1025
  C:8332H         LINE#         1027
  C:833DH         LINE#         1028
  C:833FH         LINE#         1030
  C:834CH         LINE#         1031
  C:8358H         LINE#         1032
  -------         ENDPROC       _INITOSDWINDOW
  -------         ENDMOD        OSDBASIC

  -------         MODULE        OSDMENU
  C:0000H         SYMBOL        _ICE_DUMMY_
  C:0D0CH         PUBLIC        Str_Secord
  C:0776H         PUBLIC        ReversModeString
  C:02A2H         PUBLIC        Str_Sharpness_F
  X:00AFH         PUBLIC        MenuChild
  C:025EH         PUBLIC        Str_Saturation_S
  C:016DH         PUBLIC        Str_LCDVersion_E
  C:0D7AH         PUBLIC        RECORDSDCARD_ICON
  X:00B1H         PUBLIC        PW_FirstNumber
  C:0E28H         PUBLIC        FWUpdateSelectMenu
  C:0BBCH         PUBLIC        Str_DVR_DISPLAY
  C:0531H         PUBLIC        Str_UpdateConfig_E
  C:002EH         PUBLIC        OSDHighMenu
  C:8F98H         PUBLIC        ResetVideoValue
  C:019EH         PUBLIC        Str_OSDPosition_E
  C:A4ECH         PUBLIC        IsInputAnalogRGB
  C:0D6EH         PUBLIC        VIDEO_ICON
  C:02B9H         PUBLIC        Str_Sharpness_K
  C:60BAH         PUBLIC        _OSDCursorMove
  D:00E8H         PUBLIC        P4
  C:14CEH         PUBLIC        PanelBrightnessRange
  C:11B4H         PUBLIC        RECORDSELECT
  C:0D3CH         PUBLIC        Str_FourthNumber
  C:0CDCH         PUBLIC        Str_FPS
  X:00B2H         PUBLIC        MenuFormat
  C:0CE2H         PUBLIC        Str_RecordMode
  C:0A3CH         PUBLIC        Str_Version
  C:0D39H         PUBLIC        Str_ThirdNumber
  C:0D21H         PUBLIC        Str_RETURNAPPLY
  C:0ABAH         PUBLIC        Str_OSDLang
  C:086BH         PUBLIC        ResolutionChoiceString
  X:00B4H         PUBLIC        BarRange
  C:14DAH         PUBLIC        PanelHueRange
  C:0CDFH         PUBLIC        Str_Quality
  C:0CC7H         PUBLIC        Str_VER
  C:0CC4H         PUBLIC        Str_SPACE
  C:0372H         PUBLIC        Str_TIMEOUT_STEP_E
  C:01B8H         PUBLIC        Str_OSDPosition_K
  C:0CF4H         PUBLIC        Str_ManualRecordStop
  C:09C8H         PUBLIC        ONOFFChineseChoiceString
  C:03D1H         PUBLIC        Str_RecordLength_E
  C:1130H         PUBLIC        DMUtility
BL51 BANKED LINKER/LOCATER V6.22                                                      12/09/2015  15:21:44  PAGE 72


  C:0D57H         PUBLIC        Str_WideScreen
  C:0A96H         PUBLIC        CheckPCCableStr
  C:1526H         PUBLIC        PCColorTempRGB
  C:14F8H         PUBLIC        VideoBrightnessRange
  C:0C07H         PUBLIC        Str_CVBSA
  C:0517H         PUBLIC        Str_TriggerDelay_E
  C:02B1H         PUBLIC        Str_Sharpness_S
  C:0D2DH         PUBLIC        Str_YES
  C:0C16H         PUBLIC        Str_CVBSB
  C:0BDAH         PUBLIC        Str_OSD_LOCK
  D:001AH         SYMBOL        MenuIndexStack
  C:0C25H         PUBLIC        Str_CVBSC
  C:04BCH         PUBLIC        Str_SecondNumber_E
  C:A334H         PUBLIC        GetOSDLang
  C:1504H         PUBLIC        VideoHueRange
  C:0F54H         PUBLIC        DateTimeSelectMenu
  C:0561H         PUBLIC        Str_DISTANCE_E
  C:8669H         PUBLIC        _DisplayVolumebar
  C:0DB0H         PUBLIC        InputSelectMenu
  C:779FH         PUBLIC        _DisplayViewBar
  C:4701H         PUBLIC        _DisplayOSDMenuOneItem
  C:112CH         PUBLIC        UtilityMenu
  C:0D09H         PUBLIC        Str_Minute
  C:01ABH         PUBLIC        Str_OSDPosition_S
  X:00B6H         PUBLIC        MenuStack
  C:14B0H         PUBLIC        UserRange
  C:0DAEH         PUBLIC        NumberOnly
  C:0BE9H         PUBLIC        Str_PASSWORD
  C:09B7H         PUBLIC        bpsChoiceString
  C:022EH         PUBLIC        Str_Contrast_D
  C:157EH         PUBLIC        WIDE_ADDRESS
  C:1364H         PUBLIC        TRIGGERSelectMenu
  C:0D33H         PUBLIC        Str_FirstNumber
  C:0C43H         PUBLIC        Str_Auto_Day_Night
  C:0450H         PUBLIC        Str_TimeBegines_E
  C:021BH         PUBLIC        Str_Contrast_E
  C:0196H         PUBLIC        Str_GETWAY_E
  X:00BEH         PUBLIC        DVR_DataChange
  C:9CD9H         PUBLIC        OpenOSDMenu
  C:127CH         PUBLIC        DMUserPicture
  C:08D2H         PUBLIC        RecordLengthChoiceString
  C:0224H         PUBLIC        Str_Contrast_F
  C:14E0H         PUBLIC        PanelSaturationRange
  C:0412H         PUBLIC        Str_Snapshot_E
  C:7F8AH         PUBLIC        _DoAction
  C:8920H         PUBLIC        InitOSDMenu
  C:0D4EH         PUBLIC        Str_Informmation
  C:03FBH         PUBLIC        Str_ManualRecordStart_E
  C:048BH         PUBLIC        Str_AudioRecord_E
  C:0179H         PUBLIC        Str_DVRVersion_E
  C:1038H         PUBLIC        DMDVRRecallSELECT
  C:1008H         PUBLIC        DMMonitorRecallSELECT
  C:0241H         PUBLIC        Str_Contrast_K
  C:0141H         PUBLIC        AutoAdjustInfo
  C:0CEBH         PUBLIC        Str_PostAlarmLength
  C:0CE8H         PUBLIC        Str_PreAlarmLength
  C:A3FEH         PUBLIC        ClearValueWin
BL51 BANKED LINKER/LOCATER V6.22                                                      12/09/2015  15:21:44  PAGE 73


  C:0CD0H         PUBLIC        Str_GAUGE_RECALL
  C:0A99H         PUBLIC        OutOfRangeStr
  C:14FEH         PUBLIC        VideoSaturationRange
  C:0D6AH         PUBLIC        INPUT_ICON
  C:0C34H         PUBLIC        Str_CVBSR
  X:00BFH         PUBLIC        MenuTitle
  C:0CD6H         PUBLIC        Str_ReversMode
  C:030EH         PUBLIC        Str_MIRROR_E
  C:0E5CH         PUBLIC        ChangePasswordSelectMenu
  C:0D24H         PUBLIC        Str_FormatSD
  C:0DB4H         PUBLIC        InputSourceMenu
  C:0CD3H         PUBLIC        Str_PRIORITY
  C:0B14H         PUBLIC        Str_Reset
  C:14D4H         PUBLIC        PanelSharpnessRange
  C:0D45H         PUBLIC        Str_TriggerSet
  C:072AH         PUBLIC        CaptionChoice
  C:0237H         PUBLIC        Str_Contrast_S
  C:0755H         PUBLIC        NMhoiceString
  C:0338H         PUBLIC        Str_RETURN_E
  C:018DH         PUBLIC        Str_WIFI_MAC_E
  C:0D00H         PUBLIC        Str_Month
  C:0CEEH         PUBLIC        Str_Apply
  C:0CCDH         PUBLIC        Str_GAUGE_STEP
  C:095EH         PUBLIC        AudioRecordChoiceString
  C:043DH         PUBLIC        Str_Secord_E
  C:09D6H         PUBLIC        IMAGEChineseString
  C:10A8H         PUBLIC        InformationMenu
  C:0DAAH         PUBLIC        BookMark_ICON
  C:1304H         PUBLIC        DMCAMSELECT
  C:0ED4H         PUBLIC        FORMATSDSELECT
  C:07FDH         PUBLIC        REARString
  C:0555H         PUBLIC        Str_DVR_DISPLAY_E
  C:150AH         PUBLIC        VideoSharpnessRange
  C:0D18H         PUBLIC        Str_Week
  C:03A2H         PUBLIC        Str_ReverseMode_E
  C:04D7H         PUBLIC        Str_FourthNumber_E
  C:03B9H         PUBLIC        Str_FPS_E
  C:03C5H         PUBLIC        Str_RecordMode_E
  C:01D4H         PUBLIC        Str_OSDLang_D
  C:0165H         PUBLIC        Str_Version_E
  C:0FD8H         PUBLIC        DMRecallSELECT
  C:0D1BH         PUBLIC        Str_Time
  C:04CAH         PUBLIC        Str_ThirdNumber_E
  C:046FH         PUBLIC        Str_RETURNAPPLY_E
  C:01C4H         PUBLIC        Str_OSDLang_E
  C:15E2H         PUBLIC        WIDEDATA_480i
  C:0CFAH         PUBLIC        Str_DateTime
  C:01CDH         PUBLIC        Str_OSDLang_F
  C:0CFDH         PUBLIC        Str_Year
  C:0C79H         PUBLIC        Str_CAMA
  C:0941H         PUBLIC        TimeBeginesWeekChoiceString
  C:03BDH         PUBLIC        Str_Quality_E
  C:0367H         PUBLIC        Str_VER_E
  C:0365H         PUBLIC        Str_SPACE_E
  C:8037H         PUBLIC        OSDHighMenu_sub
  C:0D9AH         PUBLIC        NoGsensor_ICON
  C:0D54H         PUBLIC        Str_SDCARDCOVERDET
BL51 BANKED LINKER/LOCATER V6.22                                                      12/09/2015  15:21:44  PAGE 74


  C:0C88H         PUBLIC        Str_CAMB
  C:0407H         PUBLIC        Str_ManualRecordStop_E
  C:0C97H         PUBLIC        Str_CAMC
  C:02F5H         PUBLIC        Str_WideScreen_E
  C:010EH         PUBLIC        CheckPCCableStr_E
  C:7410H         PUBLIC        _SetVideoMode
  C:624AH         PUBLIC        DisplayInfo_OSD
  C:16D2H         PUBLIC        OSDInfoStr
  C:1682H         PUBLIC        WIDEDATA_720p
  C:1440H         PUBLIC        DMMainMenu
  C:0CB5H         PUBLIC        Str_CAMD
  C:058FH         PUBLIC        Str_CVBSA_E
  C:0596H         PUBLIC        Str_CVBSB_E
  C:0570H         PUBLIC        Str_OSD_LOCK_E
  C:04A8H         PUBLIC        Str_YES_E
  C:01E3H         PUBLIC        Str_OSDLang_K
  C:160AH         PUBLIC        WIDEDATA_576i
  C:1208H         PUBLIC        SDCARD
  C:059DH         PUBLIC        Str_CVBSC_E
  C:1632H         PUBLIC        WIDEDATA_480p
  C:0D8EH         PUBLIC        NoGPS_ICON
  C:0C61H         PUBLIC        Str_DIR_IMAGE_CAMA
  C:0BADH         PUBLIC        Str_DISPLAY
  C:0B41H         PUBLIC        Str_SEQ_TIME_STEP
  X:00C1H         SYMBOL        cursor_item
  C:5581H         PUBLIC        _GetItemValue
  C:0D66H         PUBLIC        TV_ICON
  C:0C64H         PUBLIC        Str_DIR_IMAGE_CAMB
  C:087EH         PUBLIC        FPSChoiceString
  C:9DD2H         PUBLIC        _Get_cursor_item
  C:0C67H         PUBLIC        Str_DIR_IMAGE_CAMC
  C:08BDH         PUBLIC        RecordModeChoiceString
  C:0439H         PUBLIC        Str_Minute_E
  C:0301H         PUBLIC        Str_WideScreen_K
  C:0AA8H         PUBLIC        StrVolume
  C:0579H         PUBLIC        Str_PASSWORD_E
  B:0022H.5       PUBLIC        displayOnValueWindow
  X:00C2H         SYMBOL        title_item
  C:14C8H         PUBLIC        PanelContrastRange
  C:0D30H         PUBLIC        Str_NO
  C:8EC7H         PUBLIC        _SetVideoBacklight
  C:0892H         PUBLIC        QualityChoiceString
  C:0817H         PUBLIC        JUMPString
  C:05ABH         PUBLIC        Str_Auto_Day_Night_E
  C:04AFH         PUBLIC        Str_FirstNumber_E
  C:165AH         PUBLIC        WIDEDATA_576p
  C:0DA2H         PUBLIC        NoWiFi_ICON
  C:0D03H         PUBLIC        Str_Day
  C:0C6AH         PUBLIC        Str_REAR_SETUP
  C:01DCH         PUBLIC        Str_OSDLang_S
  C:922AH         PUBLIC        CheckPanelImage
  C:0D06H         PUBLIC        Str_Hour
  C:0AC9H         PUBLIC        Str_Brightness
  D:001EH         SYMBOL        MenuSP
  C:0525H         PUBLIC        Str_Informmation_E
  C:13BCH         PUBLIC        DMCAMERA
  X:00C3H         SYMBOL        val_osdwin
BL51 BANKED LINKER/LOCATER V6.22                                                      12/09/2015  15:21:44  PAGE 75


  C:1516H         PUBLIC        Contast_Reg_Addr
  C:0D76H         PUBLIC        SDCARD_ICON
  C:0D3FH         PUBLIC        Str_ChangePassword
  C:0B8FH         PUBLIC        Str_DVRRECALL
  C:0B80H         PUBLIC        Str_MonitorRECALL
  C:0AF6H         PUBLIC        Str_Hue
  C:14F2H         PUBLIC        TW2835VideoContrastRange
  C:14ECH         PUBLIC        VideoContrastRange
  C:0CA6H         PUBLIC        Str_CAMR
  C:06EEH         PUBLIC        WideScreenChoice
  C:1278H         PUBLIC        UserPictureMenuType
  C:0C52H         PUBLIC        Str_DIR_IMAGE
  C:03E9H         PUBLIC        Str_PostAlarmLength_E
  C:03DFH         PUBLIC        Str_PreAlarmLength_E
  X:00C4H         SYMBOL        val_index
  C:2CCFH         PUBLIC        _SetItemValue
  C:8409H         PUBLIC        _ChangeVideoData
  C:038CH         PUBLIC        Str_GAUGE_RECALL_E
  C:011EH         PUBLIC        OutOfRangeStr_E
  C:1578H         PUBLIC        Init_DTV_Data
  C:14C2H         PUBLIC        PCUserColorTempRange
  C:05A4H         PUBLIC        Str_CVBSR_E
  C:7A29H         PUBLIC        _DrawNum
  C:1775H         SYMBOL        _?ix1000
  C:13B8H         PUBLIC        CAMERAMenu
  C:0D0FH         PUBLIC        Str_DaylightSaving
  C:9F5DH         PUBLIC        SaveValue1
  C:17B9H         SYMBOL        _?ix1001
  C:7EDDH         PUBLIC        _SetPCColor
  X:00C5H         SYMBOL        cur_osdwin
  C:A4D3H         PUBLIC        _GetVideoDatawithOffset
  C:17C5H         SYMBOL        _?ix1002
  C:0D2AH         PUBLIC        Str_FirmwareUpdate
  C:0A69H         PUBLIC        Str_WIFI_IP
  C:074CH         PUBLIC        ONOFFChoiceString
  C:047CH         PUBLIC        Str_FormatSD_E
  C:02CFH         PUBLIC        Str_Reset_D
  C:17D1H         SYMBOL        _?ix1003
  C:0B50H         PUBLIC        Str_CAM_OUT
  C:0399H         PUBLIC        Str_PRIORITY_E
  C:02C2H         PUBLIC        Str_Reset_E
  C:0850H         PUBLIC        CAMOUTString
  C:04FFH         PUBLIC        Str_TriggerSet_E
  C:02C8H         PUBLIC        Str_Reset_F
  C:012BH         PUBLIC        OutOfRangeStr_K
  C:14BCH         PUBLIC        OSDMenuXRange
  C:0E2CH         PUBLIC        FWUpdateSELECT
  C:90BDH         PUBLIC        InitOSDMenuXY
  C:14B6H         PUBLIC        OSDMenuYRange
  C:042AH         PUBLIC        Str_Month_E
  C:03F5H         PUBLIC        Str_Apply_E
  C:0380H         PUBLIC        Str_GAUGE_STEP_E
  C:9661H         PUBLIC        _SetVideoBrightness
  C:143CH         PUBLIC        TVMainMenu
  C:0D72H         PUBLIC        UTIL_ICON
  C:1204H         PUBLIC        SDCARDMenu
  C:0D1EH         PUBLIC        Str_TimeZone
BL51 BANKED LINKER/LOCATER V6.22                                                      12/09/2015  15:21:44  PAGE 76


  C:0917H         PUBLIC        PostAlarmLengthChoiceString
  C:08FFH         PUBLIC        PreAlarmLengthChoiceString
  C:5F07H         PUBLIC        OSDSelect
  C:0AE7H         PUBLIC        Str_Saturation
  C:02EFH         PUBLIC        Str_Reset_K
  C:8D86H         PUBLIC        _SetVideoHue
  C:1572H         PUBLIC        Init_Video_Data
  C:0D86H         PUBLIC        SDCardOverWrite_ICON
  C:7BCCH         PUBLIC        _DrawStringByLang
  C:1300H         PUBLIC        CAMSelectMenu
  C:0D7EH         PUBLIC        PC_ADJ_ICON
  C:045BH         PUBLIC        Str_Week_E
  C:0B71H         PUBLIC        Str_RECALL
  C:0D15H         PUBLIC        Str_Standard
  C:0B5FH         PUBLIC        Str_JumpAV
  C:0460H         PUBLIC        Str_Time_E
  C:151CH         PUBLIC        OSDPOSITIONMODE_TABLE
  C:041BH         PUBLIC        Str_DateTime_E
  C:6F21H         PUBLIC        _Set4WideScreen
  C:0D48H         PUBLIC        Str_TriggerVGA
  C:0BF8H         PUBLIC        Str_SOURCE_TITLE
  C:05F3H         PUBLIC        Str_CAMA_E
  C:0425H         PUBLIC        Str_Year_E
  C:05FFH         PUBLIC        Str_CAMB_E
  C:053FH         PUBLIC        Str_SDCARDCOVERDET_E
  C:02DEH         PUBLIC        Str_Reset_S
  X:00C6H         SYMBOL        GaugeVStart
  C:0F58H         PUBLIC        DateTimeSELECT
  C:0605H         PUBLIC        Str_CAMC_E
  X:00C7H         PUBLIC        PW_SecondNumber
  C:0CD9H         PUBLIC        Str_Resolution
  C:0B9EH         PUBLIC        Str_EXIT
  C:063BH         PUBLIC        ModeChoice
  C:060BH         PUBLIC        Str_CAMD_E
  C:A211H         PUBLIC        _SetLanguage
  X:00C8H         SYMBOL        OSDMenuX
  C:97D2H         PUBLIC        _GetLowerMenuItem
  C:0B32H         PUBLIC        Str_JUMP
  C:0B05H         PUBLIC        Str_Sharpness
  X:00C9H         SYMBOL        OSDMenuY
  C:05C4H         PUBLIC        Str_DIR_IMAGE_CAMA_E
  C:054DH         PUBLIC        Str_DISPLAY_E
  C:031AH         PUBLIC        Str_SEQ_TIME_STEP_E
  C:7221H         PUBLIC        DisplayOSDMenu
  C:9E8BH         PUBLIC        pushMenu
  C:16AAH         PUBLIC        WIDEDATA_1080i
  C:0A4BH         PUBLIC        Str_LCDVersion
  C:070AH         PUBLIC        OsdPositionModeChoice
  C:05D0H         PUBLIC        Str_DIR_IMAGE_CAMB_E
  C:8D16H         PUBLIC        _SetVideoSaturation
  C:A472H         PUBLIC        _GetUpperMenuItem
  C:05DCH         PUBLIC        Str_DIR_IMAGE_CAMC_E
  C:0D51H         PUBLIC        Str_UpdateConfig
  C:0138H         PUBLIC        StrVolume_E
  C:76C2H         PUBLIC        DisplayCursor
  C:10ACH         PUBLIC        DMINFORMATION
  C:0D82H         PUBLIC        NoSDCard_ICON
BL51 BANKED LINKER/LOCATER V6.22                                                      12/09/2015  15:21:44  PAGE 77


  C:0AABH         PUBLIC        Str_OSDPosition
  C:04ACH         PUBLIC        Str_NO_E
  C:8C9BH         PUBLIC        _SetPCColorTemp
  C:8F30H         PUBLIC        _SetRGBContrast
  C:11B0H         PUBLIC        RecordSelectMenu
  C:09AFH         PUBLIC        PDChoiceString
  C:05E8H         PUBLIC        Str_REAR_SETUP_E
  C:0430H         PUBLIC        Str_Day_E
  C:0201H         PUBLIC        Str_Brightness_D
  C:1510H         PUBLIC        DigitalVideoSaturationRange
  C:0ED0H         PUBLIC        FORMATSDSelectMenu
  C:0DAFH         PUBLIC        DefaultBar
  C:078BH         PUBLIC        IMAGEString
  C:0434H         PUBLIC        Str_Hour_E
  C:01EBH         PUBLIC        Str_Brightness_E
  C:1490H         PUBLIC        DefaultMenu
  C:07A0H         PUBLIC        IMAGE_A_String
  C:01F6H         PUBLIC        Str_Brightness_F
  C:6670H         PUBLIC        _OSDValueUpDn
  C:07BFH         PUBLIC        IMAGE_B_String
  C:027FH         PUBLIC        Str_Hue_D
  C:0D42H         PUBLIC        Str_Str_OverWrite
  C:0CCAH         PUBLIC        Str_TIMEOUT_STEP
  C:07DEH         PUBLIC        IMAGE_C_String
  C:04E5H         PUBLIC        Str_ChangePassword_E
  C:0355H         PUBLIC        Str_DVRRECALL_E
  C:0346H         PUBLIC        Str_MonitorRECALL_E
  C:0272H         PUBLIC        Str_Hue_E
  B:0022H.6       PUBLIC        OnChangingValue
  C:0CE5H         PUBLIC        Str_RecordLength
  C:05F9H         PUBLIC        Str_CAMR_E
  C:0276H         PUBLIC        Str_Hue_F
  C:05BAH         PUBLIC        Str_DIR_IMAGE_E
  C:0E60H         PUBLIC        ChangePasswordSELECT
  C:0D92H         PUBLIC        NoGPS_ICON2
  C:0D4BH         PUBLIC        Str_TriggerDelay
  C:06BFH         PUBLIC        VInputStdChoice
  C:0213H         PUBLIC        Str_Brightness_K
  C:8226H         PUBLIC        _SetVideoSharpness
  C:0611H         PUBLIC        OSDLangString
  C:5D4CH         PUBLIC        _DrawMenulist
  C:A24BH         PUBLIC        popMenu
  C:0D36H         PUBLIC        Str_SecondNumber
  C:0441H         PUBLIC        Str_DaylightSaving_E
  C:0BCBH         PUBLIC        Str_DISTANCE
  C:028FH         PUBLIC        Str_Hue_K
  C:0765H         PUBLIC        DayChoiceString
  C:0498H         PUBLIC        Str_FirmwareUpdate_E
  C:0185H         PUBLIC        Str_WIFI_IP_E
  C:0330H         PUBLIC        Str_CAM_OUT_E
  X:00CAH         SYMBOL        OSDLang
  C:95C7H         PUBLIC        ClearCursor
  C:000EH         PUBLIC        GetOSDPositionMode
  C:1368H         PUBLIC        DMTRIGGERSELECT
  C:1532H         PUBLIC        VideoModeTable
  C:04F5H         PUBLIC        Str_OverWrite_E
  C:1068H         PUBLIC        RecallMenu
BL51 BANKED LINKER/LOCATER V6.22                                                      12/09/2015  15:21:44  PAGE 78


  C:0DA6H         PUBLIC        WiFiLittle_ICON
  C:0D12H         PUBLIC        Str_TimeBegines
  C:0AD8H         PUBLIC        Str_Contrast
  C:0A87H         PUBLIC        Str_GETWAY
  C:020CH         PUBLIC        Str_Brightness_S
  C:5B81H         PUBLIC        ResetOSDValue
  C:A267H         PUBLIC        _GetNextCursorMenuItem
  C:0D96H         PUBLIC        Gsensor_ICON
  C:0CF7H         PUBLIC        Str_Snapshot
  C:0465H         PUBLIC        Str_TimeZone_E
  C:0254H         PUBLIC        Str_Saturation_D
  C:0285H         PUBLIC        Str_Hue_S
  C:0249H         PUBLIC        Str_Saturation_E
  X:00CBH         PUBLIC        PW_FourthNumber
  C:1290H         PUBLIC        DMPicture
  C:0CF1H         PUBLIC        Str_ManualRecordStart
  C:14E6H         PUBLIC        PanelBacklightRange
  C:0D27H         PUBLIC        Str_AudioRecord
  C:0A5AH         PUBLIC        Str_DVRVersion
  C:092FH         PUBLIC        DaylightSavingChoiceString
  X:00CCH         PUBLIC        PW_ThridNumber
  C:9922H         PUBLIC        _GetTargetChild
  C:1592H         PUBLIC        WIDEDATA_N
  C:0D8AH         PUBLIC        GPS_ICON
  C:033FH         PUBLIC        Str_RECALL_E
  C:15BAH         PUBLIC        WIDEDATA_P
  C:0781H         PUBLIC        ONOFFChoiceString1
  C:0457H         PUBLIC        Str_Standard_E
  C:0328H         PUBLIC        Str_JumpAV_E
  C:9614H         PUBLIC        _CAMOutDSel
  C:0269H         PUBLIC        Str_Saturation_K
  C:63B7H         PUBLIC        _SetOSDPositionMode
  C:128CH         PUBLIC        PictureMenu
  C:0DB8H         PUBLIC        DMINPUTSOURCE
  C:0B23H         PUBLIC        Str_MIRROR
  C:0582H         PUBLIC        Str_SOURCE_TITLE_E
  C:050BH         PUBLIC        Str_TriggerVGA_E
  C:9A5EH         PUBLIC        CloseOSDMenu
  C:015BH         PUBLIC        Str_Composite_E
  X:00CDH         SYMBOL        OSDItemValue
  X:00CFH         PUBLIC        OSDMenuLevel
  C:0D9EH         PUBLIC        WiFi_ICON
  C:0968H         PUBLIC        TimeZoneChoiceString
  C:03AEH         PUBLIC        Str_Resolution_E
  C:0360H         PUBLIC        Str_EXIT_E
  C:02A9H         PUBLIC        Str_Sharpness_D
  C:99E1H         PUBLIC        _SetVideoContrast
  C:0B62H         PUBLIC        Str_RETURN
  C:0A78H         PUBLIC        Str_WIFI_MAC
  C:09FEH         PUBLIC        JUMPChineseString
  C:0315H         PUBLIC        Str_JUMP_E
  C:0298H         PUBLIC        Str_Sharpness_E
  C:433DH         SYMBOL        Com02DB
  C:433DH         SYMBOL        L?0732
  C:433DH         SYMBOL        L?0733
  C:4340H         SYMBOL        L?0734
  C:4349H         SYMBOL        L?0736
BL51 BANKED LINKER/LOCATER V6.22                                                      12/09/2015  15:21:44  PAGE 79


  C:4352H         SYMBOL        L?0737
  C:435BH         SYMBOL        L?0738
  C:4362H         SYMBOL        L?0739
  C:4368H         SYMBOL        L?0740
  C:4371H         SYMBOL        L?0743
  C:4371H         SYMBOL        L?0744
  C:4372H         SYMBOL        L?0745
  C:437AH         SYMBOL        L?0748
  C:438EH         SYMBOL        L?0749
  C:4394H         SYMBOL        L?0750
  C:43A1H         SYMBOL        L?0751
  C:43AAH         SYMBOL        L?0752
  C:43AAH         SYMBOL        L?0753
  C:43B0H         SYMBOL        L?0754
  C:43B7H         SYMBOL        L?0755
  C:43B8H         SYMBOL        L?0756
  C:43BEH         SYMBOL        L?0757
  C:43BEH         SYMBOL        L?0758
  C:43C1H         SYMBOL        L?0759
  C:43C8H         SYMBOL        L?0761
  C:43C8H         SYMBOL        L?0762
  C:43CFH         SYMBOL        L?0763
  C:43D6H         SYMBOL        L?0764
  C:43DAH         SYMBOL        L?0765
  C:43E5H         SYMBOL        L?0769
  C:43E5H         SYMBOL        L?0770
  C:43FCH         SYMBOL        L?0771
  C:4402H         SYMBOL        L?0776
  C:4402H         SYMBOL        L?0777
  C:4405H         SYMBOL        L?0778
  C:440DH         SYMBOL        L?0779
  C:440DH         SYMBOL        L?0780
  C:4414H         SYMBOL        L?0782
  C:4414H         SYMBOL        L?0783
  C:4417H         SYMBOL        L?0784
  C:4421H         SYMBOL        L?0785
  C:4421H         SYMBOL        L?0786
  C:442AH         SYMBOL        L?0791
  C:442CH         SYMBOL        L?0792
  C:4435H         SYMBOL        L?0794
  C:443EH         SYMBOL        L?0795
  C:4447H         SYMBOL        L?0798
  C:4449H         SYMBOL        L?0799
  C:4450H         SYMBOL        L?0800
  C:4455H         SYMBOL        L?0801
  C:4458H         SYMBOL        L?0802
  C:4461H         SYMBOL        L?0805
  C:4468H         SYMBOL        L?0806
  C:446FH         SYMBOL        L?0809
  C:4476H         SYMBOL        L?0810
  C:4478H         SYMBOL        L?0811
  C:447FH         SYMBOL        L?0815
  C:449CH         SYMBOL        L?0816
  C:449CH         SYMBOL        L?0817
  C:44A4H         SYMBOL        L?0819
  C:44A6H         SYMBOL        L?0820
  C:44B4H         SYMBOL        L?0821
BL51 BANKED LINKER/LOCATER V6.22                                                      12/09/2015  15:21:44  PAGE 80


  C:44CEH         SYMBOL        L?0822
  C:44CEH         SYMBOL        L?0823
  C:44D1H         SYMBOL        L?0824
  C:44D9H         SYMBOL        L?0826
  C:44E4H         SYMBOL        L?0827
  C:44E4H         SYMBOL        L?0828
  C:44F1H         SYMBOL        L?0830
  C:4507H         SYMBOL        L?0831
  C:451DH         SYMBOL        L?0832
  C:451DH         SYMBOL        L?0833
  C:451EH         SYMBOL        L?0834
  C:4525H         SYMBOL        L?0835
  C:4525H         SYMBOL        L?0836
  C:4532H         SYMBOL        L?0837
  C:4532H         SYMBOL        L?0838
  C:4538H         SYMBOL        L?0840
  C:453AH         SYMBOL        L?0841
  C:4543H         SYMBOL        L?0842
  C:4544H         SYMBOL        L?0843
  C:454BH         SYMBOL        L?0844
  C:455FH         SYMBOL        L?0845
  C:4562H         SYMBOL        L?0846
  C:456AH         SYMBOL        L?0847
  C:456DH         SYMBOL        L?0848
  C:4574H         SYMBOL        L?0849
  C:4574H         SYMBOL        L?0850
  C:457BH         SYMBOL        L?0853
  C:458CH         SYMBOL        L?0856
  C:459CH         SYMBOL        L?0857
  C:45A4H         SYMBOL        L?0858
  C:45A4H         SYMBOL        L?0859
  C:45ADH         SYMBOL        L?0860
  C:45ADH         SYMBOL        L?0861
  C:45B4H         SYMBOL        L?0862
  C:45C4H         SYMBOL        L?0868
  C:45D3H         SYMBOL        L?0869
  C:45E2H         SYMBOL        L?0870
  C:45E2H         SYMBOL        L?0871
  C:45E3H         SYMBOL        L?0872
  C:45EAH         SYMBOL        L?0873
  C:45F9H         SYMBOL        L?0874
  C:4608H         SYMBOL        L?0877
  C:4616H         SYMBOL        L?0878
  C:4624H         SYMBOL        L?0879
  C:4632H         SYMBOL        L?0880
  C:4634H         SYMBOL        L?0881
  C:463CH         SYMBOL        L?0883
  C:463CH         SYMBOL        L?0884
  C:4643H         SYMBOL        L?0885
  C:4650H         SYMBOL        L?0886
  C:4652H         SYMBOL        L?0887
  C:4659H         SYMBOL        L?0888
  C:4660H         SYMBOL        L?0889
  C:4660H         SYMBOL        L?0890
  C:4666H         SYMBOL        L?0892
  C:4672H         SYMBOL        L?0893
  C:4672H         SYMBOL        L?0894
BL51 BANKED LINKER/LOCATER V6.22                                                      12/09/2015  15:21:44  PAGE 81


  C:467AH         SYMBOL        L?0896
  C:4685H         SYMBOL        L?0897
  C:4690H         SYMBOL        L?0898
  C:469BH         SYMBOL        L?0899
  C:46A2H         SYMBOL        L?0900
  C:46ADH         SYMBOL        L?0902
  C:46B7H         SYMBOL        L?0903
  C:46BEH         SYMBOL        L?0904
  C:46BEH         SYMBOL        L?0905
  C:46C5H         SYMBOL        L?0906
  C:46CFH         SYMBOL        L?0907
  C:46D9H         SYMBOL        L?0908
  C:46D9H         SYMBOL        L?0909
  C:46DFH         SYMBOL        L?0910
  C:46E9H         SYMBOL        L?0911
  C:46F3H         SYMBOL        L?0912
  C:46F3H         SYMBOL        L?0913
  C:46FAH         SYMBOL        L?0914
  C:46FAH         SYMBOL        L?0915
  -------         PROC          COM02DB
  -------         ENDPROC       COM02DB
  -------         PROC          GETOSDPOSITIONMODE
  -------         DO            
  D:0007H         SYMBOL        val
  -------         ENDDO         
  C:000EH         LINE#         95
  C:000EH         LINE#         96
  C:000EH         LINE#         98
  C:0011H         LINE#         101
  C:0011H         LINE#         102
  -------         ENDPROC       GETOSDPOSITIONMODE
  C:6517H         SYMBOL        L?0875
  -------         PROC          _SETOSDPOSITIONMODE
  X:0012H         SYMBOL        flag
  -------         DO            
  D:0004H         SYMBOL        val
  X:0013H         SYMBOL        addx
  X:0015H         SYMBOL        addy
  X:0017H         SYMBOL        i
  D:0007H         SYMBOL        inc
  X:0018H         SYMBOL        winno
  X:0019H         SYMBOL        OSDStart
  D:0002H         SYMBOL        tmp
  -------         ENDDO         
  C:63B7H         LINE#         104
  C:63BCH         LINE#         105
  C:63BCH         LINE#         117
  C:63C4H         LINE#         118
  C:63D1H         LINE#         119
  C:63D4H         LINE#         120
  C:63D9H         LINE#         122
  C:63E6H         LINE#         123
  C:63F9H         LINE#         124
  C:63FDH         LINE#         126
  C:640AH         LINE#         127
  C:641DH         LINE#         128
  C:6422H         LINE#         130
BL51 BANKED LINKER/LOCATER V6.22                                                      12/09/2015  15:21:44  PAGE 82


  C:6432H         LINE#         131
  C:6439H         LINE#         132
  C:643CH         LINE#         133
  C:643FH         LINE#         134
  C:6452H         LINE#         135
  C:6458H         LINE#         137
  C:6461H         LINE#         138
  C:6464H         LINE#         139
  C:6467H         LINE#         140
  C:6479H         LINE#         141
  C:6496H         LINE#         142
  C:649FH         LINE#         144
  C:64A2H         LINE#         157
  C:64AFH         LINE#         158
  C:64BFH         LINE#         159
  C:64C9H         LINE#         160
  C:64E8H         LINE#         161
  C:64F0H         LINE#         163
  C:64FDH         LINE#         164
  C:6505H         LINE#         166
  C:6508H         LINE#         167
  C:6511H         LINE#         170
  C:6516H         LINE#         171
  -------         ENDPROC       _SETOSDPOSITIONMODE
  C:5CFAH         SYMBOL        L?0787
  C:5D02H         SYMBOL        L?0790
  C:5D09H         SYMBOL        L?0796
  C:5D11H         SYMBOL        L?0803
  C:5D18H         SYMBOL        L?0807
  C:5D20H         SYMBOL        L?0812
  C:5D27H         SYMBOL        L?0825
  C:5D2EH         SYMBOL        L?0829
  C:5D36H         SYMBOL        L?0851
  C:5D3DH         SYMBOL        L?0863
  C:5D45H         SYMBOL        L?0891
  -------         PROC          RESETOSDVALUE
  C:5B81H         LINE#         253
  C:5B81H         LINE#         254
  C:5B81H         LINE#         255
  C:5B8AH         LINE#         256
  C:5B93H         LINE#         258
  C:5B98H         LINE#         261
  C:5B9DH         LINE#         263
  C:5BA2H         LINE#         267
  C:5BAEH         LINE#         268
  C:5BB3H         LINE#         269
  C:5BB8H         LINE#         270
  C:5BBDH         LINE#         271
  C:5BC2H         LINE#         272
  C:5BC7H         LINE#         273
  C:5BCCH         LINE#         274
  C:5BD1H         LINE#         275
  C:5BD6H         LINE#         276
  C:5BDBH         LINE#         277
  C:5BE0H         LINE#         278
  C:5BE5H         LINE#         279
  C:5BEEH         LINE#         280
BL51 BANKED LINKER/LOCATER V6.22                                                      12/09/2015  15:21:44  PAGE 83


  C:5BF4H         LINE#         281
  C:5BF9H         LINE#         282
  C:5C02H         LINE#         283
  C:5C0BH         LINE#         285
  C:5C10H         LINE#         286
  C:5C15H         LINE#         287
  C:5C1AH         LINE#         300
  C:5C20H         LINE#         301
  C:5C20H         LINE#         302
  C:5C27H         LINE#         303
  C:5C2DH         LINE#         304
  C:5C2FH         LINE#         306
  C:5C2FH         LINE#         307
  C:5C38H         LINE#         308
  C:5C40H         LINE#         309
  C:5C40H         LINE#         311
  C:5C45H         LINE#         315
  C:5C4DH         LINE#         317
  C:5C52H         LINE#         318
  C:5C57H         LINE#         319
  C:5C60H         LINE#         320
  C:5C69H         LINE#         322
  C:5C6EH         LINE#         323
  C:5C73H         LINE#         324
  C:5C78H         LINE#         325
  C:5C7DH         LINE#         326
  C:5C82H         LINE#         327
  C:5C85H         LINE#         328
  C:5C8AH         LINE#         330
  C:5C93H         LINE#         331
  C:5C9FH         LINE#         336
  C:5CA7H         LINE#         337
  C:5CB3H         LINE#         338
  C:5CBCH         LINE#         339
  C:5CC8H         LINE#         340
  C:5CD1H         LINE#         341
  C:5CDDH         LINE#         342
  C:5CE5H         LINE#         343
  C:5CEAH         LINE#         345
  C:5CEFH         LINE#         346
  C:5CF7H         LINE#         356
  C:5CFAH         LINE#         361
  -------         ENDPROC       RESETOSDVALUE
  -------         PROC          GETOSDLANG
  C:A334H         LINE#         396
  C:A334H         LINE#         397
  C:A334H         LINE#         398
  C:A33CH         LINE#         399
  C:A344H         LINE#         400
  C:A344H         LINE#         401
  -------         ENDPROC       GETOSDLANG
  -------         PROC          _SETLANGUAGE
  D:0007H         SYMBOL        flag
  -------         DO            
  D:0007H         SYMBOL        inc
  -------         ENDDO         
  C:A211H         LINE#         403
BL51 BANKED LINKER/LOCATER V6.22                                                      12/09/2015  15:21:44  PAGE 84


  C:A211H         LINE#         404
  C:A211H         LINE#         406
  C:A21BH         LINE#         407
  C:A21EH         LINE#         408
  C:A225H         LINE#         410
  C:A228H         LINE#         412
  C:A22DH         LINE#         413
  -------         ENDPROC       _SETLANGUAGE
  -------         PROC          _SETRGBCONTRAST
  D:0007H         SYMBOL        temp
  X:0014H         SYMBOL        val
  -------         DO            
  X:0015H         SYMBOL        index
  X:0017H         SYMBOL        i
  X:0018H         SYMBOL        newval
  X:001AH         SYMBOL        toValue
  -------         ENDDO         
  C:8F30H         LINE#         449
  C:8F35H         LINE#         450
  C:8F35H         LINE#         455
  C:8F45H         LINE#         456
  C:8F52H         LINE#         457
  C:8F52H         LINE#         458
  C:8F68H         LINE#         459
  C:8F77H         LINE#         460
  C:8F8FH         LINE#         461
  C:8F97H         LINE#         462
  -------         ENDPROC       _SETRGBCONTRAST
  -------         PROC          _SETPCCOLORTEMP
  D:0007H         SYMBOL        flag
  -------         DO            
  D:0007H         SYMBOL        val
  X:0012H         SYMBOL        regv
  D:0007H         SYMBOL        inc
  -------         ENDDO         
  C:8C9BH         LINE#         476
  C:8C9BH         LINE#         477
  C:8C9BH         LINE#         484
  C:8CA5H         LINE#         485
  C:8CC1H         LINE#         486
  C:8CC9H         LINE#         488
  C:8CCFH         LINE#         489
  C:8CD6H         LINE#         490
  C:8CEBH         LINE#         491
  C:8CF7H         LINE#         493
  C:8D05H         LINE#         494
  C:8D09H         LINE#         496
  C:8D12H         LINE#         498
  C:8D15H         LINE#         499
  -------         ENDPROC       _SETPCCOLORTEMP
  -------         PROC          _SETPCCOLOR
  X:0012H         SYMBOL        color
  D:0005H         SYMBOL        flag
  -------         DO            
  X:0013H         SYMBOL        newval
  X:0015H         SYMBOL        toValue
  X:0017H         SYMBOL        regv
BL51 BANKED LINKER/LOCATER V6.22                                                      12/09/2015  15:21:44  PAGE 85


  -------         ENDDO         
  C:7EDDH         LINE#         509
  C:7EE2H         LINE#         510
  C:7EE2H         LINE#         514
  C:7F05H         LINE#         515
  C:7F1FH         LINE#         516
  C:7F22H         LINE#         518
  C:7F2DH         LINE#         519
  C:7F3CH         LINE#         520
  C:7F4DH         LINE#         522
  C:7F5AH         LINE#         523
  C:7F6DH         LINE#         525
  C:7F86H         LINE#         527
  C:7F89H         LINE#         528
  -------         ENDPROC       _SETPCCOLOR
  C:9278H         SYMBOL        L?0813
  -------         PROC          CHECKPANELIMAGE
  C:922AH         LINE#         584
  C:922AH         LINE#         585
  C:922AH         LINE#         606
  C:922AH         LINE#         607
  C:923CH         LINE#         608
  C:923EH         LINE#         609
  C:9248H         LINE#         610
  C:924AH         LINE#         611
  C:9254H         LINE#         612
  C:925DH         LINE#         613
  C:9266H         LINE#         614
  C:9278H         LINE#         615
  C:9278H         LINE#         616
  -------         ENDPROC       CHECKPANELIMAGE
  -------         PROC          _SETVIDEOMODE
  X:001EH         SYMBOL        mode
  -------         DO            
  X:001FH         SYMBOL        i
  X:0021H         SYMBOL        regv
  -------         DO            
  X:0023H         SYMBOL        userv
  -------         ENDDO         
  -------         ENDDO         
  C:7410H         LINE#         628
  C:7416H         LINE#         629
  C:7416H         LINE#         632
  C:741DH         LINE#         634
  C:7425H         LINE#         636
  C:743CH         LINE#         637
  C:7477H         LINE#         639
  C:748FH         LINE#         640
  C:748FH         LINE#         641
  C:748FH         LINE#         643
  C:7491H         LINE#         645
  C:7491H         LINE#         647
  C:7491H         LINE#         651
  C:7499H         LINE#         652
  C:74A1H         LINE#         653
  C:74ADH         LINE#         654
  C:74B9H         LINE#         655
BL51 BANKED LINKER/LOCATER V6.22                                                      12/09/2015  15:21:44  PAGE 86


  C:74C1H         LINE#         657
  C:74D0H         LINE#         658
  C:74E3H         LINE#         659
  C:74E3H         LINE#         660
  C:74ECH         LINE#         661
  C:74FCH         LINE#         666
  C:74FCH         LINE#         668
  -------         ENDPROC       _SETVIDEOMODE
  -------         PROC          ISINPUTANALOGRGB
  C:A4ECH         LINE#         670
  C:A4ECH         LINE#         671
  C:A4ECH         LINE#         678
  C:A4EEH         LINE#         679
  -------         ENDPROC       ISINPUTANALOGRGB
  -------         PROC          _GETVIDEODATAWITHOFFSET
  D:0007H         SYMBOL        offset
  C:A4D3H         LINE#         681
  C:A4D3H         LINE#         682
  C:A4D3H         LINE#         683
  C:A4D9H         LINE#         685
  C:A4D9H         LINE#         686
  -------         ENDPROC       _GETVIDEODATAWITHOFFSET
  -------         PROC          _CHANGEVIDEODATA
  X:0012H         SYMBOL        offset
  D:0005H         SYMBOL        flag
  -------         DO            
  X:0013H         SYMBOL        newv
  D:0006H         SYMBOL        inc
  -------         ENDDO         
  C:8409H         LINE#         688
  C:840EH         LINE#         689
  C:840EH         LINE#         692
  C:841CH         LINE#         694
  C:842CH         LINE#         695
  C:8447H         LINE#         696
  C:844AH         LINE#         697
  C:844AH         LINE#         699
  C:8462H         LINE#         700
  C:8462H         LINE#         701
  C:8467H         LINE#         702
  C:8469H         LINE#         703
  C:846FH         LINE#         704
  C:8471H         LINE#         705
  C:8471H         LINE#         706
  C:8471H         LINE#         707
  C:847FH         LINE#         708
  C:8481H         LINE#         709
  C:8487H         LINE#         710
  C:8489H         LINE#         711
  C:848FH         LINE#         712
  C:848FH         LINE#         713
  C:848FH         LINE#         715
  C:849BH         LINE#         717
  C:84A6H         LINE#         718
  C:84A6H         LINE#         720
  -------         ENDPROC       _CHANGEVIDEODATA
  -------         PROC          _SETVIDEOCONTRAST
BL51 BANKED LINKER/LOCATER V6.22                                                      12/09/2015  15:21:44  PAGE 87


  X:0025H         SYMBOL        newv
  -------         DO            
  X:0026H         SYMBOL        regv
  -------         ENDDO         
  C:99E1H         LINE#         722
  C:99E6H         LINE#         723
  C:99E6H         LINE#         727
  C:99F0H         LINE#         728
  C:99FCH         LINE#         731
  C:9A0CH         LINE#         734
  -------         ENDPROC       _SETVIDEOCONTRAST
  -------         PROC          _SETVIDEOBRIGHTNESS
  X:0025H         SYMBOL        newv
  -------         DO            
  X:0026H         SYMBOL        regv
  -------         ENDDO         
  C:9661H         LINE#         738
  C:9666H         LINE#         739
  C:9666H         LINE#         744
  C:966EH         LINE#         745
  C:967BH         LINE#         746
  C:9683H         LINE#         747
  C:9685H         LINE#         750
  C:9685H         LINE#         751
  C:9692H         LINE#         753
  C:969BH         LINE#         754
  C:96A2H         LINE#         756
  C:96ACH         LINE#         757
  C:96ACH         LINE#         758
  -------         ENDPROC       _SETVIDEOBRIGHTNESS
  C:8F29H         SYMBOL        L?0916
  -------         PROC          _SETVIDEOBACKLIGHT
  D:0007H         SYMBOL        newv
  -------         DO            
  X:0015H         SYMBOL        regv
  X:0017H         SYMBOL        page
  -------         ENDDO         
  C:8EC7H         LINE#         759
  C:8EC7H         LINE#         760
  C:8EC7H         LINE#         765
  C:8EDCH         LINE#         776
  C:8EE8H         LINE#         777
  C:8EEEH         LINE#         778
  C:8EFFH         LINE#         779
  C:8F1DH         LINE#         780
  C:8F29H         LINE#         782
  -------         ENDPROC       _SETVIDEOBACKLIGHT
  -------         PROC          _SETVIDEOHUE
  X:0025H         SYMBOL        newv
  -------         DO            
  X:0026H         SYMBOL        regv
  -------         ENDDO         
  C:8D86H         LINE#         784
  C:8D8BH         LINE#         785
  C:8D8BH         LINE#         789
  C:8D93H         LINE#         790
  C:8DA7H         LINE#         791
BL51 BANKED LINKER/LOCATER V6.22                                                      12/09/2015  15:21:44  PAGE 88


  C:8DBBH         LINE#         792
  C:8DBDH         LINE#         793
  C:8DBDH         LINE#         794
  C:8DD7H         LINE#         795
  C:8DE0H         LINE#         796
  C:8DE7H         LINE#         798
  C:8DF1H         LINE#         799
  C:8DF1H         LINE#         801
  -------         ENDPROC       _SETVIDEOHUE
  -------         PROC          _SETVIDEOSATURATION
  X:0025H         SYMBOL        svtype
  X:0026H         SYMBOL        newv
  -------         DO            
  X:0027H         SYMBOL        regv
  -------         ENDDO         
  C:8D16H         LINE#         803
  C:8D1EH         LINE#         804
  C:8D1EH         LINE#         808
  C:8D24H         LINE#         809
  C:8D34H         LINE#         810
  C:8D52H         LINE#         811
  C:8D54H         LINE#         812
  C:8D54H         LINE#         814
  C:8D67H         LINE#         816
  C:8D71H         LINE#         817
  C:8D74H         LINE#         818
  C:8D76H         LINE#         819
  C:8D76H         LINE#         820
  C:8D85H         LINE#         821
  C:8D85H         LINE#         822
  C:8D85H         LINE#         823
  -------         ENDPROC       _SETVIDEOSATURATION
  -------         PROC          _SETVIDEOSHARPNESS
  X:0012H         SYMBOL        flag
  -------         DO            
  D:0007H         SYMBOL        orgv
  D:0007H         SYMBOL        inc
  X:0013H         SYMBOL        newv
  X:0015H         SYMBOL        regv
  -------         ENDDO         
  C:8226H         LINE#         826
  C:822BH         LINE#         827
  C:822BH         LINE#         832
  C:8235H         LINE#         833
  C:823DH         LINE#         834
  C:824AH         LINE#         835
  C:8256H         LINE#         836
  C:8277H         LINE#         838
  C:827BH         LINE#         840
  C:8299H         LINE#         842
  C:82A2H         LINE#         844
  C:82B2H         LINE#         847
  C:82BDH         LINE#         848
  C:82C8H         LINE#         850
  C:82C8H         LINE#         851
  -------         ENDPROC       _SETVIDEOSHARPNESS
  C:8FEDH         SYMBOL        L?0854
BL51 BANKED LINKER/LOCATER V6.22                                                      12/09/2015  15:21:44  PAGE 89


  -------         PROC          RESETVIDEOVALUE
  -------         DO            
  X:0009H         SYMBOL        i
  X:000AH         SYMBOL        CurInput
  -------         ENDDO         
  C:8F98H         LINE#         895
  C:8F98H         LINE#         896
  C:8F98H         LINE#         902
  C:8FA0H         LINE#         903
  C:8FB0H         LINE#         905
  C:8FB4H         LINE#         906
  C:8FB4H         LINE#         907
  C:8FB9H         LINE#         908
  C:8FC0H         LINE#         909
  C:8FC7H         LINE#         910
  C:8FC7H         LINE#         911
  C:8FC7H         LINE#         912
  C:8FCCH         LINE#         918
  C:8FD3H         LINE#         919
  C:8FD8H         LINE#         920
  C:8FD8H         LINE#         921
  C:8FE0H         LINE#         922
  C:8FE8H         LINE#         923
  C:8FEDH         LINE#         925
  -------         ENDPROC       RESETVIDEOVALUE
  -------         PROC          _SET4WIDESCREEN
  X:001EH         SYMBOL        id
  -------         DO            
  X:001FH         SYMBOL        i
  X:0021H         SYMBOL        WideData
  -------         ENDDO         
  C:6F21H         LINE#         1044
  C:6F26H         LINE#         1045
  C:6F26H         LINE#         1047
  C:6F2BH         LINE#         1048
  C:6F30H         LINE#         1049
  C:6F36H         LINE#         1050
  C:6F36H         LINE#         1056
  C:6F70H         LINE#         1061
  C:6F70H         LINE#         1062
  C:6F75H         LINE#         1064
  C:6F75H         LINE#         1067
  C:6F7DH         LINE#         1100
  C:6F7DH         LINE#         1101
  C:6F7DH         LINE#         1124
  C:6FA3H         LINE#         1131
  C:6FA3H         LINE#         1138
  C:6FB0H         LINE#         1143
  C:6FB2H         LINE#         1144
  C:6FB2H         LINE#         1150
  C:6FCAH         LINE#         1152
  C:6FCAH         LINE#         1155
  C:6FD0H         LINE#         1157
  C:6FD0H         LINE#         1162
  C:6FD3H         LINE#         1164
  C:6FECH         LINE#         1165
  C:700DH         LINE#         1169
BL51 BANKED LINKER/LOCATER V6.22                                                      12/09/2015  15:21:44  PAGE 90


  C:7013H         LINE#         1170
  C:701BH         LINE#         1171
  C:701BH         LINE#         1173
  -------         ENDPROC       _SET4WIDESCREEN
  -------         PROC          PUSHMENU
  C:9E8BH         LINE#         136
  C:9E8BH         LINE#         137
  C:9E8BH         LINE#         141
  C:9E92H         LINE#         154
  C:9EA2H         LINE#         155
  C:9EB1H         LINE#         156
  C:9EB4H         LINE#         157
  C:9EB4H         LINE#         158
  C:9EB6H         LINE#         159
  -------         ENDPROC       PUSHMENU
  -------         PROC          POPMENU
  C:A24BH         LINE#         161
  C:A24BH         LINE#         162
  C:A24BH         LINE#         166
  C:A24FH         LINE#         167
  C:A257H         LINE#         168
  C:A261H         LINE#         182
  C:A264H         LINE#         183
  C:A264H         LINE#         184
  C:A266H         LINE#         185
  -------         ENDPROC       POPMENU
  -------         PROC          _GETLOWERMENUITEM
  X:001DH         SYMBOL        DMp
  X:0020H         SYMBOL        itemno
  C:97D2H         LINE#         187
  C:97DDH         LINE#         188
  C:97DDH         LINE#         189
  C:97E0H         LINE#         190
  C:97E3H         LINE#         191
  C:97E9H         LINE#         192
  C:980EH         LINE#         193
  C:9811H         LINE#         194
  C:9816H         LINE#         196
  -------         ENDPROC       _GETLOWERMENUITEM
  -------         PROC          _GETUPPERMENUITEM
  D:0007H         SYMBOL        itemno
  C:A472H         LINE#         198
  C:A472H         LINE#         199
  C:A472H         LINE#         201
  C:A476H         LINE#         202
  C:A479H         LINE#         203
  C:A47AH         LINE#         204
  C:A47AH         LINE#         205
  -------         ENDPROC       _GETUPPERMENUITEM
  -------         PROC          _GETTARGETCHILD
  D:0004H         SYMBOL        tid
  -------         DO            
  D:0006H         SYMBOL        i
  -------         ENDDO         
  C:9922H         LINE#         207
  C:9924H         LINE#         208
  C:9924H         LINE#         212
BL51 BANKED LINKER/LOCATER V6.22                                                      12/09/2015  15:21:44  PAGE 91


  C:9932H         LINE#         213
  C:9934H         LINE#         220
  C:9938H         LINE#         226
  C:9950H         LINE#         227
  C:9953H         LINE#         228
  C:995EH         LINE#         229
  C:9960H         LINE#         231
  C:9962H         LINE#         232
  -------         ENDPROC       _GETTARGETCHILD
  C:6381H         SYMBOL        L?0789
  C:639EH         SYMBOL        L?0882
  C:63ACH         SYMBOL        L?0901
  -------         PROC          DISPLAYINFO_OSD
  -------         DO            
  X:0009H         SYMBOL        i
  X:000AH         SYMBOL        title
  X:000BH         SYMBOL        len
  D:0007H         SYMBOL        inputs
  X:000CH         SYMBOL        mstr
  -------         ENDDO         
  C:624AH         LINE#         278
  C:624AH         LINE#         279
  C:624AH         LINE#         280
  C:6250H         LINE#         283
  C:6253H         LINE#         284
  C:625BH         LINE#         285
  C:6261H         LINE#         287
  C:6267H         LINE#         289
  C:626EH         LINE#         290
  C:6274H         LINE#         292
  C:6279H         LINE#         294
  C:6284H         LINE#         295
  C:629EH         LINE#         296
  C:62DAH         LINE#         299
  C:62DDH         LINE#         300
  C:62E3H         LINE#         301
  C:62FEH         LINE#         302
  C:6302H         LINE#         303
  C:631CH         LINE#         314
  C:631CH         LINE#         315
  C:631FH         LINE#         316
  C:6339H         LINE#         317
  C:6339H         LINE#         331
  C:633EH         LINE#         332
  C:6344H         LINE#         333
  C:6348H         LINE#         334
  C:634DH         LINE#         335
  C:6358H         LINE#         336
  C:635FH         LINE#         337
  C:6362H         LINE#         345
  C:6381H         LINE#         348
  -------         ENDPROC       DISPLAYINFO_OSD
  -------         PROC          _DISPLAYVOLUMEBAR
  X:0008H         SYMBOL        val
  -------         DO            
  C:176EH         SYMBOL        BAR_ROM_TABLE
  D:0007H         SYMBOL        i
BL51 BANKED LINKER/LOCATER V6.22                                                      12/09/2015  15:21:44  PAGE 92


  X:0009H         SYMBOL        Bar_str
  D:0006H         SYMBOL        addr
  -------         ENDDO         
  C:8669H         LINE#         356
  C:866EH         LINE#         357
  C:866EH         LINE#         367
  C:8681H         LINE#         374
  C:868AH         LINE#         375
  C:868AH         LINE#         376
  C:86A2H         LINE#         377
  C:86ABH         LINE#         378
  C:86BAH         LINE#         379
  C:86BAH         LINE#         381
  C:86C1H         LINE#         382
  C:86C4H         LINE#         385
  C:86D0H         LINE#         386
  C:86D9H         LINE#         387
  C:86E0H         LINE#         389
  C:86E3H         LINE#         390
  C:86E6H         LINE#         392
  C:86EAH         LINE#         394
  -------         ENDPROC       _DISPLAYVOLUMEBAR
  -------         PROC          _GET_CURSOR_ITEM
  D:0007H         SYMBOL        id
  -------         DO            
  X:0008H         SYMBOL        i
  X:0009H         SYMBOL        tid
  -------         ENDDO         
  C:9DD2H         LINE#         397
  C:9DD2H         LINE#         398
  C:9DD2H         LINE#         399
  C:9DD8H         LINE#         406
  C:9DDDH         LINE#         407
  C:9DE5H         LINE#         408
  C:9DE7H         LINE#         410
  C:9DEAH         LINE#         411
  C:9DEAH         LINE#         413
  C:9DF7H         LINE#         415
  C:9DFAH         LINE#         417
  C:9DFCH         LINE#         418
  C:9DFCH         LINE#         424
  C:9E01H         LINE#         425
  -------         ENDPROC       _GET_CURSOR_ITEM
  C:4995H         SYMBOL        L?0725
  C:49C4H         SYMBOL        L?0727
  C:4A03H         SYMBOL        L?0729
  C:4A42H         SYMBOL        L?0768
  C:4A5EH         SYMBOL        L?0793
  C:4A6FH         SYMBOL        L?0855
  C:4A7CH         SYMBOL        L?0864
  C:4A84H         SYMBOL        L?0876
  -------         PROC          _DISPLAYOSDMENUONEITEM
  X:001DH         SYMBOL        winno
  X:001FH         SYMBOL        DMp
  X:0022H         SYMBOL        x
  X:0023H         SYMBOL        y
  X:0024H         SYMBOL        NOTViewflag
BL51 BANKED LINKER/LOCATER V6.22                                                      12/09/2015  15:21:44  PAGE 93


  -------         DO            
  D:0007H         SYMBOL        i
  X:0025H         SYMBOL        j
  X:0026H         SYMBOL        k
  X:0027H         SYMBOL        IconColor
  X:0028H         SYMBOL        addr
  X:002AH         SYMBOL        Str
  C:178DH         SYMBOL        RightSign_str
  C:1799H         SYMBOL        SpaceStr
  C:17A5H         SYMBOL        Dot
  C:17A7H         SYMBOL        Colon
  -------         DO            
  X:002DH         SYMBOL        ptr
  X:002DH         SYMBOL        ptr
  X:002DH         SYMBOL        ptr
  -------         ENDDO         
  -------         DO            
  X:002DH         SYMBOL        ptr
  X:002DH         SYMBOL        ptr
  -------         ENDDO         
  -------         DO            
  X:002DH         SYMBOL        ptr
  -------         ENDDO         
  -------         ENDDO         
  C:4701H         LINE#         431
  C:4707H         LINE#         432
  C:4707H         LINE#         452
  C:4717H         LINE#         453
  C:471DH         LINE#         463
  C:4743H         LINE#         470
  C:4750H         LINE#         473
  C:4758H         LINE#         475
  C:4760H         LINE#         476
  C:4764H         LINE#         480
  C:476AH         LINE#         483
  C:4771H         LINE#         484
  C:4771H         LINE#         490
  C:477CH         LINE#         494
  C:4788H         LINE#         496
  C:478EH         LINE#         497
  C:4791H         LINE#         499
  C:479FH         LINE#         500
  C:47BEH         LINE#         506
  C:47C4H         LINE#         508
  C:47D4H         LINE#         509
  C:47EEH         LINE#         511
  C:47F8H         LINE#         513
  C:47F8H         LINE#         515
  C:4801H         LINE#         516
  C:480CH         LINE#         526
  C:483AH         LINE#         527
  C:483AH         LINE#         528
  C:4849H         LINE#         529
  C:4849H         LINE#         531
  C:4849H         LINE#         532
  C:4849H         LINE#         534
  C:4849H         LINE#         535
BL51 BANKED LINKER/LOCATER V6.22                                                      12/09/2015  15:21:44  PAGE 94


  C:4850H         LINE#         541
  C:4850H         LINE#         542
  C:4861H         LINE#         543
  C:4864H         LINE#         544
  C:4864H         LINE#         545
  C:4864H         LINE#         546
  C:4864H         LINE#         548
  C:4864H         LINE#         549
  C:4864H         LINE#         551
  C:4864H         LINE#         552
  C:487BH         LINE#         553
  C:487BH         LINE#         554
  C:487BH         LINE#         555
  C:4881H         LINE#         556
  C:4881H         LINE#         557
  C:488CH         LINE#         558
  C:488CH         LINE#         559
  C:4892H         LINE#         560
  C:4892H         LINE#         561
  C:489BH         LINE#         562
  C:489EH         LINE#         564
  C:489EH         LINE#         565
  C:48A7H         LINE#         566
  C:48ACH         LINE#         567
  C:48BAH         LINE#         568
  C:48BFH         LINE#         569
  C:48D0H         LINE#         570
  C:48E0H         LINE#         571
  C:48F2H         LINE#         572
  C:4904H         LINE#         573
  C:4919H         LINE#         574
  C:4925H         LINE#         575
  C:4937H         LINE#         576
  C:493AH         LINE#         578
  C:493AH         LINE#         579
  C:4940H         LINE#         580
  C:4940H         LINE#         581
  C:494BH         LINE#         582
  C:494BH         LINE#         583
  C:4951H         LINE#         584
  C:4951H         LINE#         585
  C:495DH         LINE#         586
  C:495DH         LINE#         587
  C:495DH         LINE#         588
  C:495DH         LINE#         589
  C:495DH         LINE#         591
  C:495DH         LINE#         592
  C:495DH         LINE#         595
  C:495DH         LINE#         596
  C:4978H         LINE#         598
  C:4978H         LINE#         599
  C:4978H         LINE#         601
  C:4978H         LINE#         602
  C:4978H         LINE#         603
  C:4978H         LINE#         604
  C:4978H         LINE#         605
  C:4978H         LINE#         606
BL51 BANKED LINKER/LOCATER V6.22                                                      12/09/2015  15:21:44  PAGE 95


  C:497AH         LINE#         609
  C:497AH         LINE#         610
  C:4983H         LINE#         611
  C:4985H         LINE#         614
  C:4985H         LINE#         615
  C:4994H         LINE#         616
  C:4994H         LINE#         617
  C:4994H         LINE#         618
  -------         ENDPROC       _DISPLAYOSDMENUONEITEM
  -------         PROC          CLEARCURSOR
  -------         DO            
  D:0007H         SYMBOL        cursor_y
  X:000AH         SYMBOL        addr
  -------         ENDDO         
  C:95C7H         LINE#         620
  C:95C7H         LINE#         621
  C:95C7H         LINE#         626
  C:95CFH         LINE#         630
  C:95E1H         LINE#         631
  C:95F1H         LINE#         632
  C:95F7H         LINE#         634
  C:9606H         LINE#         635
  C:9613H         LINE#         639
  -------         ENDPROC       CLEARCURSOR
  -------         PROC          DISPLAYCURSOR
  -------         DO            
  X:000EH         SYMBOL        cursor_y
  X:000FH         SYMBOL        i
  X:0010H         SYMBOL        addr
  -------         ENDDO         
  C:76C2H         LINE#         641
  C:76C2H         LINE#         642
  C:76C2H         LINE#         643
  C:76C7H         LINE#         648
  C:76D1H         LINE#         651
  C:76E0H         LINE#         652
  C:76E0H         LINE#         653
  C:76E5H         LINE#         654
  C:76E8H         LINE#         655
  C:76F6H         LINE#         656
  C:7703H         LINE#         657
  C:770BH         LINE#         659
  C:772CH         LINE#         665
  C:773DH         LINE#         666
  C:7740H         LINE#         668
  C:774CH         LINE#         670
  C:7750H         LINE#         671
  C:775EH         LINE#         673
  C:775EH         LINE#         674
  C:7761H         LINE#         675
  C:7761H         LINE#         676
  C:777AH         LINE#         677
  C:777EH         LINE#         678
  C:7780H         LINE#         680
  C:7780H         LINE#         681
  C:7789H         LINE#         682
  C:779EH         LINE#         683
BL51 BANKED LINKER/LOCATER V6.22                                                      12/09/2015  15:21:44  PAGE 96


  C:779EH         LINE#         684
  C:779EH         LINE#         708
  -------         ENDPROC       DISPLAYCURSOR
  C:5723H         SYMBOL        L?0742
  C:572DH         SYMBOL        L?0746
  C:5737H         SYMBOL        L?0747
  C:5741H         SYMBOL        L?0760
  C:574BH         SYMBOL        L?0767
  C:5755H         SYMBOL        L?0772
  C:575FH         SYMBOL        L?0774
  C:5769H         SYMBOL        L?0781
  C:5773H         SYMBOL        L?0797
  C:577DH         SYMBOL        L?0818
  C:5787H         SYMBOL        L?0865
  -------         PROC          _GETITEMVALUE
  X:0030H         SYMBOL        id
  -------         DO            
  X:0031H         SYMBOL        val
  -------         ENDDO         
  C:5581H         LINE#         714
  C:5586H         LINE#         715
  C:5586H         LINE#         716
  C:558BH         LINE#         722
  C:55FFH         LINE#         731
  C:55FFH         LINE#         732
  C:5610H         LINE#         733
  C:5614H         LINE#         734
  C:5617H         LINE#         739
  C:561CH         LINE#         744
  C:5625H         LINE#         761
  C:562EH         LINE#         763
  C:562EH         LINE#         764
  C:562EH         LINE#         765
  C:562EH         LINE#         766
  C:562EH         LINE#         767
  C:562EH         LINE#         768
  C:562EH         LINE#         769
  C:563AH         LINE#         770
  C:563AH         LINE#         772
  C:563DH         LINE#         773
  C:5642H         LINE#         775
  C:5647H         LINE#         776
  C:5649H         LINE#         786
  C:5655H         LINE#         787
  C:5658H         LINE#         790
  C:5658H         LINE#         791
  C:5664H         LINE#         793
  C:5664H         LINE#         794
  C:5669H         LINE#         796
  C:566CH         LINE#         797
  C:566CH         LINE#         798
  C:5671H         LINE#         799
  C:5674H         LINE#         800
  C:5674H         LINE#         801
  C:5679H         LINE#         802
  C:567CH         LINE#         803
  C:567CH         LINE#         804
BL51 BANKED LINKER/LOCATER V6.22                                                      12/09/2015  15:21:44  PAGE 97


  C:5681H         LINE#         805
  C:5684H         LINE#         806
  C:5684H         LINE#         807
  C:5689H         LINE#         808
  C:568CH         LINE#         809
  C:568CH         LINE#         810
  C:5691H         LINE#         811
  C:5694H         LINE#         812
  C:5694H         LINE#         813
  C:5699H         LINE#         814
  C:569CH         LINE#         816
  C:569CH         LINE#         817
  C:56A1H         LINE#         818
  C:56A4H         LINE#         819
  C:56A4H         LINE#         820
  C:56A9H         LINE#         821
  C:56ACH         LINE#         822
  C:56ACH         LINE#         823
  C:56B1H         LINE#         824
  C:56B4H         LINE#         825
  C:56B4H         LINE#         826
  C:56B9H         LINE#         827
  C:56BCH         LINE#         828
  C:56BCH         LINE#         829
  C:56C1H         LINE#         830
  C:56C4H         LINE#         831
  C:56C4H         LINE#         832
  C:56C9H         LINE#         833
  C:56CCH         LINE#         834
  C:56CCH         LINE#         835
  C:56D1H         LINE#         836
  C:56D3H         LINE#         837
  C:56D3H         LINE#         838
  C:56D8H         LINE#         839
  C:56DAH         LINE#         840
  C:56DAH         LINE#         841
  C:56DFH         LINE#         842
  C:56E1H         LINE#         843
  C:56E1H         LINE#         844
  C:56E6H         LINE#         845
  C:56E8H         LINE#         868
  C:56E8H         LINE#         869
  C:56EDH         LINE#         870
  C:56EFH         LINE#         871
  C:56EFH         LINE#         872
  C:56F4H         LINE#         873
  C:56F6H         LINE#         874
  C:56F6H         LINE#         875
  C:56FBH         LINE#         877
  C:56FDH         LINE#         983
  C:56FDH         LINE#         984
  C:5702H         LINE#         985
  C:5704H         LINE#         986
  C:5704H         LINE#         987
  C:5709H         LINE#         988
  C:570BH         LINE#         990
  C:570BH         LINE#         991
BL51 BANKED LINKER/LOCATER V6.22                                                      12/09/2015  15:21:44  PAGE 98


  C:571AH         LINE#         992
  C:571AH         LINE#         994
  C:5722H         LINE#         995
  -------         ENDPROC       _GETITEMVALUE
  C:34B5H         SYMBOL        L?0722
  C:34C7H         SYMBOL        L?0723
  C:34D9H         SYMBOL        L?0724
  C:34E7H         SYMBOL        L?0726
  C:34F5H         SYMBOL        L?0728
  C:3503H         SYMBOL        L?0730
  C:3511H         SYMBOL        L?0735
  C:351FH         SYMBOL        L?0741
  C:352DH         SYMBOL        L?0766
  C:353CH         SYMBOL        L?0773
  C:354BH         SYMBOL        L?0775
  C:3557H         SYMBOL        L?0788
  C:3563H         SYMBOL        L?0839
  C:356CH         SYMBOL        L?0852
  C:357AH         SYMBOL        L?0866
  -------         PROC          _SETITEMVALUE
  X:000EH         SYMBOL        id
  X:000FH         SYMBOL        flag
  -------         DO            
  X:0010H         SYMBOL        val
  -------         ENDDO         
  C:2CCFH         LINE#         1000
  C:2CD9H         LINE#         1001
  C:2CD9H         LINE#         1002
  C:2CDCH         LINE#         1005
  C:2CECH         LINE#         1006
  C:2D66H         LINE#         1010
  C:2D66H         LINE#         1011
  C:2D71H         LINE#         1012
  C:2D78H         LINE#         1013
  C:2D78H         LINE#         1015
  C:2D88H         LINE#         1020
  C:2D8AH         LINE#         1022
  C:2D8AH         LINE#         1023
  C:2D97H         LINE#         1025
  C:2D97H         LINE#         1027
  C:2DA1H         LINE#         1028
  C:2DAAH         LINE#         1029
  C:2DADH         LINE#         1045
  C:2DB8H         LINE#         1051
  C:2DC3H         LINE#         1065
  C:2DCEH         LINE#         1067
  C:2DDBH         LINE#         1068
  C:2DE8H         LINE#         1069
  C:2DF5H         LINE#         1071
  C:2DF7H         LINE#         1072
  C:2E02H         LINE#         1073
  C:2E05H         LINE#         1074
  C:2E08H         LINE#         1075
  C:2E0BH         LINE#         1077
  C:2E19H         LINE#         1081
  C:2E1DH         LINE#         1087
  C:2E26H         LINE#         1089
BL51 BANKED LINKER/LOCATER V6.22                                                      12/09/2015  15:21:44  PAGE 99


  C:2E29H         LINE#         1091
  C:2E29H         LINE#         1092
  C:2E29H         LINE#         1093
  C:2E2CH         LINE#         1094
  C:2E2EH         LINE#         1095
  C:2E36H         LINE#         1096
  C:2E43H         LINE#         1097
  C:2E46H         LINE#         1099
  C:2E50H         LINE#         1100
  C:2E50H         LINE#         1102
  C:2E68H         LINE#         1111
  C:2E6EH         LINE#         1112
  C:2E79H         LINE#         1113
  C:2E7CH         LINE#         1114
  C:2E7FH         LINE#         1115
  C:2E82H         LINE#         1116
  C:2E85H         LINE#         1119
  C:2E85H         LINE#         1120
  C:2E87H         LINE#         1125
  C:2E8DH         LINE#         1126
  C:2EA0H         LINE#         1128
  C:2EB5H         LINE#         1159
  C:2EBCH         LINE#         1160
  C:2EBEH         LINE#         1165
  C:2EC1H         LINE#         1167
  C:2EC1H         LINE#         1168
  C:2EC3H         LINE#         1169
  C:2EC9H         LINE#         1170
  C:2EDCH         LINE#         1172
  C:2EF1H         LINE#         1173
  C:2EF6H         LINE#         1195
  C:2EF9H         LINE#         1197
  C:2EF9H         LINE#         1198
  C:2EFBH         LINE#         1199
  C:2F01H         LINE#         1200
  C:2F14H         LINE#         1202
  C:2F29H         LINE#         1203
  C:2F2EH         LINE#         1204
  C:2F31H         LINE#         1206
  C:2F31H         LINE#         1207
  C:2F36H         LINE#         1208
  C:2F3DH         LINE#         1209
  C:2F50H         LINE#         1211
  C:2F65H         LINE#         1212
  C:2F6AH         LINE#         1213
  C:2F6DH         LINE#         1215
  C:2F6DH         LINE#         1216
  C:2F72H         LINE#         1217
  C:2F79H         LINE#         1218
  C:2F8CH         LINE#         1220
  C:2FA1H         LINE#         1221
  C:2FA6H         LINE#         1222
  C:2FA9H         LINE#         1224
  C:2FA9H         LINE#         1225
  C:2FAEH         LINE#         1226
  C:2FB5H         LINE#         1227
  C:2FC8H         LINE#         1229
BL51 BANKED LINKER/LOCATER V6.22                                                      12/09/2015  15:21:44  PAGE 100


  C:2FDDH         LINE#         1231
  C:2FE6H         LINE#         1232
  C:2FE8H         LINE#         1233
  C:2FE8H         LINE#         1234
  C:2FEFH         LINE#         1235
  C:2FF3H         LINE#         1236
  C:2FF5H         LINE#         1238
  C:2FF5H         LINE#         1239
  C:2FFEH         LINE#         1240
  C:3006H         LINE#         1242
  C:300FH         LINE#         1243
  C:300FH         LINE#         1244
  C:3012H         LINE#         1245
  C:3015H         LINE#         1246
  C:3021H         LINE#         1247
  C:3021H         LINE#         1248
  C:3021H         LINE#         1250
  C:3026H         LINE#         1251
  C:3029H         LINE#         1253
  C:3029H         LINE#         1254
  C:302EH         LINE#         1255
  C:3035H         LINE#         1256
  C:3048H         LINE#         1258
  C:305DH         LINE#         1259
  C:305FH         LINE#         1260
  C:3068H         LINE#         1261
  C:306BH         LINE#         1263
  C:306BH         LINE#         1264
  C:3070H         LINE#         1265
  C:3077H         LINE#         1266
  C:308AH         LINE#         1268
  C:309FH         LINE#         1269
  C:30A1H         LINE#         1271
  C:30AEH         LINE#         1272
  C:30B4H         LINE#         1274
  C:30B8H         LINE#         1276
  C:30BEH         LINE#         1277
  C:30C1H         LINE#         1279
  C:30C1H         LINE#         1281
  C:30C4H         LINE#         1283
  C:30C4H         LINE#         1284
  C:30C9H         LINE#         1285
  C:30D0H         LINE#         1286
  C:30E3H         LINE#         1288
  C:30F8H         LINE#         1289
  C:30FAH         LINE#         1291
  C:3107H         LINE#         1292
  C:310DH         LINE#         1294
  C:3111H         LINE#         1296
  C:3117H         LINE#         1297
  C:311AH         LINE#         1299
  C:311AH         LINE#         1301
  C:311DH         LINE#         1303
  C:311DH         LINE#         1304
  C:3122H         LINE#         1305
  C:3129H         LINE#         1306
  C:313CH         LINE#         1308
BL51 BANKED LINKER/LOCATER V6.22                                                      12/09/2015  15:21:44  PAGE 101


  C:3151H         LINE#         1309
  C:3153H         LINE#         1311
  C:3160H         LINE#         1312
  C:3166H         LINE#         1314
  C:316AH         LINE#         1316
  C:3170H         LINE#         1317
  C:3172H         LINE#         1319
  C:3172H         LINE#         1321
  C:3174H         LINE#         1323
  C:3174H         LINE#         1324
  C:3179H         LINE#         1325
  C:3180H         LINE#         1326
  C:3193H         LINE#         1328
  C:31A8H         LINE#         1329
  C:31ADH         LINE#         1331
  C:31BAH         LINE#         1332
  C:31C0H         LINE#         1334
  C:31C4H         LINE#         1336
  C:31CAH         LINE#         1337
  C:31D0H         LINE#         1339
  C:31EFH         LINE#         1341
  C:31F2H         LINE#         1344
  C:31F2H         LINE#         1345
  C:31F7H         LINE#         1346
  C:31FEH         LINE#         1347
  C:31FEH         LINE#         1348
  C:320CH         LINE#         1349
  C:320FH         LINE#         1350
  C:3211H         LINE#         1352
  C:3211H         LINE#         1353
  C:321FH         LINE#         1354
  C:3225H         LINE#         1355
  C:3225H         LINE#         1356
  C:322AH         LINE#         1357
  C:322DH         LINE#         1405
  C:322DH         LINE#         1406
  C:3232H         LINE#         1407
  C:3239H         LINE#         1408
  C:3239H         LINE#         1410
  C:3245H         LINE#         1414
  C:324BH         LINE#         1416
  C:324EH         LINE#         1417
  C:3250H         LINE#         1419
  C:3250H         LINE#         1420
  C:3255H         LINE#         1421
  C:325EH         LINE#         1423
  C:325EH         LINE#         1425
  C:3264H         LINE#         1429
  C:3264H         LINE#         1430
  C:3264H         LINE#         1431
  C:3269H         LINE#         1432
  C:326CH         LINE#         1434
  C:326CH         LINE#         1435
  C:3271H         LINE#         1436
  C:3278H         LINE#         1437
  C:328BH         LINE#         1439
  C:32A0H         LINE#         1440
BL51 BANKED LINKER/LOCATER V6.22                                                      12/09/2015  15:21:44  PAGE 102


  C:32A5H         LINE#         1442
  C:32A8H         LINE#         1525
  C:32A8H         LINE#         1526
  C:32ADH         LINE#         1527
  C:32B4H         LINE#         1528
  C:32B4H         LINE#         1530
  C:32C6H         LINE#         1534
  C:32C9H         LINE#         1535
  C:32CBH         LINE#         1537
  C:32CBH         LINE#         1538
  C:32D9H         LINE#         1540
  C:32DFH         LINE#         1544
  C:32DFH         LINE#         1546
  C:32E4H         LINE#         1547
  C:32FEH         LINE#         1548
  C:32FEH         LINE#         1549
  C:3302H         LINE#         1550
  C:3305H         LINE#         1551
  C:330BH         LINE#         1552
  C:3310H         LINE#         1553
  C:3310H         LINE#         1554
  C:3313H         LINE#         1556
  C:3313H         LINE#         1557
  C:331FH         LINE#         1558
  C:3322H         LINE#         1559
  C:3329H         LINE#         1560
  C:3329H         LINE#         1561
  C:333BH         LINE#         1562
  C:333EH         LINE#         1563
  C:3340H         LINE#         1565
  C:3340H         LINE#         1566
  C:334EH         LINE#         1567
  C:3354H         LINE#         1568
  C:3354H         LINE#         1569
  C:3359H         LINE#         1570
  C:3360H         LINE#         1571
  C:3363H         LINE#         1599
  C:3363H         LINE#         1600
  C:3368H         LINE#         1601
  C:336EH         LINE#         1602
  C:336EH         LINE#         1603
  C:337EH         LINE#         1604
  C:3380H         LINE#         1606
  C:3380H         LINE#         1607
  C:3390H         LINE#         1608
  C:3390H         LINE#         1609
  C:3395H         LINE#         1610
  C:339CH         LINE#         1611
  C:339FH         LINE#         2041
  C:339FH         LINE#         2042
  C:33A4H         LINE#         2043
  C:33AAH         LINE#         2044
  C:33AAH         LINE#         2045
  C:33BCH         LINE#         2046
  C:33BFH         LINE#         2047
  C:33C1H         LINE#         2049
  C:33C1H         LINE#         2050
BL51 BANKED LINKER/LOCATER V6.22                                                      12/09/2015  15:21:44  PAGE 103


  C:33CFH         LINE#         2051
  C:33D5H         LINE#         2052
  C:33D5H         LINE#         2053
  C:33DCH         LINE#         2054
  C:33DEH         LINE#         2055
  C:33E1H         LINE#         2057
  C:33E1H         LINE#         2058
  C:33E6H         LINE#         2059
  C:33ECH         LINE#         2060
  C:33FFH         LINE#         2062
  C:3414H         LINE#         2063
  C:341BH         LINE#         2064
  C:341DH         LINE#         2065
  C:341FH         LINE#         2067
  C:341FH         LINE#         2068
  C:3424H         LINE#         2069
  C:342AH         LINE#         2070
  C:342AH         LINE#         2071
  C:3438H         LINE#         2072
  C:343BH         LINE#         2073
  C:343DH         LINE#         2075
  C:343DH         LINE#         2076
  C:344BH         LINE#         2077
  C:3451H         LINE#         2078
  C:3451H         LINE#         2079
  C:3458H         LINE#         2080
  C:345FH         LINE#         2081
  C:3461H         LINE#         2083
  C:3461H         LINE#         2084
  C:3467H         LINE#         2085
  C:346DH         LINE#         2086
  C:346DH         LINE#         2087
  C:347BH         LINE#         2088
  C:3480H         LINE#         2089
  C:3482H         LINE#         2091
  C:3482H         LINE#         2092
  C:3497H         LINE#         2093
  C:349DH         LINE#         2094
  C:349DH         LINE#         2095
  C:34A6H         LINE#         2096
  C:34ACH         LINE#         2097
  C:34ACH         LINE#         2100
  C:34ACH         LINE#         2102
  C:34B4H         LINE#         2103
  -------         ENDPROC       _SETITEMVALUE
  -------         PROC          _DISPLAYVIEWBAR
  X:0030H         SYMBOL        addr
  X:0032H         SYMBOL        val
  -------         DO            
  C:17A9H         SYMBOL        BAR_ROM_TABLE
  X:0033H         SYMBOL        i
  X:0034H         SYMBOL        Bar_str
  -------         ENDDO         
  C:779FH         LINE#         2106
  C:77AAH         LINE#         2107
  C:77AAH         LINE#         2116
  C:77ADH         LINE#         2117
BL51 BANKED LINKER/LOCATER V6.22                                                      12/09/2015  15:21:44  PAGE 104


  C:77BFH         LINE#         2120
  C:77BFH         LINE#         2121
  C:77C8H         LINE#         2122
  C:77C8H         LINE#         2123
  C:77E2H         LINE#         2124
  C:77F2H         LINE#         2125
  C:7808H         LINE#         2126
  C:7808H         LINE#         2128
  C:7812H         LINE#         2129
  C:7812H         LINE#         2132
  C:7828H         LINE#         2133
  C:7839H         LINE#         2134
  C:7841H         LINE#         2135
  C:784EH         LINE#         2137
  C:7858H         LINE#         2138
  C:786DH         LINE#         2140
  -------         ENDPROC       _DISPLAYVIEWBAR
  -------         PROC          _DRAWNUM
  X:0030H         SYMBOL        addr
  X:0032H         SYMBOL        nptr
  X:0035H         SYMBOL        val
  -------         DO            
  X:0037H         SYMBOL        x
  X:0038H         SYMBOL        i
  X:0039H         SYMBOL        j
  X:003AH         SYMBOL        k
  D:0007H         SYMBOL        len
  X:003BH         SYMBOL        mstr
  X:0040H         SYMBOL        Num_str
  X:004CH         SYMBOL        str
  -------         ENDDO         
  C:7A29H         LINE#         2144
  C:7A2FH         LINE#         2145
  C:7A2FH         LINE#         2147
  C:7A3AH         LINE#         2150
  C:7A40H         LINE#         2151
  C:7A4FH         LINE#         2152
  C:7A54H         LINE#         2153
  C:7A5DH         LINE#         2156
  C:7A60H         LINE#         2157
  C:7A73H         LINE#         2158
  C:7A83H         LINE#         2160
  C:7A97H         LINE#         2161
  C:7A9DH         LINE#         2162
  C:7AA6H         LINE#         2163
  C:7AB4H         LINE#         2164
  C:7AC6H         LINE#         2167
  C:7ACCH         LINE#         2168
  C:7ADBH         LINE#         2169
  C:7AEEH         LINE#         2170
  -------         ENDPROC       _DRAWNUM
  C:7C7EH         SYMBOL        L?0814
  -------         PROC          _DRAWSTRINGBYLANG
  X:0030H         SYMBOL        addr
  X:0032H         SYMBOL        yptr
  X:0035H         SYMBOL        val
  -------         DO            
BL51 BANKED LINKER/LOCATER V6.22                                                      12/09/2015  15:21:44  PAGE 105


  X:0037H         SYMBOL        j
  D:0005H         SYMBOL        l
  X:0038H         SYMBOL        Size_val
  X:0039H         SYMBOL        Buf
  X:0045H         SYMBOL        Str
  -------         ENDDO         
  C:7BCCH         LINE#         2174
  C:7BD2H         LINE#         2175
  C:7BD2H         LINE#         2178
  C:7BDDH         LINE#         2181
  C:7BE7H         LINE#         2182
  C:7BF0H         LINE#         2184
  C:7BFEH         LINE#         2185
  C:7BFEH         LINE#         2186
  C:7C1DH         LINE#         2187
  C:7C22H         LINE#         2188
  C:7C22H         LINE#         2190
  C:7C2CH         LINE#         2191
  C:7C44H         LINE#         2192
  C:7C49H         LINE#         2193
  C:7C49H         LINE#         2195
  C:7C5DH         LINE#         2197
  C:7C68H         LINE#         2199
  C:7C7EH         LINE#         2201
  -------         ENDPROC       _DRAWSTRINGBYLANG
  -------         PROC          _DRAWMENULIST
  X:0011H         SYMBOL        NOTViewflag
  -------         DO            
  X:0012H         SYMBOL        i
  X:0013H         SYMBOL        j
  X:0014H         SYMBOL        k
  X:0015H         SYMBOL        x
  X:0016H         SYMBOL        y
  D:0001H         SYMBOL        DMp
  X:0017H         SYMBOL        Desc
  X:001AH         SYMBOL        Max_y
  X:001BH         SYMBOL        addr
  -------         ENDDO         
  C:5D4CH         LINE#         2229
  C:5D51H         LINE#         2230
  C:5D51H         LINE#         2231
  C:5D58H         LINE#         2241
  C:5D67H         LINE#         2247
  C:5D7AH         LINE#         2248
  C:5D83H         LINE#         2249
  C:5D8BH         LINE#         2251
  C:5DA2H         LINE#         2252
  C:5DC6H         LINE#         2258
  C:5DDAH         LINE#         2259
  C:5DEFH         LINE#         2266
  C:5E0AH         LINE#         2269
  C:5E10H         LINE#         2270
  C:5E10H         LINE#         2272
  C:5E21H         LINE#         2273
  C:5E27H         LINE#         2279
  C:5E3AH         LINE#         2281
  C:5E4EH         LINE#         2282
BL51 BANKED LINKER/LOCATER V6.22                                                      12/09/2015  15:21:44  PAGE 106


  C:5E65H         LINE#         2284
  C:5E6BH         LINE#         2285
  C:5E6DH         LINE#         2286
  C:5E76H         LINE#         2287
  C:5E76H         LINE#         2289
  C:5E83H         LINE#         2291
  C:5E8BH         LINE#         2292
  C:5EBDH         LINE#         2293
  C:5ECDH         LINE#         2294
  C:5ECFH         LINE#         2295
  C:5ECFH         LINE#         2299
  C:5EDBH         LINE#         2301
  C:5EDBH         LINE#         2302
  C:5EEDH         LINE#         2303
  C:5EF6H         LINE#         2305
  C:5EFCH         LINE#         2306
  C:5EFEH         LINE#         2307
  C:5F06H         LINE#         2308
  C:5F06H         LINE#         2317
  -------         ENDPROC       _DRAWMENULIST
  C:7314H         SYMBOL        L?0895
  -------         PROC          DISPLAYOSDMENU
  C:7221H         LINE#         2323
  C:7221H         LINE#         2324
  C:7221H         LINE#         2341
  C:722BH         LINE#         2342
  C:7232H         LINE#         2344
  C:724FH         LINE#         2345
  C:7255H         LINE#         2347
  C:7255H         LINE#         2348
  C:7295H         LINE#         2350
  C:7295H         LINE#         2351
  C:729CH         LINE#         2352
  C:72A2H         LINE#         2353
  C:72A4H         LINE#         2355
  C:72AFH         LINE#         2356
  C:72AFH         LINE#         2358
  C:72BAH         LINE#         2360
  C:72BFH         LINE#         2363
  C:72C4H         LINE#         2364
  C:72C4H         LINE#         2365
  C:72C7H         LINE#         2366
  C:72CDH         LINE#         2367
  C:72D1H         LINE#         2369
  C:72E4H         LINE#         2370
  C:72E7H         LINE#         2371
  C:72EDH         LINE#         2373
  C:72F2H         LINE#         2375
  C:72F5H         LINE#         2376
  C:7308H         LINE#         2377
  C:730BH         LINE#         2378
  C:7311H         LINE#         2379
  C:7311H         LINE#         2385
  C:7314H         LINE#         2386
  -------         ENDPROC       DISPLAYOSDMENU
  -------         PROC          OSDHIGHMENU_SUB
  -------         DO            
BL51 BANKED LINKER/LOCATER V6.22                                                      12/09/2015  15:21:44  PAGE 107


  X:0009H         SYMBOL        temp_cursor
  -------         ENDDO         
  C:8037H         LINE#         2388
  C:8037H         LINE#         2389
  C:8037H         LINE#         2395
  C:803FH         LINE#         2396
  C:8049H         LINE#         2397
  C:8051H         LINE#         2399
  C:8057H         LINE#         2400
  C:805AH         LINE#         2402
  C:805AH         LINE#         2403
  C:8060H         LINE#         2404
  C:8067H         LINE#         2405
  C:806FH         LINE#         2413
  C:806FH         LINE#         2416
  C:8085H         LINE#         2419
  C:80A9H         LINE#         2421
  C:80AFH         LINE#         2423
  C:80B3H         LINE#         2424
  C:80B9H         LINE#         2425
  C:80BCH         LINE#         2426
  C:80BEH         LINE#         2428
  C:80BEH         LINE#         2429
  C:80C3H         LINE#         2430
  C:80C6H         LINE#         2431
  C:80C6H         LINE#         2434
  C:80CDH         LINE#         2435
  C:80D3H         LINE#         2436
  C:80DCH         LINE#         2437
  C:80DCH         LINE#         2440
  -------         ENDPROC       OSDHIGHMENU_SUB
  C:8027H         SYMBOL        L?0867
  -------         PROC          _DOACTION
  D:0007H         SYMBOL        id
  -------         DO            
  X:0008H         SYMBOL        ret
  -------         ENDDO         
  C:7F8AH         LINE#         2443
  C:7F8AH         LINE#         2444
  C:7F8AH         LINE#         2445
  C:7F90H         LINE#         2450
  C:7FB3H         LINE#         2452
  C:7FB3H         LINE#         2453
  C:7FB3H         LINE#         2454
  C:7FB3H         LINE#         2465
  C:7FBAH         LINE#         2466
  C:7FBCH         LINE#         2502
  C:7FBCH         LINE#         2506
  C:7FBCH         LINE#         2507
  C:7FBCH         LINE#         2509
  C:7FBCH         LINE#         2513
  C:7FBFH         LINE#         2514
  C:7FC1H         LINE#         2517
  C:7FC1H         LINE#         2518
  C:7FC4H         LINE#         2519
  C:7FCDH         LINE#         2520
  C:7FD9H         LINE#         2521
BL51 BANKED LINKER/LOCATER V6.22                                                      12/09/2015  15:21:44  PAGE 108


  C:7FDBH         LINE#         2524
  C:7FDBH         LINE#         2525
  C:7FDBH         LINE#         2527
  C:7FDBH         LINE#         2528
  C:7FDBH         LINE#         2530
  C:7FDBH         LINE#         2532
  C:7FDEH         LINE#         2533
  C:7FECH         LINE#         2534
  C:7FEEH         LINE#         2558
  C:7FF1H         LINE#         2559
  C:7FF3H         LINE#         2579
  C:7FF3H         LINE#         2580
  C:7FF6H         LINE#         2581
  C:7FF8H         LINE#         2582
  C:7FFAH         LINE#         2584
  C:7FFDH         LINE#         2586
  C:8007H         LINE#         2587
  C:800DH         LINE#         2589
  C:8010H         LINE#         2594
  C:8015H         LINE#         2595
  C:8019H         LINE#         2596
  C:801DH         LINE#         2597
  C:8021H         LINE#         2602
  C:8021H         LINE#         2862
  C:8021H         LINE#         2863
  C:8026H         LINE#         2864
  -------         ENDPROC       _DOACTION
  -------         PROC          _GETNEXTCURSORMENUITEM
  D:0001H         SYMBOL        DMp
  D:0005H         SYMBOL        itemno
  X:000EH         SYMBOL        flag
  -------         DO            
  D:0006H         SYMBOL        new_cursor
  -------         ENDDO         
  C:A267H         LINE#         2867
  C:A267H         LINE#         2868
  C:A267H         LINE#         2871
  C:A272H         LINE#         2872
  C:A27BH         LINE#         2873
  C:A280H         LINE#         2874
  C:A280H         LINE#         2875
  C:A282H         LINE#         2876
  -------         ENDPROC       _GETNEXTCURSORMENUITEM
  -------         PROC          SAVEVALUE1
  C:9F5DH         LINE#         2881
  C:9F5DH         LINE#         2882
  C:9F5DH         LINE#         2885
  C:9F77H         LINE#         2887
  C:9F77H         LINE#         2888
  C:9F82H         LINE#         2892
  C:9F82H         LINE#         2894
  C:9F82H         LINE#         2896
  C:9F82H         LINE#         2897
  C:9F82H         LINE#         2899
  C:9F84H         LINE#         2900
  -------         ENDPROC       SAVEVALUE1
  -------         PROC          CLEARVALUEWIN
BL51 BANKED LINKER/LOCATER V6.22                                                      12/09/2015  15:21:44  PAGE 109


  C:A3FEH         LINE#         2902
  C:A3FEH         LINE#         2903
  C:A3FEH         LINE#         2904
  C:A401H         LINE#         2906
  C:A407H         LINE#         2907
  C:A409H         LINE#         2908
  -------         ENDPROC       CLEARVALUEWIN
  -------         PROC          _OSDCURSORMOVE
  X:0006H         SYMBOL        flag
  -------         DO            
  X:0007H         SYMBOL        new_cursor
  X:0008H         SYMBOL        old_cursor
  D:0002H         SYMBOL        dat
  B:0022H.7       SYMBOL        OSDLANG_Changing
  -------         DO            
  X:0009H         SYMBOL        i
  -------         ENDDO         
  -------         ENDDO         
  C:60BAH         LINE#         2910
  C:60BFH         LINE#         2911
  C:60BFH         LINE#         2918
  C:60C1H         LINE#         2924
  C:60C7H         LINE#         2926
  C:60EBH         LINE#         2929
  C:610FH         LINE#         2931
  C:6127H         LINE#         2933
  C:612AH         LINE#         2935
  C:6132H         LINE#         2936
  C:613FH         LINE#         2937
  C:6145H         LINE#         2938
  C:6155H         LINE#         2943
  C:615AH         LINE#         2944
  C:615AH         LINE#         2946
  C:615DH         LINE#         2947
  C:6160H         LINE#         2948
  C:6160H         LINE#         2949
  C:6165H         LINE#         2950
  C:6168H         LINE#         3036
  C:6194H         LINE#         3038
  C:6194H         LINE#         3039
  C:6199H         LINE#         3040
  C:619FH         LINE#         3041
  C:619FH         LINE#         3042
  C:61C8H         LINE#         3044
  C:61C8H         LINE#         3045
  C:61CEH         LINE#         3046
  C:61D3H         LINE#         3047
  C:61D3H         LINE#         3050
  C:61DBH         LINE#         3051
  C:61E3H         LINE#         3052
  C:61E8H         LINE#         3053
  C:61E8H         LINE#         3054
  C:61EBH         LINE#         3060
  C:61F4H         LINE#         3061
  C:620EH         LINE#         3062
  C:6215H         LINE#         3065
  C:621BH         LINE#         3069
BL51 BANKED LINKER/LOCATER V6.22                                                      12/09/2015  15:21:44  PAGE 110


  C:6229H         LINE#         3071
  C:622CH         LINE#         3072
  C:622CH         LINE#         3074
  C:622CH         LINE#         3075
  C:6241H         LINE#         3076
  C:6246H         LINE#         3077
  C:6249H         LINE#         3078
  C:6249H         LINE#         3086
  -------         ENDPROC       _OSDCURSORMOVE
  C:676DH         SYMBOL        L?0804
  C:677CH         SYMBOL        L?0808
  -------         PROC          _OSDVALUEUPDN
  X:0006H         SYMBOL        flag
  -------         DO            
  X:0007H         SYMBOL        ptr
  X:000AH         SYMBOL        val
  X:000CH         SYMBOL        addr
  -------         ENDDO         
  C:6670H         LINE#         3088
  C:6675H         LINE#         3089
  C:6675H         LINE#         3095
  C:667BH         LINE#         3096
  C:66A7H         LINE#         3098
  C:66C7H         LINE#         3100
  C:66C7H         LINE#         3101
  C:66E0H         LINE#         3102
  C:66E9H         LINE#         3103
  C:66E9H         LINE#         3106
  C:66E9H         LINE#         3107
  C:6701H         LINE#         3108
  C:6704H         LINE#         3110
  C:6704H         LINE#         3113
  C:6704H         LINE#         3114
  C:6713H         LINE#         3115
  C:6726H         LINE#         3122
  C:6726H         LINE#         3123
  C:6726H         LINE#         3124
  C:6736H         LINE#         3125
  C:6736H         LINE#         3126
  C:6736H         LINE#         3128
  C:6736H         LINE#         3150
  C:6736H         LINE#         3151
  C:6745H         LINE#         3152
  C:6758H         LINE#         3153
  C:676CH         LINE#         3154
  C:676CH         LINE#         3156
  C:676CH         LINE#         3157
  C:676CH         LINE#         3158
  -------         ENDPROC       _OSDVALUEUPDN
  -------         PROC          CLOSEOSDMENU
  -------         DO            
  X:001CH         SYMBOL        i
  -------         ENDDO         
  C:9A5EH         LINE#         3160
  C:9A5EH         LINE#         3161
  C:9A5EH         LINE#         3165
  C:9A63H         LINE#         3168
BL51 BANKED LINKER/LOCATER V6.22                                                      12/09/2015  15:21:44  PAGE 111


  C:9A66H         LINE#         3169
  C:9A76H         LINE#         3170
  C:9A76H         LINE#         3171
  C:9A80H         LINE#         3172
  C:9A89H         LINE#         3173
  C:9A91H         LINE#         3175
  C:9A96H         LINE#         3184
  C:9A99H         LINE#         3198
  C:9A9BH         LINE#         3199
  -------         ENDPROC       CLOSEOSDMENU
  -------         PROC          INITOSDMENUXY
  -------         DO            
  X:000EH         SYMBOL        val
  X:0010H         SYMBOL        addx
  X:0012H         SYMBOL        addy
  X:0014H         SYMBOL        winno
  -------         ENDDO         
  C:90BDH         LINE#         3201
  C:90BDH         LINE#         3202
  C:90BDH         LINE#         3206
  C:90CEH         LINE#         3207
  C:90DFH         LINE#         3217
  C:90EDH         LINE#         3219
  C:90F0H         LINE#         3220
  C:90FDH         LINE#         3222
  C:9105H         LINE#         3223
  C:9112H         LINE#         3224
  C:911AH         LINE#         3225
  -------         ENDPROC       INITOSDMENUXY
  -------         PROC          OPENOSDMENU
  -------         DO            
  X:0006H         SYMBOL        i
  -------         ENDDO         
  C:9CD9H         LINE#         3231
  C:9CD9H         LINE#         3233
  C:9CD9H         LINE#         3238
  C:9CDCH         LINE#         3239
  C:9CDCH         LINE#         3243
  C:9CDFH         LINE#         3245
  C:9CDFH         LINE#         3253
  C:9CEFH         LINE#         3255
  C:9CEFH         LINE#         3256
  C:9CF4H         LINE#         3257
  C:9CFCH         LINE#         3259
  C:9D03H         LINE#         3260
  C:9D08H         LINE#         3261
  -------         ENDPROC       OPENOSDMENU
  -------         PROC          INITOSDMENU
  -------         DO            
  X:000DH         SYMBOL        i
  -------         ENDDO         
  C:8920H         LINE#         3324
  C:8920H         LINE#         3326
  C:8920H         LINE#         3328
  C:8925H         LINE#         3331
  C:892DH         LINE#         3333
  C:8930H         LINE#         3350
BL51 BANKED LINKER/LOCATER V6.22                                                      12/09/2015  15:21:44  PAGE 112


  C:8930H         LINE#         3370
  C:893AH         LINE#         3372
  C:893AH         LINE#         3373
  C:893AH         LINE#         3375
  C:893DH         LINE#         3376
  C:8941H         LINE#         3377
  C:895AH         LINE#         3379
  C:8960H         LINE#         3380
  C:8965H         LINE#         3382
  C:8968H         LINE#         3383
  C:896DH         LINE#         3385
  C:8973H         LINE#         3386
  C:8976H         LINE#         3387
  C:8978H         LINE#         3395
  C:8981H         LINE#         3396
  C:8989H         LINE#         3400
  C:8990H         LINE#         3402
  C:8996H         LINE#         3403
  C:899DH         LINE#         3405
  C:89A0H         LINE#         3409
  -------         ENDPROC       INITOSDMENU
  -------         PROC          OSDHIGHMENU
  C:002EH         LINE#         3412
  C:002EH         LINE#         3413
  C:002EH         LINE#         3418
  C:0031H         LINE#         3419
  C:0031H         LINE#         3421
  C:0034H         LINE#         3423
  C:0039H         LINE#         3424
  C:003CH         LINE#         3427
  C:003CH         LINE#         3429
  C:003EH         LINE#         3430
  C:0057H         LINE#         3432
  C:005FH         LINE#         3433
  C:0062H         LINE#         3442
  -------         ENDPROC       OSDHIGHMENU
  -------         PROC          OSDSELECT
  -------         DO            
  D:0007H         SYMBOL        ret
  X:0006H         SYMBOL        addr
  -------         ENDDO         
  C:5F07H         LINE#         3444
  C:5F07H         LINE#         3445
  C:5F07H         LINE#         3449
  C:5F12H         LINE#         3450
  C:5F2DH         LINE#         3452
  C:5F55H         LINE#         3456
  C:5F6EH         LINE#         3457
  C:5F74H         LINE#         3459
  C:5FA9H         LINE#         3460
  C:5FA9H         LINE#         3461
  C:5FB8H         LINE#         3464
  C:5FB8H         LINE#         3465
  C:5FBBH         LINE#         3466
  C:5FBEH         LINE#         3467
  C:5FBEH         LINE#         3469
  C:5FBEH         LINE#         3470
BL51 BANKED LINKER/LOCATER V6.22                                                      12/09/2015  15:21:44  PAGE 113


  C:5FBEH         LINE#         3471
  C:5FC0H         LINE#         3472
  C:5FC3H         LINE#         3473
  C:5FD9H         LINE#         3477
  C:5FD9H         LINE#         3478
  C:5FDBH         LINE#         3479
  C:5FE1H         LINE#         3480
  C:5FE5H         LINE#         3483
  C:5FEBH         LINE#         3484
  C:5FF0H         LINE#         3487
  C:6006H         LINE#         3490
  C:600CH         LINE#         3504
  C:600FH         LINE#         3508
  C:601CH         LINE#         3512
  C:601CH         LINE#         3513
  C:601EH         LINE#         3515
  C:6031H         LINE#         3516
  C:6031H         LINE#         3517
  C:6031H         LINE#         3520
  C:6034H         LINE#         3521
  C:6034H         LINE#         3524
  C:6034H         LINE#         3525
  C:6034H         LINE#         3526
  C:6039H         LINE#         3527
  C:6053H         LINE#         3530
  C:6059H         LINE#         3531
  C:6062H         LINE#         3532
  C:6062H         LINE#         3534
  C:6068H         LINE#         3536
  C:606BH         LINE#         3537
  C:606BH         LINE#         3538
  C:6072H         LINE#         3540
  C:6089H         LINE#         3541
  C:6091H         LINE#         3542
  C:60A7H         LINE#         3544
  C:60AEH         LINE#         3545
  C:60B3H         LINE#         3547
  C:60B6H         LINE#         3549
  C:60B9H         LINE#         3550
  C:60B9H         LINE#         3551
  C:60B9H         LINE#         3553
  -------         ENDPROC       OSDSELECT
  -------         PROC          _CAMOUTDSEL
  X:0012H         SYMBOL        val
  C:9614H         LINE#         3573
  C:9619H         LINE#         3574
  C:9619H         LINE#         3575
  C:961BH         LINE#         3576
  C:9623H         LINE#         3577
  C:962AH         LINE#         3578
  C:9632H         LINE#         3579
  C:9639H         LINE#         3580
  C:9641H         LINE#         3581
  C:9648H         LINE#         3582
  C:9650H         LINE#         3583
  C:9657H         LINE#         3584
  C:9660H         LINE#         3585
BL51 BANKED LINKER/LOCATER V6.22                                                      12/09/2015  15:21:44  PAGE 114


  -------         ENDPROC       _CAMOUTDSEL
  -------         ENDMOD        OSDMENU

  -------         MODULE        PC_EEP
  C:0000H         SYMBOL        _ICE_DUMMY_
  -------         ENDMOD        PC_EEP

  -------         MODULE        PRINTF
  C:0000H         SYMBOL        _ICE_DUMMY_
  D:00E8H         PUBLIC        P4
  C:A345H         PUBLIC        Hex
  C:A29EH         PUBLIC        _Puts
  D:0099H         PUBLIC        SBUF
  C:4A93H         PUBLIC        _DoPrint
  C:9F85H         PUBLIC        _Printf
  C:9176H         SYMBOL        Com005C
  C:9176H         SYMBOL        L?0093
  C:9176H         SYMBOL        L?0094
  C:9179H         SYMBOL        L?0095
  C:917AH         SYMBOL        L?0096
  C:9183H         SYMBOL        L?0097
  C:9183H         SYMBOL        L?0098
  C:9186H         SYMBOL        L?0099
  C:9194H         SYMBOL        L?0100
  C:9194H         SYMBOL        L?0101
  C:919AH         SYMBOL        L?0102
  C:91A0H         SYMBOL        L?0103
  C:91AFH         SYMBOL        L?0104
  C:91B5H         SYMBOL        L?0105
  C:91B5H         SYMBOL        L?0106
  C:91BBH         SYMBOL        L?0107
  C:91BBH         SYMBOL        L?0108
  C:91C1H         SYMBOL        L?0109
  C:91C4H         SYMBOL        L?0110
  C:91CBH         SYMBOL        L?0111
  C:91CBH         SYMBOL        L?0112
  -------         PROC          COM005C
  -------         ENDPROC       COM005C
  -------         PROC          _DOPRINT
  X:0052H         SYMBOL        fmt
  X:0055H         SYMBOL        ap
  -------         DO            
  X:0058H         SYMBOL        ch
  X:0059H         SYMBOL        i
  X:005AH         SYMBOL        value
  B:0022H.7       SYMBOL        fl_zero
  B:0023H.0       SYMBOL        fl_num
  X:005EH         SYMBOL        fl_len
  X:005FH         SYMBOL        cnt
  X:0060H         SYMBOL        mask
  X:0064H         SYMBOL        ptr
  -------         ENDDO         
  C:4A93H         LINE#         17
  C:4A99H         LINE#         18
  C:4A99H         LINE#         26
  C:4AA3H         LINE#         32
  C:4AA3H         LINE#         36
BL51 BANKED LINKER/LOCATER V6.22                                                      12/09/2015  15:21:44  PAGE 115


  C:4AB3H         LINE#         37
  C:4AB3H         LINE#         38
  C:4ABCH         LINE#         39
  C:4AC6H         LINE#         40
  C:4AD3H         LINE#         41
  C:4AD3H         LINE#         42
  C:4AD3H         LINE#         46
  C:4AD5H         LINE#         47
  C:4AD7H         LINE#         48
  C:4ADCH         LINE#         50
  C:4AE6H         LINE#         52
  C:4AEBH         LINE#         53
  C:4AEDH         LINE#         54
  C:4AF4H         LINE#         55
  C:4AF5H         LINE#         56
  C:4AF5H         LINE#         57
  C:4AF7H         LINE#         58
  C:4B0BH         LINE#         59
  C:4B12H         LINE#         60
  C:4B19H         LINE#         61
  C:4B19H         LINE#         65
  C:4B1FH         LINE#         67
  C:4B33H         LINE#         68
  C:4B33H         LINE#         69
  C:4B42H         LINE#         70
  C:4B42H         LINE#         71
  C:4B4FH         LINE#         72
  C:4B4FH         LINE#         76
  C:4B7BH         LINE#         78
  C:4B7BH         LINE#         79
  C:4B7BH         LINE#         81
  C:4B8BH         LINE#         82
  C:4B8BH         LINE#         83
  C:4B9EH         LINE#         84
  C:4BA6H         LINE#         85
  C:4BA8H         LINE#         87
  C:4BA8H         LINE#         88
  C:4BBDH         LINE#         89
  C:4BC3H         LINE#         90
  C:4BC5H         LINE#         92
  C:4BC5H         LINE#         93
  C:4BC9H         LINE#         94
  C:4BD2H         LINE#         95
  C:4BD2H         LINE#         96
  C:4BD2H         LINE#         98
  C:4BD9H         LINE#         99
  C:4BE1H         LINE#         100
  C:4BF0H         LINE#         101
  C:4BF0H         LINE#         103
  C:4BF6H         LINE#         104
  C:4C0AH         LINE#         106
  C:4C17H         LINE#         107
  C:4C28H         LINE#         108
  C:4C2BH         LINE#         109
  C:4C35H         LINE#         110
  C:4C35H         LINE#         112
  C:4C65H         LINE#         114
BL51 BANKED LINKER/LOCATER V6.22                                                      12/09/2015  15:21:44  PAGE 116


  C:4C65H         LINE#         115
  C:4C73H         LINE#         116
  C:4C90H         LINE#         117
  C:4C92H         LINE#         118
  C:4C9DH         LINE#         120
  C:4CAEH         LINE#         121
  C:4CC0H         LINE#         123
  C:4CCEH         LINE#         124
  C:4CD1H         LINE#         126
  C:4CD1H         LINE#         128
  C:4CD1H         LINE#         129
  C:4CD1H         LINE#         131
  C:4CE1H         LINE#         132
  C:4CEEH         LINE#         133
  C:4CF6H         LINE#         134
  C:4CFFH         LINE#         135
  C:4CFFH         LINE#         137
  C:4D0DH         LINE#         139
  C:4D2DH         LINE#         140
  C:4D5DH         LINE#         141
  C:4D65H         LINE#         142
  C:4D65H         LINE#         144
  C:4D65H         LINE#         155
  C:4D74H         LINE#         156
  C:4D7FH         LINE#         157
  C:4D8EH         LINE#         158
  C:4D8EH         LINE#         163
  C:4D8EH         LINE#         164
  C:4D9AH         LINE#         165
  C:4DA7H         LINE#         166
  C:4DA7H         LINE#         168
  C:4DA7H         LINE#         169
  C:4DB0H         LINE#         170
  C:4DB3H         LINE#         171
  C:4DB3H         LINE#         172
  C:4DB3H         LINE#         173
  -------         ENDPROC       _DOPRINT
  -------         PROC          _PRINTF
  X:0024H         SYMBOL        fmt
  -------         DO            
  X:0027H         SYMBOL        ellipsis_40
  X:004FH         SYMBOL        ap
  -------         ENDDO         
  C:9F85H         LINE#         180
  C:9F8BH         LINE#         181
  C:9F8BH         LINE#         184
  C:9F97H         LINE#         185
  -------         ENDPROC       _PRINTF
  -------         PROC          _PUTS
  X:001EH         SYMBOL        ptr
  C:A29EH         LINE#         189
  C:A2A4H         LINE#         190
  C:A2A4H         LINE#         191
  C:A2ACH         LINE#         192
  C:A2B8H         LINE#         193
  -------         ENDPROC       _PUTS
  -------         ENDMOD        PRINTF
BL51 BANKED LINKER/LOCATER V6.22                                                      12/09/2015  15:21:44  PAGE 117



  -------         MODULE        TABLE
  C:0000H         SYMBOL        _ICE_DUMMY_
  C:508CH         PUBLIC        NTSC_Regs
  C:51DCH         PUBLIC        PAL_Regs
  -------         ENDMOD        TABLE

  -------         MODULE        TW88
  C:0000H         SYMBOL        _ICE_DUMMY_
  C:80DDH         PUBLIC        _Mapping1
  C:8BA3H         PUBLIC        _LCDPowerON
  D:00E8H         PUBLIC        P4
  C:A393H         PUBLIC        GetLCDPowerState
  C:A22EH         PUBLIC        _ClearAutoDetectStd
  B:00B0H.5       PUBLIC        P3_5
  C:9330H         PUBLIC        DetectDecoderInput
  C:0029H         PUBLIC        ON_LVDS
  C:9B53H         PUBLIC        LCDPowerOFF
  X:0109H         SYMBOL        GaugeVStart
  C:A159H         PUBLIC        SetAutoDetectStd
  X:010AH         SYMBOL        m_cStandard
  C:002AH         PUBLIC        OFF_LVDS
  C:A044H         PUBLIC        COMPOSITE1Input
  C:A068H         PUBLIC        COMPOSITE2Input
  C:9528H         SYMBOL        Com001B
  C:9528H         SYMBOL        L?0028
  C:952FH         SYMBOL        L?0029
  C:9532H         SYMBOL        L?0030
  C:9535H         SYMBOL        L?0031
  C:953BH         SYMBOL        L?0032
  C:955EH         SYMBOL        L?0033
  C:956EH         SYMBOL        L?0037
  -------         PROC          COM001B
  -------         ENDPROC       COM001B
  -------         PROC          SETAUTODETECTSTD
  -------         DO            
  D:0007H         SYMBOL        val
  -------         ENDDO         
  C:A159H         LINE#         30
  C:A159H         LINE#         31
  C:A159H         LINE#         37
  C:A15FH         LINE#         38
  C:A167H         LINE#         39
  C:A16EH         LINE#         40
  -------         ENDPROC       SETAUTODETECTSTD
  -------         PROC          _CLEARAUTODETECTSTD
  X:001EH         SYMBOL        std
  -------         DO            
  D:0007H         SYMBOL        val
  -------         ENDDO         
  C:A22EH         LINE#         43
  C:A233H         LINE#         44
  C:A233H         LINE#         51
  C:A23AH         LINE#         52
  C:A243H         LINE#         53
  -------         ENDPROC       _CLEARAUTODETECTSTD
  C:937BH         SYMBOL        L?0036
BL51 BANKED LINKER/LOCATER V6.22                                                      12/09/2015  15:21:44  PAGE 118


  -------         PROC          DETECTDECODERINPUT
  -------         DO            
  X:001DH         SYMBOL        std
  X:001EH         SYMBOL        val
  -------         ENDDO         
  C:9330H         LINE#         87
  C:9330H         LINE#         88
  C:9330H         LINE#         93
  C:9335H         LINE#         94
  C:933BH         LINE#         95
  C:9340H         LINE#         96
  C:9342H         LINE#         97
  C:9342H         LINE#         99
  C:9347H         LINE#         100
  C:934CH         LINE#         104
  C:934FH         LINE#         105
  C:9354H         LINE#         106
  C:9356H         LINE#         107
  C:9356H         LINE#         108
  C:935FH         LINE#         109
  C:9365H         LINE#         110
  C:936CH         LINE#         111
  C:936CH         LINE#         112
  C:9378H         LINE#         125
  C:937AH         LINE#         126
  -------         ENDPROC       DETECTDECODERINPUT
  -------         PROC          COMPOSITE1INPUT
  C:A044H         LINE#         133
  C:A044H         LINE#         134
  C:A044H         LINE#         135
  C:A04DH         LINE#         136
  C:A056H         LINE#         137
  -------         ENDPROC       COMPOSITE1INPUT
  -------         PROC          COMPOSITE2INPUT
  C:A068H         LINE#         141
  C:A068H         LINE#         142
  C:A068H         LINE#         143
  C:A071H         LINE#         144
  C:A07AH         LINE#         145
  -------         ENDPROC       COMPOSITE2INPUT
  -------         PROC          GETLCDPOWERSTATE
  -------         DO            
  D:0007H         SYMBOL        val
  -------         ENDDO         
  C:A393H         LINE#         239
  C:A393H         LINE#         240
  C:A393H         LINE#         243
  C:A39AH         LINE#         244
  C:A39DH         LINE#         245
  C:A3A1H         LINE#         246
  C:A3A1H         LINE#         247
  -------         ENDPROC       GETLCDPOWERSTATE
  -------         PROC          ON_LVDS
  C:0029H         LINE#         328
  C:0029H         LINE#         329
  C:0029H         LINE#         339
  -------         ENDPROC       ON_LVDS
BL51 BANKED LINKER/LOCATER V6.22                                                      12/09/2015  15:21:44  PAGE 119


  -------         PROC          OFF_LVDS
  C:002AH         LINE#         341
  C:002AH         LINE#         342
  C:002AH         LINE#         353
  -------         ENDPROC       OFF_LVDS
  C:8C17H         SYMBOL        L?0035
  -------         PROC          _LCDPOWERON
  X:0000H         SYMBOL        mute
  C:8BA3H         LINE#         355
  C:8BA3H         LINE#         356
  C:8BA3H         LINE#         357
  C:8BA3H         LINE#         358
  C:8BB5H         LINE#         360
  C:8BBAH         LINE#         363
  C:8BC0H         LINE#         364
  C:8BC0H         LINE#         366
  C:8BC3H         LINE#         368
  C:8BC6H         LINE#         370
  C:8BCCH         LINE#         371
  C:8BCEH         LINE#         375
  C:8BD3H         LINE#         376
  C:8BD8H         LINE#         378
  C:8BDDH         LINE#         383
  C:8BE2H         LINE#         384
  C:8BE5H         LINE#         387
  C:8BEEH         LINE#         415
  C:8BF3H         LINE#         417
  C:8BFAH         LINE#         418
  C:8BFDH         LINE#         419
  C:8C06H         LINE#         420
  C:8C0DH         LINE#         421
  C:8C16H         LINE#         422
  C:8C16H         LINE#         425
  -------         ENDPROC       _LCDPOWERON
  C:9B80H         SYMBOL        L?0034
  -------         PROC          LCDPOWEROFF
  C:9B53H         LINE#         441
  C:9B53H         LINE#         442
  C:9B53H         LINE#         449
  C:9B55H         LINE#         450
  C:9B58H         LINE#         451
  C:9B5AH         LINE#         452
  C:9B5DH         LINE#         453
  C:9B66H         LINE#         455
  C:9B69H         LINE#         468
  C:9B6CH         LINE#         469
  C:9B73H         LINE#         470
  C:9B75H         LINE#         471
  C:9B7CH         LINE#         472
  C:9B7FH         LINE#         475
  -------         ENDPROC       LCDPOWEROFF
  -------         PROC          _MAPPING1
  X:0029H         SYMBOL        fromValue
  X:002BH         SYMBOL        fromRange
  X:002EH         SYMBOL        toValue
  X:0031H         SYMBOL        toRange
  -------         DO            
BL51 BANKED LINKER/LOCATER V6.22                                                      12/09/2015  15:21:44  PAGE 120


  X:0034H         SYMBOL        a
  X:0036H         SYMBOL        b
  -------         ENDDO         
  C:80DDH         LINE#         1719
  C:80E9H         LINE#         1720
  C:80E9H         LINE#         1727
  C:80FBH         LINE#         1728
  C:810FH         LINE#         1729
  C:8121H         LINE#         1731
  C:8128H         LINE#         1733
  C:8138H         LINE#         1734
  C:813BH         LINE#         1735
  C:813BH         LINE#         1736
  C:8144H         LINE#         1737
  C:814AH         LINE#         1739
  C:8151H         LINE#         1741
  C:817FH         LINE#         1742
  C:817FH         LINE#         1749
  C:8181H         LINE#         1751
  -------         ENDPROC       _MAPPING1
  -------         ENDMOD        TW88

  -------         MODULE        UDFONT
  C:0000H         SYMBOL        _ICE_DUMMY_
  C:17DDH         PUBLIC        OSD_Color_LookUp_Data_Table
  C:17EDH         PUBLIC        RAMFONTDATA
  -------         ENDMOD        UDFONT

  -------         MODULE        HS_KEYREMO
  C:0000H         SYMBOL        _ICE_DUMMY_
  D:00E8H         PUBLIC        P4
  C:6DF4H         PUBLIC        JumpTable
  B:0022H.2       PUBLIC        ParkFlag
  B:0080H.0       PUBLIC        P0_0
  B:0080H.1       PUBLIC        P0_1
  B:0080H.2       PUBLIC        P0_2
  B:0080H.3       PUBLIC        P0_3
  B:0022H.3       PUBLIC        AVFlag
  X:00E4H         PUBLIC        SelectBoxMode
  C:8AA6H         PUBLIC        SetSelectMode
  C:599DH         PUBLIC        _TriggerHandler
  C:9EE3H         PUBLIC        SetRightSource
  C:9A9CH         PUBLIC        _SetSourceMode
  C:94D6H         PUBLIC        SetRearSource
  X:00E5H         PUBLIC        TimeStep
  C:A0F5H         PUBLIC        SetLeftSource
  C:85D8H         PUBLIC        CheckTrigger
  C:6E15H         PUBLIC        JumpTable_S
  X:00E6H         PUBLIC        Attr_A
  X:00E7H         PUBLIC        Attr_B
  X:00E8H         PUBLIC        Attr_C
  X:00E9H         PUBLIC        NowModeState
  X:00EAH         PUBLIC        Attr_R
  C:93DBH         PUBLIC        SetJumpMode
  B:0022H.4       PUBLIC        VGAAudio
  X:00EBH         SYMBOL        GaugeVStart
  C:6E11H         PUBLIC        SEQTable
BL51 BANKED LINKER/LOCATER V6.22                                                      12/09/2015  15:21:44  PAGE 121


  X:00ECH         PUBLIC        TriggerFlag
  X:00EDH         PUBLIC        SelectBoxADC
  X:00EEH         PUBLIC        TriggerMode
  X:00EFH         PUBLIC        SEQIndex
  X:00F0H         PUBLIC        SEQFlag
  C:9386H         PUBLIC        SetNowMode
  C:6E09H         PUBLIC        RightTable
  C:A138H         PUBLIC        SEQMode
  C:6E03H         PUBLIC        RearTable
  C:6E0DH         PUBLIC        LeftTable
  C:6DD2H         PUBLIC        ParkTable
  C:8DF2H         SYMBOL        Com007F
  C:8DF2H         SYMBOL        L?0128
  C:8DF6H         SYMBOL        L?0129
  C:8E0EH         SYMBOL        L?0130
  C:8E15H         SYMBOL        L?0131
  C:8E27H         SYMBOL        L?0134
  C:8E2BH         SYMBOL        L?0135
  C:8E32H         SYMBOL        L?0139
  C:8E3CH         SYMBOL        L?0140
  C:8E46H         SYMBOL        L?0141
  C:8E46H         SYMBOL        L?0142
  C:8E4DH         SYMBOL        L?0143
  C:8E57H         SYMBOL        L?0144
  C:8E57H         SYMBOL        L?0145
  -------         PROC          COM007F
  -------         ENDPROC       COM007F
  -------         PROC          _SETSOURCEMODE
  D:0007H         SYMBOL        Index
  D:0005H         SYMBOL        attr0
  D:0003H         SYMBOL        attr1
  X:0015H         SYMBOL        attr2
  X:0016H         SYMBOL        attr3
  C:9A9CH         LINE#         193
  C:9A9CH         LINE#         194
  C:9A9CH         LINE#         195
  C:9AA7H         LINE#         196
  C:9AA7H         LINE#         197
  C:9AA7H         LINE#         198
  C:9AA7H         LINE#         199
  C:9AA7H         LINE#         200
  C:9AA7H         LINE#         201
  C:9AA7H         LINE#         202
  C:9AA7H         LINE#         203
  C:9AA7H         LINE#         204
  C:9AA7H         LINE#         205
  C:9AA7H         LINE#         206
  C:9AA7H         LINE#         207
  C:9AA7H         LINE#         208
  C:9AA7H         LINE#         211
  C:9AA7H         LINE#         214
  C:9AA7H         LINE#         215
  C:9AA7H         LINE#         216
  C:9AA7H         LINE#         217
  C:9AA7H         LINE#         218
  C:9AA7H         LINE#         219
  C:9AA7H         LINE#         220
BL51 BANKED LINKER/LOCATER V6.22                                                      12/09/2015  15:21:44  PAGE 122


  C:9AA7H         LINE#         221
  C:9AA7H         LINE#         222
  C:9AA7H         LINE#         223
  C:9AA7H         LINE#         224
  C:9AA7H         LINE#         225
  C:9AA7H         LINE#         226
  C:9AA7H         LINE#         227
  C:9AA7H         LINE#         228
  C:9AA7H         LINE#         229
  C:9AA7H         LINE#         230
  C:9AA7H         LINE#         231
  C:9AA7H         LINE#         232
  C:9AA7H         LINE#         233
  C:9AA7H         LINE#         235
  C:9AC0H         LINE#         236
  C:9AC2H         LINE#         298
  C:9AC4H         LINE#         318
  C:9AC4H         LINE#         319
  C:9AC9H         LINE#         323
  C:9AC9H         LINE#         325
  C:9AC9H         LINE#         326
  C:9ACEH         LINE#         327
  C:9AD1H         LINE#         328
  C:9AD9H         LINE#         329
  C:9AD9H         LINE#         330
  C:9AD9H         LINE#         331
  -------         ENDPROC       _SETSOURCEMODE
  -------         PROC          SETSELECTMODE
  -------         DO            
  X:0004H         SYMBOL        Maxsource
  -------         ENDDO         
  C:8AA6H         LINE#         334
  C:8AA6H         LINE#         335
  C:8AA6H         LINE#         340
  C:8AACH         LINE#         360
  C:8AB1H         LINE#         361
  C:8AB1H         LINE#         362
  C:8AB7H         LINE#         386
  C:8ABAH         LINE#         387
  C:8ABAH         LINE#         388
  C:8ABDH         LINE#         389
  C:8ABDH         LINE#         390
  C:8AC2H         LINE#         391
  C:8AC4H         LINE#         392
  C:8AC6H         LINE#         394
  C:8AC6H         LINE#         395
  C:8ACEH         LINE#         396
  C:8AD0H         LINE#         397
  C:8AD4H         LINE#         398
  C:8ADBH         LINE#         399
  C:8AE1H         LINE#         400
  C:8AE1H         LINE#         404
  C:8AE4H         LINE#         406
  C:8AE6H         LINE#         424
  C:8AE6H         LINE#         425
  C:8AEDH         LINE#         426
  C:8AEDH         LINE#         442
BL51 BANKED LINKER/LOCATER V6.22                                                      12/09/2015  15:21:44  PAGE 123


  C:8AF0H         LINE#         445
  C:8AF2H         LINE#         447
  C:8AF2H         LINE#         473
  C:8AF2H         LINE#         480
  C:8AF8H         LINE#         481
  C:8AF8H         LINE#         482
  C:8AF8H         LINE#         483
  C:8AF8H         LINE#         491
  C:8AFEH         LINE#         493
  C:8B0BH         LINE#         494
  C:8B0BH         LINE#         495
  C:8B12H         LINE#         496
  C:8B12H         LINE#         497
  C:8B18H         LINE#         500
  C:8B22H         LINE#         501
  C:8B25H         LINE#         512
  -------         ENDPROC       SETSELECTMODE
  -------         PROC          SEQMODE
  C:A138H         LINE#         646
  C:A138H         LINE#         647
  C:A138H         LINE#         653
  C:A146H         LINE#         669
  C:A14FH         LINE#         672
  C:A153H         LINE#         675
  C:A158H         LINE#         679
  -------         ENDPROC       SEQMODE
  -------         PROC          SETJUMPMODE
  -------         DO            
  X:0004H         SYMBOL        val
  -------         ENDDO         
  C:93DBH         LINE#         681
  C:93DBH         LINE#         682
  C:93DBH         LINE#         685
  C:93E3H         LINE#         686
  C:93E3H         LINE#         687
  C:93EEH         LINE#         689
  C:93F3H         LINE#         690
  C:93F9H         LINE#         692
  C:9400H         LINE#         693
  C:9408H         LINE#         701
  C:940AH         LINE#         703
  C:940AH         LINE#         705
  C:940BH         LINE#         707
  C:9411H         LINE#         708
  C:941BH         LINE#         713
  C:941BH         LINE#         714
  C:9421H         LINE#         717
  C:942BH         LINE#         718
  C:942EH         LINE#         720
  -------         ENDPROC       SETJUMPMODE
  -------         PROC          SETNOWMODE
  -------         DO            
  X:001DH         SYMBOL        val
  -------         ENDDO         
  C:9386H         LINE#         810
  C:9386H         LINE#         811
  C:9386H         LINE#         813
BL51 BANKED LINKER/LOCATER V6.22                                                      12/09/2015  15:21:44  PAGE 124


  C:9396H         LINE#         814
  C:939CH         LINE#         815
  C:939CH         LINE#         817
  C:93A2H         LINE#         818
  C:93A8H         LINE#         822
  C:93ADH         LINE#         823
  C:93AEH         LINE#         825
  C:93AEH         LINE#         826
  C:93BAH         LINE#         828
  C:93BFH         LINE#         829
  C:93C5H         LINE#         831
  C:93CCH         LINE#         833
  C:93DAH         LINE#         837
  C:93DAH         LINE#         838
  -------         ENDPROC       SETNOWMODE
  -------         PROC          SETREARSOURCE
  -------         DO            
  X:000DH         SYMBOL        rev
  -------         ENDDO         
  C:94D6H         LINE#         840
  C:94D6H         LINE#         841
  C:94D6H         LINE#         844
  C:94E2H         LINE#         845
  C:94FDH         LINE#         856
  C:9508H         LINE#         861
  C:9508H         LINE#         874
  C:9511H         LINE#         880
  C:9511H         LINE#         883
  C:9524H         LINE#         884
  C:9527H         LINE#         886
  -------         ENDPROC       SETREARSOURCE
  -------         PROC          SETLEFTSOURCE
  -------         DO            
  D:0007H         SYMBOL        rev
  -------         ENDDO         
  C:A0F5H         LINE#         888
  C:A0F5H         LINE#         889
  C:A0F5H         LINE#         896
  C:A0FCH         LINE#         898
  -------         ENDPROC       SETLEFTSOURCE
  -------         PROC          SETRIGHTSOURCE
  -------         DO            
  D:0007H         SYMBOL        rev
  -------         ENDDO         
  C:9EE3H         LINE#         904
  C:9EE3H         LINE#         905
  C:9EE3H         LINE#         911
  C:9EEAH         LINE#         913
  -------         ENDPROC       SETRIGHTSOURCE
  C:8661H         SYMBOL        L?0136
  -------         PROC          CHECKTRIGGER
  -------         DO            
  X:0018H         SYMBOL        TriggerFlagtemp
  -------         ENDDO         
  C:85D8H         LINE#         951
  C:85D8H         LINE#         952
  C:85D8H         LINE#         955
BL51 BANKED LINKER/LOCATER V6.22                                                      12/09/2015  15:21:44  PAGE 125


  C:85E0H         LINE#         956
  C:85E5H         LINE#         958
  C:85E7H         LINE#         959
  C:85EAH         LINE#         960
  C:85EAH         LINE#         962
  C:85F0H         LINE#         963
  C:85F3H         LINE#         964
  C:85FAH         LINE#         965
  C:85FAH         LINE#         967
  C:85FCH         LINE#         968
  C:85FFH         LINE#         969
  C:85FFH         LINE#         970
  C:8602H         LINE#         971
  C:8605H         LINE#         972
  C:860CH         LINE#         973
  C:860CH         LINE#         975
  C:860EH         LINE#         976
  C:8611H         LINE#         977
  C:8611H         LINE#         978
  C:8614H         LINE#         979
  C:8617H         LINE#         980
  C:861EH         LINE#         981
  C:861EH         LINE#         984
  C:8620H         LINE#         985
  C:8623H         LINE#         986
  C:8623H         LINE#         987
  C:862AH         LINE#         988
  C:862DH         LINE#         989
  C:862FH         LINE#         991
  C:8631H         LINE#         993
  C:8633H         LINE#         1025
  C:8640H         LINE#         1026
  C:864DH         LINE#         1029
  C:8656H         LINE#         1030
  C:865BH         LINE#         1032
  C:8660H         LINE#         1033
  -------         ENDPROC       CHECKTRIGGER
  C:5B55H         SYMBOL        L?0132
  C:5B60H         SYMBOL        L?0133
  C:5B6AH         SYMBOL        L?0137
  C:5B76H         SYMBOL        L?0138
  -------         PROC          _TRIGGERHANDLER
  X:0003H         SYMBOL        T_Flag
  -------         DO            
  X:0004H         SYMBOL        i
  X:0005H         SYMBOL        ReverseMask
  X:0006H         SYMBOL        LeftMask
  X:0007H         SYMBOL        RightMask
  X:0008H         SYMBOL        CamCMask
  X:0009H         SYMBOL        CamDMask
  X:000AH         SYMBOL        VGAMask
  X:000BH         SYMBOL        delaytrigger
  X:000CH         SYMBOL        j
  -------         ENDDO         
  C:599DH         LINE#         1036
  C:59A2H         LINE#         1037
  C:59A2H         LINE#         1046
BL51 BANKED LINKER/LOCATER V6.22                                                      12/09/2015  15:21:44  PAGE 126


  C:59ABH         LINE#         1047
  C:59ABH         LINE#         1048
  C:59ACH         LINE#         1049
  C:59B0H         LINE#         1050
  C:59B4H         LINE#         1051
  C:59B8H         LINE#         1052
  C:59BCH         LINE#         1053
  C:59C0H         LINE#         1054
  C:59C2H         LINE#         1056
  C:59C2H         LINE#         1057
  C:59C5H         LINE#         1058
  C:59C9H         LINE#         1059
  C:59CDH         LINE#         1060
  C:59D1H         LINE#         1061
  C:59D5H         LINE#         1062
  C:59D9H         LINE#         1063
  C:59D9H         LINE#         1065
  C:59EAH         LINE#         1066
  C:59EAH         LINE#         1067
  C:59F5H         LINE#         1068
  C:59F5H         LINE#         1073
  C:59FCH         LINE#         1075
  C:59FCH         LINE#         1076
  C:59FCH         LINE#         1077
  C:59FCH         LINE#         1078
  C:59FFH         LINE#         1082
  C:59FFH         LINE#         1092
  C:5A06H         LINE#         1093
  C:5A0CH         LINE#         1094
  C:5A0FH         LINE#         1095
  C:5A15H         LINE#         1097
  C:5A16H         LINE#         1099
  C:5A16H         LINE#         1101
  C:5A27H         LINE#         1102
  C:5A27H         LINE#         1103
  C:5A32H         LINE#         1104
  C:5A32H         LINE#         1109
  C:5A39H         LINE#         1111
  C:5A39H         LINE#         1112
  C:5A39H         LINE#         1113
  C:5A39H         LINE#         1114
  C:5A3CH         LINE#         1118
  C:5A3CH         LINE#         1128
  C:5A43H         LINE#         1129
  C:5A46H         LINE#         1130
  C:5A4CH         LINE#         1131
  C:5A4FH         LINE#         1132
  C:5A55H         LINE#         1134
  C:5A56H         LINE#         1136
  C:5A56H         LINE#         1138
  C:5A67H         LINE#         1139
  C:5A67H         LINE#         1140
  C:5A72H         LINE#         1141
  C:5A72H         LINE#         1146
  C:5A79H         LINE#         1148
  C:5A79H         LINE#         1149
  C:5A7CH         LINE#         1150
BL51 BANKED LINKER/LOCATER V6.22                                                      12/09/2015  15:21:44  PAGE 127


  C:5A7FH         LINE#         1151
  C:5A82H         LINE#         1155
  C:5A82H         LINE#         1165
  C:5A89H         LINE#         1166
  C:5A8CH         LINE#         1167
  C:5A92H         LINE#         1168
  C:5A95H         LINE#         1169
  C:5A9BH         LINE#         1171
  C:5A9CH         LINE#         1173
  C:5A9CH         LINE#         1242
  C:5AA7H         LINE#         1243
  C:5AA7H         LINE#         1244
  C:5AAEH         LINE#         1246
  C:5AAEH         LINE#         1268
  C:5ABDH         LINE#         1269
  C:5ABDH         LINE#         1270
  C:5ABDH         LINE#         1271
  C:5ABFH         LINE#         1272
  C:5AC1H         LINE#         1274
  C:5AC1H         LINE#         1275
  C:5AC3H         LINE#         1276
  C:5AC5H         LINE#         1278
  C:5AC5H         LINE#         1279
  C:5AD1H         LINE#         1280
  C:5AD3H         LINE#         1293
  C:5AD3H         LINE#         1294
  C:5AD3H         LINE#         1295
  C:5AD3H         LINE#         1296
  C:5AD3H         LINE#         1297
  C:5AD8H         LINE#         1298
  C:5AD8H         LINE#         1299
  C:5AD8H         LINE#         1302
  C:5AE8H         LINE#         1303
  C:5AE8H         LINE#         1305
  C:5AEDH         LINE#         1306
  C:5AEDH         LINE#         1307
  C:5AF0H         LINE#         1308
  C:5AF6H         LINE#         1310
  C:5AFDH         LINE#         1311
  C:5B09H         LINE#         1312
  C:5B11H         LINE#         1314
  C:5B11H         LINE#         1315
  C:5B17H         LINE#         1316
  C:5B1AH         LINE#         1319
  C:5B20H         LINE#         1321
  C:5B20H         LINE#         1323
  C:5B27H         LINE#         1324
  C:5B27H         LINE#         1325
  C:5B29H         LINE#         1326
  C:5B2DH         LINE#         1327
  C:5B30H         LINE#         1328
  C:5B30H         LINE#         1331
  C:5B33H         LINE#         1337
  C:5B36H         LINE#         1340
  C:5B40H         LINE#         1341
  C:5B43H         LINE#         1343
  C:5B43H         LINE#         1363
BL51 BANKED LINKER/LOCATER V6.22                                                      12/09/2015  15:21:44  PAGE 128


  C:5B43H         LINE#         1367
  C:5B46H         LINE#         1368
  C:5B46H         LINE#         1369
  C:5B48H         LINE#         1371
  C:5B4EH         LINE#         1375
  C:5B4EH         LINE#         1376
  C:5B51H         LINE#         1377
  C:5B54H         LINE#         1378
  C:5B54H         LINE#         1379
  C:5B54H         LINE#         1381
  -------         ENDPROC       _TRIGGERHANDLER
  -------         ENDMOD        HS_KEYREMO

  -------         MODULE        HS_DISPLAYOSD
  C:0000H         SYMBOL        _ICE_DUMMY_
  C:A3A2H         PUBLIC        ClearGAUGEINFO
  C:7DB6H         PUBLIC        GaugeString1
  C:7DBAH         PUBLIC        GaugeString2
  C:7DBEH         PUBLIC        GaugeString3
  C:7DC2H         PUBLIC        GaugeString4
  C:7DC6H         PUBLIC        GaugeString5
  C:7DDFH         PUBLIC        GaugeString6
  C:7DFCH         PUBLIC        GaugeString7
  C:7023H         PUBLIC        DisplayGaugeOSD
  C:7E19H         PUBLIC        Init_Osd_DisplayGAUGEWindow
  X:010CH         SYMBOL        GaugeVStart
  C:942FH         PUBLIC        DisplayFWVersion
  B:0023H.2       PUBLIC        Init_DisplayInput
  C:7D9FH         PUBLIC        GaugeString
  C:7E2CH         PUBLIC        _DisplayInformation
  C:9F0CH         SYMBOL        Com0015
  C:9F0CH         SYMBOL        L?0022
  C:9F10H         SYMBOL        L?0023
  C:9F12H         SYMBOL        L?0024
  C:9F19H         SYMBOL        L?0026
  C:9F20H         SYMBOL        L?0028
  C:9F20H         SYMBOL        L?0029
  C:9F27H         SYMBOL        L?0030
  C:9F2EH         SYMBOL        L?0031
  C:9F2EH         SYMBOL        L?0032
  -------         PROC          COM0015
  -------         ENDPROC       COM0015
  -------         PROC          DISPLAYGAUGEOSD
  -------         DO            
  X:000EH         SYMBOL        i
  -------         ENDDO         
  C:7023H         LINE#         82
  C:7023H         LINE#         116
  C:7023H         LINE#         119
  C:7026H         LINE#         120
  C:702CH         LINE#         121
  C:7034H         LINE#         122
  C:703DH         LINE#         124
  C:7043H         LINE#         127
  C:7050H         LINE#         128
  C:7057H         LINE#         130
  C:707CH         LINE#         132
BL51 BANKED LINKER/LOCATER V6.22                                                      12/09/2015  15:21:44  PAGE 129


  C:7086H         LINE#         133
  C:7096H         LINE#         134
  C:70A6H         LINE#         136
  C:70B1H         LINE#         137
  C:70BBH         LINE#         138
  C:70C9H         LINE#         140
  C:70D1H         LINE#         141
  C:70D7H         LINE#         143
  C:70E8H         LINE#         145
  C:70F3H         LINE#         146
  C:70FDH         LINE#         147
  C:710DH         LINE#         149
  C:7112H         LINE#         151
  C:7119H         LINE#         152
  C:711EH         LINE#         153
  -------         ENDPROC       DISPLAYGAUGEOSD
  -------         PROC          CLEARGAUGEINFO
  C:A3A2H         LINE#         156
  C:A3A2H         LINE#         157
  C:A3A2H         LINE#         158
  C:A3A9H         LINE#         159
  C:A3B0H         LINE#         160
  -------         ENDPROC       CLEARGAUGEINFO
  C:7EC3H         SYMBOL        L?0025
  C:7ED0H         SYMBOL        L?0027
  -------         PROC          _DISPLAYINFORMATION
  X:0004H         SYMBOL        info
  C:7E2CH         LINE#         234
  C:7E31H         LINE#         235
  C:7E31H         LINE#         241
  C:7E37H         LINE#         243
  C:7E3AH         LINE#         244
  C:7E42H         LINE#         246
  C:7E56H         LINE#         247
  C:7E56H         LINE#         248
  C:7E56H         LINE#         261
  C:7E60H         LINE#         262
  C:7E66H         LINE#         264
  C:7E68H         LINE#         266
  C:7E68H         LINE#         279
  C:7E68H         LINE#         280
  C:7E77H         LINE#         282
  C:7E79H         LINE#         356
  C:7E79H         LINE#         357
  C:7E79H         LINE#         358
  C:7E88H         LINE#         359
  C:7E8AH         LINE#         361
  C:7E8AH         LINE#         362
  C:7E8AH         LINE#         363
  C:7E96H         LINE#         364
  C:7E98H         LINE#         366
  C:7E98H         LINE#         367
  C:7E98H         LINE#         368
  C:7EACH         LINE#         369
  C:7EACH         LINE#         377
  C:7EACH         LINE#         379
  C:7EB1H         LINE#         380
BL51 BANKED LINKER/LOCATER V6.22                                                      12/09/2015  15:21:44  PAGE 130


  C:7EB8H         LINE#         381
  C:7EBDH         LINE#         382
  C:7EC3H         LINE#         383
  -------         ENDPROC       _DISPLAYINFORMATION
  -------         PROC          DISPLAYFWVERSION
  C:942FH         LINE#         385
  C:942FH         LINE#         386
  C:942FH         LINE#         399
  C:9432H         LINE#         400
  C:9438H         LINE#         401
  C:9440H         LINE#         402
  C:944AH         LINE#         403
  C:9459H         LINE#         408
  C:946CH         LINE#         421
  C:9471H         LINE#         422
  C:9478H         LINE#         423
  C:947DH         LINE#         424
  -------         ENDPROC       DISPLAYFWVERSION
  -------         ENDMOD        HS_DISPLAYOSD

  -------         MODULE        AUDIO
  C:0000H         SYMBOL        _ICE_DUMMY_
  D:00E8H         PUBLIC        P4
  C:A47BH         PUBLIC        AudioMute
  B:0090H.7       PUBLIC        P1_7
  X:0106H         PUBLIC        AudioVol
  X:0107H         PUBLIC        PCAudioVol
  X:0108H         SYMBOL        GaugeVStart
  C:68B6H         PUBLIC        _ChangeVol
  -------         PROC          AUDIOMUTE
  B:0022H.7       SYMBOL        mute
  C:A47BH         LINE#         288
  C:A47BH         LINE#         289
  C:A47BH         LINE#         305
  C:A47EH         LINE#         306
  C:A481H         LINE#         308
  C:A483H         LINE#         317
  -------         ENDPROC       AUDIOMUTE
  C:69BFH         SYMBOL        L?0028
  C:69CFH         SYMBOL        L?0029
  -------         PROC          _CHANGEVOL
  D:0007H         SYMBOL        amount
  -------         DO            
  D:0006H         SYMBOL        chg
  X:0018H         SYMBOL        VCOM
  X:0019H         SYMBOL        AudioTemp
  -------         ENDDO         
  C:68B6H         LINE#         319
  C:68B6H         LINE#         320
  C:68B6H         LINE#         322
  C:68B8H         LINE#         327
  C:68BBH         LINE#         328
  C:68BBH         LINE#         329
  C:68BEH         LINE#         330
  C:68C0H         LINE#         332
  C:68C0H         LINE#         333
  C:68C8H         LINE#         334
BL51 BANKED LINKER/LOCATER V6.22                                                      12/09/2015  15:21:44  PAGE 131


  C:68C8H         LINE#         336
  C:68D4H         LINE#         337
  C:68D8H         LINE#         339
  C:68DDH         LINE#         341
  C:68E5H         LINE#         342
  C:68E5H         LINE#         343
  C:6907H         LINE#         344
  C:6909H         LINE#         345
  C:690BH         LINE#         347
  C:690BH         LINE#         348
  C:6922H         LINE#         349
  C:6924H         LINE#         350
  C:6924H         LINE#         352
  C:6927H         LINE#         353
  C:6927H         LINE#         354
  C:692DH         LINE#         356
  C:693EH         LINE#         357
  C:6946H         LINE#         359
  C:6959H         LINE#         361
  C:695EH         LINE#         363
  C:696AH         LINE#         365
  C:696FH         LINE#         372
  C:6979H         LINE#         373
  C:6979H         LINE#         389
  C:6983H         LINE#         391
  C:698FH         LINE#         392
  C:6993H         LINE#         394
  C:6998H         LINE#         396
  C:69A0H         LINE#         397
  C:69A0H         LINE#         398
  C:69A4H         LINE#         399
  C:69A7H         LINE#         400
  C:69A9H         LINE#         402
  C:69A9H         LINE#         403
  C:69ADH         LINE#         404
  C:69B0H         LINE#         405
  C:69B0H         LINE#         407
  C:69B3H         LINE#         408
  C:69B9H         LINE#         410
  C:69BEH         LINE#         412
  -------         ENDPROC       _CHANGEVOL
  -------         ENDMOD        AUDIO

  -------         MODULE        DEBUG
  C:0000H         SYMBOL        _ICE_DUMMY_
  D:00E8H         PUBLIC        P4
  -------         ENDMOD        DEBUG

  -------         MODULE        HS_DVRPROTOCOL
  C:0000H         SYMBOL        _ICE_DUMMY_
  X:0067H         PUBLIC        PresetMode
  B:0021H.5       PUBLIC        FormatStart
  X:0068H         PUBLIC        second
  X:0069H         PUBLIC        UpdateOK
  B:0021H.6       PUBLIC        SpeedDomeMode
  D:00E8H         PUBLIC        P4
  X:006AH         PUBLIC        DVR_Resolution
BL51 BANKED LINKER/LOCATER V6.22                                                      12/09/2015  15:21:44  PAGE 132


  X:006BH         PUBLIC        DVR_timebeginesmonth
  X:006CH         PUBLIC        Information
  X:007AH         PUBLIC        DVR_timebeginesweek
  X:007BH         PUBLIC        minute
  X:007CH         PUBLIC        DVR_RecordLength
  B:0021H.7       PUBLIC        DoorState
  X:007DH         PUBLIC        CommandBuffer
  X:007FH         PUBLIC        month
  X:0080H         PUBLIC        InformationLen
  B:0022H.0       PUBLIC        GetDVRStatusflag
  X:0081H         PUBLIC        DVR_daylightsaving
  X:0082H         PUBLIC        DVR_FPS
  X:0083H         PUBLIC        DVR_RecordMode
  X:0084H         PUBLIC        DVR_RecordStatus
  X:0085H         PUBLIC        DVR_Quality
  X:0086H         PUBLIC        day
  X:0087H         PUBLIC        hour
  B:0022H.1       PUBLIC        DVR_Ready
  X:0088H         PUBLIC        DVR_standardtimebeginesWeek
  X:0089H         PUBLIC        DVR_standardtimebeginesTime
  C:8C1FH         PUBLIC        Send_PelcoD_Command
  X:008AH         PUBLIC        DVR_PostAlarmLength
  X:008BH         PUBLIC        DVR_PreAlarmLength
  D:008DH         PUBLIC        TH1
  X:008CH         PUBLIC        DVR_sandardtimebeginesMonth
  C:5791H         PUBLIC        _CAM_TxCommand_toRS485
  X:008DH         PUBLIC        SerialNumber
  X:008EH         PUBLIC        DVR_System
  C:8A25H         PUBLIC        Send_PelcoP_Command
  X:008FH         PUBLIC        DVRVersion
  X:00A0H         PUBLIC        TriggerStatus
  X:00A1H         PUBLIC        PresetNumber
  X:00A2H         PUBLIC        year1
  X:00A3H         PUBLIC        year2
  X:00A4H         PUBLIC        DVR_SDCardAvailable
  D:00BAH         PUBLIC        S2BRT
  X:00A5H         PUBLIC        GPSState
  X:00A6H         PUBLIC        DVR_Busy
  X:00A7H         PUBLIC        DVR_timebeginesTime
  X:00A8H         PUBLIC        FormatStatus
  X:00A9H         PUBLIC        DVRVersionLen
  X:00AAH         PUBLIC        gb_P_Com
  X:00ACH         PUBLIC        DVR_OverWrite
  X:00ADH         PUBLIC        gb_PTZ_Speed
  X:00AEH         PUBLIC        DVR_TimeZone
  C:9C70H         SYMBOL        Com005D
  C:9C70H         SYMBOL        L?0094
  C:9C70H         SYMBOL        L?0095
  C:9C77H         SYMBOL        L?0096
  C:9C77H         SYMBOL        L?0097
  C:9C7AH         SYMBOL        L?0098
  C:9C82H         SYMBOL        L?0099
  C:9C82H         SYMBOL        L?0100
  C:9C8BH         SYMBOL        L?0101
  C:9C8BH         SYMBOL        L?0102
  C:9C94H         SYMBOL        L?0103
  C:9C94H         SYMBOL        L?0104
BL51 BANKED LINKER/LOCATER V6.22                                                      12/09/2015  15:21:44  PAGE 133


  C:9C9BH         SYMBOL        L?0105
  -------         PROC          COM005D
  -------         ENDPROC       COM005D
  -------         PROC          _CAM_TXCOMMAND_TORS485
  X:0004H         SYMBOL        Com_ID
  -------         DO            
  X:0005H         SYMBOL        j
  -------         ENDDO         
  C:5791H         LINE#         994
  C:5796H         LINE#         995
  C:5796H         LINE#         1001
  C:57A6H         LINE#         1002
  C:57A6H         LINE#         1003
  C:57A6H         LINE#         1005
  C:57B5H         LINE#         1006
  C:57C2H         LINE#         1007
  C:57C8H         LINE#         1009
  C:57D1H         LINE#         1010
  C:57D7H         LINE#         1012
  C:5803H         LINE#         1013
  C:5803H         LINE#         1026
  C:5803H         LINE#         1027
  C:5803H         LINE#         1028
  C:5808H         LINE#         1029
  C:5808H         LINE#         1030
  C:5808H         LINE#         1031
  C:5808H         LINE#         1032
  C:580AH         LINE#         1040
  C:580AH         LINE#         1041
  C:580FH         LINE#         1042
  C:580FH         LINE#         1043
  C:580FH         LINE#         1044
  C:580FH         LINE#         1045
  C:580FH         LINE#         1046
  C:5812H         LINE#         1048
  C:5812H         LINE#         1049
  C:5812H         LINE#         1050
  C:5818H         LINE#         1051
  C:5819H         LINE#         1052
  C:5819H         LINE#         1053
  C:5819H         LINE#         1054
  C:581CH         LINE#         1112
  C:581CH         LINE#         1113
  C:581CH         LINE#         1114
  C:5821H         LINE#         1115
  C:5821H         LINE#         1119
  C:5821H         LINE#         1120
  C:5821H         LINE#         1121
  C:5823H         LINE#         1122
  C:5823H         LINE#         1123
  C:5823H         LINE#         1124
  C:5828H         LINE#         1125
  C:5828H         LINE#         1129
  C:582BH         LINE#         1130
  C:582BH         LINE#         1131
  C:582DH         LINE#         1132
  C:582DH         LINE#         1133
BL51 BANKED LINKER/LOCATER V6.22                                                      12/09/2015  15:21:44  PAGE 134


  C:582DH         LINE#         1134
  C:5833H         LINE#         1135
  C:5836H         LINE#         1136
  C:583CH         LINE#         1138
  C:583FH         LINE#         1139
  C:5840H         LINE#         1140
  C:5840H         LINE#         1141
  C:5842H         LINE#         1142
  C:5842H         LINE#         1143
  C:5842H         LINE#         1144
  C:5848H         LINE#         1145
  C:584BH         LINE#         1146
  C:5851H         LINE#         1148
  C:5854H         LINE#         1149
  C:5858H         LINE#         1150
  C:5858H         LINE#         1151
  C:585AH         LINE#         1152
  C:585AH         LINE#         1153
  C:585AH         LINE#         1154
  C:5860H         LINE#         1155
  C:5863H         LINE#         1156
  C:5866H         LINE#         1157
  C:586CH         LINE#         1159
  C:586FH         LINE#         1160
  C:586FH         LINE#         1161
  C:5871H         LINE#         1162
  C:5871H         LINE#         1163
  C:5871H         LINE#         1164
  C:5877H         LINE#         1165
  C:587AH         LINE#         1166
  C:587DH         LINE#         1167
  C:5883H         LINE#         1169
  C:5886H         LINE#         1170
  C:5886H         LINE#         1171
  C:5888H         LINE#         1172
  C:5888H         LINE#         1173
  C:5888H         LINE#         1174
  C:588BH         LINE#         1175
  C:588BH         LINE#         1176
  C:588FH         LINE#         1177
  C:588FH         LINE#         1178
  C:5891H         LINE#         1179
  C:5891H         LINE#         1180
  C:5897H         LINE#         1181
  C:589AH         LINE#         1182
  C:589CH         LINE#         1183
  C:589EH         LINE#         1184
  C:58A1H         LINE#         1185
  C:58A1H         LINE#         1216
  C:58A1H         LINE#         1217
  C:58A1H         LINE#         1218
  C:58A1H         LINE#         1220
  C:58B0H         LINE#         1221
  C:58BDH         LINE#         1222
  C:58C3H         LINE#         1224
  C:58CBH         LINE#         1226
  C:58F7H         LINE#         1227
BL51 BANKED LINKER/LOCATER V6.22                                                      12/09/2015  15:21:44  PAGE 135


  C:58F7H         LINE#         1240
  C:58F7H         LINE#         1241
  C:58F7H         LINE#         1242
  C:58FCH         LINE#         1243
  C:58FCH         LINE#         1244
  C:58FCH         LINE#         1245
  C:58FCH         LINE#         1246
  C:58FEH         LINE#         1254
  C:58FEH         LINE#         1255
  C:5903H         LINE#         1256
  C:5903H         LINE#         1257
  C:5903H         LINE#         1258
  C:5903H         LINE#         1259
  C:5903H         LINE#         1260
  C:5906H         LINE#         1262
  C:5906H         LINE#         1263
  C:5906H         LINE#         1264
  C:590CH         LINE#         1265
  C:590DH         LINE#         1266
  C:590DH         LINE#         1267
  C:590DH         LINE#         1268
  C:5910H         LINE#         1320
  C:5910H         LINE#         1321
  C:5910H         LINE#         1322
  C:5916H         LINE#         1323
  C:5919H         LINE#         1324
  C:591FH         LINE#         1326
  C:5922H         LINE#         1327
  C:5922H         LINE#         1328
  C:5922H         LINE#         1329
  C:5924H         LINE#         1330
  C:5924H         LINE#         1331
  C:5924H         LINE#         1332
  C:592AH         LINE#         1333
  C:592DH         LINE#         1334
  C:5933H         LINE#         1336
  C:5936H         LINE#         1337
  C:5937H         LINE#         1338
  C:5937H         LINE#         1339
  C:5939H         LINE#         1340
  C:5939H         LINE#         1341
  C:5939H         LINE#         1342
  C:593FH         LINE#         1343
  C:5942H         LINE#         1344
  C:5945H         LINE#         1345
  C:594BH         LINE#         1347
  C:594EH         LINE#         1348
  C:594EH         LINE#         1349
  C:5950H         LINE#         1350
  C:5950H         LINE#         1351
  C:5950H         LINE#         1352
  C:5956H         LINE#         1353
  C:5959H         LINE#         1354
  C:595CH         LINE#         1355
  C:5962H         LINE#         1357
  C:5965H         LINE#         1358
  C:5965H         LINE#         1359
BL51 BANKED LINKER/LOCATER V6.22                                                      12/09/2015  15:21:44  PAGE 136


  C:5967H         LINE#         1360
  C:5967H         LINE#         1361
  C:5967H         LINE#         1362
  C:596CH         LINE#         1363
  C:596CH         LINE#         1367
  C:5973H         LINE#         1368
  C:5973H         LINE#         1369
  C:5975H         LINE#         1370
  C:5975H         LINE#         1371
  C:5975H         LINE#         1372
  C:597AH         LINE#         1373
  C:597AH         LINE#         1377
  C:5981H         LINE#         1378
  C:5981H         LINE#         1379
  C:5983H         LINE#         1380
  C:5983H         LINE#         1381
  C:5983H         LINE#         1382
  C:5986H         LINE#         1383
  C:5986H         LINE#         1384
  C:598AH         LINE#         1385
  C:598AH         LINE#         1386
  C:598CH         LINE#         1387
  C:598CH         LINE#         1388
  C:5992H         LINE#         1389
  C:5995H         LINE#         1390
  C:5997H         LINE#         1391
  C:5999H         LINE#         1392
  C:599CH         LINE#         1393
  C:599CH         LINE#         1424
  C:599CH         LINE#         1425
  C:599CH         LINE#         1498
  C:599CH         LINE#         1500
  -------         ENDPROC       _CAM_TXCOMMAND_TORS485
  -------         PROC          SEND_PELCOP_COMMAND
  -------         DO            
  X:0006H         SYMBOL        ii
  D:0004H         SYMBOL        j
  -------         ENDDO         
  C:8A25H         LINE#         1508
  C:8A25H         LINE#         1509
  C:8A25H         LINE#         1513
  C:8A2DH         LINE#         1514
  C:8A2FH         LINE#         1515
  C:8A47H         LINE#         1521
  C:8A55H         LINE#         1522
  C:8A55H         LINE#         1523
  C:8A55H         LINE#         1524
  C:8A58H         LINE#         1525
  C:8A5AH         LINE#         1526
  C:8A5AH         LINE#         1527
  C:8A5DH         LINE#         1528
  C:8A5FH         LINE#         1529
  C:8A5FH         LINE#         1530
  C:8A62H         LINE#         1531
  C:8A62H         LINE#         1532
  C:8A62H         LINE#         1534
  C:8A75H         LINE#         1535
BL51 BANKED LINKER/LOCATER V6.22                                                      12/09/2015  15:21:44  PAGE 137


  C:8A7CH         LINE#         1536
  C:8A8BH         LINE#         1537
  C:8A8BH         LINE#         1538
  C:8A93H         LINE#         1539
  C:8A9BH         LINE#         1540
  C:8AA2H         LINE#         1541
  C:8AA5H         LINE#         1546
  -------         ENDPROC       SEND_PELCOP_COMMAND
  -------         PROC          SEND_PELCOD_COMMAND
  -------         DO            
  X:0006H         SYMBOL        ii
  D:0007H         SYMBOL        j
  -------         ENDDO         
  C:8C1FH         LINE#         1554
  C:8C1FH         LINE#         1555
  C:8C1FH         LINE#         1559
  C:8C27H         LINE#         1560
  C:8C29H         LINE#         1561
  C:8C39H         LINE#         1563
  C:8C47H         LINE#         1564
  C:8C47H         LINE#         1565
  C:8C47H         LINE#         1566
  C:8C4AH         LINE#         1567
  C:8C4CH         LINE#         1568
  C:8C4CH         LINE#         1569
  C:8C4FH         LINE#         1570
  C:8C51H         LINE#         1571
  C:8C51H         LINE#         1572
  C:8C54H         LINE#         1573
  C:8C54H         LINE#         1574
  C:8C54H         LINE#         1576
  C:8C6AH         LINE#         1577
  C:8C71H         LINE#         1580
  C:8C80H         LINE#         1581
  C:8C80H         LINE#         1582
  C:8C88H         LINE#         1583
  C:8C90H         LINE#         1585
  C:8C97H         LINE#         1586
  C:8C9AH         LINE#         1589
  -------         ENDPROC       SEND_PELCOD_COMMAND
  -------         ENDMOD        HS_DVRPROTOCOL

  -------         MODULE        ?C?COPY
  C:3EE2H         PUBLIC        ?C?COPY
  -------         ENDMOD        ?C?COPY

  -------         MODULE        ?C?CLDPTR
  C:3F08H         PUBLIC        ?C?CLDPTR
  -------         ENDMOD        ?C?CLDPTR

  -------         MODULE        ?C?CLDOPTR
  C:3F21H         PUBLIC        ?C?CLDOPTR
  -------         ENDMOD        ?C?CLDOPTR

  -------         MODULE        ?C?CSTPTR
  C:3F4EH         PUBLIC        ?C?CSTPTR
  -------         ENDMOD        ?C?CSTPTR
BL51 BANKED LINKER/LOCATER V6.22                                                      12/09/2015  15:21:44  PAGE 138



  -------         MODULE        ?C?IMUL
  C:3F60H         PUBLIC        ?C?IMUL
  -------         ENDMOD        ?C?IMUL

  -------         MODULE        ?C?UIDIV
  C:3F72H         PUBLIC        ?C?UIDIV
  -------         ENDMOD        ?C?UIDIV

  -------         MODULE        ?C?SIDIV
  C:3FC7H         PUBLIC        ?C?SIDIV
  -------         ENDMOD        ?C?SIDIV

  -------         MODULE        ?C?IILDX
  C:3FFDH         PUBLIC        ?C?IILDX
  -------         ENDMOD        ?C?IILDX

  -------         MODULE        ?C?ILDPTR
  C:4013H         PUBLIC        ?C?ILDPTR
  -------         ENDMOD        ?C?ILDPTR

  -------         MODULE        ?C?ILDOPTR
  C:403EH         PUBLIC        ?C?ILDOPTR
  -------         ENDMOD        ?C?ILDOPTR

  -------         MODULE        ?C?ISTPTR
  C:4076H         PUBLIC        ?C?ISTPTR
  -------         ENDMOD        ?C?ISTPTR

  -------         MODULE        ?C?LMUL
  C:4095H         PUBLIC        ?C?LMUL
  -------         ENDMOD        ?C?LMUL

  -------         MODULE        ?C?ULDIV
  C:4120H         PUBLIC        ?C?ULDIV
  -------         ENDMOD        ?C?ULDIV

  -------         MODULE        ?C?ULCMP
  C:41B2H         PUBLIC        ?C?ULCMP
  -------         ENDMOD        ?C?ULCMP

  -------         MODULE        ?C?SLSHR
  C:41C3H         PUBLIC        ?C?SLSHR
  -------         ENDMOD        ?C?SLSHR

  -------         MODULE        ?C?LLDPTR
  C:41D7H         PUBLIC        ?C?LLDPTR
  -------         ENDMOD        ?C?LLDPTR

  -------         MODULE        ?C?LLDXDATA
  C:41F7H         PUBLIC        ?C?LLDXDATA
  -------         ENDMOD        ?C?LLDXDATA

  -------         MODULE        ?C?LLDXDATA0
  C:4203H         PUBLIC        ?C?LLDXDATA0
  -------         ENDMOD        ?C?LLDXDATA0

BL51 BANKED LINKER/LOCATER V6.22                                                      12/09/2015  15:21:44  PAGE 139


  -------         MODULE        ?C?LSTXDATA
  C:420FH         PUBLIC        ?C?LSTXDATA
  -------         ENDMOD        ?C?LSTXDATA

  -------         MODULE        ?C?LSTKXDATA
  C:421BH         PUBLIC        ?C?LSTKXDATA
  -------         ENDMOD        ?C?LSTKXDATA

  -------         MODULE        ?C?OFFXADD
  C:424CH         PUBLIC        ?C?OFFXADD
  -------         ENDMOD        ?C?OFFXADD

  -------         MODULE        ?C?PLDXDATA
  C:4258H         PUBLIC        ?C?PLDXDATA
  -------         ENDMOD        ?C?PLDXDATA

  -------         MODULE        ?C?PLDIXDATA
  C:4261H         PUBLIC        ?C?PLDIXDATA
  -------         ENDMOD        ?C?PLDIXDATA

  -------         MODULE        ?C?PSTXDATA
  C:4278H         PUBLIC        ?C?PSTXDATA
  -------         ENDMOD        ?C?PSTXDATA

  -------         MODULE        ?C?PLDCODE
  C:4281H         PUBLIC        ?C?PLDCODE
  -------         ENDMOD        ?C?PLDCODE

  -------         MODULE        ?C?PLDPTR
  C:428DH         PUBLIC        ?C?PLDPTR
  -------         ENDMOD        ?C?PLDPTR

  -------         MODULE        ?C?PLDOPTR
  C:42ADH         PUBLIC        ?C?PLDOPTR
  -------         ENDMOD        ?C?PLDOPTR

  -------         MODULE        ?C?CCASE
  C:42DDH         PUBLIC        ?C?CCASE
  -------         ENDMOD        ?C?CCASE

  -------         MODULE        ABS
  C:A40AH         PUBLIC        _ABS
  -------         ENDMOD        ABS

  -------         MODULE        ?C?LLDIDATA
  C:4303H         PUBLIC        ?C?LLDIDATA
  -------         ENDMOD        ?C?LLDIDATA

  -------         MODULE        ?C?LLDPDATA
  C:430FH         PUBLIC        ?C?LLDPDATA
  -------         ENDMOD        ?C?LLDPDATA

  -------         MODULE        ?C?LLDCODE
  C:431BH         PUBLIC        ?C?LLDCODE
  -------         ENDMOD        ?C?LLDCODE

  -------         MODULE        ?C?PLDIDATA
BL51 BANKED LINKER/LOCATER V6.22                                                      12/09/2015  15:21:44  PAGE 140


  C:432BH         PUBLIC        ?C?PLDIDATA
  -------         ENDMOD        ?C?PLDIDATA

  -------         MODULE        ?C?PLDPDATA
  C:4334H         PUBLIC        ?C?PLDPDATA
  -------         ENDMOD        ?C?PLDPDATA

*** WARNING L13: RECURSIVE CALL TO SEGMENT
    SEGMENT: ?PR?_SETSOURCEMODE?HS_KEYREMO
    CALLER:  ?PR?SETNOWMODE?HS_KEYREMO

Program Size: data=107.3 xdata=269 code=42223
LINK/LOCATE RUN COMPLETE.  1 WARNING(S),  0 ERROR(S)
