BL51 BANKED LINKER/LOCATER V6.22.2.0                                                    06/22/2022  16:23:04  PAGE 1


BL51 BANKED LINKER/LOCATER V6.22.2.0, INVOKED BY:
C:\KEIL_V5\C51\BIN\BL51.EXE .\Output\adc.obj, .\Output\cpu.obj, .\Output\dispinfo.obj, .\Output\etc_eep.obj, .\Output\I2
>> c.obj, .\Output\keyremo.obj, .\Output\Main.obj, .\Output\Measure.obj, .\Output\Osdbasic.obj, .\Output\osdmenu.obj, .\
>> Output\pc_eep.obj, .\Output\Printf.obj, .\Output\table.obj, .\Output\TW88.obj, .\Output\udfont.obj, .\Output\HS_keyre
>> mo.obj, .\Output\HS_DisplayOSD.obj, .\Output\audio.obj, .\Output\Debug.obj, .\Output\HS_DVRProtocol.obj, .\Output\mon
>> itor.obj TO .\Output\TW8816 PRINT (.\Source\TW8816.m51) RAMSIZE (256)


MEMORY MODEL: LARGE


INPUT MODULES INCLUDED:
  .\Output\adc.obj (ADC)
  .\Output\cpu.obj (CPU)
  .\Output\dispinfo.obj (DISPINFO)
  .\Output\etc_eep.obj (ETC_EEP)
  .\Output\I2c.obj (I2C)
  .\Output\keyremo.obj (KEYREMO)
  .\Output\Main.obj (MAIN)
  .\Output\Measure.obj (MEASURE)
  .\Output\Osdbasic.obj (OSDBASIC)
  .\Output\osdmenu.obj (OSDMENU)
  .\Output\pc_eep.obj (PC_EEP)
  .\Output\Printf.obj (PRINTF)
  .\Output\table.obj (TABLE)
  .\Output\TW88.obj (TW88)
  .\Output\udfont.obj (UDFONT)
  .\Output\HS_keyremo.obj (HS_KEYREMO)
  .\Output\HS_DisplayOSD.obj (HS_DISPLAYOSD)
  .\Output\audio.obj (AUDIO)
  .\Output\Debug.obj (DEBUG)
  .\Output\HS_DVRProtocol.obj (HS_DVRPROTOCOL)
  .\Output\monitor.obj (MONITOR)
  C:\KEIL_V5\C51\LIB\C51L.LIB (?C_STARTUP)
  C:\KEIL_V5\C51\LIB\C51L.LIB (?C?COPY)
  C:\KEIL_V5\C51\LIB\C51L.LIB (?C?CLDPTR)
  C:\KEIL_V5\C51\LIB\C51L.LIB (?C?CLDOPTR)
  C:\KEIL_V5\C51\LIB\C51L.LIB (?C?CSTPTR)
  C:\KEIL_V5\C51\LIB\C51L.LIB (?C?IMUL)
  C:\KEIL_V5\C51\LIB\C51L.LIB (?C?UIDIV)
  C:\KEIL_V5\C51\LIB\C51L.LIB (?C?SIDIV)
  C:\KEIL_V5\C51\LIB\C51L.LIB (?C?IILDX)
  C:\KEIL_V5\C51\LIB\C51L.LIB (?C?ILDPTR)
  C:\KEIL_V5\C51\LIB\C51L.LIB (?C?ILDOPTR)
  C:\KEIL_V5\C51\LIB\C51L.LIB (?C?ISTPTR)
  C:\KEIL_V5\C51\LIB\C51L.LIB (?C?LADD)
  C:\KEIL_V5\C51\LIB\C51L.LIB (?C?LMUL)
  C:\KEIL_V5\C51\LIB\C51L.LIB (?C?ULDIV)
  C:\KEIL_V5\C51\LIB\C51L.LIB (?C?ULCMP)
  C:\KEIL_V5\C51\LIB\C51L.LIB (?C?SLSHR)
  C:\KEIL_V5\C51\LIB\C51L.LIB (?C?LLDPTR)
  C:\KEIL_V5\C51\LIB\C51L.LIB (?C?LLDXDATA)
  C:\KEIL_V5\C51\LIB\C51L.LIB (?C?LLDXDATA0)
  C:\KEIL_V5\C51\LIB\C51L.LIB (?C?LSTXDATA)
  C:\KEIL_V5\C51\LIB\C51L.LIB (?C?LSTKXDATA)
  C:\KEIL_V5\C51\LIB\C51L.LIB (?C?OFFXADD)
  C:\KEIL_V5\C51\LIB\C51L.LIB (?C?PLDXDATA)
  C:\KEIL_V5\C51\LIB\C51L.LIB (?C?PLDIXDATA)
BL51 BANKED LINKER/LOCATER V6.22.2.0                                                  06/22/2022  16:23:04  PAGE 2


  C:\KEIL_V5\C51\LIB\C51L.LIB (?C?PSTXDATA)
  C:\KEIL_V5\C51\LIB\C51L.LIB (?C?PLDCODE)
  C:\KEIL_V5\C51\LIB\C51L.LIB (?C?PLDPTR)
  C:\KEIL_V5\C51\LIB\C51L.LIB (?C?PLDOPTR)
  C:\KEIL_V5\C51\LIB\C51L.LIB (?C?CCASE)
  C:\KEIL_V5\C51\LIB\C51L.LIB (?C_INIT)
  C:\KEIL_V5\C51\LIB\C51L.LIB (?C?LLDIDATA)
  C:\KEIL_V5\C51\LIB\C51L.LIB (?C?LLDPDATA)
  C:\KEIL_V5\C51\LIB\C51L.LIB (?C?LLDCODE)
  C:\KEIL_V5\C51\LIB\C51L.LIB (?C?PLDIDATA)
  C:\KEIL_V5\C51\LIB\C51L.LIB (?C?PLDPDATA)


LINK MAP OF MODULE:  .\Output\TW8816 (ADC)


            TYPE    BASE      LENGTH    RELOCATION   SEGMENT NAME
            -----------------------------------------------------

            * * * * * * *   D A T A   M E M O R Y   * * * * * * *
            REG     0000H     0008H     ABSOLUTE     "REG BANK 0"
            REG     0008H     0008H     ABSOLUTE     "REG BANK 1"
            DATA    0010H     0010H     UNIT         ?DT?MAIN
            BIT     0020H.0   0001H.4   UNIT         ?BI?MAIN
            BIT     0021H.4   0000H.5   UNIT         ?BI?CPU
            BIT     0022H.1   0000H.5   UNIT         ?BI?HS_DVRPROTOCOL
            BIT     0022H.6   0000H.3   UNIT         ?BI?KEYREMO
            BIT     0023H.1   0000H.3   UNIT         ?BI?HS_KEYREMO
            BIT     0023H.4   0000H.3   UNIT         ?BI?MONITOR
            BIT     0023H.7   0000H.2   UNIT         ?BI?OSDMENU
            BIT     0024H.1   0000H.2   UNIT         _BIT_GROUP_
            BIT     0024H.3   0000H.1   UNIT         ?BI?HS_DISPLAYOSD
                    0024H.4   0000H.4                *** GAP ***
            DATA    0025H     0041H     UNIT         ?DT?CPU
            DATA    0066H     000AH     UNIT         ?DT?OSDBASIC
            DATA    0070H     0005H     UNIT         ?DT?KEYREMO
            DATA    0075H     0005H     UNIT         ?DT?OSDMENU
            DATA    007AH     0002H     UNIT         ?DT?DISPINFO
            DATA    007CH     0001H     UNIT         ?DT?MONITOR
            IDATA   007DH     0001H     UNIT         ?STACK

            * * * * * * *  X D A T A   M E M O R Y  * * * * * * *
            XDATA   0000H     005DH     UNIT         _XDATA_GROUP_
            XDATA   005DH     0048H     UNIT         ?XD?HS_DVRPROTOCOL
            XDATA   00A5H     003AH     UNIT         ?XD?MONITOR
            XDATA   00DFH     0020H     UNIT         ?XD?OSDMENU
            XDATA   00FFH     0019H     UNIT         ?XD?MAIN
            XDATA   0118H     0010H     UNIT         ?XD?HS_KEYREMO
            XDATA   0128H     000AH     UNIT         ?XD?KEYREMO
            XDATA   0132H     0009H     UNIT         ?XD?CPU
            XDATA   013BH     0006H     UNIT         ?XD?CHECKANDCLEAROSD?DISPINFO
            XDATA   0141H     0004H     UNIT         ?XD?DISPINFO
            XDATA   0145H     0004H     UNIT         ?XD?TW88
            XDATA   0149H     0002H     UNIT         ?XD?AUDIO

            * * * * * * *   C O D E   M E M O R Y   * * * * * * *
            CODE    0000H     0003H     ABSOLUTE     
BL51 BANKED LINKER/LOCATER V6.22.2.0                                                  06/22/2022  16:23:04  PAGE 3


            CODE    0003H     0008H     UNIT         ?PR?_RS_TX?CPU
            CODE    000BH     0003H     ABSOLUTE     
            CODE    000EH     0005H     UNIT         ?PR?SETLEFTSOURCE?HS_KEYREMO
            CODE    0013H     0003H     ABSOLUTE     
            CODE    0016H     000DH     UNIT         ?PR?I2CSTOP?I2C
            CODE    0023H     0003H     ABSOLUTE     
            CODE    0026H     0005H     UNIT         ?PR?SETRIGHTSOURCE?HS_KEYREMO
            CODE    002BH     0003H     ABSOLUTE     
            CODE    002EH     0035H     UNIT         ?PR?OSDHIGHMENU?OSDMENU
            CODE    0063H     0003H     ABSOLUTE     
            CODE    0066H     1653H     UNIT         ?CO?OSDMENU
            CODE    16B9H     14F2H     UNIT         ?CO?UDFONT
            CODE    2BABH     0985H     UNIT         ?PR?_SETITEMVALUE?OSDMENU
            CODE    3530H     0844H     UNIT         ?CO?CPU
            CODE    3D74H     059FH     UNIT         ?CO?MONITOR
            CODE    4313H     0538H     UNIT         ?C?LIB_CODE
            CODE    484BH     0502H     UNIT         ?PR?CHECKKEYIN?KEYREMO
            CODE    4D4DH     0411H     UNIT         ?PR?MONITOR?MONITOR
            CODE    515EH     03CFH     UNIT         ?PR?OSDMENU
            CODE    552DH     03CBH     UNIT         ?PR?_DISPLAYOSDMENUONEITEM?OSDMENU
            CODE    58F8H     033AH     UNIT         ?PR?DISPLAYINPUT?DISPINFO
            CODE    5C32H     0338H     UNIT         ?PR?_TRIGGERHANDLER?HS_KEYREMO
            CODE    5F6AH     0331H     UNIT         ?PR?_DOPRINT?PRINTF
            CODE    629BH     02A0H     UNIT         ?CO?TABLE
            CODE    653BH     0248H     UNIT         ?CO?KEYREMO
            CODE    6783H     0241H     UNIT         ?PR?_GETITEMVALUE?OSDMENU
            CODE    69C4H     0208H     UNIT         ?PR?_CAM_TXCOMMAND_TORS485?HS_DVRPROTOCOL
            CODE    6BCCH     0200H     UNIT         ?CO?MAIN
            CODE    6DCCH     01E4H     UNIT         ?PR?RESETOSDVALUE?OSDMENU
            CODE    6FB0H     01D0H     UNIT         ?PR?_OSDCURSORMOVE?OSDMENU
            CODE    7180H     01C6H     UNIT         ?PR?_DRAWMENULIST?OSDMENU
            CODE    7346H     01B5H     UNIT         ?PR?MONGETCOMMAND?MONITOR
            CODE    74FBH     01A3H     UNIT         ?CO?HS_KEYREMO
            CODE    769EH     0177H     UNIT         ?PR?TIMER0_INT?CPU
            CODE    7815H     0173H     UNIT         ?PR?OSDSELECT?OSDMENU
            CODE    7988H     0169H     UNIT         ?PR?_SETOSDPOSITIONMODE?OSDMENU
            CODE    7AF1H     0167H     UNIT         ?C_INITSEG
            CODE    7C58H     0167H     UNIT         ?PR?DISPLAYINFO_OSD?OSDMENU
            CODE    7DBFH     0158H     UNIT         ?PR?MONITOR
            CODE    7F17H     014CH     UNIT         ?CO?OSDBASIC
            CODE    8063H     0142H     UNIT         ?PR?CHECKTRIGGER?HS_KEYREMO
            CODE    81A5H     0128H     UNIT         ?PR?_DISPLAYRAMFONT?OSDBASIC
            CODE    82CDH     0128H     UNIT         ?PR?_OSDVALUEUPDN?OSDMENU
            CODE    83F5H     0124H     UNIT         ?PR?_CHANGEVOL?AUDIO
            CODE    8519H     0121H     UNIT         ?PR?_UTOA?OSDBASIC
            CODE    863AH     011DH     UNIT         ?PR?MAIN_INIT?CPU
            CODE    8757H     0119H     UNIT         ?PR?LOADEEPROM?MAIN
            CODE    8870H     0117H     UNIT         ?PR?_CHANGEINPUT?MAIN
            CODE    8987H     0117H     UNIT         ?PR?_ADJUSTAUTODAYNIGHT?MAIN
            CODE    8A9EH     0113H     UNIT         ?PR?_DISPLAYINFORMATION?HS_DISPLAYOSD
            CODE    8BB1H     010FH     UNIT         ?PR?MAIN_LOOP?MAIN
            CODE    8CC0H     0104H     UNIT         ?PR?_DISPLAYROMFONT?OSDBASIC
            CODE    8DC4H     00FEH     UNIT         ?PR?MONWRITEBIT?MONITOR
            CODE    8EC2H     00F1H     UNIT         ?PR?_SETVIDEOMODE?OSDMENU
            CODE    8FB3H     00EAH     UNIT         ?PR?DISPLAYGAUGEOSD?HS_DISPLAYOSD
            CODE    909DH     00E5H     UNIT         ?PR?DISPLAYOSDMENU?OSDMENU
            CODE    9182H     00E4H     UNIT         ?PR?_LCDPOWERON?TW88
BL51 BANKED LINKER/LOCATER V6.22.2.0                                                  06/22/2022  16:23:04  PAGE 4


            CODE    9266H     00E3H     UNIT         ?CO?DISPINFO
            CODE    9349H     00E0H     UNIT         ?PR?_DRAWNUM?OSDMENU
            CODE    9429H     00E0H     UNIT         ?CO?HS_DISPLAYOSD
            CODE    9509H     00DEH     UNIT         ?PR?MONDUMPI2C?MONITOR
            CODE    95E7H     00DBH     UNIT         ?PR?DISPLAYCURSOR?OSDMENU
            CODE    96C2H     00D3H     UNIT         ?PR?CHECKDECODERINPUT?MAIN
            CODE    9795H     00D2H     UNIT         ?PR?_DRAWSTRINGBYLANG?OSDMENU
            CODE    9867H     00CEH     UNIT         ?PR?DISPLAYVOL?DISPINFO
            CODE    9935H     00CEH     UNIT         ?PR?_ACTIONREMO?KEYREMO
            CODE    9A03H     00C4H     UNIT         ?PR?OSDBASIC
            CODE    9AC7H     00BFH     UNIT         ?PR?_INITVIDEODATA?MAIN
            CODE    9B86H     00BCH     UNIT         ?PR?MONNEWDUMPI2C?MONITOR
            CODE    9C42H     00B6H     UNIT         ?PR?CHECKMIRROR?HS_KEYREMO
            CODE    9CF8H     00AEH     UNIT         ?PR?_SETPCCOLOR?OSDMENU
            CODE    9DA6H     00AAH     UNIT         ?PR?SETSELECTMODE?HS_KEYREMO
            CODE    9E50H     00A7H     UNIT         ?PR?OSDHIGHMENU_SUB?OSDMENU
            CODE    9EF7H     00A6H     UNIT         ?PR?_DISPLAYVIEWBAR?OSDMENU
            CODE    9F9DH     00A5H     UNIT         ?PR?_DISPLAYVOLUMEBAR?OSDMENU
            CODE    A042H     00A5H     UNIT         ?PR?_MAPPING1?TW88
            CODE    A0E7H     00A4H     UNIT         ?PR?MAIN?MAIN
            CODE    A18BH     00A4H     UNIT         ?PR?_SETVIDEOSHARPNESS?OSDMENU
            CODE    A22FH     00A2H     UNIT         ?PR?_INITOSDWINDOW?OSDBASIC
            CODE    A2D1H     00A2H     UNIT         ?PR?MONHELP?MONITOR
            CODE    A373H     009EH     UNIT         ?PR?CHECKANDCLEAROSD?DISPINFO
            CODE    A411H     009EH     UNIT         ?PR?_CHANGEVIDEODATA?OSDMENU
            CODE    A4AFH     0096H     UNIT         ?PR?_DOACTION?OSDMENU
            CODE    A545H     008FH     UNIT         ?PR?INITTECHWELL?CPU
            CODE    A5D4H     008CH     UNIT         ?C_C51STARTUP
            CODE    A660H     0088H     UNIT         ?PR?SETPOSSIBLEAUTODETECTSTDEE?ETC_EEP
            CODE    A6E8H     0083H     UNIT         ?PR?INITOSDMENU?OSDMENU
            CODE    A76BH     0083H     UNIT         ?PR?SEND_PELCOP_COMMAND?HS_DVRPROTOCOL
            CODE    A7EEH     0082H     UNIT         ?PR?_AWT_DISPLAYVIEWBAR?OSDMENU
            CODE    A870H     0082H     UNIT         ?PR?_CHECKSOURCEMODE?HS_KEYREMO
            CODE    A8F2H     0082H     UNIT         ?PR?SEND_PELCOD_COMMAND?HS_DVRPROTOCOL
            CODE    A974H     007DH     UNIT         ?PR?_HS_DISPLAY2835CLKTUNEVAL?KEYREMO
            CODE    A9F1H     007DH     UNIT         ?PR?WAITPOWERON?MAIN
            CODE    AA6EH     007CH     UNIT         ?PR?_SETPCCOLORTEMP?OSDMENU
            CODE    AAEAH     0079H     UNIT         ?PR?_SETVIDEOSATURATION?OSDMENU
            CODE    AB63H     0079H     UNIT         ?PR?_MONINCDECI2C?MONITOR
            CODE    ABDCH     0077H     UNIT         ?PR?MONWRITEI2C?MONITOR
            CODE    AC53H     0070H     UNIT         ?PR?_A2I?MONITOR
            CODE    ACC3H     006AH     UNIT         ?PR?RESETVIDEOVALUE?OSDMENU
            CODE    AD2DH     0069H     UNIT         ?PR?_I2CWRITEDATA?I2C
            CODE    AD96H     0069H     UNIT         ?PR?_SETVIDEOBACKLIGHT?OSDMENU
            CODE    ADFFH     0067H     UNIT         ?PR?PRINTF
            CODE    AE66H     0066H     UNIT         ?PR?_SETRGBCONTRAST?OSDMENU
            CODE    AECCH     0065H     UNIT         ?PR?CHANGE_OSDCOLORLOOKUP?OSDBASIC
            CODE    AF31H     0063H     UNIT         ?PR?SETREARSOURCE?HS_KEYREMO
            CODE    AF94H     0061H     UNIT         ?PR?GETFWREVEE?ETC_EEP
            CODE    AFF5H     0061H     UNIT         ?PR?_GETKEY?KEYREMO
            CODE    B056H     0060H     UNIT         ?PR?TW88
            CODE    B0B6H     005FH     UNIT         ?PR?DETECTDECODERINPUT?TW88
            CODE    B115H     005EH     UNIT         ?PR?CLEAROSDINFO?DISPINFO
            CODE    B173H     005EH     UNIT         ?PR?_DOWNLOADFONT?OSDBASIC
            CODE    B1D1H     005CH     UNIT         ?PR?INITOSDMENUXY?OSDMENU
            CODE    B22DH     005CH     UNIT         ?PR?HS_KEYREMO
            CODE    B289H     005AH     UNIT         ?PR?MONNEWWRITEI2C?MONITOR
BL51 BANKED LINKER/LOCATER V6.22.2.0                                                  06/22/2022  16:23:04  PAGE 5


            CODE    B2E3H     0059H     UNIT         ?PR?GETVINPUTSTDINX?MAIN
            CODE    B33CH     0058H     UNIT         ?PR?CHECKPANELIMAGE?OSDMENU
            CODE    B394H     0058H     UNIT         ?PR?_SETVIDEOHUE?OSDMENU
            CODE    B3ECH     0058H     UNIT         ?CO?TW88
            CODE    B444H     0055H     UNIT         ?PR?_GETOSDWINDOWY?OSDBASIC
            CODE    B499H     0053H     UNIT         ?PR?SETJUMPMODE?HS_KEYREMO
            CODE    B4ECH     0052H     UNIT         ?PR?_I2CDEVICEINITIALIZE?MAIN
            CODE    B53EH     0051H     UNIT         ?PR?_CAMOUTDSEL?OSDMENU
            CODE    B58FH     004FH     UNIT         ?PR?INITCPU?CPU
            CODE    B5DEH     004CH     UNIT         ?PR?MONNEWREADI2C?MONITOR
            CODE    B62AH     004BH     UNIT         ?PR?MONREADI2C?MONITOR
            CODE    B675H     0049H     UNIT         ?PR?_GETOSDWINDOWX?OSDBASIC
            CODE    B6BEH     0049H     UNIT         ?PR?CLEARCURSOR?OSDMENU
            CODE    B707H     0049H     UNIT         ?PR?HS_DVRPROTOCOL
            CODE    B750H     0048H     UNIT         ?PR?_WAIT_MS?CPU
            CODE    B798H     0047H     UNIT         ?PR?_WRITEEEP?I2C
            CODE    B7DFH     0045H     UNIT         ?PR?_GETLOWERMENUITEM?OSDMENU
            CODE    B824H     0044H     UNIT         ?PR?_SAVEFWREVEE?ETC_EEP
            CODE    B868H     0043H     UNIT         ?PR?_SHOWOSDWINDOW_TW88?OSDBASIC
            CODE    B8ABH     0042H     UNIT         ?PR?DOWNLOADUDFONT?OSDBASIC
            CODE    B8EDH     0041H     UNIT         ?PR?_WRITEI2CN?I2C
            CODE    B92EH     0041H     UNIT         ?PR?_SETOSDWINDOWY_TW88?OSDBASIC
            CODE    B96FH     0041H     UNIT         ?PR?_GETTARGETCHILD?OSDMENU
            CODE    B9B0H     003EH     UNIT         ?PR?_WRITEI2CND?I2C
            CODE    B9EEH     003EH     UNIT         ?PR?_SETOSDWINDOWX_TW88?OSDBASIC
            CODE    BA2CH     003DH     UNIT         ?PR?GETTIME_MS?CPU
            CODE    BA69H     003DH     UNIT         ?PR?MONTXDUMP?MONITOR
            CODE    BAA6H     003CH     UNIT         ?PR?CLOSEOSDMENU?OSDMENU
            CODE    BAE2H     003CH     UNIT         ?PR?_STRICMP?MONITOR
            CODE    BB1EH     003BH     UNIT         ?PR?SERIAL2_INT?CPU
            CODE    BB59H     003BH     UNIT         ?PR?SEQMODE?HS_KEYREMO
            CODE    BB94H     003AH     UNIT         ?PR?HS_DISPLAYOSD
            CODE    BBCEH     0039H     UNIT         ?PR?_READI2C?I2C
            CODE    BC07H     0039H     UNIT         ?PR?_WRITEI2CN_?I2C
            CODE    BC40H     0039H     UNIT         ?PR?_SETVINPUTSTD?MAIN
            CODE    BC79H     0039H     UNIT         ?PR?_ASC2BIN?MONITOR
            CODE    BCB2H     0038H     UNIT         ?PR?SERIAL_INT?CPU
            CODE    BCEAH     0038H     UNIT         ?PR?LCDPOWER?TW88
            CODE    BD22H     0037H     UNIT         ?PR?VLOSSHANDLER?DISPINFO
            CODE    BD59H     0034H     UNIT         ?PR?WAITENDOFDISPLAYAREA?OSDBASIC
            CODE    BD8DH     0034H     UNIT         ?PR?SETNOWMODE?HS_KEYREMO
            CODE    BDC1H     0034H     UNIT         ?PR?_ASC1BIN?MONITOR
            CODE    BDF5H     0033H     UNIT         ?PR?REMOMENU_MENUKEY?KEYREMO
            CODE    BE28H     0033H     UNIT         ?PR?_WRITESTRINGTOADDR?OSDBASIC
            CODE    BE5BH     0033H     UNIT         ?PR?OPENOSDMENU?OSDMENU
            CODE    BE8EH     0033H     UNIT         ?PR?_PRINTF?PRINTF
            CODE    BEC1H     0031H     UNIT         ?PR?_DRAWATTRCNT?OSDBASIC
            CODE    BEF2H     0030H     UNIT         ?PR?I2CREADDATA?I2C
            CODE    BF22H     0030H     UNIT         ?PR?_SETVIDEOBRIGHTNESS?OSDMENU
            CODE    BF52H     002FH     UNIT         ?PR?_SHOWOSDWINDOWALL?OSDBASIC
            CODE    BF81H     002FH     UNIT         ?PR?_GET_CURSOR_ITEM?OSDMENU
            CODE    BFB0H     002EH     UNIT         ?PR?CLEARTVINFO?DISPINFO
            CODE    BFDEH     002DH     UNIT         ?PR?_CLEARDATACNT?OSDBASIC
            CODE    C00BH     002DH     UNIT         ?PR?PUSHMENU?OSDMENU
            CODE    C038H     002CH     UNIT         ?PR?MAIN
            CODE    C064H     002CH     UNIT         ?CO?HS_DVRPROTOCOL
            CODE    C090H     0029H     UNIT         ?PR?_SETVIDEOCONTRAST?OSDMENU
BL51 BANKED LINKER/LOCATER V6.22.2.0                                                  06/22/2022  16:23:04  PAGE 6


            CODE    C0B9H     0028H     UNIT         ?PR?SAVEVALUE1?OSDMENU
            CODE    C0E1H     0026H     UNIT         ?PR?_READEEP?I2C
            CODE    C107H     0026H     UNIT         ?PR?_WRITEI2C?I2C
            CODE    C12DH     0025H     UNIT         ?PR?_POWERLED?CPU
            CODE    C152H     0023H     UNIT         ?PR?READVINPUTSTD?MAIN
            CODE    C175H     0022H     UNIT         ?PR?CLEARBASICEE?ETC_EEP
            CODE    C197H     0022H     UNIT         ?PR?PROMPT?MONITOR
            CODE    C1B9H     0020H     UNIT         ?PR?SETAUTODETECTSTD?TW88
            CODE    C1D9H     001FH     UNIT         ?PR?_DIFFTIME_MS?CPU
            CODE    C1F8H     001FH     UNIT         ?PR?GETNEXTINPUTSELECTION?MAIN
            CODE    C217H     001EH     UNIT         ?PR?INITVARS?CPU
            CODE    C235H     001EH     UNIT         ?PR?I2C
            CODE    C253H     001EH     UNIT         ?PR?_SETLANGUAGE?OSDMENU
            CODE    C271H     001DH     UNIT         ?PR?_CLEARAUTODETECTSTD?TW88
            CODE    C28EH     001CH     UNIT         ?PR?RS_RX?CPU
            CODE    C2AAH     001CH     UNIT         ?PR?DISPINFO
            CODE    C2C6H     001CH     UNIT         ?PR?POPMENU?OSDMENU
            CODE    C2E2H     001CH     UNIT         ?PR?_GETNEXTCURSORMENUITEM?OSDMENU
            CODE    C2FEH     001CH     UNIT         ?PR?COMPOSITE1INPUT?TW88
            CODE    C31AH     001CH     UNIT         ?PR?COMPOSITE2INPUT?TW88
            CODE    C336H     001CH     UNIT         ?PR?COMPOSITE3INPUT?TW88
            CODE    C352H     001CH     UNIT         ?PR?COMPOSITE4INPUT?TW88
            CODE    C36EH     001CH     UNIT         ?PR?_TOUPPER?MONITOR
            CODE    C38AH     001BH     UNIT         ?PR?REMOVOLUP_RIGHTKEY?KEYREMO
            CODE    C3A5H     001BH     UNIT         ?PR?REMOVOLDN_LEFTKEY?KEYREMO
            CODE    C3C0H     001BH     UNIT         ?PR?_STRLEN?OSDBASIC
            CODE    C3DBH     001BH     UNIT         ?PR?_PUTS?PRINTF
            CODE    C3F6H     0019H     UNIT         ?CO?AUDIO
            CODE    C40FH     0018H     UNIT         ?PR?_DELAY?CPU
            CODE    C427H     0016H     UNIT         ?PR?CLEARINPUT?DISPINFO
            CODE    C43DH     0014H     UNIT         ?PR?KEYREMO
            CODE    C451H     0013H     UNIT         ?PR?CPU
            CODE    C464H     0012H     UNIT         ?PR?I2CSTART?I2C
            CODE    C476H     0011H     UNIT         ?PR?ISNOINPUT?MAIN
            CODE    C487H     0011H     UNIT         ?PR?GETOSDLANG?OSDMENU
            CODE    C498H     0011H     UNIT         ?CO?PRINTF
            CODE    C4A9H     0010H     UNIT         ?PR?HS_INITVARS?MAIN
            CODE    C4B9H     000FH     UNIT         ?PR?TIMER2_INT?CPU
            CODE    C4C8H     000FH     UNIT         ?PR?CLEARVLOSSOSD?DISPINFO
            CODE    C4D7H     000FH     UNIT         ?PR?CLEARMUTEINFO?DISPINFO
            CODE    C4E6H     000FH     UNIT         ?PR?CLEARGAUGEINFO?HS_DISPLAYOSD
            CODE    C4F5H     000DH     UNIT         ?PR?REMOCHNUP_UPKEY?KEYREMO
            CODE    C502H     000DH     UNIT         ?PR?REMOCHNDN_DNKEY?KEYREMO
            CODE    C50FH     000DH     UNIT         ?PR?POWEROFF?MAIN
            CODE    C51CH     000CH     UNIT         ?PR?_CLEARDISPLAYEDOSD?DISPINFO
            CODE    C528H     000CH     UNIT         ?PR?SETOSDLASTKEYINTIME?MAIN
            CODE    C534H     000CH     UNIT         ?PR?CLEARVALUEWIN?OSDMENU
            CODE    C540H     000BH     UNIT         ?PR?RS_READY?CPU
            CODE    C54BH     000AH     UNIT         ?PR?CLEARINPUT2S?DISPINFO
            CODE    C555H     000AH     UNIT         ?PR?_GETVIDEODATAFROMEE?ETC_EEP
            CODE    C55FH     0009H     UNIT         ?PR?_SAVEDEBUGLEVELEE?ETC_EEP
            CODE    C568H     0009H     UNIT         ?PR?_SAVEOSDPOSITIONMODEEE?ETC_EEP
            CODE    C571H     0009H     UNIT         ?PR?_SAVEVIDEODATATOEE?ETC_EEP
            CODE    C57AH     0009H     UNIT         ?PR?_SAVEINPUTSELECTIONEE?ETC_EEP
            CODE    C583H     0009H     UNIT         ?PR?_SAVEOSDLANGEE?ETC_EEP
            CODE    C58CH     0009H     UNIT         ?PR?_SETAUDIOVOLEE?ETC_EEP
            CODE    C595H     0009H     UNIT         ?PR?_SETPCAUDIOVOLEE?ETC_EEP
BL51 BANKED LINKER/LOCATER V6.22.2.0                                                  06/22/2022  16:23:04  PAGE 7


            CODE    C59EH     0009H     UNIT         ?PR?POWERDOWN_XTAL?MAIN
            CODE    C5A7H     0009H     UNIT         ?PR?GETOSDLASTKEYINTIME?MAIN
            CODE    C5B0H     0009H     UNIT         ?PR?_GETUPPERMENUITEM?OSDMENU
            CODE    C5B9H     0009H     UNIT         ?PR?AUDIOMUTE?AUDIO
            CODE    C5C2H     0008H     UNIT         ?PR?_RS2_TX?CPU
            CODE    C5CAH     0007H     UNIT         ?PR?_SETDISPLAYEDOSD?DISPINFO
            CODE    C5D1H     0007H     UNIT         ?PR?GETDEBUGLEVELEE?ETC_EEP
            CODE    C5D8H     0007H     UNIT         ?PR?GETPOSSIBLEAUTODETECTSTDEE?ETC_EEP
            CODE    C5DFH     0007H     UNIT         ?PR?GETOSDPOSITIONMODEEE?ETC_EEP
            CODE    C5E6H     0007H     UNIT         ?PR?GETOSDLANGEE?ETC_EEP
            CODE    C5EDH     0007H     UNIT         ?PR?GETAUDIOVOLEE?ETC_EEP
            CODE    C5F4H     0007H     UNIT         ?PR?GETPCAUDIOVOLEE?ETC_EEP
            CODE    C5FBH     0007H     UNIT         ?PR?_GETVIDEODATAWITHOFFSET?OSDMENU
            CODE    C602H     0006H     UNIT         ?PR?GETDISPLAYEDOSD?DISPINFO
            CODE    C608H     0006H     UNIT         ?PR?GETINPUTSELECTION?MAIN
            CODE    C60EH     0003H     UNIT         ?PR?EXT1_INT?CPU
            CODE    C611H     0003H     UNIT         ?PR?GETOSDPOSITIONMODE?OSDMENU
            CODE    C614H     0003H     UNIT         ?PR?ISINPUTANALOGRGB?OSDMENU
            CODE    C617H     0003H     UNIT         ?PR?_MON_TX?MONITOR
            CODE    C61AH     0003H     UNIT         ?PR?_SETMONADDRESS?MONITOR
            CODE    C61DH     0001H     UNIT         ?PR?DD?I2C
            CODE    C61EH     0001H     UNIT         ?PR?ON_LVDS?TW88
            CODE    C61FH     0001H     UNIT         ?PR?OFF_LVDS?TW88



OVERLAY MAP OF MODULE:   .\Output\TW8816 (ADC)


SEGMENT                                             BIT_GROUP          XDATA_GROUP
  +--> CALLED SEGMENT                            START    LENGTH     START    LENGTH
------------------------------------------------------------------------------------
?PR?TIMER0_INT?CPU                               -----    -----      -----    -----
  +--> ?PR?CPU

*** NEW ROOT ***************************************************

?C_C51STARTUP                                    -----    -----      -----    -----
  +--> ?PR?MAIN?MAIN
  +--> ?C_INITSEG

?PR?MAIN?MAIN                                    -----    -----      -----    -----
  +--> ?PR?AUDIOMUTE?AUDIO
  +--> ?PR?_WAIT_MS?CPU
  +--> ?PR?INITCPU?CPU
  +--> ?PR?_POWERLED?CPU
  +--> ?PR?INITVARS?CPU
  +--> ?PR?HS_INITVARS?MAIN
  +--> ?PR?INITTECHWELL?CPU
  +--> ?PR?_SETMONADDRESS?MONITOR
  +--> ?PR?MAIN_INIT?CPU
  +--> ?PR?_WRITEI2C?I2C
  +--> ?PR?LOADEEPROM?MAIN
  +--> ?PR?_READEEP?I2C
  +--> ?PR?_CAMOUTDSEL?OSDMENU
  +--> ?CO?MAIN
  +--> ?PR?_PRINTF?PRINTF
BL51 BANKED LINKER/LOCATER V6.22.2.0                                                  06/22/2022  16:23:04  PAGE 8


  +--> ?PR?_LCDPOWERON?TW88
  +--> ?PR?_DELAY?CPU
  +--> ?PR?SETNOWMODE?HS_KEYREMO
  +--> ?PR?MAIN_LOOP?MAIN
  +--> ?PR?WAITPOWERON?MAIN

?PR?AUDIOMUTE?AUDIO                              0024H.1  0000H.1    -----    -----

?PR?_WAIT_MS?CPU                                 -----    -----      0019H    0004H

?PR?INITVARS?CPU                                 -----    -----      -----    -----
  +--> ?PR?_DELAY?CPU
  +--> ?PR?POWERDOWN_XTAL?MAIN

?PR?POWERDOWN_XTAL?MAIN                          0024H.1  0000H.1    -----    -----

?PR?INITTECHWELL?CPU                             -----    -----      -----    -----
  +--> ?CO?CPU
  +--> ?PR?_PUTS?PRINTF
  +--> ?PR?_PRINTF?PRINTF
  +--> ?PR?RS_READY?CPU
  +--> ?PR?_READI2C?I2C
  +--> ?PR?CPU
  +--> ?PR?_DELAY?CPU

?PR?_PUTS?PRINTF                                 -----    -----      0014H    0003H
  +--> ?PR?PRINTF
  +--> ?PR?_RS_TX?CPU

?PR?_PRINTF?PRINTF                               -----    -----      0019H    002EH
  +--> ?PR?_DOPRINT?PRINTF

?PR?_DOPRINT?PRINTF                              0024H.1  0000H.2    0047H    0015H
  +--> ?PR?PRINTF
  +--> ?CO?PRINTF

?PR?_READI2C?I2C                                 -----    -----      0034H    0003H
  +--> ?PR?I2CSTART?I2C
  +--> ?PR?_I2CWRITEDATA?I2C
  +--> ?PR?I2CREADDATA?I2C
  +--> ?PR?I2CSTOP?I2C

?PR?I2CSTART?I2C                                 -----    -----      -----    -----
  +--> ?PR?DD?I2C

?PR?_I2CWRITEDATA?I2C                            -----    -----      -----    -----
  +--> ?PR?I2C

?PR?I2C                                          -----    -----      -----    -----
  +--> ?PR?DD?I2C

?PR?I2CREADDATA?I2C                              -----    -----      -----    -----
  +--> ?PR?DD?I2C

?PR?I2CSTOP?I2C                                  -----    -----      -----    -----
  +--> ?PR?DD?I2C

BL51 BANKED LINKER/LOCATER V6.22.2.0                                                  06/22/2022  16:23:04  PAGE 9


?PR?MAIN_INIT?CPU                                -----    -----      0000H    0002H
  +--> ?PR?_WRITEI2C?I2C
  +--> ?PR?GETFWREVEE?ETC_EEP
  +--> ?PR?CPU
  +--> ?CO?CPU
  +--> ?PR?_PRINTF?PRINTF
  +--> ?PR?_SAVEFWREVEE?ETC_EEP
  +--> ?PR?_SAVEDEBUGLEVELEE?ETC_EEP
  +--> ?PR?_SAVEINPUTSELECTIONEE?ETC_EEP
  +--> ?PR?CLEARBASICEE?ETC_EEP
  +--> ?PR?GETDEBUGLEVELEE?ETC_EEP
  +--> ?PR?_SETVINPUTSTD?MAIN
  +--> ?PR?_LCDPOWERON?TW88
  +--> ?PR?_READEEP?I2C
  +--> ?PR?SETPOSSIBLEAUTODETECTSTDEE?ETC_EEP
  +--> ?PR?CHANGE_OSDCOLORLOOKUP?OSDBASIC
  +--> ?PR?DOWNLOADUDFONT?OSDBASIC
  +--> ?PR?_DISPLAYINFORMATION?HS_DISPLAYOSD
  +--> ?PR?_DELAY?CPU
  +--> ?PR?CLEARGAUGEINFO?HS_DISPLAYOSD
  +--> ?PR?PROMPT?MONITOR

?PR?_WRITEI2C?I2C                                -----    -----      0055H    0003H
  +--> ?PR?I2C
  +--> ?PR?I2CSTART?I2C
  +--> ?PR?_I2CWRITEDATA?I2C
  +--> ?PR?I2CSTOP?I2C

?PR?GETFWREVEE?ETC_EEP                           -----    -----      0002H    0002H
  +--> ?PR?_READEEP?I2C

?PR?_READEEP?I2C                                 -----    -----      0033H    0001H
  +--> ?PR?_READI2C?I2C
  +--> ?PR?_DELAY?CPU

?PR?_SAVEFWREVEE?ETC_EEP                         -----    -----      0002H    0002H
  +--> ?PR?_WRITEEEP?I2C

?PR?_WRITEEEP?I2C                                -----    -----      0028H    0004H
  +--> ?PR?I2CSTART?I2C
  +--> ?PR?_I2CWRITEDATA?I2C
  +--> ?PR?I2CSTOP?I2C
  +--> ?PR?_DELAY?CPU

?PR?_SAVEDEBUGLEVELEE?ETC_EEP                    -----    -----      -----    -----
  +--> ?PR?_WRITEEEP?I2C

?PR?_SAVEINPUTSELECTIONEE?ETC_EEP                -----    -----      -----    -----
  +--> ?PR?_WRITEEEP?I2C

?PR?CLEARBASICEE?ETC_EEP                         -----    -----      -----    -----
  +--> ?PR?_WRITEEEP?I2C
  +--> ?PR?RESETOSDVALUE?OSDMENU
  +--> ?PR?RESETVIDEOVALUE?OSDMENU

?PR?RESETOSDVALUE?OSDMENU                        -----    -----      -----    -----
  +--> ?CO?OSDMENU
BL51 BANKED LINKER/LOCATER V6.22.2.0                                                  06/22/2022  16:23:04  PAGE 10


  +--> ?PR?_SAVEOSDPOSITIONMODEEE?ETC_EEP
  +--> ?PR?_READEEP?I2C
  +--> ?PR?_WRITEEEP?I2C
  +--> ?PR?_CHANGEVOL?AUDIO
  +--> ?PR?_CAMOUTDSEL?OSDMENU
  +--> ?PR?_PUTS?PRINTF
  +--> ?PR?_CLEARDATACNT?OSDBASIC
  +--> ?PR?LOADEEPROM?MAIN
  +--> ?PR?_SAVEOSDLANGEE?ETC_EEP
  +--> ?PR?INITOSDMENU?OSDMENU
  +--> ?PR?CHECKMIRROR?HS_KEYREMO

?PR?_SAVEOSDPOSITIONMODEEE?ETC_EEP               -----    -----      -----    -----
  +--> ?PR?_WRITEEEP?I2C

?PR?_CHANGEVOL?AUDIO                             -----    -----      0013H    0002H
  +--> ?PR?AUDIOMUTE?AUDIO
  +--> ?CO?OSDMENU
  +--> ?PR?_WRITEI2C?I2C
  +--> ?CO?AUDIO
  +--> ?PR?_SETPCAUDIOVOLEE?ETC_EEP
  +--> ?PR?_SETAUDIOVOLEE?ETC_EEP
  +--> ?PR?_PRINTF?PRINTF

?PR?_SETPCAUDIOVOLEE?ETC_EEP                     -----    -----      -----    -----
  +--> ?PR?_WRITEEEP?I2C

?PR?_SETAUDIOVOLEE?ETC_EEP                       -----    -----      -----    -----
  +--> ?PR?_WRITEEEP?I2C

?PR?_CAMOUTDSEL?OSDMENU                          -----    -----      0009H    0001H
  +--> ?CO?OSDMENU
  +--> ?PR?_PUTS?PRINTF

?PR?_CLEARDATACNT?OSDBASIC                       -----    -----      0030H    0003H
  +--> ?PR?OSDBASIC
  +--> ?PR?_WRITEI2C?I2C
  +--> ?PR?_WRITEI2CND?I2C

?PR?OSDBASIC                                     -----    -----      -----    -----
  +--> ?CO?OSDBASIC

?PR?_WRITEI2CND?I2C                              -----    -----      0034H    0005H
  +--> ?PR?I2C
  +--> ?PR?I2CSTART?I2C
  +--> ?PR?_I2CWRITEDATA?I2C
  +--> ?PR?I2CSTOP?I2C

?PR?LOADEEPROM?MAIN                              -----    -----      -----    -----
  +--> ?PR?_READEEP?I2C
  +--> ?PR?GETAUDIOVOLEE?ETC_EEP
  +--> ?PR?GETPCAUDIOVOLEE?ETC_EEP

?PR?GETAUDIOVOLEE?ETC_EEP                        -----    -----      -----    -----
  +--> ?PR?_READEEP?I2C

?PR?GETPCAUDIOVOLEE?ETC_EEP                      -----    -----      -----    -----
BL51 BANKED LINKER/LOCATER V6.22.2.0                                                  06/22/2022  16:23:04  PAGE 11


  +--> ?PR?_READEEP?I2C

?PR?_SAVEOSDLANGEE?ETC_EEP                       -----    -----      -----    -----
  +--> ?PR?_WRITEEEP?I2C

?PR?INITOSDMENU?OSDMENU                          -----    -----      000DH    0001H
  +--> ?PR?GETOSDLANGEE?ETC_EEP
  +--> ?PR?GETINPUTSELECTION?MAIN
  +--> ?CO?OSDMENU
  +--> ?PR?OSDMENU
  +--> ?CO?OSDBASIC
  +--> ?PR?_INITOSDWINDOW?OSDBASIC
  +--> ?PR?_CLEARDATACNT?OSDBASIC
  +--> ?PR?GETOSDPOSITIONMODEEE?ETC_EEP
  +--> ?PR?INITOSDMENUXY?OSDMENU
  +--> ?PR?DISPLAYOSDMENU?OSDMENU

?PR?GETOSDLANGEE?ETC_EEP                         -----    -----      -----    -----
  +--> ?PR?_READEEP?I2C

?PR?OSDMENU                                      -----    -----      -----    -----
  +--> ?CO?OSDMENU
  +--> ?CO?MAIN

?PR?_INITOSDWINDOW?OSDBASIC                      -----    -----      0016H    0005H
  +--> ?PR?_READI2C?I2C
  +--> ?PR?_WRITEI2C?I2C
  +--> ?PR?OSDBASIC
  +--> ?PR?_WRITEI2CN_?I2C

?PR?_WRITEI2CN_?I2C                              -----    -----      001BH    0006H
  +--> ?PR?I2CSTART?I2C
  +--> ?PR?_I2CWRITEDATA?I2C
  +--> ?PR?I2C
  +--> ?PR?I2CSTOP?I2C

?PR?GETOSDPOSITIONMODEEE?ETC_EEP                 -----    -----      -----    -----
  +--> ?PR?_READEEP?I2C

?PR?INITOSDMENUXY?OSDMENU                        -----    -----      000EH    0007H
  +--> ?CO?OSDMENU
  +--> ?PR?OSDMENU
  +--> ?PR?_GETOSDWINDOWX?OSDBASIC
  +--> ?PR?_SETOSDWINDOWX_TW88?OSDBASIC
  +--> ?PR?_GETOSDWINDOWY?OSDBASIC
  +--> ?PR?_SETOSDWINDOWY_TW88?OSDBASIC

?PR?_GETOSDWINDOWX?OSDBASIC                      -----    -----      0028H    0002H
  +--> ?PR?OSDBASIC
  +--> ?PR?_WRITEI2C?I2C
  +--> ?PR?_READI2C?I2C

?PR?_SETOSDWINDOWX_TW88?OSDBASIC                 -----    -----      0015H    0003H
  +--> ?PR?OSDBASIC
  +--> ?PR?_WRITEI2C?I2C
  +--> ?PR?_READI2C?I2C

BL51 BANKED LINKER/LOCATER V6.22.2.0                                                  06/22/2022  16:23:04  PAGE 12


?PR?_GETOSDWINDOWY?OSDBASIC                      -----    -----      0028H    0002H
  +--> ?PR?OSDBASIC
  +--> ?PR?_WRITEI2C?I2C
  +--> ?PR?_READI2C?I2C

?PR?_SETOSDWINDOWY_TW88?OSDBASIC                 -----    -----      0015H    0003H
  +--> ?PR?OSDBASIC
  +--> ?PR?_WRITEI2C?I2C
  +--> ?PR?_READI2C?I2C

?PR?DISPLAYOSDMENU?OSDMENU                       -----    -----      -----    -----
  +--> ?PR?_DRAWATTRCNT?OSDBASIC
  +--> ?PR?OSDMENU
  +--> ?PR?GETINPUTSELECTION?MAIN
  +--> ?PR?_READEEP?I2C
  +--> ?PR?_DRAWMENULIST?OSDMENU
  +--> ?PR?PUSHMENU?OSDMENU
  +--> ?PR?POPMENU?OSDMENU
  +--> ?PR?DISPLAYCURSOR?OSDMENU

?PR?_DRAWATTRCNT?OSDBASIC                        -----    -----      0030H    0004H
  +--> ?PR?OSDBASIC
  +--> ?PR?_WRITEI2C?I2C
  +--> ?PR?_WRITEI2CND?I2C

?PR?_DRAWMENULIST?OSDMENU                        -----    -----      0011H    000CH
  +--> ?PR?OSDMENU
  +--> ?PR?_STRLEN?OSDBASIC
  +--> ?PR?_DRAWATTRCNT?OSDBASIC
  +--> ?PR?_WRITESTRINGTOADDR?OSDBASIC
  +--> ?PR?_CLEARDATACNT?OSDBASIC
  +--> ?PR?_WRITEI2C?I2C
  +--> ?PR?_DISPLAYOSDMENUONEITEM?OSDMENU
  +--> ?PR?_GETLOWERMENUITEM?OSDMENU

?PR?_STRLEN?OSDBASIC                             -----    -----      004FH    0003H

?PR?_WRITESTRINGTOADDR?OSDBASIC                  -----    -----      004FH    0006H
  +--> ?PR?OSDBASIC
  +--> ?PR?_WRITEI2C?I2C
  +--> ?PR?_WRITEI2CN?I2C

?PR?_WRITEI2CN?I2C                               -----    -----      0055H    0007H
  +--> ?PR?I2C
  +--> ?PR?I2CSTART?I2C
  +--> ?PR?_I2CWRITEDATA?I2C
  +--> ?PR?I2CSTOP?I2C

?PR?_DISPLAYOSDMENUONEITEM?OSDMENU               -----    -----      001DH    0013H
  +--> ?PR?OSDMENU
  +--> ?PR?_WRITESTRINGTOADDR?OSDBASIC
  +--> ?PR?_DRAWATTRCNT?OSDBASIC
  +--> ?PR?_CLEARDATACNT?OSDBASIC
  +--> ?PR?_AWT_DISPLAYVIEWBAR?OSDMENU
  +--> ?PR?_DISPLAYVIEWBAR?OSDMENU
  +--> ?PR?_GETITEMVALUE?OSDMENU
  +--> ?PR?_DRAWNUM?OSDMENU
BL51 BANKED LINKER/LOCATER V6.22.2.0                                                  06/22/2022  16:23:04  PAGE 13


  +--> ?CO?OSDMENU
  +--> ?PR?_DRAWSTRINGBYLANG?OSDMENU
  +--> ?PR?_STRLEN?OSDBASIC

?PR?_AWT_DISPLAYVIEWBAR?OSDMENU                  -----    -----      0030H    000EH
  +--> ?PR?OSDMENU
  +--> ?CO?OSDMENU
  +--> ?PR?_WRITESTRINGTOADDR?OSDBASIC

?PR?_DISPLAYVIEWBAR?OSDMENU                      -----    -----      0030H    000EH
  +--> ?PR?OSDMENU
  +--> ?CO?OSDMENU
  +--> ?PR?_WRITESTRINGTOADDR?OSDBASIC

?PR?_GETITEMVALUE?OSDMENU                        -----    -----      0030H    0003H
  +--> ?PR?GETOSDPOSITIONMODE?OSDMENU
  +--> ?PR?_READEEP?I2C
  +--> ?PR?_GETVIDEODATAWITHOFFSET?OSDMENU
  +--> ?PR?OSDMENU

?PR?GETOSDPOSITIONMODE?OSDMENU                   -----    -----      -----    -----
  +--> ?PR?GETOSDPOSITIONMODEEE?ETC_EEP

?PR?_GETVIDEODATAWITHOFFSET?OSDMENU              -----    -----      -----    -----
  +--> ?PR?_GETVIDEODATAFROMEE?ETC_EEP
  +--> ?PR?OSDMENU

?PR?_GETVIDEODATAFROMEE?ETC_EEP                  -----    -----      -----    -----
  +--> ?PR?_READEEP?I2C

?PR?_DRAWNUM?OSDMENU                             -----    -----      0030H    001FH
  +--> ?PR?OSDMENU
  +--> ?CO?OSDMENU
  +--> ?PR?_UTOA?OSDBASIC
  +--> ?PR?_STRLEN?OSDBASIC
  +--> ?PR?_WRITESTRINGTOADDR?OSDBASIC

?PR?_UTOA?OSDBASIC                               -----    -----      004FH    000EH
  +--> ?PR?OSDBASIC

?PR?_DRAWSTRINGBYLANG?OSDMENU                    -----    -----      0030H    0018H
  +--> ?PR?OSDMENU
  +--> ?CO?OSDMENU
  +--> ?PR?_WRITESTRINGTOADDR?OSDBASIC
  +--> ?PR?_STRLEN?OSDBASIC

?PR?_GETLOWERMENUITEM?OSDMENU                    -----    -----      001DH    0004H

?PR?PUSHMENU?OSDMENU                             -----    -----      -----    -----
  +--> ?PR?OSDMENU

?PR?POPMENU?OSDMENU                              -----    -----      -----    -----
  +--> ?PR?OSDMENU

?PR?DISPLAYCURSOR?OSDMENU                        -----    -----      000EH    0004H
  +--> ?PR?OSDMENU
  +--> ?PR?_DRAWATTRCNT?OSDBASIC
BL51 BANKED LINKER/LOCATER V6.22.2.0                                                  06/22/2022  16:23:04  PAGE 14


  +--> ?PR?_GETITEMVALUE?OSDMENU

?PR?CHECKMIRROR?HS_KEYREMO                       -----    -----      0018H    0001H
  +--> ?PR?_READEEP?I2C
  +--> ?PR?_WRITEI2C?I2C
  +--> ?PR?_WAIT_MS?CPU

?PR?RESETVIDEOVALUE?OSDMENU                      -----    -----      0009H    0002H
  +--> ?PR?OSDMENU
  +--> ?CO?OSDMENU
  +--> ?PR?_SETVIDEOMODE?OSDMENU
  +--> ?PR?_SAVEVIDEODATATOEE?ETC_EEP

?PR?_SETVIDEOMODE?OSDMENU                        -----    -----      0019H    0007H
  +--> ?PR?_WRITEEEP?I2C
  +--> ?CO?OSDMENU
  +--> ?PR?_WRITEI2C?I2C
  +--> ?PR?OSDMENU
  +--> ?PR?_GETVIDEODATAWITHOFFSET?OSDMENU
  +--> ?PR?_SETVIDEOCONTRAST?OSDMENU
  +--> ?PR?_SETVIDEOBRIGHTNESS?OSDMENU
  +--> ?PR?_SETVIDEOSATURATION?OSDMENU
  +--> ?PR?_SETVIDEOHUE?OSDMENU
  +--> ?PR?_MAPPING1?TW88
  +--> ?PR?_READI2C?I2C

?PR?_SETVIDEOCONTRAST?OSDMENU                    -----    -----      0020H    0002H
  +--> ?PR?OSDMENU
  +--> ?CO?OSDMENU
  +--> ?PR?_MAPPING1?TW88
  +--> ?PR?_WRITEI2C?I2C

?PR?_MAPPING1?TW88                               -----    -----      0024H    000FH
  +--> ?PR?TW88

?PR?_SETVIDEOBRIGHTNESS?OSDMENU                  -----    -----      0020H    0002H
  +--> ?PR?OSDMENU
  +--> ?CO?OSDMENU
  +--> ?PR?_MAPPING1?TW88
  +--> ?PR?ISINPUTANALOGRGB?OSDMENU
  +--> ?PR?_WRITEI2C?I2C

?PR?_SETVIDEOSATURATION?OSDMENU                  -----    -----      0020H    0004H
  +--> ?PR?ISINPUTANALOGRGB?OSDMENU
  +--> ?PR?OSDMENU
  +--> ?CO?OSDMENU
  +--> ?PR?_MAPPING1?TW88
  +--> ?PR?_READI2C?I2C
  +--> ?PR?_WRITEI2C?I2C

?PR?_SETVIDEOHUE?OSDMENU                         -----    -----      0020H    0003H
  +--> ?PR?OSDMENU
  +--> ?CO?OSDMENU
  +--> ?PR?_MAPPING1?TW88
  +--> ?PR?_READI2C?I2C
  +--> ?PR?ISINPUTANALOGRGB?OSDMENU
  +--> ?PR?_WRITEI2C?I2C
BL51 BANKED LINKER/LOCATER V6.22.2.0                                                  06/22/2022  16:23:04  PAGE 15



?PR?_SAVEVIDEODATATOEE?ETC_EEP                   -----    -----      -----    -----
  +--> ?PR?_WRITEEEP?I2C

?PR?GETDEBUGLEVELEE?ETC_EEP                      -----    -----      -----    -----
  +--> ?PR?_READEEP?I2C

?PR?_SETVINPUTSTD?MAIN                           -----    -----      -----    -----
  +--> ?PR?MAIN

?PR?MAIN                                         -----    -----      -----    -----
  +--> ?CO?MAIN

?PR?_LCDPOWERON?TW88                             -----    -----      0013H    0001H
  +--> ?PR?CHECKTRIGGER?HS_KEYREMO
  +--> ?PR?_POWERLED?CPU
  +--> ?PR?OFF_LVDS?TW88
  +--> ?PR?_DELAY?CPU
  +--> ?PR?ON_LVDS?TW88
  +--> ?PR?_WRITEI2C?I2C
  +--> ?CO?TW88
  +--> ?PR?_PUTS?PRINTF
  +--> ?PR?_WAIT_MS?CPU
  +--> ?PR?_GETKEY?KEYREMO
  +--> ?PR?_PRINTF?PRINTF

?PR?CHECKTRIGGER?HS_KEYREMO                      -----    -----      0014H    0001H
  +--> ?PR?_WAIT_MS?CPU

?PR?_GETKEY?KEYREMO                              0024H.1  0000H.1    -----    -----

?PR?SETPOSSIBLEAUTODETECTSTDEE?ETC_EEP           -----    -----      0002H    0002H
  +--> ?CO?MAIN
  +--> ?PR?_WRITEEEP?I2C

?PR?CHANGE_OSDCOLORLOOKUP?OSDBASIC               -----    -----      000DH    0002H
  +--> ?PR?OSDBASIC
  +--> ?CO?UDFONT
  +--> ?PR?_WRITEI2C?I2C

?PR?DOWNLOADUDFONT?OSDBASIC                      -----    -----      0005H    0001H
  +--> ?PR?_WRITEI2C?I2C
  +--> ?CO?UDFONT
  +--> ?PR?_DOWNLOADFONT?OSDBASIC

?PR?_DOWNLOADFONT?OSDBASIC                       -----    -----      0006H    0004H
  +--> ?PR?_READI2C?I2C
  +--> ?PR?_WRITEI2C?I2C
  +--> ?PR?_WRITEI2CN?I2C

?PR?_DISPLAYINFORMATION?HS_DISPLAYOSD            -----    -----      0004H    0001H
  +--> ?PR?_CLEARDATACNT?OSDBASIC
  +--> ?CO?HS_DISPLAYOSD
  +--> ?PR?_INITOSDWINDOW?OSDBASIC
  +--> ?PR?HS_DISPLAYOSD
  +--> ?PR?_DRAWATTRCNT?OSDBASIC
  +--> ?PR?_SHOWOSDWINDOW_TW88?OSDBASIC
BL51 BANKED LINKER/LOCATER V6.22.2.0                                                  06/22/2022  16:23:04  PAGE 16


  +--> ?PR?WAITENDOFDISPLAYAREA?OSDBASIC
  +--> ?PR?_WRITESTRINGTOADDR?OSDBASIC
  +--> ?PR?_SETDISPLAYEDOSD?DISPINFO
  +--> ?PR?_SHOWOSDWINDOWALL?OSDBASIC
  +--> ?PR?_WRITEI2C?I2C

?PR?HS_DISPLAYOSD                                -----    -----      -----    -----
  +--> ?CO?HS_DISPLAYOSD

?PR?_SHOWOSDWINDOW_TW88?OSDBASIC                 -----    -----      0018H    0002H
  +--> ?PR?OSDBASIC
  +--> ?PR?_WRITEI2C?I2C
  +--> ?PR?_READI2C?I2C
  +--> ?PR?WAITENDOFDISPLAYAREA?OSDBASIC

?PR?WAITENDOFDISPLAYAREA?OSDBASIC                -----    -----      0028H    0002H
  +--> ?PR?_READI2C?I2C

?PR?_SHOWOSDWINDOWALL?OSDBASIC                   -----    -----      0018H    0002H
  +--> ?PR?WAITENDOFDISPLAYAREA?OSDBASIC
  +--> ?PR?_READI2C?I2C
  +--> ?PR?_WRITEI2C?I2C

?PR?CLEARGAUGEINFO?HS_DISPLAYOSD                 -----    -----      -----    -----
  +--> ?PR?_SHOWOSDWINDOW_TW88?OSDBASIC

?PR?PROMPT?MONITOR                               -----    -----      -----    -----
  +--> ?CO?MONITOR
  +--> ?PR?_PRINTF?PRINTF

?PR?SETNOWMODE?HS_KEYREMO                        -----    -----      -----    -----
  +--> ?CO?HS_KEYREMO
  +--> ?PR?HS_KEYREMO
  +--> ?PR?_PRINTF?PRINTF
  +--> ?PR?_CHECKSOURCEMODE?HS_KEYREMO
  +--> ?PR?_READEEP?I2C

?PR?_CHECKSOURCEMODE?HS_KEYREMO                  -----    -----      -----    -----
  +--> ?CO?HS_KEYREMO
  +--> ?PR?_PRINTF?PRINTF
  +--> ?PR?_CHANGEINPUT?MAIN
  +--> ?PR?DISPLAYINPUT?DISPINFO
  +--> ?PR?_WRITEEEP?I2C
  +--> ?PR?HS_KEYREMO

?PR?_CHANGEINPUT?MAIN                            -----    -----      0012H    0001H
  +--> ?PR?_WRITEI2C?I2C
  +--> ?PR?_INITVIDEODATA?MAIN
  +--> ?PR?COMPOSITE1INPUT?TW88
  +--> ?PR?_CHANGEVOL?AUDIO
  +--> ?PR?_READI2C?I2C
  +--> ?CO?MAIN
  +--> ?PR?COMPOSITE4INPUT?TW88
  +--> ?PR?COMPOSITE3INPUT?TW88
  +--> ?PR?COMPOSITE2INPUT?TW88
  +--> ?PR?_WAIT_MS?CPU
  +--> ?PR?MAIN
BL51 BANKED LINKER/LOCATER V6.22.2.0                                                  06/22/2022  16:23:04  PAGE 17


  +--> ?PR?_PRINTF?PRINTF
  +--> ?PR?CHECKPANELIMAGE?OSDMENU
  +--> ?PR?_SAVEINPUTSELECTIONEE?ETC_EEP
  +--> ?PR?_DELAY?CPU
  +--> ?PR?CHECKDECODERINPUT?MAIN
  +--> ?PR?CHECKMIRROR?HS_KEYREMO
  +--> ?PR?DISPLAYINPUT?DISPINFO
  +--> ?PR?_LCDPOWERON?TW88

?PR?_INITVIDEODATA?MAIN                          -----    -----      0018H    0001H
  +--> ?CO?TABLE
  +--> ?PR?_I2CDEVICEINITIALIZE?MAIN
  +--> ?PR?_CLEARAUTODETECTSTD?TW88
  +--> ?PR?SETAUTODETECTSTD?TW88
  +--> ?PR?_WRITEI2C?I2C
  +--> ?PR?_READEEP?I2C
  +--> ?PR?_SETVIDEOMODE?OSDMENU
  +--> ?CO?MAIN
  +--> ?PR?MAIN
  +--> ?PR?_PRINTF?PRINTF

?PR?_I2CDEVICEINITIALIZE?MAIN                    -----    -----      0019H    0006H
  +--> ?PR?MAIN
  +--> ?PR?_WRITEI2C?I2C

?PR?_CLEARAUTODETECTSTD?TW88                     -----    -----      0019H    0001H
  +--> ?PR?_READI2C?I2C
  +--> ?PR?_WRITEI2C?I2C

?PR?SETAUTODETECTSTD?TW88                        -----    -----      -----    -----
  +--> ?PR?GETPOSSIBLEAUTODETECTSTDEE?ETC_EEP
  +--> ?PR?_WRITEI2C?I2C
  +--> ?PR?_READI2C?I2C

?PR?GETPOSSIBLEAUTODETECTSTDEE?ETC_EEP           -----    -----      -----    -----
  +--> ?PR?_READEEP?I2C

?PR?COMPOSITE1INPUT?TW88                         -----    -----      -----    -----
  +--> ?PR?_WRITEI2C?I2C
  +--> ?PR?TW88
  +--> ?PR?_READI2C?I2C

?PR?COMPOSITE4INPUT?TW88                         -----    -----      -----    -----
  +--> ?PR?_WRITEI2C?I2C
  +--> ?PR?TW88
  +--> ?PR?_READI2C?I2C

?PR?COMPOSITE3INPUT?TW88                         -----    -----      -----    -----
  +--> ?PR?_WRITEI2C?I2C
  +--> ?PR?TW88
  +--> ?PR?_READI2C?I2C

?PR?COMPOSITE2INPUT?TW88                         -----    -----      -----    -----
  +--> ?PR?_WRITEI2C?I2C
  +--> ?PR?TW88
  +--> ?PR?_READI2C?I2C

BL51 BANKED LINKER/LOCATER V6.22.2.0                                                  06/22/2022  16:23:04  PAGE 18


?PR?CHECKPANELIMAGE?OSDMENU                      -----    -----      -----    -----
  +--> ?PR?_READI2C?I2C
  +--> ?PR?_WRITEI2C?I2C

?PR?CHECKDECODERINPUT?MAIN                       -----    -----      0013H    0005H
  +--> ?PR?DETECTDECODERINPUT?TW88
  +--> ?PR?_SETVINPUTSTD?MAIN
  +--> ?PR?CLEARGAUGEINFO?HS_DISPLAYOSD
  +--> ?PR?_DELAY?CPU
  +--> ?PR?_INITVIDEODATA?MAIN

?PR?DETECTDECODERINPUT?TW88                      -----    -----      0018H    0002H
  +--> ?PR?_DELAY?CPU
  +--> ?PR?_READI2C?I2C

?PR?DISPLAYINPUT?DISPINFO                        -----    -----      0013H    0003H
  +--> ?PR?CLEAROSDINFO?DISPINFO
  +--> ?CO?OSDBASIC
  +--> ?PR?_INITOSDWINDOW?OSDBASIC
  +--> ?PR?_CLEARDATACNT?OSDBASIC
  +--> ?CO?DISPINFO
  +--> ?PR?DISPINFO
  +--> ?PR?_WRITESTRINGTOADDR?OSDBASIC
  +--> ?PR?GETINPUTSELECTION?MAIN
  +--> ?CO?MAIN
  +--> ?PR?_STRLEN?OSDBASIC
  +--> ?PR?_DRAWATTRCNT?OSDBASIC
  +--> ?PR?_READEEP?I2C
  +--> ?PR?_SHOWOSDWINDOW_TW88?OSDBASIC
  +--> ?PR?_SHOWOSDWINDOWALL?OSDBASIC
  +--> ?PR?VLOSSHANDLER?DISPINFO
  +--> ?PR?GETTIME_MS?CPU

?PR?CLEAROSDINFO?DISPINFO                        -----    -----      0016H    0001H
  +--> ?PR?GETDISPLAYEDOSD?DISPINFO
  +--> ?CO?DISPINFO
  +--> ?PR?_PRINTF?PRINTF
  +--> ?PR?CLEARTVINFO?DISPINFO
  +--> ?PR?CLEARMUTEINFO?DISPINFO
  +--> ?PR?CLEARINPUT?DISPINFO
  +--> ?PR?CLOSEOSDMENU?OSDMENU
  +--> ?PR?CLEARGAUGEINFO?HS_DISPLAYOSD
  +--> ?PR?CLEARVLOSSOSD?DISPINFO

?PR?CLEARTVINFO?DISPINFO                         -----    -----      -----    -----
  +--> ?PR?_SHOWOSDWINDOWALL?OSDBASIC
  +--> ?PR?CHECKMIRROR?HS_KEYREMO
  +--> ?PR?_SHOWOSDWINDOW_TW88?OSDBASIC

?PR?CLEARMUTEINFO?DISPINFO                       -----    -----      -----    -----
  +--> ?PR?_SHOWOSDWINDOW_TW88?OSDBASIC

?PR?CLEARINPUT?DISPINFO                          -----    -----      -----    -----
  +--> ?PR?_SHOWOSDWINDOWALL?OSDBASIC
  +--> ?PR?_SHOWOSDWINDOW_TW88?OSDBASIC

?PR?CLOSEOSDMENU?OSDMENU                         -----    -----      0017H    0001H
BL51 BANKED LINKER/LOCATER V6.22.2.0                                                  06/22/2022  16:23:04  PAGE 19


  +--> ?PR?_SHOWOSDWINDOWALL?OSDBASIC
  +--> ?PR?WAITENDOFDISPLAYAREA?OSDBASIC
  +--> ?PR?OSDMENU
  +--> ?PR?_WRITEI2C?I2C
  +--> ?PR?_CLEARDISPLAYEDOSD?DISPINFO
  +--> ?PR?CHECKMIRROR?HS_KEYREMO

?PR?CLEARVLOSSOSD?DISPINFO                       -----    -----      -----    -----
  +--> ?PR?_SHOWOSDWINDOW_TW88?OSDBASIC
  +--> ?PR?_CLEARDISPLAYEDOSD?DISPINFO

?PR?DISPINFO                                     -----    -----      -----    -----
  +--> ?CO?DISPINFO

?PR?VLOSSHANDLER?DISPINFO                        -----    -----      -----    -----
  +--> ?PR?GETDISPLAYEDOSD?DISPINFO
  +--> ?PR?_CLEARDISPLAYEDOSD?DISPINFO
  +--> ?PR?_CLEARDATACNT?OSDBASIC
  +--> ?CO?DISPINFO
  +--> ?PR?_PRINTF?PRINTF

?PR?GETTIME_MS?CPU                               -----    -----      0016H    0002H

?PR?MAIN_LOOP?MAIN                               -----    -----      0000H    0001H
  +--> ?CO?MAIN
  +--> ?PR?_PUTS?PRINTF
  +--> ?PR?RS_READY?CPU
  +--> ?PR?MONITOR?MONITOR
  +--> ?PR?CHECKTRIGGER?HS_KEYREMO
  +--> ?PR?_TRIGGERHANDLER?HS_KEYREMO
  +--> ?PR?SEQMODE?HS_KEYREMO
  +--> ?PR?_READI2C?I2C
  +--> ?PR?_ADJUSTAUTODAYNIGHT?MAIN
  +--> ?PR?CHECKKEYIN?KEYREMO
  +--> ?PR?GETDISPLAYEDOSD?DISPINFO
  +--> ?PR?_SETDISPLAYEDOSD?DISPINFO
  +--> ?PR?DISPLAYINPUT?DISPINFO
  +--> ?PR?_READEEP?I2C
  +--> ?PR?DISPLAYGAUGEOSD?HS_DISPLAYOSD
  +--> ?PR?CLEARINPUT2S?DISPINFO
  +--> ?PR?VLOSSHANDLER?DISPINFO
  +--> ?PR?GETINPUTSELECTION?MAIN
  +--> ?PR?CHECKDECODERINPUT?MAIN
  +--> ?PR?_WRITEI2C?I2C
  +--> ?PR?_POWERLED?CPU
  +--> ?PR?_WAIT_MS?CPU

?PR?MONITOR?MONITOR                              -----    -----      0001H    0001H
  +--> ?PR?MONGETCOMMAND?MONITOR
  +--> ?CO?MONITOR
  +--> ?PR?MONWRITEI2C?MONITOR
  +--> ?PR?MONNEWWRITEI2C?MONITOR
  +--> ?PR?MONREADI2C?MONITOR
  +--> ?PR?MONNEWREADI2C?MONITOR
  +--> ?PR?_PUTS?PRINTF
  +--> ?PR?MONDUMPI2C?MONITOR
  +--> ?PR?MONNEWDUMPI2C?MONITOR
BL51 BANKED LINKER/LOCATER V6.22.2.0                                                  06/22/2022  16:23:04  PAGE 20


  +--> ?PR?MONWRITEBIT?MONITOR
  +--> ?PR?_ASC2BIN?MONITOR
  +--> ?PR?MONHELP?MONITOR
  +--> ?PR?_PRINTF?PRINTF
  +--> ?PR?LCDPOWER?TW88
  +--> ?PR?_SAVEDEBUGLEVELEE?ETC_EEP
  +--> ?PR?MONITOR
  +--> ?PR?RS_READY?CPU
  +--> ?PR?_READI2C?I2C
  +--> ?PR?DISPLAYINPUT?DISPINFO
  +--> ?PR?_SHOWOSDWINDOWALL?OSDBASIC
  +--> ?PR?MONTXDUMP?MONITOR
  +--> ?PR?_STRICMP?MONITOR
  +--> ?PR?_DISPLAYRAMFONT?OSDBASIC
  +--> ?PR?_DISPLAYROMFONT?OSDBASIC
  +--> ?PR?PROMPT?MONITOR

?PR?MONGETCOMMAND?MONITOR                        -----    -----      0002H    0003H
  +--> ?PR?RS_READY?CPU
  +--> ?PR?RS_RX?CPU
  +--> ?PR?_MON_TX?MONITOR
  +--> ?PR?PROMPT?MONITOR
  +--> ?PR?MONITOR
  +--> ?PR?_MONINCDECI2C?MONITOR

?PR?_MON_TX?MONITOR                              -----    -----      -----    -----
  +--> ?PR?_RS_TX?CPU

?PR?MONITOR                                      -----    -----      -----    -----
  +--> ?CO?MONITOR
  +--> ?PR?_ASC2BIN?MONITOR

?PR?_ASC2BIN?MONITOR                             -----    -----      -----    -----
  +--> ?PR?_ASC1BIN?MONITOR

?PR?_MONINCDECI2C?MONITOR                        -----    -----      -----    -----
  +--> ?PR?MONITOR
  +--> ?PR?_WRITEI2C?I2C
  +--> ?PR?_READI2C?I2C
  +--> ?CO?MONITOR
  +--> ?PR?_PRINTF?PRINTF
  +--> ?PR?PROMPT?MONITOR

?PR?MONWRITEI2C?MONITOR                          -----    -----      -----    -----
  +--> ?PR?MONITOR
  +--> ?PR?_ASC2BIN?MONITOR
  +--> ?CO?MONITOR
  +--> ?PR?_PRINTF?PRINTF
  +--> ?PR?_WRITEI2C?I2C
  +--> ?PR?_READI2C?I2C

?PR?MONNEWWRITEI2C?MONITOR                       -----    -----      0002H    0001H
  +--> ?PR?MONITOR
  +--> ?PR?_ASC2BIN?MONITOR
  +--> ?PR?_WRITEI2C?I2C
  +--> ?PR?_READI2C?I2C
  +--> ?PR?_PRINTF?PRINTF
BL51 BANKED LINKER/LOCATER V6.22.2.0                                                  06/22/2022  16:23:04  PAGE 21



?PR?MONREADI2C?MONITOR                           -----    -----      -----    -----
  +--> ?PR?MONITOR
  +--> ?PR?_ASC2BIN?MONITOR
  +--> ?PR?_PRINTF?PRINTF
  +--> ?PR?_READI2C?I2C
  +--> ?CO?MONITOR

?PR?MONNEWREADI2C?MONITOR                        -----    -----      0002H    0001H
  +--> ?PR?MONITOR
  +--> ?PR?_PRINTF?PRINTF
  +--> ?PR?_ASC2BIN?MONITOR
  +--> ?PR?_READI2C?I2C

?PR?MONDUMPI2C?MONITOR                           -----    -----      0002H    0003H
  +--> ?PR?MONITOR
  +--> ?PR?_ASC2BIN?MONITOR
  +--> ?PR?_READI2C?I2C
  +--> ?CO?MONITOR
  +--> ?PR?_PRINTF?PRINTF

?PR?MONNEWDUMPI2C?MONITOR                        -----    -----      0002H    0004H
  +--> ?PR?MONITOR
  +--> ?PR?_ASC2BIN?MONITOR
  +--> ?PR?_READI2C?I2C
  +--> ?CO?MONITOR
  +--> ?PR?_PRINTF?PRINTF

?PR?MONWRITEBIT?MONITOR                          -----    -----      0002H    0005H
  +--> ?PR?MONITOR
  +--> ?PR?_ASC2BIN?MONITOR
  +--> ?CO?MONITOR
  +--> ?PR?_WRITEI2C?I2C
  +--> ?PR?_READI2C?I2C
  +--> ?PR?_PRINTF?PRINTF

?PR?MONHELP?MONITOR                              -----    -----      -----    -----
  +--> ?CO?MONITOR
  +--> ?PR?_PRINTF?PRINTF

?PR?LCDPOWER?TW88                                -----    -----      -----    -----
  +--> ?PR?POWERDOWN_XTAL?MAIN
  +--> ?CO?TW88
  +--> ?PR?_DELAY?CPU
  +--> ?PR?_LCDPOWERON?TW88
  +--> ?PR?_PRINTF?PRINTF

?PR?MONTXDUMP?MONITOR                            -----    -----      0002H    0002H
  +--> ?PR?MONITOR
  +--> ?CO?MONITOR
  +--> ?PR?_PUTS?PRINTF
  +--> ?PR?_A2I?MONITOR
  +--> ?PR?_RS_TX?CPU

?PR?_A2I?MONITOR                                 -----    -----      0004H    0008H
  +--> ?PR?MONITOR

BL51 BANKED LINKER/LOCATER V6.22.2.0                                                  06/22/2022  16:23:04  PAGE 22


?PR?_STRICMP?MONITOR                             -----    -----      0002H    0008H
  +--> ?PR?MONITOR
  +--> ?PR?_TOUPPER?MONITOR

?PR?_DISPLAYRAMFONT?OSDBASIC                     -----    -----      0002H    0003H
  +--> ?PR?_WRITEI2C?I2C
  +--> ?PR?OSDBASIC
  +--> ?CO?OSDBASIC
  +--> ?PR?_PUTS?PRINTF
  +--> ?PR?RS_READY?CPU
  +--> ?PR?DOWNLOADUDFONT?OSDBASIC
  +--> ?PR?_PRINTF?PRINTF

?PR?_DISPLAYROMFONT?OSDBASIC                     -----    -----      0002H    0002H
  +--> ?PR?OSDBASIC
  +--> ?PR?_WRITEI2C?I2C
  +--> ?CO?OSDBASIC
  +--> ?PR?_PUTS?PRINTF
  +--> ?PR?RS_READY?CPU

?PR?_TRIGGERHANDLER?HS_KEYREMO                   -----    -----      0002H    000BH
  +--> ?PR?HS_KEYREMO
  +--> ?PR?GETDISPLAYEDOSD?DISPINFO
  +--> ?CO?HS_KEYREMO
  +--> ?PR?SETREARSOURCE?HS_KEYREMO
  +--> ?PR?CLEARGAUGEINFO?HS_DISPLAYOSD
  +--> ?PR?SETLEFTSOURCE?HS_KEYREMO
  +--> ?PR?CLEAROSDINFO?DISPINFO
  +--> ?PR?INITOSDMENU?OSDMENU
  +--> ?PR?CHANGE_OSDCOLORLOOKUP?OSDBASIC
  +--> ?PR?SETRIGHTSOURCE?HS_KEYREMO
  +--> ?PR?_WRITEI2C?I2C
  +--> ?PR?_READEEP?I2C
  +--> ?PR?_PRINTF?PRINTF
  +--> ?PR?CHECKTRIGGER?HS_KEYREMO
  +--> ?PR?SETNOWMODE?HS_KEYREMO
  +--> ?PR?_WAIT_MS?CPU

?PR?SETREARSOURCE?HS_KEYREMO                     -----    -----      -----    -----
  +--> ?PR?_CHANGEINPUT?MAIN
  +--> ?PR?HS_KEYREMO
  +--> ?PR?_WRITEI2C?I2C
  +--> ?PR?_READEEP?I2C
  +--> ?PR?DISPLAYGAUGEOSD?HS_DISPLAYOSD

?PR?DISPLAYGAUGEOSD?HS_DISPLAYOSD                -----    -----      000DH    0001H
  +--> ?CO?HS_DISPLAYOSD
  +--> ?PR?_INITOSDWINDOW?OSDBASIC
  +--> ?PR?HS_DISPLAYOSD
  +--> ?PR?_WRITESTRINGTOADDR?OSDBASIC
  +--> ?PR?_DRAWATTRCNT?OSDBASIC
  +--> ?PR?_SETDISPLAYEDOSD?DISPINFO
  +--> ?PR?_CLEARDISPLAYEDOSD?DISPINFO
  +--> ?PR?VLOSSHANDLER?DISPINFO
  +--> ?PR?_SHOWOSDWINDOW_TW88?OSDBASIC
  +--> ?PR?_SHOWOSDWINDOWALL?OSDBASIC
  +--> ?PR?_WRITEI2C?I2C
BL51 BANKED LINKER/LOCATER V6.22.2.0                                                  06/22/2022  16:23:04  PAGE 23



?PR?SETLEFTSOURCE?HS_KEYREMO                     -----    -----      -----    -----
  +--> ?PR?_CHANGEINPUT?MAIN

?PR?SETRIGHTSOURCE?HS_KEYREMO                    -----    -----      -----    -----
  +--> ?PR?_CHANGEINPUT?MAIN

?PR?SEQMODE?HS_KEYREMO                           -----    -----      -----    -----
  +--> ?PR?_CHECKSOURCEMODE?HS_KEYREMO
  +--> ?PR?HS_KEYREMO

?PR?_ADJUSTAUTODAYNIGHT?MAIN                     -----    -----      0001H    0002H
  +--> ?PR?_READI2C?I2C
  +--> ?PR?_WRITEI2C?I2C

?PR?CHECKKEYIN?KEYREMO                           -----    -----      0001H    0003H
  +--> ?PR?_GETKEY?KEYREMO
  +--> ?CO?KEYREMO
  +--> ?PR?_PRINTF?PRINTF
  +--> ?PR?KEYREMO
  +--> ?PR?_WRITEEEP?I2C
  +--> ?PR?_DISPLAYINFORMATION?HS_DISPLAYOSD
  +--> ?PR?DISPLAYGAUGEOSD?HS_DISPLAYOSD
  +--> ?PR?CLEARGAUGEINFO?HS_DISPLAYOSD
  +--> ?PR?DISPLAYINPUT?DISPINFO
  +--> ?PR?_WAIT_MS?CPU
  +--> ?PR?_POWERLED?CPU
  +--> ?PR?CLEAROSDINFO?DISPINFO
  +--> ?PR?SETOSDLASTKEYINTIME?MAIN
  +--> ?PR?_PUTS?PRINTF
  +--> ?PR?_ACTIONREMO?KEYREMO
  +--> ?PR?_HS_DISPLAY2835CLKTUNEVAL?KEYREMO
  +--> ?PR?GETDISPLAYEDOSD?DISPINFO
  +--> ?PR?OSDSELECT?OSDMENU
  +--> ?PR?_OSDVALUEUPDN?OSDMENU
  +--> ?PR?_OSDCURSORMOVE?OSDMENU
  +--> ?PR?CLOSEOSDMENU?OSDMENU
  +--> ?PR?CLEARINPUT?DISPINFO
  +--> ?PR?SETSELECTMODE?HS_KEYREMO
  +--> ?PR?_READEEP?I2C
  +--> ?PR?SETJUMPMODE?HS_KEYREMO
  +--> ?PR?_CAM_TXCOMMAND_TORS485?HS_DVRPROT...
  +--> ?PR?_CLEARDATACNT?OSDBASIC
  +--> ?PR?_DELAY?CPU

?PR?SETOSDLASTKEYINTIME?MAIN                     -----    -----      -----    -----
  +--> ?PR?GETTIME_MS?CPU

?PR?_ACTIONREMO?KEYREMO                          -----    -----      0004H    0002H
  +--> ?PR?SETOSDLASTKEYINTIME?MAIN
  +--> ?PR?GETNEXTINPUTSELECTION?MAIN
  +--> ?PR?_CHANGEINPUT?MAIN
  +--> ?PR?GETDISPLAYEDOSD?DISPINFO
  +--> ?PR?CLEARINPUT?DISPINFO
  +--> ?PR?DISPLAYINPUT?DISPINFO
  +--> ?PR?REMOCHNUP_UPKEY?KEYREMO
  +--> ?PR?REMOCHNDN_DNKEY?KEYREMO
BL51 BANKED LINKER/LOCATER V6.22.2.0                                                  06/22/2022  16:23:04  PAGE 24


  +--> ?PR?OSDSELECT?OSDMENU
  +--> ?PR?REMOVOLUP_RIGHTKEY?KEYREMO
  +--> ?PR?REMOVOLDN_LEFTKEY?KEYREMO
  +--> ?PR?REMOMENU_MENUKEY?KEYREMO
  +--> ?PR?_DOACTION?OSDMENU

?PR?GETNEXTINPUTSELECTION?MAIN                   -----    -----      -----    -----
  +--> ?PR?MAIN

?PR?REMOCHNUP_UPKEY?KEYREMO                      -----    -----      -----    -----
  +--> ?PR?GETDISPLAYEDOSD?DISPINFO
  +--> ?PR?_OSDCURSORMOVE?OSDMENU

?PR?_OSDCURSORMOVE?OSDMENU                       0024H.1  0000H.1    0006H    0004H
  +--> ?PR?OSDMENU
  +--> ?PR?_READEEP?I2C
  +--> ?PR?_GETNEXTCURSORMENUITEM?OSDMENU
  +--> ?PR?_GETLOWERMENUITEM?OSDMENU
  +--> ?PR?CLEARVALUEWIN?OSDMENU
  +--> ?PR?CLEARCURSOR?OSDMENU
  +--> ?PR?WAITENDOFDISPLAYAREA?OSDBASIC
  +--> ?PR?_WRITEI2C?I2C
  +--> ?PR?_SHOWOSDWINDOW_TW88?OSDBASIC
  +--> ?PR?_GETOSDWINDOWY?OSDBASIC
  +--> ?PR?_SETOSDWINDOWY_TW88?OSDBASIC
  +--> ?PR?DISPLAYOSDMENU?OSDMENU
  +--> ?PR?_DRAWMENULIST?OSDMENU
  +--> ?PR?DISPLAYCURSOR?OSDMENU

?PR?_GETNEXTCURSORMENUITEM?OSDMENU               -----    -----      000AH    0005H
  +--> ?PR?_GETUPPERMENUITEM?OSDMENU
  +--> ?PR?_GETLOWERMENUITEM?OSDMENU

?PR?CLEARVALUEWIN?OSDMENU                        -----    -----      -----    -----
  +--> ?PR?SAVEVALUE1?OSDMENU

?PR?SAVEVALUE1?OSDMENU                           -----    -----      -----    -----
  +--> ?PR?OSDMENU

?PR?CLEARCURSOR?OSDMENU                          -----    -----      000AH    0002H
  +--> ?PR?OSDMENU
  +--> ?PR?_DRAWATTRCNT?OSDBASIC

?PR?REMOCHNDN_DNKEY?KEYREMO                      -----    -----      -----    -----
  +--> ?PR?GETDISPLAYEDOSD?DISPINFO
  +--> ?PR?_OSDCURSORMOVE?OSDMENU

?PR?OSDSELECT?OSDMENU                            -----    -----      0006H    0002H
  +--> ?PR?OSDMENU
  +--> ?PR?GETINPUTSELECTION?MAIN
  +--> ?PR?READVINPUTSTD?MAIN
  +--> ?PR?_DOACTION?OSDMENU
  +--> ?PR?CLEARCURSOR?OSDMENU
  +--> ?PR?CLOSEOSDMENU?OSDMENU
  +--> ?PR?DISPLAYCURSOR?OSDMENU
  +--> ?PR?_GETITEMVALUE?OSDMENU
  +--> ?PR?_WRITEI2C?I2C
BL51 BANKED LINKER/LOCATER V6.22.2.0                                                  06/22/2022  16:23:04  PAGE 25


  +--> ?PR?PUSHMENU?OSDMENU
  +--> ?PR?_GET_CURSOR_ITEM?OSDMENU
  +--> ?PR?DISPLAYOSDMENU?OSDMENU

?PR?READVINPUTSTD?MAIN                           -----    -----      -----    -----
  +--> ?PR?ISNOINPUT?MAIN
  +--> ?PR?_READI2C?I2C

?PR?ISNOINPUT?MAIN                               -----    -----      -----    -----
  +--> ?PR?_READI2C?I2C

?PR?_DOACTION?OSDMENU                            -----    -----      0008H    0001H
  +--> ?PR?_CHANGEINPUT?MAIN
  +--> ?PR?DISPLAYINPUT?DISPINFO
  +--> ?CO?OSDMENU
  +--> ?PR?_PRINTF?PRINTF
  +--> ?PR?OSDHIGHMENU_SUB?OSDMENU
  +--> ?PR?DISPLAYINFO_OSD?OSDMENU
  +--> ?PR?CLOSEOSDMENU?OSDMENU
  +--> ?PR?_READEEP?I2C
  +--> ?PR?CLEAROSDINFO?DISPINFO
  +--> ?PR?RESETVIDEOVALUE?OSDMENU
  +--> ?PR?RESETOSDVALUE?OSDMENU
  +--> ?PR?SETNOWMODE?HS_KEYREMO

?PR?OSDHIGHMENU_SUB?OSDMENU                      -----    -----      0009H    0001H
  +--> ?PR?OSDMENU
  +--> ?PR?POPMENU?OSDMENU
  +--> ?PR?CLOSEOSDMENU?OSDMENU
  +--> ?CO?OSDMENU
  +--> ?PR?_PRINTF?PRINTF
  +--> ?PR?DISPLAYOSDMENU?OSDMENU
  +--> ?PR?_DRAWMENULIST?OSDMENU
  +--> ?PR?DISPLAYCURSOR?OSDMENU
  +--> ?PR?_WRITEI2C?I2C

?PR?DISPLAYINFO_OSD?OSDMENU                      -----    -----      0009H    0008H
  +--> ?PR?PUSHMENU?OSDMENU
  +--> ?PR?OSDMENU
  +--> ?PR?_DRAWMENULIST?OSDMENU
  +--> ?PR?_DRAWATTRCNT?OSDBASIC
  +--> ?CO?OSDMENU
  +--> ?PR?_WRITESTRINGTOADDR?OSDBASIC
  +--> ?PR?GETINPUTSELECTION?MAIN
  +--> ?CO?MAIN
  +--> ?PR?_STRLEN?OSDBASIC
  +--> ?PR?GETVINPUTSTDINX?MAIN
  +--> ?PR?_READEEP?I2C

?PR?GETVINPUTSTDINX?MAIN                         -----    -----      -----    -----
  +--> ?PR?READVINPUTSTD?MAIN
  +--> ?PR?MAIN
  +--> ?CO?MAIN

?PR?_GET_CURSOR_ITEM?OSDMENU                     -----    -----      0008H    0002H
  +--> ?PR?GETINPUTSELECTION?MAIN
  +--> ?PR?_GETTARGETCHILD?OSDMENU
BL51 BANKED LINKER/LOCATER V6.22.2.0                                                  06/22/2022  16:23:04  PAGE 26



?PR?_GETTARGETCHILD?OSDMENU                      -----    -----      -----    -----
  +--> ?PR?OSDMENU
  +--> ?PR?_GETLOWERMENUITEM?OSDMENU

?PR?REMOVOLUP_RIGHTKEY?KEYREMO                   -----    -----      -----    -----
  +--> ?PR?GETDISPLAYEDOSD?DISPINFO
  +--> ?PR?_OSDVALUEUPDN?OSDMENU
  +--> ?PR?OSDSELECT?OSDMENU
  +--> ?PR?_CHANGEVOL?AUDIO
  +--> ?PR?DISPLAYVOL?DISPINFO

?PR?_OSDVALUEUPDN?OSDMENU                        -----    -----      0006H    0008H
  +--> ?PR?OSDMENU
  +--> ?PR?_SETITEMVALUE?OSDMENU
  +--> ?PR?_AWT_DISPLAYVIEWBAR?OSDMENU
  +--> ?PR?_DISPLAYVIEWBAR?OSDMENU
  +--> ?PR?_DRAWNUM?OSDMENU
  +--> ?PR?_DRAWSTRINGBYLANG?OSDMENU

?PR?_SETITEMVALUE?OSDMENU                        -----    -----      000EH    0004H
  +--> ?PR?OSDMENU
  +--> ?CO?OSDMENU
  +--> ?PR?_PRINTF?PRINTF
  +--> ?PR?_SETOSDPOSITIONMODE?OSDMENU
  +--> ?PR?_SETLANGUAGE?OSDMENU
  +--> ?PR?_SETPCCOLORTEMP?OSDMENU
  +--> ?PR?_SETPCCOLOR?OSDMENU
  +--> ?PR?_SETVIDEOMODE?OSDMENU
  +--> ?PR?_READEEP?I2C
  +--> ?PR?_DRAWATTRCNT?OSDBASIC
  +--> ?PR?_CHANGEVIDEODATA?OSDMENU
  +--> ?PR?_SETVIDEOSHARPNESS?OSDMENU
  +--> ?PR?_CHANGEVOL?AUDIO
  +--> ?PR?_WRITEEEP?I2C
  +--> ?PR?SETNOWMODE?HS_KEYREMO

?PR?_SETOSDPOSITIONMODE?OSDMENU                  -----    -----      0012H    0016H
  +--> ?PR?GETOSDPOSITIONMODE?OSDMENU
  +--> ?PR?OSDMENU
  +--> ?PR?_GETOSDWINDOWX?OSDBASIC
  +--> ?PR?_GETOSDWINDOWY?OSDBASIC
  +--> ?PR?WAITENDOFDISPLAYAREA?OSDBASIC
  +--> ?PR?_READI2C?I2C
  +--> ?PR?_WRITEI2C?I2C
  +--> ?PR?_WRITEI2CN?I2C
  +--> ?PR?_SAVEOSDPOSITIONMODEEE?ETC_EEP

?PR?_SETLANGUAGE?OSDMENU                         -----    -----      -----    -----
  +--> ?PR?OSDMENU
  +--> ?PR?_SAVEOSDLANGEE?ETC_EEP

?PR?_SETPCCOLORTEMP?OSDMENU                      -----    -----      0012H    0002H
  +--> ?PR?OSDMENU
  +--> ?PR?_WRITEEEP?I2C
  +--> ?PR?_READEEP?I2C
  +--> ?CO?OSDMENU
BL51 BANKED LINKER/LOCATER V6.22.2.0                                                  06/22/2022  16:23:04  PAGE 27


  +--> ?PR?_MAPPING1?TW88
  +--> ?PR?_SETRGBCONTRAST?OSDMENU
  +--> ?PR?_DRAWATTRCNT?OSDBASIC

?PR?_SETRGBCONTRAST?OSDMENU                      -----    -----      0014H    0008H
  +--> ?PR?OSDMENU
  +--> ?PR?_READEEP?I2C
  +--> ?PR?_MAPPING1?TW88
  +--> ?PR?_WRITEI2C?I2C

?PR?_SETPCCOLOR?OSDMENU                          -----    -----      0012H    0007H
  +--> ?PR?OSDMENU
  +--> ?PR?_MAPPING1?TW88
  +--> ?PR?_WRITEEEP?I2C
  +--> ?PR?_READEEP?I2C
  +--> ?CO?OSDMENU
  +--> ?PR?_WRITEI2C?I2C

?PR?_CHANGEVIDEODATA?OSDMENU                     -----    -----      0012H    0003H
  +--> ?PR?OSDMENU
  +--> ?PR?_SETVIDEOCONTRAST?OSDMENU
  +--> ?PR?_SETVIDEOBRIGHTNESS?OSDMENU
  +--> ?PR?_SETVIDEOSATURATION?OSDMENU
  +--> ?PR?_SETVIDEOHUE?OSDMENU
  +--> ?PR?_SETVIDEOBACKLIGHT?OSDMENU
  +--> ?PR?_SAVEVIDEODATATOEE?ETC_EEP

?PR?_SETVIDEOBACKLIGHT?OSDMENU                   -----    -----      0015H    0003H
  +--> ?PR?OSDMENU
  +--> ?CO?OSDMENU
  +--> ?PR?_MAPPING1?TW88
  +--> ?PR?_READI2C?I2C
  +--> ?PR?_WRITEI2C?I2C

?PR?_SETVIDEOSHARPNESS?OSDMENU                   -----    -----      0012H    0005H
  +--> ?PR?_READI2C?I2C
  +--> ?PR?OSDMENU
  +--> ?CO?OSDMENU
  +--> ?PR?_MAPPING1?TW88
  +--> ?PR?_WRITEI2C?I2C
  +--> ?PR?_SAVEVIDEODATATOEE?ETC_EEP

?PR?DISPLAYVOL?DISPINFO                          -----    -----      0006H    0002H
  +--> ?CO?DISPINFO
  +--> ?PR?_PRINTF?PRINTF
  +--> ?PR?_WRITEI2C?I2C
  +--> ?PR?CLEAROSDINFO?DISPINFO
  +--> ?PR?_DELAY?CPU
  +--> ?CO?OSDBASIC
  +--> ?PR?_INITOSDWINDOW?OSDBASIC
  +--> ?PR?_CLEARDATACNT?OSDBASIC
  +--> ?PR?_DRAWATTRCNT?OSDBASIC
  +--> ?PR?GETOSDLANG?OSDMENU
  +--> ?CO?OSDMENU
  +--> ?PR?_STRLEN?OSDBASIC
  +--> ?PR?_WRITESTRINGTOADDR?OSDBASIC
  +--> ?PR?_SHOWOSDWINDOW_TW88?OSDBASIC
BL51 BANKED LINKER/LOCATER V6.22.2.0                                                  06/22/2022  16:23:04  PAGE 28


  +--> ?PR?_SHOWOSDWINDOWALL?OSDBASIC
  +--> ?PR?_DISPLAYVOLUMEBAR?OSDMENU
  +--> ?PR?GETTIME_MS?CPU
  +--> ?PR?_WAIT_MS?CPU

?PR?GETOSDLANG?OSDMENU                           -----    -----      -----    -----
  +--> ?PR?GETOSDLANGEE?ETC_EEP

?PR?_DISPLAYVOLUMEBAR?OSDMENU                    -----    -----      0008H    0016H
  +--> ?CO?OSDMENU
  +--> ?PR?OSDMENU
  +--> ?PR?_WRITESTRINGTOADDR?OSDBASIC

?PR?REMOVOLDN_LEFTKEY?KEYREMO                    -----    -----      -----    -----
  +--> ?PR?GETDISPLAYEDOSD?DISPINFO
  +--> ?PR?_OSDVALUEUPDN?OSDMENU
  +--> ?PR?OSDHIGHMENU?OSDMENU
  +--> ?PR?_CHANGEVOL?AUDIO
  +--> ?PR?DISPLAYVOL?DISPINFO

?PR?OSDHIGHMENU?OSDMENU                          -----    -----      -----    -----
  +--> ?PR?CLEARVALUEWIN?OSDMENU
  +--> ?PR?_DRAWMENULIST?OSDMENU
  +--> ?PR?DISPLAYCURSOR?OSDMENU
  +--> ?PR?OSDMENU
  +--> ?PR?_DOACTION?OSDMENU
  +--> ?PR?CLEARCURSOR?OSDMENU
  +--> ?PR?OSDHIGHMENU_SUB?OSDMENU

?PR?REMOMENU_MENUKEY?KEYREMO                     -----    -----      -----    -----
  +--> ?PR?GETDISPLAYEDOSD?DISPINFO
  +--> ?PR?OSDHIGHMENU?OSDMENU
  +--> ?PR?CLEAROSDINFO?DISPINFO
  +--> ?PR?_WRITEI2C?I2C
  +--> ?PR?OPENOSDMENU?OSDMENU
  +--> ?PR?_WAIT_MS?CPU

?PR?OPENOSDMENU?OSDMENU                          -----    -----      0006H    0001H
  +--> ?PR?CLEAROSDINFO?DISPINFO
  +--> ?PR?INITOSDMENU?OSDMENU
  +--> ?PR?OSDMENU
  +--> ?PR?_SHOWOSDWINDOW_TW88?OSDBASIC
  +--> ?PR?_SHOWOSDWINDOWALL?OSDBASIC
  +--> ?PR?_SETDISPLAYEDOSD?DISPINFO

?PR?_HS_DISPLAY2835CLKTUNEVAL?KEYREMO            -----    -----      0004H    0004H
  +--> ?CO?KEYREMO
  +--> ?PR?KEYREMO
  +--> ?CO?OSDBASIC
  +--> ?PR?_INITOSDWINDOW?OSDBASIC
  +--> ?PR?_SETDISPLAYEDOSD?DISPINFO
  +--> ?PR?_CLEARDATACNT?OSDBASIC
  +--> ?PR?_DRAWATTRCNT?OSDBASIC
  +--> ?PR?_WRITESTRINGTOADDR?OSDBASIC
  +--> ?PR?_SHOWOSDWINDOW_TW88?OSDBASIC
  +--> ?PR?_SHOWOSDWINDOWALL?OSDBASIC

BL51 BANKED LINKER/LOCATER V6.22.2.0                                                  06/22/2022  16:23:04  PAGE 29


?PR?SETSELECTMODE?HS_KEYREMO                     -----    -----      -----    -----
  +--> ?PR?_CHECKSOURCEMODE?HS_KEYREMO
  +--> ?PR?HS_KEYREMO
  +--> ?CO?HS_KEYREMO
  +--> ?PR?_PRINTF?PRINTF
  +--> ?PR?_WRITEEEP?I2C

?PR?SETJUMPMODE?HS_KEYREMO                       -----    -----      0004H    0001H
  +--> ?PR?_READEEP?I2C
  +--> ?PR?_CHECKSOURCEMODE?HS_KEYREMO
  +--> ?CO?HS_KEYREMO
  +--> ?PR?_WRITESTRINGTOADDR?OSDBASIC
  +--> ?PR?HS_KEYREMO
  +--> ?PR?_WRITEEEP?I2C

?PR?_CAM_TXCOMMAND_TORS485?HS_DVRPROT...         -----    -----      0004H    0002H
  +--> ?PR?HS_DVRPROTOCOL
  +--> ?PR?SEND_PELCOP_COMMAND?HS_DVRPROTOCOL
  +--> ?PR?SEND_PELCOD_COMMAND?HS_DVRPROTOCOL

?PR?SEND_PELCOP_COMMAND?HS_DVRPROTOCOL           -----    -----      0006H    0001H
  +--> ?PR?HS_DVRPROTOCOL
  +--> ?CO?HS_DVRPROTOCOL
  +--> ?PR?_PRINTF?PRINTF
  +--> ?PR?_WAIT_MS?CPU
  +--> ?PR?_RS2_TX?CPU

?PR?SEND_PELCOD_COMMAND?HS_DVRPROTOCOL           -----    -----      0006H    0001H
  +--> ?PR?HS_DVRPROTOCOL
  +--> ?CO?HS_DVRPROTOCOL
  +--> ?PR?_PRINTF?PRINTF
  +--> ?PR?_WAIT_MS?CPU
  +--> ?PR?_RS2_TX?CPU

?PR?CLEARINPUT2S?DISPINFO                        -----    -----      -----    -----
  +--> ?PR?_SHOWOSDWINDOW_TW88?OSDBASIC

?PR?WAITPOWERON?MAIN                             -----    -----      0000H    0002H
  +--> ?PR?CHECKTRIGGER?HS_KEYREMO
  +--> ?PR?_TRIGGERHANDLER?HS_KEYREMO
  +--> ?PR?_LCDPOWERON?TW88
  +--> ?PR?POWEROFF?MAIN
  +--> ?PR?AUDIOMUTE?AUDIO
  +--> ?PR?_GETKEY?KEYREMO
  +--> ?PR?_WRITEEEP?I2C
  +--> ?PR?VLOSSHANDLER?DISPINFO
  +--> ?PR?DISPLAYINPUT?DISPINFO
  +--> ?PR?SETNOWMODE?HS_KEYREMO
  +--> ?PR?_READEEP?I2C

?PR?POWEROFF?MAIN                                -----    -----      -----    -----
  +--> ?PR?AUDIOMUTE?AUDIO
  +--> ?PR?_POWERLED?CPU



UNRESOLVED EXTERNAL SYMBOLS:
BL51 BANKED LINKER/LOCATER V6.22.2.0                                                  06/22/2022  16:23:04  PAGE 30


   LCDPOWEROFF



SYMBOL TABLE OF MODULE:  .\Output\TW8816 (ADC)

  VALUE           TYPE          NAME
  ----------------------------------

  -------         MODULE        ADC
  C:0000H         SYMBOL        _ICE_DUMMY_
  -------         ENDMOD        ADC

  -------         MODULE        CPU
  C:0000H         SYMBOL        _ICE_DUMMY_
  C:B58FH         PUBLIC        InitCPU
  D:00B1H         PUBLIC        P3M0
  C:769EH         PUBLIC        timer0_int
  X:0132H         PUBLIC        FormatSDCard
  D:00B2H         PUBLIC        P3M1
  D:00A0H         PUBLIC        P2
  C:C4B9H         PUBLIC        timer2_int
  D:00E8H         PUBLIC        P4
  X:0133H         PUBLIC        FormatWait
  D:0025H         PUBLIC        DVR_buf
  D:002DH         PUBLIC        keytic
  D:00A8H         PUBLIC        IE
  D:002EH         PUBLIC        RS2_in
  B:0021H.4       PUBLIC        RepeatKey
  C:C40FH         PUBLIC        _delay
  B:00B0H.4       PUBLIC        P3_4
  B:00A8H.4       PUBLIC        ES
  D:00B8H         PUBLIC        IP
  D:00DEH         PUBLIC        CCAPM4
  B:0098H.0       PUBLIC        RI
  B:0098H.1       PUBLIC        TI
  C:C540H         PUBLIC        RS_ready
  D:002FH         PUBLIC        tic01
  B:0021H.5       PUBLIC        KeyReady
  B:0021H.6       PUBLIC        RS_Xbusy
  D:00D8H         PUBLIC        CCON
  C:C5C2H         PUBLIC        _RS2_tx
  X:0134H         PUBLIC        Time5ms
  X:0135H         PUBLIC        keyticSec
  D:0030H         PUBLIC        Key
  C:BCB2H         PUBLIC        serial_int
  C:C60EH         PUBLIC        ext1_int
  D:0099H         PUBLIC        SBUF
  D:0087H         PUBLIC        PCON
  D:0098H         PUBLIC        SCON
  C:C217H         PUBLIC        InitVars
  D:0089H         PUBLIC        TMOD
  D:0088H         PUBLIC        TCON
  C:3D45H         PUBLIC        PanelInfoStr
  D:00BFH         PUBLIC        CHPCON
  C:863AH         PUBLIC        main_init
  D:00F6H         PUBLIC        CHPENR
BL51 BANKED LINKER/LOCATER V6.22.2.0                                                  06/22/2022  16:23:04  PAGE 31


  X:0136H         PUBLIC        PowerDownWait
  D:0031H         PUBLIC        tm01
  D:0033H         PUBLIC        stopWatch
  D:0035H         SYMBOL        RS_buf
  B:00A8H.5       PUBLIC        ET2
  B:00C8H.7       PUBLIC        TF2
  D:008CH         PUBLIC        TH0
  D:008DH         PUBLIC        TH1
  C:C1D9H         PUBLIC        _DiffTime_ms
  B:00A8H.2       PUBLIC        EX1
  D:008AH         PUBLIC        TL0
  C:A545H         PUBLIC        InitTechwell
  B:0021H.7       PUBLIC        RS2_Xbusy
  C:B750H         PUBLIC        _Wait_ms
  B:00C8H.2       PUBLIC        TR2
  X:0137H         PUBLIC        updn_reg
  D:0049H         PUBLIC        RS_in
  D:004AH         PUBLIC        RS_out
  C:BB1EH         PUBLIC        serial2_int
  D:009AH         PUBLIC        S2BUF
  C:C12DH         PUBLIC        _PowerLED
  D:00AAH         PUBLIC        S2CON
  D:00C8H         PUBLIC        T2CON
  D:00BAH         PUBLIC        S2BRT
  C:C28EH         PUBLIC        RS_rx
  C:0003H         PUBLIC        _RS_tx
  D:004BH         PUBLIC        tm001
  D:00A6H         PUBLIC        AUXR2
  B:0022H.0       PUBLIC        ChangeKey
  C:BA2CH         PUBLIC        GetTime_ms
  D:004CH         PUBLIC        tic_pc
  D:004EH         PUBLIC        RS_buf2
  D:0062H         PUBLIC        SystemClock
  C:3CDFH         PUBLIC        CommTable
  D:00ADH         PUBLIC        AUXIE
  C:C451H         SYMBOL        Com0066
  C:C451H         SYMBOL        L?0103
  C:C454H         SYMBOL        L?0104
  C:C45BH         SYMBOL        L?0105
  C:C45BH         SYMBOL        L?0106
  -------         PROC          COM0066
  -------         ENDPROC       COM0066
  C:874FH         SYMBOL        L?0107
  -------         PROC          MAIN_INIT
  -------         DO            
  X:0000H         SYMBOL        rev
  -------         ENDDO         
  C:863AH         LINE#         289
  C:863AH         LINE#         290
  C:863AH         LINE#         296
  C:8643H         LINE#         308
  C:864AH         LINE#         309
  C:865CH         LINE#         311
  C:8669H         LINE#         312
  C:8669H         LINE#         313
  C:867CH         LINE#         314
  C:8683H         LINE#         315
BL51 BANKED LINKER/LOCATER V6.22.2.0                                                  06/22/2022  16:23:04  PAGE 32


  C:8691H         LINE#         316
  C:8691H         LINE#         320
  C:869EH         LINE#         321
  C:869EH         LINE#         322
  C:86ACH         LINE#         323
  C:86ACH         LINE#         324
  C:86B4H         LINE#         327
  C:86B9H         LINE#         328
  C:86BCH         LINE#         329
  C:86C5H         LINE#         334
  C:86C7H         LINE#         336
  C:86C7H         LINE#         338
  C:86CFH         LINE#         340
  C:86CFH         LINE#         341
  C:86D1H         LINE#         343
  C:86D1H         LINE#         344
  C:86DAH         LINE#         345
  C:86E3H         LINE#         346
  C:86E9H         LINE#         347
  C:86EEH         LINE#         352
  C:86F3H         LINE#         354
  C:86F3H         LINE#         361
  C:86FFH         LINE#         362
  C:8701H         LINE#         363
  C:8705H         LINE#         365
  C:870AH         LINE#         367
  C:870DH         LINE#         370
  C:8713H         LINE#         375
  C:8716H         LINE#         376
  C:8719H         LINE#         379
  C:871EH         LINE#         380
  C:8723H         LINE#         381
  C:8726H         LINE#         392
  C:8729H         LINE#         396
  C:872EH         LINE#         397
  C:8733H         LINE#         399
  C:873CH         LINE#         403
  C:8745H         LINE#         404
  C:874EH         LINE#         405
  -------         ENDPROC       MAIN_INIT
  -------         PROC          INITCPU
  C:B58FH         LINE#         410
  C:B58FH         LINE#         411
  C:B58FH         LINE#         412
  C:B592H         LINE#         413
  C:B595H         LINE#         414
  C:B598H         LINE#         415
  C:B59BH         LINE#         419
  C:B59EH         LINE#         426
  C:B5A1H         LINE#         428
  C:B5A4H         LINE#         430
  C:B5A7H         LINE#         434
  C:B5ADH         LINE#         436
  C:B5B0H         LINE#         437
  C:B5B3H         LINE#         441
  C:B5B6H         LINE#         444
  C:B5B8H         LINE#         445
BL51 BANKED LINKER/LOCATER V6.22.2.0                                                  06/22/2022  16:23:04  PAGE 33


  C:B5BAH         LINE#         451
  C:B5BCH         LINE#         452
  C:B5BEH         LINE#         453
  C:B5C0H         LINE#         459
  C:B5C3H         LINE#         460
  C:B5C6H         LINE#         463
  C:B5C9H         LINE#         466
  C:B5CCH         LINE#         468
  C:B5CEH         LINE#         471
  C:B5D1H         LINE#         472
  C:B5D4H         LINE#         479
  C:B5D6H         LINE#         480
  C:B5D9H         LINE#         484
  C:B5DDH         LINE#         486
  -------         ENDPROC       INITCPU
  -------         PROC          TIMER0_INT
  -------         DO            
  D:000FH         SYMBOL        TempKey
  -------         ENDDO         
  C:769EH         LINE#         504
  C:76A9H         LINE#         508
  C:76ABH         LINE#         511
  C:76B1H         LINE#         512
  C:76B3H         LINE#         513
  C:76B9H         LINE#         514
  C:76B9H         LINE#         518
  C:76C2H         LINE#         520
  C:76C9H         LINE#         521
  C:76C9H         LINE#         522
  C:76D1H         LINE#         523
  C:76D9H         LINE#         524
  C:76E1H         LINE#         525
  C:76E4H         LINE#         526
  C:76E6H         LINE#         530
  C:76ECH         LINE#         533
  C:76ECH         LINE#         534
  C:76ECH         LINE#         542
  C:76FAH         LINE#         545
  C:7702H         LINE#         546
  C:7705H         LINE#         547
  C:7707H         LINE#         548
  C:7712H         LINE#         550
  C:771BH         LINE#         551
  C:771BH         LINE#         552
  C:772BH         LINE#         553
  C:7743H         LINE#         554
  C:7746H         LINE#         558
  C:774EH         LINE#         559
  C:7751H         LINE#         561
  C:7759H         LINE#         562
  C:775CH         LINE#         565
  C:7762H         LINE#         567
  C:776FH         LINE#         568
  C:7772H         LINE#         570
  C:7775H         LINE#         571
  C:777BH         LINE#         572
  C:777EH         LINE#         573
BL51 BANKED LINKER/LOCATER V6.22.2.0                                                  06/22/2022  16:23:04  PAGE 34


  C:7784H         LINE#         574
  C:778CH         LINE#         575
  C:778CH         LINE#         576
  C:778DH         LINE#         577
  C:7793H         LINE#         578
  C:7793H         LINE#         580
  C:779BH         LINE#         581
  C:779BH         LINE#         582
  C:779CH         LINE#         583
  C:77A2H         LINE#         584
  C:77A2H         LINE#         586
  C:77AAH         LINE#         587
  C:77AAH         LINE#         588
  C:77ABH         LINE#         589
  C:77B1H         LINE#         590
  C:77B1H         LINE#         592
  C:77B8H         LINE#         593
  C:77BDH         LINE#         595
  C:77BFH         LINE#         602
  C:77BFH         LINE#         605
  C:77C9H         LINE#         606
  C:77D1H         LINE#         609
  C:77D8H         LINE#         610
  C:77E1H         LINE#         611
  C:77E8H         LINE#         612
  C:77EAH         LINE#         613
  C:77ECH         LINE#         614
  C:77EEH         LINE#         615
  C:77F4H         LINE#         616
  C:77FBH         LINE#         617
  C:77FDH         LINE#         618
  C:77FFH         LINE#         619
  C:7802H         LINE#         620
  C:7802H         LINE#         621
  C:7804H         LINE#         622
  C:7806H         LINE#         624
  C:7806H         LINE#         625
  C:7809H         LINE#         626
  C:780CH         LINE#         627
  C:780CH         LINE#         629
  C:780CH         LINE#         630
  -------         ENDPROC       TIMER0_INT
  -------         PROC          INITVARS
  C:C217H         LINE#         635
  C:C217H         LINE#         636
  C:C217H         LINE#         637
  C:C220H         LINE#         646
  C:C224H         LINE#         651
  C:C229H         LINE#         652
  C:C22EH         LINE#         654
  C:C230H         LINE#         655
  -------         ENDPROC       INITVARS
  C:A5BAH         SYMBOL        L?0100
  C:A5CCH         SYMBOL        L?0101
  -------         PROC          INITTECHWELL
  C:A545H         LINE#         661
  C:A545H         LINE#         662
BL51 BANKED LINKER/LOCATER V6.22.2.0                                                  06/22/2022  16:23:04  PAGE 35


  C:A545H         LINE#         679
  C:A555H         LINE#         680
  C:A55DH         LINE#         681
  C:A565H         LINE#         682
  C:A56EH         LINE#         683
  C:A578H         LINE#         684
  C:A578H         LINE#         686
  C:A57EH         LINE#         689
  C:A58FH         LINE#         690
  C:A594H         LINE#         691
  C:A59AH         LINE#         692
  C:A5A5H         LINE#         693
  C:A5A5H         LINE#         694
  C:A5A5H         LINE#         696
  C:A5AAH         LINE#         697
  C:A5AFH         LINE#         698
  C:A5B9H         LINE#         699
  C:A5B9H         LINE#         700
  C:A5B9H         LINE#         706
  -------         ENDPROC       INITTECHWELL
  -------         PROC          _POWERLED
  D:0007H         SYMBOL        flag
  C:C12DH         LINE#         712
  C:C12DH         LINE#         713
  C:C12DH         LINE#         717
  C:C135H         LINE#         719
  C:C138H         LINE#         720
  C:C138H         LINE#         722
  C:C13AH         LINE#         723
  C:C13EH         LINE#         724
  C:C13EH         LINE#         726
  C:C141H         LINE#         727
  C:C144H         LINE#         729
  C:C145H         LINE#         730
  C:C14BH         LINE#         731
  C:C14BH         LINE#         733
  C:C14EH         LINE#         734
  C:C151H         LINE#         736
  C:C151H         LINE#         737
  -------         ENDPROC       _POWERLED
  -------         PROC          EXT1_INT
  C:C60EH         LINE#         746
  C:C60EH         LINE#         748
  C:C610H         LINE#         749
  -------         ENDPROC       EXT1_INT
  -------         PROC          SERIAL_INT
  C:BCB2H         LINE#         864
  C:BCB9H         LINE#         870
  C:BCBCH         LINE#         871
  C:BCBEH         LINE#         872
  C:BCCEH         LINE#         874
  C:BCD0H         LINE#         875
  C:BCDEH         LINE#         876
  C:BCDEH         LINE#         878
  C:BCE1H         LINE#         879
  C:BCE3H         LINE#         880
  C:BCE5H         LINE#         881
BL51 BANKED LINKER/LOCATER V6.22.2.0                                                  06/22/2022  16:23:04  PAGE 36


  C:BCE5H         LINE#         882
  -------         ENDPROC       SERIAL_INT
  -------         PROC          SERIAL2_INT
  C:BB1EH         LINE#         886
  C:BB25H         LINE#         891
  C:BB2DH         LINE#         892
  C:BB2DH         LINE#         894
  C:BB30H         LINE#         895
  C:BB37H         LINE#         897
  C:BB39H         LINE#         898
  C:BB47H         LINE#         899
  C:BB47H         LINE#         901
  C:BB4FH         LINE#         902
  C:BB4FH         LINE#         903
  C:BB52H         LINE#         904
  C:BB54H         LINE#         905
  C:BB54H         LINE#         906
  -------         ENDPROC       SERIAL2_INT
  -------         PROC          RS_READY
  C:C540H         LINE#         913
  C:C540H         LINE#         914
  C:C540H         LINE#         915
  C:C548H         LINE#         916
  C:C54AH         LINE#         917
  -------         ENDPROC       RS_READY
  -------         PROC          RS_RX
  -------         DO            
  D:0007H         SYMBOL        ret
  -------         ENDDO         
  C:C28EH         LINE#         925
  C:C28EH         LINE#         926
  C:C28EH         LINE#         929
  C:C290H         LINE#         930
  C:C297H         LINE#         931
  C:C299H         LINE#         932
  C:C2A4H         LINE#         933
  C:C2A7H         LINE#         934
  C:C2A9H         LINE#         936
  C:C2A9H         LINE#         937
  -------         ENDPROC       RS_RX
  -------         PROC          _RS_TX
  D:0007H         SYMBOL        tx_buf
  C:0003H         LINE#         943
  C:0003H         LINE#         944
  C:0003H         LINE#         945
  C:0006H         LINE#         946
  C:0008H         LINE#         947
  C:000AH         LINE#         948
  -------         ENDPROC       _RS_TX
  -------         PROC          _RS2_TX
  D:0007H         SYMBOL        tx_buf
  C:C5C2H         LINE#         953
  C:C5C2H         LINE#         954
  C:C5C2H         LINE#         963
  C:C5C5H         LINE#         964
  C:C5C7H         LINE#         965
  C:C5C9H         LINE#         966
BL51 BANKED LINKER/LOCATER V6.22.2.0                                                  06/22/2022  16:23:04  PAGE 37


  -------         ENDPROC       _RS2_TX
  -------         PROC          TIMER2_INT
  C:C4B9H         LINE#         1004
  C:C4BBH         LINE#         1006
  C:C4BDH         LINE#         1008
  C:C4C5H         LINE#         1139
  -------         ENDPROC       TIMER2_INT
  -------         PROC          _DELAY
  D:0007H         SYMBOL        cnt
  -------         DO            
  D:0004H         SYMBOL        ttic01
  -------         ENDDO         
  C:C40FH         LINE#         1142
  C:C40FH         LINE#         1143
  C:C40FH         LINE#         1146
  C:C41DH         LINE#         1147
  C:C41DH         LINE#         1149
  C:C426H         LINE#         1150
  -------         ENDPROC       _DELAY
  -------         PROC          GETTIME_MS
  -------         DO            
  X:0016H         SYMBOL        tms
  -------         ENDDO         
  C:BA2CH         LINE#         1157
  C:BA2CH         LINE#         1158
  C:BA2CH         LINE#         1161
  C:BA35H         LINE#         1162
  C:BA60H         LINE#         1163
  C:BA68H         LINE#         1164
  -------         ENDPROC       GETTIME_MS
  -------         PROC          _DIFFTIME_MS
  D:0006H         SYMBOL        stime
  D:0004H         SYMBOL        etime
  C:C1D9H         LINE#         1213
  C:C1D9H         LINE#         1214
  C:C1D9H         LINE#         1218
  C:C1E0H         LINE#         1219
  C:C1F0H         LINE#         1220
  C:C1F0H         LINE#         1221
  C:C1F0H         LINE#         1222
  C:C1F7H         LINE#         1223
  C:C1F7H         LINE#         1224
  -------         ENDPROC       _DIFFTIME_MS
  -------         PROC          _WAIT_MS
  X:0019H         SYMBOL        Tms
  -------         DO            
  X:001BH         SYMBOL        count
  -------         ENDDO         
  C:B750H         LINE#         1226
  C:B758H         LINE#         1227
  C:B758H         LINE#         1233
  C:B762H         LINE#         1234
  C:B762H         LINE#         1235
  C:B78BH         LINE#         1236
  C:B795H         LINE#         1237
  C:B797H         LINE#         1238
  -------         ENDPROC       _WAIT_MS
BL51 BANKED LINKER/LOCATER V6.22.2.0                                                  06/22/2022  16:23:04  PAGE 38


  -------         ENDMOD        CPU

  -------         MODULE        DISPINFO
  C:0000H         SYMBOL        _ICE_DUMMY_
  C:92C4H         PUBLIC        TW8806String
  X:0141H         PUBLIC        DisplayedOSD
  C:9867H         PUBLIC        DisplayVol
  C:C4D7H         PUBLIC        ClearMuteInfo
  X:0142H         PUBLIC        mirror_flag
  D:007AH         SYMBOL        OSDDisplayedTime
  C:BFB0H         PUBLIC        ClearTVInfo
  C:C54BH         PUBLIC        ClearInput2s
  C:C4C8H         PUBLIC        ClearVlossOsd
  C:C602H         PUBLIC        GetDisplayedOSD
  X:0143H         PUBLIC        vloss_flag
  C:92D1H         PUBLIC        TechwellString
  C:C5CAH         PUBLIC        _SetDisplayedOSD
  C:A373H         PUBLIC        CheckAndClearOSD
  X:0144H         PUBLIC        vloss_buf
  C:BD22H         PUBLIC        VlossHandler
  C:B115H         PUBLIC        ClearOSDInfo
  C:58F8H         PUBLIC        DisplayInput
  C:C51CH         PUBLIC        _ClearDisplayedOSD
  C:C427H         PUBLIC        ClearInput
  C:C2AAH         SYMBOL        Com0071
  C:C2AAH         SYMBOL        L?0114
  C:C2AAH         SYMBOL        L?0115
  C:C2B3H         SYMBOL        L?0120
  C:C2B3H         SYMBOL        L?0121
  C:C2BAH         SYMBOL        L?0123
  C:C2BEH         SYMBOL        L?0124
  -------         PROC          COM0071
  -------         ENDPROC       COM0071
  -------         PROC          _CLEARDISPLAYEDOSD
  D:0007H         SYMBOL        newd
  C:C51CH         LINE#         136
  C:C51CH         LINE#         137
  C:C51CH         LINE#         138
  C:C527H         LINE#         139
  -------         ENDPROC       _CLEARDISPLAYEDOSD
  -------         PROC          _SETDISPLAYEDOSD
  D:0007H         SYMBOL        newd
  C:C5CAH         LINE#         141
  C:C5CAH         LINE#         142
  C:C5CAH         LINE#         143
  C:C5D0H         LINE#         144
  -------         ENDPROC       _SETDISPLAYEDOSD
  -------         PROC          GETDISPLAYEDOSD
  C:C602H         LINE#         146
  C:C602H         LINE#         147
  C:C602H         LINE#         148
  C:C607H         LINE#         149
  -------         ENDPROC       GETDISPLAYEDOSD
  -------         PROC          CLEAROSDINFO
  -------         DO            
  X:0016H         SYMBOL        dt
  -------         ENDDO         
BL51 BANKED LINKER/LOCATER V6.22.2.0                                                  06/22/2022  16:23:04  PAGE 39


  C:B115H         LINE#         151
  C:B115H         LINE#         152
  C:B115H         LINE#         158
  C:B11DH         LINE#         160
  C:B131H         LINE#         166
  C:B13BH         LINE#         167
  C:B13BH         LINE#         169
  C:B13EH         LINE#         171
  C:B140H         LINE#         173
  C:B140H         LINE#         174
  C:B14AH         LINE#         175
  C:B154H         LINE#         176
  C:B15EH         LINE#         177
  C:B168H         LINE#         178
  C:B172H         LINE#         179
  -------         ENDPROC       CLEAROSDINFO
  -------         PROC          VLOSSHANDLER
  -------         DO            
  C:92DEH         SYMBOL        Str_VLOSS
  C:92E4H         SYMBOL        Str_VLOSS_M
  -------         ENDDO         
  C:BD22H         LINE#         187
  C:BD22H         LINE#         188
  C:BD23H         LINE#         196
  C:BD23H         LINE#         198
  C:BD23H         LINE#         199
  C:BD23H         LINE#         200
  C:BD23H         LINE#         201
  C:BD23H         LINE#         202
  C:BD23H         LINE#         203
  C:BD23H         LINE#         204
  C:BD23H         LINE#         205
  C:BD23H         LINE#         206
  C:BD23H         LINE#         207
  C:BD23H         LINE#         208
  C:BD23H         LINE#         210
  C:BD23H         LINE#         211
  C:BD23H         LINE#         228
  C:BD2AH         LINE#         229
  C:BD2AH         LINE#         231
  C:BD2FH         LINE#         232
  C:BD34H         LINE#         234
  C:BD39H         LINE#         236
  C:BD43H         LINE#         237
  C:BD48H         LINE#         239
  C:BD4FH         LINE#         242
  C:BD58H         LINE#         244
  C:BD58H         LINE#         245
  -------         ENDPROC       VLOSSHANDLER
  C:5B7BH         SYMBOL        L?0109
  C:5B8FH         SYMBOL        L?0110
  C:5BA0H         SYMBOL        L?0111
  C:5BB9H         SYMBOL        L?0112
  C:5BCCH         SYMBOL        L?0116
  C:5BDCH         SYMBOL        L?0117
  C:5BE6H         SYMBOL        L?0118
  C:5BF3H         SYMBOL        L?0119
BL51 BANKED LINKER/LOCATER V6.22.2.0                                                  06/22/2022  16:23:04  PAGE 40


  C:5BFDH         SYMBOL        L?0122
  C:5C06H         SYMBOL        L?0125
  C:5C10H         SYMBOL        L?0127
  C:5C1EH         SYMBOL        L?0128
  C:5C28H         SYMBOL        L?0129
  -------         PROC          DISPLAYINPUT
  -------         DO            
  D:0007H         SYMBOL        inputs
  X:0013H         SYMBOL        len1
  X:0014H         SYMBOL        i
  X:0015H         SYMBOL        SystemAddr
  C:92EEH         SYMBOL        Str_CAM_A
  C:92F7H         SYMBOL        Str_CAM_B
  C:9301H         SYMBOL        Str_CAM_R
  C:930BH         SYMBOL        Str_AV
  C:9315H         SYMBOL        Str_CAM_Mirror_A
  C:9322H         SYMBOL        Str_CAM_Mirror_B
  C:9331H         SYMBOL        Str_CAM_Mirror_R
  C:9341H         SYMBOL        Str_Mirror_J
  C:9345H         SYMBOL        Str_Mirror_S
  -------         ENDDO         
  C:58F8H         LINE#         248
  C:58F8H         LINE#         249
  C:58F8H         LINE#         284
  C:58FEH         LINE#         286
  C:5901H         LINE#         288
  C:590AH         LINE#         289
  C:5912H         LINE#         290
  C:5917H         LINE#         291
  C:593FH         LINE#         292
  C:5946H         LINE#         294
  C:5949H         LINE#         328
  C:594FH         LINE#         329
  C:596AH         LINE#         331
  C:5981H         LINE#         333
  C:599DH         LINE#         334
  C:599DH         LINE#         335
  C:599DH         LINE#         336
  C:599FH         LINE#         338
  C:59A4H         LINE#         339
  C:59A4H         LINE#         343
  C:59A8H         LINE#         345
  C:59B2H         LINE#         346
  C:59BBH         LINE#         348
  C:59C1H         LINE#         352
  C:59C4H         LINE#         355
  C:59CCH         LINE#         356
  C:59CCH         LINE#         357
  C:59D5H         LINE#         358
  C:59D5H         LINE#         359
  C:59D5H         LINE#         363
  C:59D8H         LINE#         365
  C:59DBH         LINE#         367
  C:59DBH         LINE#         368
  C:59DBH         LINE#         369
  C:59DEH         LINE#         370
  C:59DEH         LINE#         371
BL51 BANKED LINKER/LOCATER V6.22.2.0                                                  06/22/2022  16:23:04  PAGE 41


  C:59DEH         LINE#         372
  C:59E1H         LINE#         374
  C:59E1H         LINE#         377
  C:59E1H         LINE#         379
  C:59E1H         LINE#         380
  C:59EAH         LINE#         381
  C:59EFH         LINE#         382
  C:59EFH         LINE#         383
  C:59F2H         LINE#         384
  C:59F4H         LINE#         385
  C:59F9H         LINE#         386
  C:59F9H         LINE#         387
  C:59FEH         LINE#         388
  C:59FEH         LINE#         389
  C:59FEH         LINE#         391
  C:5A0FH         LINE#         395
  C:5A11H         LINE#         397
  C:5A11H         LINE#         398
  C:5A11H         LINE#         399
  C:5A1AH         LINE#         400
  C:5A1AH         LINE#         401
  C:5A1AH         LINE#         402
  C:5A27H         LINE#         403
  C:5A27H         LINE#         406
  C:5A27H         LINE#         407
  C:5A27H         LINE#         408
  C:5A2AH         LINE#         410
  C:5A2AH         LINE#         411
  C:5A2CH         LINE#         412
  C:5A31H         LINE#         413
  C:5A31H         LINE#         417
  C:5A34H         LINE#         421
  C:5A37H         LINE#         422
  C:5A3BH         LINE#         423
  C:5A40H         LINE#         424
  C:5A43H         LINE#         425
  C:5A4BH         LINE#         426
  C:5A4BH         LINE#         427
  C:5A54H         LINE#         428
  C:5A54H         LINE#         429
  C:5A54H         LINE#         430
  C:5A57H         LINE#         431
  C:5A59H         LINE#         433
  C:5A59H         LINE#         434
  C:5A59H         LINE#         435
  C:5A5CH         LINE#         436
  C:5A5CH         LINE#         437
  C:5A5CH         LINE#         439
  C:5A5FH         LINE#         441
  C:5A5FH         LINE#         442
  C:5A5FH         LINE#         444
  C:5A5FH         LINE#         445
  C:5A68H         LINE#         452
  C:5A6DH         LINE#         453
  C:5A70H         LINE#         454
  C:5A78H         LINE#         455
  C:5A78H         LINE#         456
BL51 BANKED LINKER/LOCATER V6.22.2.0                                                  06/22/2022  16:23:04  PAGE 42


  C:5A7DH         LINE#         457
  C:5A7DH         LINE#         458
  C:5A7DH         LINE#         459
  C:5A7DH         LINE#         460
  C:5A80H         LINE#         462
  C:5A80H         LINE#         463
  C:5A80H         LINE#         464
  C:5A80H         LINE#         465
  C:5A80H         LINE#         466
  C:5A80H         LINE#         467
  C:5A80H         LINE#         468
  C:5A83H         LINE#         471
  C:5A83H         LINE#         472
  C:5A8FH         LINE#         474
  C:5A93H         LINE#         475
  C:5A93H         LINE#         476
  C:5A97H         LINE#         477
  C:5A9AH         LINE#         478
  C:5A9EH         LINE#         480
  C:5AA3H         LINE#         481
  C:5AA3H         LINE#         485
  C:5AA9H         LINE#         487
  C:5AACH         LINE#         488
  C:5AB4H         LINE#         489
  C:5AB4H         LINE#         490
  C:5ABDH         LINE#         491
  C:5ABDH         LINE#         492
  C:5ABDH         LINE#         493
  C:5AC0H         LINE#         494
  C:5AC2H         LINE#         496
  C:5AC2H         LINE#         497
  C:5AC5H         LINE#         498
  C:5ACBH         LINE#         499
  C:5ACBH         LINE#         500
  C:5ACBH         LINE#         501
  C:5ACEH         LINE#         503
  C:5ACEH         LINE#         506
  C:5AD3H         LINE#         508
  C:5AD7H         LINE#         509
  C:5AEAH         LINE#         511
  C:5AF0H         LINE#         512
  C:5AF5H         LINE#         513
  C:5AFAH         LINE#         514
  C:5AFAH         LINE#         515
  C:5AFFH         LINE#         516
  C:5AFFH         LINE#         517
  C:5B06H         LINE#         521
  C:5B14H         LINE#         523
  C:5B16H         LINE#         525
  C:5B16H         LINE#         526
  C:5B16H         LINE#         527
  C:5B1CH         LINE#         528
  C:5B1CH         LINE#         529
  C:5B1CH         LINE#         530
  C:5B1CH         LINE#         531
  C:5B1EH         LINE#         533
  C:5B1EH         LINE#         534
BL51 BANKED LINKER/LOCATER V6.22.2.0                                                  06/22/2022  16:23:04  PAGE 43


  C:5B24H         LINE#         536
  C:5B29H         LINE#         537
  C:5B32H         LINE#         541
  C:5B3BH         LINE#         544
  C:5B47H         LINE#         545
  C:5B47H         LINE#         549
  C:5B4EH         LINE#         550
  C:5B5EH         LINE#         552
  C:5B5EH         LINE#         553
  C:5B5EH         LINE#         555
  C:5B5EH         LINE#         557
  C:5B64H         LINE#         576
  C:5B6BH         LINE#         587
  C:5B70H         LINE#         589
  C:5B73H         LINE#         592
  C:5B7AH         LINE#         593
  -------         ENDPROC       DISPLAYINPUT
  -------         PROC          CLEARINPUT
  C:C427H         LINE#         863
  C:C427H         LINE#         864
  C:C427H         LINE#         865
  C:C42CH         LINE#         866
  C:C433H         LINE#         869
  C:C43AH         LINE#         874
  C:C43CH         LINE#         876
  -------         ENDPROC       CLEARINPUT
  -------         PROC          CLEARINPUT2S
  C:C54BH         LINE#         878
  C:C54BH         LINE#         879
  C:C54BH         LINE#         881
  C:C552H         LINE#         889
  C:C554H         LINE#         890
  -------         ENDPROC       CLEARINPUT2S
  -------         PROC          CLEARVLOSSOSD
  C:C4C8H         LINE#         892
  C:C4C8H         LINE#         893
  C:C4C8H         LINE#         895
  C:C4CFH         LINE#         897
  C:C4D4H         LINE#         902
  C:C4D6H         LINE#         903
  -------         ENDPROC       CLEARVLOSSOSD
  C:9926H         SYMBOL        L?0126
  -------         PROC          DISPLAYVOL
  -------         DO            
  X:0006H         SYMBOL        Str
  D:0007H         SYMBOL        len
  -------         ENDDO         
  C:9867H         LINE#         904
  C:9867H         LINE#         905
  C:9867H         LINE#         910
  C:9870H         LINE#         913
  C:9872H         LINE#         914
  C:9875H         LINE#         916
  C:9877H         LINE#         917
  C:987AH         LINE#         918
  C:9883H         LINE#         920
  C:988BH         LINE#         921
BL51 BANKED LINKER/LOCATER V6.22.2.0                                                  06/22/2022  16:23:04  PAGE 44


  C:988BH         LINE#         922
  C:988EH         LINE#         926
  C:9893H         LINE#         928
  C:989CH         LINE#         930
  C:98A5H         LINE#         931
  C:98B0H         LINE#         933
  C:98BBH         LINE#         940
  C:98D7H         LINE#         942
  C:98DCH         LINE#         943
  C:98F4H         LINE#         945
  C:98FBH         LINE#         946
  C:9902H         LINE#         947
  C:9907H         LINE#         948
  C:9907H         LINE#         950
  C:990AH         LINE#         951
  C:990FH         LINE#         953
  C:9917H         LINE#         955
  C:991EH         LINE#         956
  C:9925H         LINE#         957
  -------         ENDPROC       DISPLAYVOL
  -------         PROC          CLEARMUTEINFO
  C:C4D7H         LINE#         1028
  C:C4D7H         LINE#         1029
  C:C4D7H         LINE#         1030
  C:C4DEH         LINE#         1031
  C:C4E5H         LINE#         1032
  -------         ENDPROC       CLEARMUTEINFO
  -------         PROC          CHECKANDCLEAROSD
  -------         DO            
  D:0004H         SYMBOL        ctime
  X:013BH         SYMBOL        stime
  X:013DH         SYMBOL        diff
  X:013FH         SYMBOL        dt
  X:0140H         SYMBOL        Result
  -------         ENDDO         
  C:A373H         LINE#         1034
  C:A373H         LINE#         1035
  C:A373H         LINE#         1038
  C:A378H         LINE#         1040
  C:A380H         LINE#         1041
  C:A387H         LINE#         1043
  C:A38BH         LINE#         1044
  C:A396H         LINE#         1045
  C:A39EH         LINE#         1046
  C:A3A0H         LINE#         1047
  C:A3A0H         LINE#         1048
  C:A3AAH         LINE#         1049
  C:A3B1H         LINE#         1050
  C:A3B1H         LINE#         1052
  C:A3B8H         LINE#         1054
  C:A3D0H         LINE#         1056
  C:A3D8H         LINE#         1057
  C:A3D8H         LINE#         1061
  C:A3E0H         LINE#         1062
  C:A3E3H         LINE#         1065
  C:A3E5H         LINE#         1068
  C:A3E5H         LINE#         1070
BL51 BANKED LINKER/LOCATER V6.22.2.0                                                  06/22/2022  16:23:04  PAGE 45


  C:A3ECH         LINE#         1071
  C:A3ECH         LINE#         1075
  C:A3F4H         LINE#         1077
  C:A400H         LINE#         1078
  C:A406H         LINE#         1080
  C:A409H         LINE#         1082
  C:A40BH         LINE#         1084
  C:A40BH         LINE#         1095
  C:A40EH         LINE#         1096
  C:A40EH         LINE#         1097
  C:A40EH         LINE#         1099
  C:A410H         LINE#         1100
  -------         ENDPROC       CHECKANDCLEAROSD
  C:BFD4H         SYMBOL        L?0130
  -------         PROC          CLEARTVINFO
  C:BFB0H         LINE#         1190
  C:BFB0H         LINE#         1191
  C:BFB0H         LINE#         1193
  C:BFB7H         LINE#         1194
  C:BFB7H         LINE#         1196
  C:BFBCH         LINE#         1198
  C:BFBEH         LINE#         1199
  C:BFC4H         LINE#         1202
  C:BFC6H         LINE#         1204
  C:BFC6H         LINE#         1205
  C:BFC8H         LINE#         1206
  C:BFCEH         LINE#         1207
  C:BFCEH         LINE#         1209
  C:BFD1H         LINE#         1211
  C:BFD3H         LINE#         1212
  -------         ENDPROC       CLEARTVINFO
  -------         ENDMOD        DISPINFO

  -------         MODULE        ETC_EEP
  C:0000H         SYMBOL        _ICE_DUMMY_
  C:C55FH         PUBLIC        _SaveDebugLevelEE
  C:C583H         PUBLIC        _SaveOSDLangEE
  C:C5D1H         PUBLIC        GetDebugLevelEE
  C:C5E6H         PUBLIC        GetOSDLangEE
  C:C5D8H         PUBLIC        GetPossibleAutoDetectStdEE
  C:A660H         PUBLIC        SetPossibleAutoDetectStdEE
  C:C5EDH         PUBLIC        GetAudioVolEE
  C:C175H         PUBLIC        ClearBasicEE
  C:C555H         PUBLIC        _GetVideoDatafromEE
  C:C57AH         PUBLIC        _SaveInputSelectionEE
  C:C58CH         PUBLIC        _SetAudioVolEE
  C:C568H         PUBLIC        _SaveOSDPositionModeEE
  C:C5F4H         PUBLIC        GetPCAudioVolEE
  C:B824H         PUBLIC        _SaveFWRevEE
  C:C595H         PUBLIC        _SetPCAudioVolEE
  C:C5DFH         PUBLIC        GetOSDPositionModeEE
  C:C571H         PUBLIC        _SaveVideoDatatoEE
  C:AF94H         PUBLIC        GetFWRevEE
  -------         PROC          GETFWREVEE
  -------         DO            
  X:0002H         SYMBOL        rev
  -------         ENDDO         
BL51 BANKED LINKER/LOCATER V6.22.2.0                                                  06/22/2022  16:23:04  PAGE 46


  C:AF94H         LINE#         23
  C:AF94H         LINE#         24
  C:AF94H         LINE#         27
  C:AFA1H         LINE#         28
  C:AFAFH         LINE#         29
  C:AFBDH         LINE#         30
  C:AFCDH         LINE#         32
  C:AFDCH         LINE#         33
  C:AFF4H         LINE#         35
  C:AFF4H         LINE#         36
  -------         ENDPROC       GETFWREVEE
  -------         PROC          _SAVEFWREVEE
  X:0002H         SYMBOL        rev
  C:B824H         LINE#         38
  C:B82CH         LINE#         39
  C:B82CH         LINE#         40
  C:B834H         LINE#         41
  C:B83DH         LINE#         42
  C:B846H         LINE#         43
  C:B84FH         LINE#         45
  C:B85BH         LINE#         46
  -------         ENDPROC       _SAVEFWREVEE
  -------         PROC          GETDEBUGLEVELEE
  C:C5D1H         LINE#         49
  C:C5D1H         LINE#         50
  C:C5D1H         LINE#         51
  -------         ENDPROC       GETDEBUGLEVELEE
  -------         PROC          _SAVEDEBUGLEVELEE
  D:0007H         SYMBOL        dl
  C:C55FH         LINE#         54
  C:C55FH         LINE#         55
  C:C55FH         LINE#         56
  -------         ENDPROC       _SAVEDEBUGLEVELEE
  -------         PROC          GETPOSSIBLEAUTODETECTSTDEE
  -------         DO            
  D:0007H         SYMBOL        val
  -------         ENDDO         
  C:C5D8H         LINE#         73
  C:C5D8H         LINE#         74
  C:C5D8H         LINE#         77
  -------         ENDPROC       GETPOSSIBLEAUTODETECTSTDEE
  -------         PROC          SETPOSSIBLEAUTODETECTSTDEE
  -------         DO            
  X:0002H         SYMBOL        i
  X:0003H         SYMBOL        val
  -------         ENDDO         
  C:A660H         LINE#         86
  C:A660H         LINE#         87
  C:A660H         LINE#         88
  C:A665H         LINE#         91
  C:A669H         LINE#         92
  C:A697H         LINE#         93
  C:A697H         LINE#         94
  C:A6A3H         LINE#         100
  C:A6A3H         LINE#         101
  C:A6ACH         LINE#         102
  C:A6B5H         LINE#         103
BL51 BANKED LINKER/LOCATER V6.22.2.0                                                  06/22/2022  16:23:04  PAGE 47


  C:A6BEH         LINE#         104
  C:A6C7H         LINE#         105
  C:A6D0H         LINE#         106
  C:A6D9H         LINE#         107
  C:A6E0H         LINE#         108
  C:A6E0H         LINE#         109
  C:A6E0H         LINE#         110
  -------         ENDPROC       SETPOSSIBLEAUTODETECTSTDEE
  -------         PROC          GETOSDPOSITIONMODEEE
  -------         DO            
  D:0007H         SYMBOL        val
  -------         ENDDO         
  C:C5DFH         LINE#         117
  C:C5DFH         LINE#         118
  C:C5DFH         LINE#         121
  -------         ENDPROC       GETOSDPOSITIONMODEEE
  -------         PROC          _SAVEOSDPOSITIONMODEEE
  D:0007H         SYMBOL        ndata
  C:C568H         LINE#         126
  C:C568H         LINE#         127
  C:C568H         LINE#         129
  -------         ENDPROC       _SAVEOSDPOSITIONMODEEE
  -------         PROC          _GETVIDEODATAFROMEE
  D:0007H         SYMBOL        offset
  -------         DO            
  D:0007H         SYMBOL        val
  -------         ENDDO         
  C:C555H         LINE#         136
  C:C555H         LINE#         137
  C:C555H         LINE#         141
  -------         ENDPROC       _GETVIDEODATAFROMEE
  -------         PROC          _SAVEVIDEODATATOEE
  D:0007H         SYMBOL        offset
  D:0005H         SYMBOL        ndata
  -------         DO            
  D:0007H         SYMBOL        tot
  -------         ENDDO         
  C:C571H         LINE#         148
  C:C571H         LINE#         149
  C:C571H         LINE#         153
  C:C575H         LINE#         157
  -------         ENDPROC       _SAVEVIDEODATATOEE
  -------         PROC          _SAVEINPUTSELECTIONEE
  D:0007H         SYMBOL        val
  C:C57AH         LINE#         160
  C:C57AH         LINE#         161
  C:C57AH         LINE#         162
  -------         ENDPROC       _SAVEINPUTSELECTIONEE
  -------         PROC          GETOSDLANGEE
  -------         DO            
  D:0007H         SYMBOL        val
  -------         ENDDO         
  C:C5E6H         LINE#         186
  C:C5E6H         LINE#         187
  C:C5E6H         LINE#         190
  -------         ENDPROC       GETOSDLANGEE
  -------         PROC          _SAVEOSDLANGEE
BL51 BANKED LINKER/LOCATER V6.22.2.0                                                  06/22/2022  16:23:04  PAGE 48


  D:0007H         SYMBOL        val
  C:C583H         LINE#         199
  C:C583H         LINE#         200
  C:C583H         LINE#         201
  -------         ENDPROC       _SAVEOSDLANGEE
  -------         PROC          GETAUDIOVOLEE
  C:C5EDH         LINE#         226
  C:C5EDH         LINE#         227
  C:C5EDH         LINE#         228
  -------         ENDPROC       GETAUDIOVOLEE
  -------         PROC          _SETAUDIOVOLEE
  D:0007H         SYMBOL        vol
  C:C58CH         LINE#         231
  C:C58CH         LINE#         232
  C:C58CH         LINE#         233
  -------         ENDPROC       _SETAUDIOVOLEE
  -------         PROC          GETPCAUDIOVOLEE
  C:C5F4H         LINE#         236
  C:C5F4H         LINE#         237
  C:C5F4H         LINE#         238
  -------         ENDPROC       GETPCAUDIOVOLEE
  -------         PROC          _SETPCAUDIOVOLEE
  D:0007H         SYMBOL        vol
  C:C595H         LINE#         240
  C:C595H         LINE#         241
  C:C595H         LINE#         242
  -------         ENDPROC       _SETPCAUDIOVOLEE
  -------         PROC          CLEARBASICEE
  C:C175H         LINE#         407
  C:C175H         LINE#         408
  C:C175H         LINE#         409
  C:C17DH         LINE#         410
  C:C182H         LINE#         412
  C:C189H         LINE#         413
  C:C191H         LINE#         420
  C:C194H         LINE#         424
  -------         ENDPROC       CLEARBASICEE
  -------         ENDMOD        ETC_EEP

  -------         MODULE        I2C
  C:0000H         SYMBOL        _ICE_DUMMY_
  C:B9B0H         PUBLIC        _WriteI2CnD
  D:00E8H         PUBLIC        P4
  B:0090H.0       PUBLIC        P1_0
  B:0090H.1       PUBLIC        P1_1
  C:BC07H         PUBLIC        _WriteI2Cn_
  C:BEF2H         PUBLIC        I2CReadData
  C:B8EDH         PUBLIC        _WriteI2Cn
  C:BBCEH         PUBLIC        _ReadI2C
  C:C61DH         PUBLIC        dd
  C:AD2DH         PUBLIC        _I2CWriteData
  C:C107H         PUBLIC        _WriteI2C
  C:C464H         PUBLIC        I2CStart
  C:C0E1H         PUBLIC        _ReadEEP
  C:0016H         PUBLIC        I2CStop
  C:B798H         PUBLIC        _WriteEEP
  C:C235H         SYMBOL        Com002D
BL51 BANKED LINKER/LOCATER V6.22.2.0                                                  06/22/2022  16:23:04  PAGE 49


  C:C235H         SYMBOL        L?0046
  C:C235H         SYMBOL        L?0047
  C:C23FH         SYMBOL        L?0048
  C:C24CH         SYMBOL        L?0049
  C:C24CH         SYMBOL        L?0050
  -------         PROC          COM002D
  -------         ENDPROC       COM002D
  -------         PROC          _WRITEEEP
  X:0028H         SYMBOL        index
  X:002AH         SYMBOL        dat
  -------         DO            
  X:002BH         SYMBOL        addr
  -------         ENDDO         
  C:B798H         LINE#         91
  C:B7A3H         LINE#         92
  C:B7A3H         LINE#         95
  C:B7BBH         LINE#         97
  C:B7BEH         LINE#         98
  C:B7C6H         LINE#         99
  C:B7CFH         LINE#         100
  C:B7D7H         LINE#         101
  C:B7DAH         LINE#         107
  -------         ENDPROC       _WRITEEEP
  -------         PROC          _READEEP
  D:0004H         SYMBOL        index
  -------         DO            
  X:0033H         SYMBOL        val
  D:0007H         SYMBOL        addr
  -------         ENDDO         
  C:C0E1H         LINE#         110
  C:C0E5H         LINE#         111
  C:C0E5H         LINE#         115
  C:C0F4H         LINE#         117
  C:C0FCH         LINE#         122
  C:C101H         LINE#         123
  C:C106H         LINE#         124
  -------         ENDPROC       _READEEP
  -------         PROC          _READI2C
  X:0034H         SYMBOL        addr
  X:0035H         SYMBOL        index
  -------         DO            
  X:0036H         SYMBOL        val
  -------         ENDDO         
  C:BBCEH         LINE#         126
  C:BBD6H         LINE#         127
  C:BBD6H         LINE#         130
  C:BBD9H         LINE#         131
  C:BBE1H         LINE#         132
  C:BBE9H         LINE#         133
  C:BBECH         LINE#         134
  C:BBF6H         LINE#         135
  C:BBFEH         LINE#         136
  C:BC01H         LINE#         138
  C:BC06H         LINE#         139
  -------         ENDPROC       _READI2C
  -------         PROC          _WRITEI2C
  X:0055H         SYMBOL        addr
BL51 BANKED LINKER/LOCATER V6.22.2.0                                                  06/22/2022  16:23:04  PAGE 50


  X:0056H         SYMBOL        index
  X:0057H         SYMBOL        val
  C:C107H         LINE#         142
  C:C10FH         LINE#         143
  C:C10FH         LINE#         144
  C:C112H         LINE#         145
  C:C11AH         LINE#         146
  C:C122H         LINE#         147
  C:C12AH         LINE#         148
  -------         ENDPROC       _WRITEI2C
  -------         PROC          _WRITEI2CND
  X:0034H         SYMBOL        addr
  X:0035H         SYMBOL        index
  X:0036H         SYMBOL        val
  X:0037H         SYMBOL        cnt
  -------         DO            
  X:0038H         SYMBOL        i
  -------         ENDDO         
  C:B9B0H         LINE#         151
  C:B9B8H         LINE#         152
  C:B9B8H         LINE#         155
  C:B9BBH         LINE#         156
  C:B9C3H         LINE#         157
  C:B9CBH         LINE#         159
  C:B9DBH         LINE#         160
  C:B9E3H         LINE#         162
  C:B9EBH         LINE#         164
  -------         ENDPROC       _WRITEI2CND
  -------         PROC          _WRITEI2CN
  X:0055H         SYMBOL        addr
  X:0056H         SYMBOL        index
  X:0057H         SYMBOL        val
  X:005AH         SYMBOL        cnt
  -------         DO            
  X:005BH         SYMBOL        i
  -------         ENDDO         
  C:B8EDH         LINE#         167
  C:B8F6H         LINE#         168
  C:B8F6H         LINE#         172
  C:B8F9H         LINE#         173
  C:B901H         LINE#         174
  C:B909H         LINE#         176
  C:B91AH         LINE#         177
  C:B923H         LINE#         179
  C:B92BH         LINE#         180
  -------         ENDPROC       _WRITEI2CN
  -------         PROC          _WRITEI2CN_
  X:001BH         SYMBOL        addr
  X:001CH         SYMBOL        val
  X:001FH         SYMBOL        cnt
  -------         DO            
  X:0020H         SYMBOL        i
  -------         ENDDO         
  C:BC07H         LINE#         183
  C:BC10H         LINE#         184
  C:BC10H         LINE#         187
  C:BC13H         LINE#         188
BL51 BANKED LINKER/LOCATER V6.22.2.0                                                  06/22/2022  16:23:04  PAGE 51


  C:BC1BH         LINE#         190
  C:BC2CH         LINE#         191
  C:BC35H         LINE#         192
  C:BC3DH         LINE#         193
  -------         ENDPROC       _WRITEI2CN_
  -------         PROC          DD
  C:C61DH         LINE#         249
  C:C61DH         LINE#         250
  C:C61DH         LINE#         254
  -------         ENDPROC       DD
  -------         PROC          I2CSTART
  C:C464H         LINE#         259
  C:C464H         LINE#         260
  C:C464H         LINE#         261
  C:C469H         LINE#         262
  C:C46EH         LINE#         263
  C:C473H         LINE#         264
  C:C475H         LINE#         265
  -------         ENDPROC       I2CSTART
  -------         PROC          I2CSTOP
  C:0016H         LINE#         267
  C:0016H         LINE#         268
  C:0016H         LINE#         269
  C:001BH         LINE#         270
  C:0020H         LINE#         271
  C:0022H         LINE#         272
  -------         ENDPROC       I2CSTOP
  -------         PROC          _I2CWRITEDATA
  D:0007H         SYMBOL        value
  C:AD2DH         LINE#         274
  C:AD2DH         LINE#         275
  C:AD2DH         LINE#         289
  C:AD37H         LINE#         290
  C:AD42H         LINE#         291
  C:AD4DH         LINE#         292
  C:AD58H         LINE#         294
  C:AD63H         LINE#         295
  C:AD6EH         LINE#         296
  C:AD79H         LINE#         297
  C:AD84H         LINE#         300
  C:AD87H         LINE#         301
  C:AD89H         LINE#         302
  C:AD8BH         LINE#         303
  C:AD8DH         LINE#         305
  C:AD8FH         LINE#         306
  C:AD91H         LINE#         307
  C:AD93H         LINE#         308
  C:AD95H         LINE#         309
  -------         ENDPROC       _I2CWRITEDATA
  -------         PROC          I2CREADDATA
  -------         DO            
  D:0004H         SYMBOL        i
  D:0007H         SYMBOL        value
  -------         ENDDO         
  C:BEF2H         LINE#         311
  C:BEF2H         LINE#         312
  C:BEF2H         LINE#         314
BL51 BANKED LINKER/LOCATER V6.22.2.0                                                  06/22/2022  16:23:04  PAGE 52


  C:BEF4H         LINE#         316
  C:BEF9H         LINE#         317
  C:BEFBH         LINE#         319
  C:BEFDH         LINE#         320
  C:BEFFH         LINE#         321
  C:BF03H         LINE#         322
  C:BF09H         LINE#         323
  C:BF0BH         LINE#         324
  C:BF16H         LINE#         325
  C:BF19H         LINE#         327
  C:BF1BH         LINE#         328
  C:BF1DH         LINE#         329
  C:BF1FH         LINE#         330
  C:BF21H         LINE#         332
  C:BF21H         LINE#         334
  -------         ENDPROC       I2CREADDATA
  -------         ENDMOD        I2C

  -------         MODULE        KEYREMO
  C:0000H         SYMBOL        _ICE_DUMMY_
  D:00A0H         PUBLIC        P2
  B:0022H.6       PUBLIC        IsRun2835ClkTune
  D:00E8H         PUBLIC        P4
  B:0022H.7       PUBLIC        CAM_PTZ_RUN_flag
  X:0128H         PUBLIC        RELEASE_TR_JUMP_Flag
  X:0129H         PUBLIC        Disp_Input
  X:012AH         PUBLIC        KeyBuffer
  C:A974H         PUBLIC        _HS_Display2835ClkTuneVal
  C:C3A5H         PUBLIC        RemoVolDn_LeftKey
  D:0070H         PUBLIC        b2835ClkTuneVal
  X:012BH         PUBLIC        DayNightLevel
  C:C38AH         PUBLIC        RemoVolUp_RightKey
  X:012CH         PUBLIC        lock_keycnt
  X:012DH         PUBLIC        BookMarkState
  X:012EH         PUBLIC        TR_JUMP_Flag
  C:C502H         PUBLIC        RemoChnDn_DnKey
  X:012FH         PUBLIC        OSD_LOCKF
  X:0130H         PUBLIC        LockKeyState
  C:6781H         SYMBOL        _?ix1000
  C:484BH         PUBLIC        CheckKeyIn
  C:C4F5H         PUBLIC        RemoChnUp_UpKey
  C:AFF5H         PUBLIC        _GetKey
  B:0023H.0       PUBLIC        IsEnter2835ClkTune
  X:0131H         PUBLIC        TR_JUMP_HOLD
  C:BDF5H         PUBLIC        RemoMenu_MenuKey
  D:0071H         PUBLIC        Enter2835TuneClock
  C:9935H         PUBLIC        _ActionRemo
  C:C43DH         SYMBOL        Com00CA
  C:C43DH         SYMBOL        L?0203
  C:C43DH         SYMBOL        L?0204
  C:C448H         SYMBOL        L?0208
  -------         PROC          COM00CA
  -------         ENDPROC       COM00CA
  C:BE19H         SYMBOL        L?0206
  -------         PROC          REMOMENU_MENUKEY
  C:BDF5H         LINE#         120
  C:BDF5H         LINE#         121
BL51 BANKED LINKER/LOCATER V6.22.2.0                                                  06/22/2022  16:23:04  PAGE 53


  C:BDF5H         LINE#         125
  C:BDFFH         LINE#         127
  C:BDFFH         LINE#         129
  C:BE02H         LINE#         130
  C:BE04H         LINE#         131
  C:BE07H         LINE#         132
  C:BE09H         LINE#         133
  C:BE0CH         LINE#         134
  C:BE15H         LINE#         137
  C:BE18H         LINE#         138
  C:BE18H         LINE#         139
  -------         ENDPROC       REMOMENU_MENUKEY
  -------         PROC          REMOCHNUP_UPKEY
  C:C4F5H         LINE#         142
  C:C4F5H         LINE#         143
  C:C4F5H         LINE#         151
  C:C4FCH         LINE#         162
  C:C501H         LINE#         168
  -------         ENDPROC       REMOCHNUP_UPKEY
  -------         PROC          REMOCHNDN_DNKEY
  C:C502H         LINE#         170
  C:C502H         LINE#         171
  C:C502H         LINE#         179
  C:C509H         LINE#         180
  C:C50EH         LINE#         181
  C:C50EH         LINE#         187
  -------         ENDPROC       REMOCHNDN_DNKEY
  -------         PROC          REMOVOLUP_RIGHTKEY
  C:C38AH         LINE#         189
  C:C38AH         LINE#         190
  C:C38AH         LINE#         198
  C:C391H         LINE#         199
  C:C399H         LINE#         200
  C:C39CH         LINE#         201
  C:C39CH         LINE#         203
  C:C39CH         LINE#         209
  C:C39CH         LINE#         210
  C:C3A1H         LINE#         211
  C:C3A4H         LINE#         212
  C:C3A4H         LINE#         213
  C:C3A4H         LINE#         214
  -------         ENDPROC       REMOVOLUP_RIGHTKEY
  -------         PROC          REMOVOLDN_LEFTKEY
  C:C3A5H         LINE#         216
  C:C3A5H         LINE#         217
  C:C3A5H         LINE#         225
  C:C3ACH         LINE#         226
  C:C3ACH         LINE#         227
  C:C3AFH         LINE#         228
  C:C3B4H         LINE#         230
  C:C3B7H         LINE#         231
  C:C3B7H         LINE#         233
  C:C3B7H         LINE#         239
  C:C3B7H         LINE#         240
  C:C3BCH         LINE#         241
  C:C3BFH         LINE#         242
  C:C3BFH         LINE#         243
BL51 BANKED LINKER/LOCATER V6.22.2.0                                                  06/22/2022  16:23:04  PAGE 54


  C:C3BFH         LINE#         244
  -------         ENDPROC       REMOVOLDN_LEFTKEY
  -------         PROC          _ACTIONREMO
  X:0004H         SYMBOL        _RemoDataCode
  X:0005H         SYMBOL        AutoKey
  C:9935H         LINE#         249
  C:993DH         LINE#         250
  C:993DH         LINE#         251
  C:9940H         LINE#         271
  C:9987H         LINE#         273
  C:9987H         LINE#         277
  C:998FH         LINE#         278
  C:9998H         LINE#         279
  C:999BH         LINE#         281
  C:999BH         LINE#         294
  C:999BH         LINE#         296
  C:999BH         LINE#         300
  C:99A1H         LINE#         301
  C:99A4H         LINE#         303
  C:99A4H         LINE#         307
  C:99B0H         LINE#         308
  C:99B3H         LINE#         309
  C:99B6H         LINE#         311
  C:99B6H         LINE#         312
  C:99B6H         LINE#         313
  C:99B6H         LINE#         314
  C:99B6H         LINE#         315
  C:99B6H         LINE#         316
  C:99B6H         LINE#         317
  C:99B6H         LINE#         318
  C:99B6H         LINE#         319
  C:99B6H         LINE#         320
  C:99B6H         LINE#         324
  C:99BAH         LINE#         326
  C:99BDH         LINE#         327
  C:99BDH         LINE#         329
  C:99BDH         LINE#         333
  C:99C0H         LINE#         334
  C:99C2H         LINE#         336
  C:99C2H         LINE#         340
  C:99C5H         LINE#         341
  C:99C7H         LINE#         343
  C:99C7H         LINE#         347
  C:99D0H         LINE#         348
  C:99D7H         LINE#         349
  C:99DAH         LINE#         350
  C:99DAH         LINE#         351
  C:99DCH         LINE#         353
  C:99DCH         LINE#         357
  C:99DFH         LINE#         358
  C:99E1H         LINE#         359
  C:99E1H         LINE#         363
  C:99E4H         LINE#         364
  C:99E6H         LINE#         367
  C:99E6H         LINE#         371
  C:99EFH         LINE#         375
  C:99F2H         LINE#         377
BL51 BANKED LINKER/LOCATER V6.22.2.0                                                  06/22/2022  16:23:04  PAGE 55


  C:99F4H         LINE#         379
  C:99F4H         LINE#         383
  C:99FBH         LINE#         384
  C:9A00H         LINE#         385
  C:9A00H         LINE#         405
  C:9A00H         LINE#         417
  C:9A02H         LINE#         418
  -------         ENDPROC       _ACTIONREMO
  C:4D07H         SYMBOL        L?0199
  C:4D20H         SYMBOL        L?0200
  C:4D2BH         SYMBOL        L?0201
  C:4D35H         SYMBOL        L?0205
  C:4D45H         SYMBOL        L?0207
  -------         PROC          CHECKKEYIN
  -------         DO            
  X:0001H         SYMBOL        ret
  X:0002H         SYMBOL        ikey
  X:0003H         SYMBOL        OSD_LOCK
  -------         ENDDO         
  C:484BH         LINE#         420
  C:484BH         LINE#         421
  C:484BH         LINE#         422
  C:4851H         LINE#         425
  C:4857H         LINE#         426
  C:4857H         LINE#         427
  C:4878H         LINE#         428
  C:487AH         LINE#         429
  C:487AH         LINE#         432
  C:4889H         LINE#         433
  C:4889H         LINE#         436
  C:48A2H         LINE#         437
  C:48AAH         LINE#         438
  C:48B2H         LINE#         439
  C:48BAH         LINE#         440
  C:48C2H         LINE#         441
  C:48CAH         LINE#         442
  C:48D2H         LINE#         443
  C:48DBH         LINE#         444
  C:48DBH         LINE#         454
  C:48E3H         LINE#         460
  C:48EBH         LINE#         462
  C:48EBH         LINE#         463
  C:48EEH         LINE#         467
  C:48FBH         LINE#         469
  C:48FBH         LINE#         470
  C:4904H         LINE#         471
  C:490AH         LINE#         472
  C:490EH         LINE#         473
  C:4912H         LINE#         474
  C:4917H         LINE#         475
  C:491AH         LINE#         477
  C:4921H         LINE#         478
  C:4921H         LINE#         479
  C:4924H         LINE#         480
  C:4926H         LINE#         482
  C:4926H         LINE#         483
  C:4929H         LINE#         484
BL51 BANKED LINKER/LOCATER V6.22.2.0                                                  06/22/2022  16:23:04  PAGE 56


  C:492EH         LINE#         485
  C:4932H         LINE#         486
  C:4935H         LINE#         488
  C:4935H         LINE#         492
  C:4937H         LINE#         496
  C:4937H         LINE#         497
  C:4937H         LINE#         499
  C:4945H         LINE#         500
  C:4945H         LINE#         501
  C:4946H         LINE#         502
  C:4949H         LINE#         503
  C:4949H         LINE#         506
  C:4957H         LINE#         507
  C:4957H         LINE#         508
  C:495FH         LINE#         509
  C:4965H         LINE#         510
  C:4969H         LINE#         511
  C:4970H         LINE#         513
  C:4973H         LINE#         514
  C:4978H         LINE#         515
  C:497DH         LINE#         518
  C:497FH         LINE#         520
  C:497FH         LINE#         523
  C:4991H         LINE#         524
  C:4991H         LINE#         525
  C:4993H         LINE#         526
  C:4998H         LINE#         527
  C:4998H         LINE#         553
  C:49ADH         LINE#         554
  C:49ADH         LINE#         555
  C:49B0H         LINE#         556
  C:49B1H         LINE#         557
  C:49B1H         LINE#         558
  C:49B1H         LINE#         559
  C:49B4H         LINE#         561
  C:49BBH         LINE#         564
  C:49BDH         LINE#         566
  C:49C0H         LINE#         567
  C:49C0H         LINE#         570
  C:49C3H         LINE#         572
  C:49E6H         LINE#         573
  C:49E6H         LINE#         574
  C:49EFH         LINE#         576
  C:49F5H         LINE#         577
  C:49F5H         LINE#         578
  C:4A00H         LINE#         579
  C:4A05H         LINE#         581
  C:4A07H         LINE#         583
  C:4A3DH         LINE#         584
  C:4A3DH         LINE#         585
  C:4A3DH         LINE#         586
  C:4A3DH         LINE#         587
  C:4A43H         LINE#         588
  C:4A45H         LINE#         590
  C:4A45H         LINE#         591
  C:4A4BH         LINE#         592
  C:4A4DH         LINE#         594
BL51 BANKED LINKER/LOCATER V6.22.2.0                                                  06/22/2022  16:23:04  PAGE 57


  C:4A4DH         LINE#         595
  C:4A53H         LINE#         596
  C:4A55H         LINE#         598
  C:4A55H         LINE#         599
  C:4A5BH         LINE#         600
  C:4A5DH         LINE#         602
  C:4A5DH         LINE#         603
  C:4A63H         LINE#         604
  C:4A65H         LINE#         606
  C:4A65H         LINE#         607
  C:4A6BH         LINE#         608
  C:4A6DH         LINE#         610
  C:4A6DH         LINE#         611
  C:4A73H         LINE#         612
  C:4A75H         LINE#         614
  C:4A75H         LINE#         615
  C:4A7BH         LINE#         616
  C:4A7DH         LINE#         618
  C:4A7DH         LINE#         619
  C:4A83H         LINE#         620
  C:4A85H         LINE#         622
  C:4A85H         LINE#         623
  C:4A8BH         LINE#         624
  C:4A8DH         LINE#         626
  C:4A8DH         LINE#         627
  C:4A93H         LINE#         628
  C:4A95H         LINE#         630
  C:4A95H         LINE#         631
  C:4A9BH         LINE#         632
  C:4A9DH         LINE#         634
  C:4A9DH         LINE#         635
  C:4AA3H         LINE#         636
  C:4AA5H         LINE#         638
  C:4AA5H         LINE#         639
  C:4AABH         LINE#         640
  C:4AADH         LINE#         642
  C:4AADH         LINE#         643
  C:4AB3H         LINE#         644
  C:4AB5H         LINE#         646
  C:4AB5H         LINE#         647
  C:4ABEH         LINE#         648
  C:4ABEH         LINE#         649
  C:4ABEH         LINE#         651
  C:4ABEH         LINE#         652
  C:4AC0H         LINE#         655
  C:4AC0H         LINE#         657
  C:4AC3H         LINE#         658
  C:4AC3H         LINE#         659
  C:4ACCH         LINE#         660
  C:4ACCH         LINE#         662
  C:4AD7H         LINE#         663
  C:4ADCH         LINE#         665
  C:4AE3H         LINE#         666
  C:4AE3H         LINE#         667
  C:4AE6H         LINE#         669
  C:4AE6H         LINE#         670
  C:4AE8H         LINE#         674
BL51 BANKED LINKER/LOCATER V6.22.2.0                                                  06/22/2022  16:23:04  PAGE 58


  C:4AEBH         LINE#         675
  C:4AEBH         LINE#         676
  C:4AEBH         LINE#         677
  C:4AEEH         LINE#         679
  C:4AEEH         LINE#         680
  C:4AF7H         LINE#         683
  C:4AFAH         LINE#         684
  C:4AFAH         LINE#         685
  C:4B01H         LINE#         686
  C:4B04H         LINE#         689
  C:4B04H         LINE#         713
  C:4B07H         LINE#         714
  C:4B07H         LINE#         716
  C:4B10H         LINE#         717
  C:4B10H         LINE#         719
  C:4B10H         LINE#         720
  C:4B16H         LINE#         721
  C:4B16H         LINE#         723
  C:4B16H         LINE#         724
  C:4B16H         LINE#         725
  C:4B16H         LINE#         726
  C:4B19H         LINE#         727
  C:4B20H         LINE#         728
  C:4B23H         LINE#         742
  C:4B23H         LINE#         743
  C:4B2AH         LINE#         744
  C:4B2AH         LINE#         745
  C:4B2DH         LINE#         746
  C:4B2FH         LINE#         749
  C:4B32H         LINE#         750
  C:4B35H         LINE#         751
  C:4B3FH         LINE#         752
  C:4B3FH         LINE#         757
  C:4B3FH         LINE#         760
  C:4B3FH         LINE#         780
  C:4B45H         LINE#         781
  C:4B45H         LINE#         782
  C:4B45H         LINE#         783
  C:4B48H         LINE#         785
  C:4B48H         LINE#         786
  C:4B4AH         LINE#         787
  C:4B4AH         LINE#         788
  C:4B4AH         LINE#         789
  C:4B4AH         LINE#         790
  C:4B4DH         LINE#         794
  C:4B4DH         LINE#         795
  C:4B50H         LINE#         796
  C:4B50H         LINE#         797
  C:4B57H         LINE#         798
  C:4B57H         LINE#         799
  C:4B5CH         LINE#         800
  C:4B5EH         LINE#         810
  C:4B5EH         LINE#         812
  C:4B65H         LINE#         815
  C:4B6FH         LINE#         817
  C:4B74H         LINE#         818
  C:4B76H         LINE#         819
BL51 BANKED LINKER/LOCATER V6.22.2.0                                                  06/22/2022  16:23:04  PAGE 59


  C:4B76H         LINE#         820
  C:4B76H         LINE#         822
  C:4B76H         LINE#         823
  C:4B78H         LINE#         824
  C:4B78H         LINE#         826
  C:4B78H         LINE#         827
  C:4B7BH         LINE#         829
  C:4B7BH         LINE#         830
  C:4B7EH         LINE#         831
  C:4B7EH         LINE#         832
  C:4B85H         LINE#         833
  C:4B85H         LINE#         834
  C:4B8AH         LINE#         835
  C:4B90H         LINE#         837
  C:4B90H         LINE#         841
  C:4B93H         LINE#         842
  C:4B93H         LINE#         843
  C:4B96H         LINE#         845
  C:4B96H         LINE#         847
  C:4BA4H         LINE#         850
  C:4BAEH         LINE#         852
  C:4BBAH         LINE#         853
  C:4BBDH         LINE#         854
  C:4BBDH         LINE#         855
  C:4BBDH         LINE#         857
  C:4BBDH         LINE#         858
  C:4BBFH         LINE#         859
  C:4BBFH         LINE#         861
  C:4BBFH         LINE#         862
  C:4BC2H         LINE#         864
  C:4BC2H         LINE#         865
  C:4BC5H         LINE#         866
  C:4BC5H         LINE#         867
  C:4BD2H         LINE#         868
  C:4BD5H         LINE#         870
  C:4BDCH         LINE#         871
  C:4BDFH         LINE#         873
  C:4BE2H         LINE#         874
  C:4BE5H         LINE#         876
  C:4BE5H         LINE#         877
  C:4BE7H         LINE#         878
  C:4BE7H         LINE#         880
  C:4BE7H         LINE#         881
  C:4BEAH         LINE#         885
  C:4BEAH         LINE#         887
  C:4BFAH         LINE#         888
  C:4BFAH         LINE#         891
  C:4BFAH         LINE#         892
  C:4C0BH         LINE#         893
  C:4C0BH         LINE#         894
  C:4C19H         LINE#         895
  C:4C19H         LINE#         896
  C:4C20H         LINE#         897
  C:4C23H         LINE#         899
  C:4C29H         LINE#         901
  C:4C37H         LINE#         903
  C:4C3DH         LINE#         905
BL51 BANKED LINKER/LOCATER V6.22.2.0                                                  06/22/2022  16:23:04  PAGE 60


  C:4C41H         LINE#         907
  C:4C41H         LINE#         908
  C:4C41H         LINE#         910
  C:4C43H         LINE#         911
  C:4C46H         LINE#         912
  C:4C46H         LINE#         914
  C:4C4CH         LINE#         915
  C:4C4CH         LINE#         916
  C:4C51H         LINE#         917
  C:4C57H         LINE#         918
  C:4C5CH         LINE#         919
  C:4C60H         LINE#         921
  C:4C63H         LINE#         923
  C:4C63H         LINE#         926
  C:4C70H         LINE#         927
  C:4C73H         LINE#         930
  C:4C79H         LINE#         931
  C:4C7DH         LINE#         933
  C:4C82H         LINE#         935
  C:4C85H         LINE#         937
  C:4C85H         LINE#         938
  C:4C88H         LINE#         940
  C:4C88H         LINE#         941
  C:4C8DH         LINE#         942
  C:4C8FH         LINE#         944
  C:4C8FH         LINE#         945
  C:4C92H         LINE#         995
  C:4C92H         LINE#         996
  C:4C9DH         LINE#         997
  C:4C9DH         LINE#         998
  C:4CA0H         LINE#         999
  C:4CA0H         LINE#         1000
  C:4CA2H         LINE#         1001
  C:4CA7H         LINE#         1002
  C:4CAFH         LINE#         1003
  C:4CB1H         LINE#         1004
  C:4CB3H         LINE#         1006
  C:4CB3H         LINE#         1007
  C:4CB5H         LINE#         1008
  C:4CBAH         LINE#         1009
  C:4CC1H         LINE#         1010
  C:4CC1H         LINE#         1012
  C:4CD2H         LINE#         1013
  C:4CD2H         LINE#         1014
  C:4CD4H         LINE#         1016
  C:4CD4H         LINE#         1017
  C:4CDCH         LINE#         1018
  C:4CDCH         LINE#         1019
  C:4CE1H         LINE#         1020
  C:4CE8H         LINE#         1021
  C:4CE8H         LINE#         1022
  C:4CE8H         LINE#         1023
  C:4CE8H         LINE#         1024
  C:4CEBH         LINE#         1025
  C:4CEBH         LINE#         1026
  C:4CEBH         LINE#         1027
  C:4CEBH         LINE#         1028
BL51 BANKED LINKER/LOCATER V6.22.2.0                                                  06/22/2022  16:23:04  PAGE 61


  C:4CEEH         LINE#         1029
  C:4CF3H         LINE#         1030
  C:4CF5H         LINE#         1031
  C:4D01H         LINE#         1032
  C:4D01H         LINE#         1033
  C:4D01H         LINE#         1035
  C:4D01H         LINE#         1036
  C:4D01H         LINE#         1037
  C:4D06H         LINE#         1038
  -------         ENDPROC       CHECKKEYIN
  -------         PROC          _GETKEY
  D:0007H         SYMBOL        repeat
  -------         DO            
  B:0024H.1       SYMBOL        ready
  -------         ENDDO         
  C:AFF5H         LINE#         1046
  C:AFF5H         LINE#         1047
  C:AFF5H         LINE#         1051
  C:AFF9H         LINE#         1052
  C:AFFBH         LINE#         1056
  C:B002H         LINE#         1057
  C:B002H         LINE#         1058
  C:B004H         LINE#         1059
  C:B01FH         LINE#         1060
  C:B024H         LINE#         1061
  C:B03CH         LINE#         1062
  C:B03FH         LINE#         1064
  C:B041H         LINE#         1065
  C:B041H         LINE#         1122
  C:B047H         LINE#         1123
  C:B04DH         LINE#         1124
  C:B053H         LINE#         1126
  C:B055H         LINE#         1128
  -------         ENDPROC       _GETKEY
  -------         PROC          _HS_DISPLAY2835CLKTUNEVAL
  X:0004H         SYMBOL        val
  -------         DO            
  X:0006H         SYMBOL        mstr
  -------         ENDDO         
  C:A974H         LINE#         1268
  C:A97CH         LINE#         1269
  C:A97CH         LINE#         1270
  C:A98FH         LINE#         1272
  C:A9AFH         LINE#         1273
  C:A9B3H         LINE#         1275
  C:A9BCH         LINE#         1276
  C:A9C1H         LINE#         1277
  C:A9C9H         LINE#         1278
  C:A9D3H         LINE#         1279
  C:A9E5H         LINE#         1281
  C:A9ECH         LINE#         1282
  -------         ENDPROC       _HS_DISPLAY2835CLKTUNEVAL
  -------         ENDMOD        KEYREMO

  -------         MODULE        MAIN
  C:0000H         SYMBOL        _ICE_DUMMY_
  D:0010H         PUBLIC        CheckBuf
BL51 BANKED LINKER/LOCATER V6.22.2.0                                                  06/22/2022  16:23:04  PAGE 62


  D:00E8H         PUBLIC        P4
  C:C1F8H         PUBLIC        GetNextInputSelection
  B:0020H.0       PUBLIC        Range4Coarse
  X:00FFH         PUBLIC        CkTMode
  X:0100H         PUBLIC        Baud_rate
  X:0101H         PUBLIC        PowerFlag
  C:9AC7H         PUBLIC        _InitVideoData
  C:C476H         PUBLIC        IsNoInput
  X:0102H         PUBLIC        SelectModeType
  D:0011H         PUBLIC        RightTime
  B:0090H.4       PUBLIC        P1_4
  C:C5A7H         PUBLIC        GetOSDLastKeyInTime
  B:0090H.5       PUBLIC        P1_5
  X:0103H         PUBLIC        VInputStd
  B:00B0H.4       PUBLIC        P3_4
  X:0104H         PUBLIC        TGFlag
  B:00B0H.7       PUBLIC        P3_7
  D:0012H         PUBLIC        LeftTime
  C:6D33H         PUBLIC        struct_VInputStd
  D:0013H         PUBLIC        ParkTime
  X:0105H         PUBLIC        displayhold_flag
  C:C528H         PUBLIC        SetOSDLastKeyInTime
  X:0106H         PUBLIC        DVR_AudioRecord
  C:A0E7H         PUBLIC        main
  C:8987H         PUBLIC        _AdjustAutoDayNight
  X:0107H         PUBLIC        TDisplayFlag
  X:0108H         PUBLIC        AutoDayNightDelay
  C:C50FH         PUBLIC        PowerOff
  C:B4ECH         PUBLIC        _I2CDeviceInitialize
  C:96C2H         PUBLIC        CheckDecoderInput
  B:0020H.1       PUBLIC        I2CAutoIncFlagOn
  B:0020H.2       PUBLIC        AccPowerDown
  X:0109H         PUBLIC        InitVideoDataSrc
  B:0020H.3       PUBLIC        IsFirstRunfromAC
  D:0014H         PUBLIC        LtFlag
  B:0020H.4       PUBLIC        PowerDownStart
  X:010AH         PUBLIC        CAMNumber
  X:010BH         PUBLIC        InputSelection
  D:0015H         PUBLIC        RtFlag
  C:8BB1H         PUBLIC        main_loop
  C:BC40H         PUBLIC        _SetVInputStd
  C:C59EH         PUBLIC        PowerDown_XTAL
  X:010CH         PUBLIC        TGFlag1
  C:6C89H         PUBLIC        struct_InputSelection
  C:8757H         PUBLIC        LoadEEPROM
  C:C4A9H         PUBLIC        Hs_InitVars
  X:010DH         PUBLIC        bLastTrigger
  B:0020H.5       PUBLIC        JUMPAVFlag
  B:0020H.6       PUBLIC        Flag4AutoPanelRegs
  C:C152H         PUBLIC        ReadVInputSTD
  D:0016H         PUBLIC        IHF
  D:001AH         PUBLIC        ReverseFlag
  C:8870H         PUBLIC        _ChangeInput
  X:010EH         PUBLIC        CkPARK
  X:010FH         PUBLIC        PelcoChoiceFLAG
  C:C608H         PUBLIC        GetInputSelection
  X:0110H         PUBLIC        DebugLevel
BL51 BANKED LINKER/LOCATER V6.22.2.0                                                  06/22/2022  16:23:04  PAGE 63


  D:001BH         PUBLIC        IVF
  X:0111H         PUBLIC        ReverseModeFlag
  C:A9F1H         PUBLIC        WaitPowerOn
  X:0112H         PUBLIC        Priority
  B:0020H.7       PUBLIC        IsDrawNoVideoSignal
  C:B2E3H         PUBLIC        GetVInputStdInx
  B:0021H.0       PUBLIC        DVRReSendDisable
  D:001DH         PUBLIC        PWMLevel
  X:0113H         PUBLIC        Commanderror
  D:001EH         PUBLIC        ReverseTime
  X:0114H         PUBLIC        OSDLastKeyInTime
  B:0021H.1       PUBLIC        SDCardCoverDetect
  B:0021H.2       PUBLIC        DisplayInputHold
  B:0021H.3       PUBLIC        VGAflag
  X:0116H         PUBLIC        SEQTime
  X:0117H         PUBLIC        VInputStdDetectMode
  D:001FH         PUBLIC        SourceMode
  C:6CDEH         PUBLIC        struct_InputSelection_S
  C:C038H         SYMBOL        Com00A9
  C:C038H         SYMBOL        L?0170
  C:C038H         SYMBOL        L?0171
  C:C049H         SYMBOL        L?0179
  C:C054H         SYMBOL        L?0180
  C:C054H         SYMBOL        L?0181
  C:C05AH         SYMBOL        L?0182
  -------         PROC          COM00A9
  -------         ENDPROC       COM00A9
  -------         PROC          _I2CDEVICEINITIALIZE
  X:0019H         SYMBOL        RegSet
  -------         DO            
  D:0006H         SYMBOL        cnt
  X:001CH         SYMBOL        addr
  X:001DH         SYMBOL        index
  X:001EH         SYMBOL        val
  -------         ENDDO         
  C:B4ECH         LINE#         365
  C:B4F2H         LINE#         366
  C:B4F2H         LINE#         367
  C:B4F4H         LINE#         370
  C:B4FBH         LINE#         374
  C:B4FEH         LINE#         375
  C:B500H         LINE#         377
  C:B513H         LINE#         378
  C:B519H         LINE#         379
  C:B521H         LINE#         393
  C:B529H         LINE#         399
  C:B533H         LINE#         400
  C:B535H         LINE#         401
  -------         ENDPROC       _I2CDEVICEINITIALIZE
  C:9B7DH         SYMBOL        L?0174
  -------         PROC          _INITVIDEODATA
  X:0018H         SYMBOL        src
  C:9AC7H         LINE#         421
  C:9ACCH         LINE#         422
  C:9ACCH         LINE#         432
  C:9AD5H         LINE#         433
  C:9AD9H         LINE#         435
BL51 BANKED LINKER/LOCATER V6.22.2.0                                                  06/22/2022  16:23:04  PAGE 64


  C:9AE1H         LINE#         438
  C:9AF8H         LINE#         441
  C:9AF8H         LINE#         451
  C:9AF8H         LINE#         457
  C:9AF8H         LINE#         458
  C:9AF8H         LINE#         461
  C:9B01H         LINE#         468
  C:9B03H         LINE#         472
  C:9B03H         LINE#         475
  C:9B03H         LINE#         478
  C:9B03H         LINE#         480
  C:9B03H         LINE#         482
  C:9B03H         LINE#         483
  C:9B09H         LINE#         484
  C:9B09H         LINE#         486
  C:9B11H         LINE#         487
  C:9B11H         LINE#         488
  C:9B19H         LINE#         489
  C:9B22H         LINE#         490
  C:9B24H         LINE#         492
  C:9B27H         LINE#         498
  C:9B30H         LINE#         500
  C:9B39H         LINE#         504
  C:9B43H         LINE#         515
  C:9B4BH         LINE#         516
  C:9B4BH         LINE#         517
  C:9B4EH         LINE#         518
  C:9B50H         LINE#         519
  C:9B52H         LINE#         520
  C:9B5AH         LINE#         521
  C:9B5AH         LINE#         522
  C:9B62H         LINE#         524
  C:9B6BH         LINE#         525
  C:9B6BH         LINE#         542
  C:9B7AH         LINE#         548
  C:9B7CH         LINE#         549
  -------         ENDPROC       _INITVIDEODATA
  -------         PROC          ISNOINPUT
  C:C476H         LINE#         552
  C:C476H         LINE#         553
  C:C476H         LINE#         554
  C:C484H         LINE#         555
  C:C486H         LINE#         556
  -------         ENDPROC       ISNOINPUT
  C:9784H         SYMBOL        L?0173
  -------         PROC          CHECKDECODERINPUT
  -------         DO            
  X:0013H         SYMBOL        std1
  X:0014H         SYMBOL        std
  X:0015H         SYMBOL        cnt
  X:0016H         SYMBOL        trycnt
  X:0017H         SYMBOL        ChangedNoinput
  -------         ENDDO         
  C:96C2H         LINE#         647
  C:96C2H         LINE#         648
  C:96C2H         LINE#         787
  C:96C9H         LINE#         796
BL51 BANKED LINKER/LOCATER V6.22.2.0                                                  06/22/2022  16:23:04  PAGE 65


  C:96DAH         LINE#         799
  C:96DFH         LINE#         800
  C:96DFH         LINE#         801
  C:96E7H         LINE#         806
  C:96EDH         LINE#         807
  C:96FAH         LINE#         808
  C:96FAH         LINE#         810
  C:970FH         LINE#         811
  C:970FH         LINE#         814
  C:971AH         LINE#         815
  C:9720H         LINE#         817
  C:9720H         LINE#         818
  C:9725H         LINE#         819
  C:972AH         LINE#         820
  C:972AH         LINE#         822
  C:9737H         LINE#         828
  C:973BH         LINE#         829
  C:973BH         LINE#         831
  C:9743H         LINE#         832
  C:9749H         LINE#         833
  C:974BH         LINE#         834
  C:9751H         LINE#         835
  C:9751H         LINE#         839
  C:975AH         LINE#         840
  C:975DH         LINE#         843
  C:975DH         LINE#         844
  C:9760H         LINE#         845
  C:9760H         LINE#         846
  C:9762H         LINE#         848
  C:9762H         LINE#         854
  C:976BH         LINE#         855
  C:976EH         LINE#         858
  C:976EH         LINE#         859
  C:9771H         LINE#         860
  C:9776H         LINE#         862
  C:977BH         LINE#         863
  C:977BH         LINE#         871
  C:9783H         LINE#         873
  C:9783H         LINE#         874
  C:9783H         LINE#         875
  C:9783H         LINE#         886
  C:9783H         LINE#         892
  -------         ENDPROC       CHECKDECODERINPUT
  -------         PROC          READVINPUTSTD
  -------         DO            
  D:0007H         SYMBOL        std
  -------         ENDDO         
  C:C152H         LINE#         894
  C:C152H         LINE#         895
  C:C152H         LINE#         898
  C:C15BH         LINE#         900
  C:C166H         LINE#         901
  C:C16CH         LINE#         903
  C:C174H         LINE#         904
  -------         ENDPROC       READVINPUTSTD
  -------         PROC          GETVINPUTSTDINX
  -------         DO            
BL51 BANKED LINKER/LOCATER V6.22.2.0                                                  06/22/2022  16:23:04  PAGE 66


  D:0007H         SYMBOL        i
  D:0003H         SYMBOL        std
  -------         ENDDO         
  C:B2E3H         LINE#         906
  C:B2E3H         LINE#         907
  C:B2E3H         LINE#         910
  C:B2E8H         LINE#         912
  C:B2FEH         LINE#         914
  C:B2FEH         LINE#         915
  C:B2FEH         LINE#         916
  C:B2FEH         LINE#         917
  C:B306H         LINE#         919
  C:B306H         LINE#         920
  C:B306H         LINE#         921
  C:B315H         LINE#         922
  C:B31CH         LINE#         923
  C:B31CH         LINE#         925
  C:B31EH         LINE#         926
  C:B332H         LINE#         927
  C:B333H         LINE#         928
  C:B336H         LINE#         929
  C:B336H         LINE#         930
  C:B339H         LINE#         931
  C:B33BH         LINE#         932
  -------         ENDPROC       GETVINPUTSTDINX
  -------         PROC          _SETVINPUTSTD
  D:0007H         SYMBOL        newd
  C:BC40H         LINE#         941
  C:BC40H         LINE#         942
  C:BC40H         LINE#         943
  C:BC45H         LINE#         957
  C:BC5AH         LINE#         960
  C:BC5AH         LINE#         963
  C:BC5AH         LINE#         966
  C:BC5AH         LINE#         968
  C:BC62H         LINE#         971
  C:BC62H         LINE#         974
  C:BC62H         LINE#         977
  C:BC71H         LINE#         980
  C:BC78H         LINE#         981
  C:BC78H         LINE#         982
  -------         ENDPROC       _SETVINPUTSTD
  -------         PROC          GETINPUTSELECTION
  C:C608H         LINE#         984
  C:C608H         LINE#         985
  C:C608H         LINE#         986
  C:C60DH         LINE#         987
  -------         ENDPROC       GETINPUTSELECTION
  -------         PROC          GETNEXTINPUTSELECTION
  -------         DO            
  D:0007H         SYMBOL        i
  -------         ENDDO         
  C:C1F8H         LINE#         989
  C:C1F8H         LINE#         990
  C:C1F8H         LINE#         1001
  C:C1FAH         LINE#         1002
  C:C20AH         LINE#         1003
BL51 BANKED LINKER/LOCATER V6.22.2.0                                                  06/22/2022  16:23:04  PAGE 67


  C:C20BH         LINE#         1004
  C:C212H         LINE#         1006
  C:C216H         LINE#         1008
  -------         ENDPROC       GETNEXTINPUTSELECTION
  -------         PROC          POWERDOWN_XTAL
  B:0024H.1       SYMBOL        flag
  C:C59EH         LINE#         1010
  C:C59EH         LINE#         1011
  C:C59EH         LINE#         1012
  C:C5A4H         LINE#         1013
  C:C5A6H         LINE#         1014
  -------         ENDPROC       POWERDOWN_XTAL
  C:8968H         SYMBOL        L?0172
  C:8977H         SYMBOL        L?0175
  C:897FH         SYMBOL        L?0176
  -------         PROC          _CHANGEINPUT
  X:0012H         SYMBOL        newsel
  C:8870H         LINE#         1037
  C:8875H         LINE#         1038
  C:8875H         LINE#         1069
  C:8878H         LINE#         1077
  C:887DH         LINE#         1078
  C:8886H         LINE#         1079
  C:888BH         LINE#         1080
  C:888EH         LINE#         1082
  C:8896H         LINE#         1090
  C:889EH         LINE#         1092
  C:88B0H         LINE#         1093
  C:88B0H         LINE#         1109
  C:88B0H         LINE#         1110
  C:88B3H         LINE#         1113
  C:88B5H         LINE#         1114
  C:88B7H         LINE#         1115
  C:88B9H         LINE#         1116
  C:88BCH         LINE#         1117
  C:88C1H         LINE#         1119
  C:88D3H         LINE#         1120
  C:88D5H         LINE#         1122
  C:88D5H         LINE#         1123
  C:88D8H         LINE#         1125
  C:88DAH         LINE#         1126
  C:88DCH         LINE#         1127
  C:88DCH         LINE#         1128
  C:88DCH         LINE#         1129
  C:88DFH         LINE#         1130
  C:88E5H         LINE#         1131
  C:88E7H         LINE#         1159
  C:88E7H         LINE#         1173
  C:88EAH         LINE#         1177
  C:88ECH         LINE#         1181
  C:88EEH         LINE#         1182
  C:88EEH         LINE#         1193
  C:88EEH         LINE#         1195
  C:88F1H         LINE#         1199
  C:88F7H         LINE#         1200
  C:88F9H         LINE#         1216
  C:88F9H         LINE#         1217
BL51 BANKED LINKER/LOCATER V6.22.2.0                                                  06/22/2022  16:23:04  PAGE 68


  C:88FCH         LINE#         1220
  C:88FEH         LINE#         1221
  C:8903H         LINE#         1222
  C:890AH         LINE#         1223
  C:890CH         LINE#         1224
  C:890EH         LINE#         1225
  C:891DH         LINE#         1226
  C:891DH         LINE#         1229
  C:891DH         LINE#         1230
  C:8920H         LINE#         1231
  C:8928H         LINE#         1264
  C:8928H         LINE#         1275
  C:8928H         LINE#         1276
  C:892DH         LINE#         1277
  C:8930H         LINE#         1278
  C:8930H         LINE#         1288
  C:8930H         LINE#         1296
  C:8933H         LINE#         1301
  C:8936H         LINE#         1304
  C:893EH         LINE#         1305
  C:893EH         LINE#         1306
  C:8941H         LINE#         1308
  C:894AH         LINE#         1310
  C:894CH         LINE#         1312
  C:8951H         LINE#         1314
  C:8956H         LINE#         1316
  C:895FH         LINE#         1317
  C:8968H         LINE#         1318
  -------         ENDPROC       _CHANGEINPUT
  -------         PROC          POWEROFF
  C:C50FH         LINE#         1320
  C:C50FH         LINE#         1321
  C:C50FH         LINE#         1325
  C:C514H         LINE#         1328
  C:C517H         LINE#         1333
  -------         ENDPROC       POWEROFF
  -------         PROC          SETOSDLASTKEYINTIME
  C:C528H         LINE#         1336
  C:C528H         LINE#         1337
  C:C528H         LINE#         1338
  C:C533H         LINE#         1339
  -------         ENDPROC       SETOSDLASTKEYINTIME
  -------         PROC          GETOSDLASTKEYINTIME
  C:C5A7H         LINE#         1341
  C:C5A7H         LINE#         1342
  C:C5A7H         LINE#         1343
  C:C5AFH         LINE#         1344
  -------         ENDPROC       GETOSDLASTKEYINTIME
  C:8A97H         SYMBOL        L?0183
  -------         PROC          _ADJUSTAUTODAYNIGHT
  D:0007H         SYMBOL        val
  -------         DO            
  X:0001H         SYMBOL        page
  X:0002H         SYMBOL        PWMLevelTemp
  -------         ENDDO         
  C:8987H         LINE#         1361
  C:8987H         LINE#         1362
BL51 BANKED LINKER/LOCATER V6.22.2.0                                                  06/22/2022  16:23:04  PAGE 69


  C:8987H         LINE#         1365
  C:898BH         LINE#         1368
  C:899EH         LINE#         1369
  C:89A5H         LINE#         1370
  C:89BAH         LINE#         1371
  C:89C2H         LINE#         1372
  C:89D7H         LINE#         1373
  C:89DFH         LINE#         1374
  C:89F4H         LINE#         1375
  C:89FCH         LINE#         1376
  C:8A12H         LINE#         1377
  C:8A12H         LINE#         1379
  C:8A18H         LINE#         1383
  C:8A18H         LINE#         1407
  C:8A1EH         LINE#         1411
  C:8A1EH         LINE#         1412
  C:8A2BH         LINE#         1413
  C:8A30H         LINE#         1415
  C:8A30H         LINE#         1416
  C:8A3BH         LINE#         1417
  C:8A3FH         LINE#         1418
  C:8A45H         LINE#         1419
  C:8A47H         LINE#         1421
  C:8A4CH         LINE#         1422
  C:8A4CH         LINE#         1423
  C:8A4EH         LINE#         1425
  C:8A4EH         LINE#         1426
  C:8A54H         LINE#         1428
  C:8A54H         LINE#         1431
  C:8A60H         LINE#         1432
  C:8A66H         LINE#         1433
  C:8A77H         LINE#         1435
  C:8A8BH         LINE#         1436
  C:8A97H         LINE#         1437
  -------         ENDPROC       _ADJUSTAUTODAYNIGHT
  -------         PROC          HS_INITVARS
  C:C4A9H         LINE#         1439
  C:C4A9H         LINE#         1440
  C:C4A9H         LINE#         1444
  C:C4AEH         LINE#         1445
  C:C4B2H         LINE#         1446
  C:C4B8H         LINE#         1460
  -------         ENDPROC       HS_INITVARS
  C:8868H         SYMBOL        L?0177
  -------         PROC          LOADEEPROM
  -------         DO            
  D:0005H         SYMBOL        val
  -------         ENDDO         
  C:8757H         LINE#         1462
  C:8757H         LINE#         1463
  C:8757H         LINE#         1465
  C:8763H         LINE#         1467
  C:876FH         LINE#         1469
  C:877BH         LINE#         1470
  C:8787H         LINE#         1472
  C:8793H         LINE#         1476
  C:8798H         LINE#         1478
BL51 BANKED LINKER/LOCATER V6.22.2.0                                                  06/22/2022  16:23:04  PAGE 70


  C:87A3H         LINE#         1479
  C:87AFH         LINE#         1480
  C:87BBH         LINE#         1481
  C:87C7H         LINE#         1482
  C:87D3H         LINE#         1483
  C:87DFH         LINE#         1485
  C:87EBH         LINE#         1486
  C:87F0H         LINE#         1511
  C:87F8H         LINE#         1512
  C:87FEH         LINE#         1513
  C:8804H         LINE#         1515
  C:8808H         LINE#         1517
  C:880DH         LINE#         1518
  C:8813H         LINE#         1519
  C:8819H         LINE#         1521
  C:881DH         LINE#         1523
  C:8822H         LINE#         1524
  C:8828H         LINE#         1525
  C:882EH         LINE#         1527
  C:8832H         LINE#         1529
  C:883BH         LINE#         1530
  C:8841H         LINE#         1531
  C:8847H         LINE#         1533
  C:884BH         LINE#         1535
  C:8853H         LINE#         1536
  C:885BH         LINE#         1537
  C:8867H         LINE#         1540
  -------         ENDPROC       LOADEEPROM
  C:A183H         SYMBOL        L?0178
  -------         PROC          MAIN
  C:A0E7H         LINE#         1668
  C:A0E7H         LINE#         1669
  C:A0E7H         LINE#         1675
  C:A0ECH         LINE#         1689
  C:A0F3H         LINE#         1690
  C:A0F5H         LINE#         1692
  C:A0F8H         LINE#         1693
  C:A0FDH         LINE#         1695
  C:A100H         LINE#         1696
  C:A103H         LINE#         1697
  C:A106H         LINE#         1700
  C:A10BH         LINE#         1706
  C:A10EH         LINE#         1708
  C:A115H         LINE#         1711
  C:A11EH         LINE#         1716
  C:A121H         LINE#         1717
  C:A129H         LINE#         1732
  C:A133H         LINE#         1734
  C:A138H         LINE#         1745
  C:A141H         LINE#         1753
  C:A146H         LINE#         1760
  C:A14BH         LINE#         1761
  C:A150H         LINE#         1762
  C:A155H         LINE#         1763
  C:A15AH         LINE#         1765
  C:A163H         LINE#         1772
  C:A169H         LINE#         1773
BL51 BANKED LINKER/LOCATER V6.22.2.0                                                  06/22/2022  16:23:04  PAGE 71


  C:A169H         LINE#         1775
  C:A16CH         LINE#         1777
  C:A175H         LINE#         1779
  C:A175H         LINE#         1786
  C:A175H         LINE#         1787
  C:A17BH         LINE#         1788
  C:A17EH         LINE#         1790
  C:A181H         LINE#         1796
  C:A183H         LINE#         1797
  -------         ENDPROC       MAIN
  -------         PROC          MAIN_LOOP
  -------         DO            
  X:0000H         SYMBOL        val
  -------         ENDDO         
  C:8BB1H         LINE#         1800
  C:8BB1H         LINE#         1801
  C:8BB1H         LINE#         1805
  C:8BBAH         LINE#         1810
  C:8BBAH         LINE#         1821
  C:8BC0H         LINE#         1822
  C:8BC0H         LINE#         1823
  C:8BC3H         LINE#         1824
  C:8BC5H         LINE#         1888
  C:8BC5H         LINE#         1889
  C:8BCDH         LINE#         1890
  C:8BD0H         LINE#         1891
  C:8BD0H         LINE#         1894
  C:8BD6H         LINE#         1895
  C:8BD6H         LINE#         1896
  C:8BDCH         LINE#         1897
  C:8BDCH         LINE#         1898
  C:8BE9H         LINE#         1899
  C:8BE9H         LINE#         1900
  C:8BECH         LINE#         1901
  C:8BF1H         LINE#         1902
  C:8BF1H         LINE#         1903
  C:8BF1H         LINE#         1904
  C:8BF1H         LINE#         1909
  C:8BF7H         LINE#         1910
  C:8BF7H         LINE#         1911
  C:8C03H         LINE#         1912
  C:8C03H         LINE#         1913
  C:8C05H         LINE#         1915
  C:8C05H         LINE#         1916
  C:8C0AH         LINE#         1917
  C:8C0AH         LINE#         1942
  C:8C13H         LINE#         1946
  C:8C1BH         LINE#         1947
  C:8C1BH         LINE#         1948
  C:8C22H         LINE#         1949
  C:8C22H         LINE#         1950
  C:8C27H         LINE#         1951
  C:8C2AH         LINE#         1952
  C:8C30H         LINE#         1954
  C:8C4BH         LINE#         1955
  C:8C4EH         LINE#         1956
  C:8C50H         LINE#         1957
BL51 BANKED LINKER/LOCATER V6.22.2.0                                                  06/22/2022  16:23:04  PAGE 72


  C:8C60H         LINE#         1958
  C:8C60H         LINE#         1959
  C:8C63H         LINE#         1960
  C:8C68H         LINE#         1961
  C:8C68H         LINE#         1963
  C:8C6BH         LINE#         1964
  C:8C6BH         LINE#         2040
  C:8C76H         LINE#         2042
  C:8C76H         LINE#         2043
  C:8C76H         LINE#         2044
  C:8C76H         LINE#         2047
  C:8C7DH         LINE#         2048
  C:8C7DH         LINE#         2051
  C:8C80H         LINE#         2060
  C:8C80H         LINE#         2062
  C:8C80H         LINE#         2072
  C:8C80H         LINE#         2075
  C:8C88H         LINE#         2076
  C:8C88H         LINE#         2077
  C:8C8BH         LINE#         2078
  C:8C8CH         LINE#         2079
  C:8C8CH         LINE#         2097
  C:8C99H         LINE#         2098
  C:8C99H         LINE#         2099
  C:8CA2H         LINE#         2100
  C:8CA7H         LINE#         2101
  C:8CAEH         LINE#         2102
  C:8CB3H         LINE#         2103
  C:8CBCH         LINE#         2104
  C:8CBCH         LINE#         2116
  C:8CBFH         LINE#         2117
  -------         ENDPROC       MAIN_LOOP
  -------         PROC          WAITPOWERON
  -------         DO            
  D:0007H         SYMBOL        ikey
  X:0000H         SYMBOL        val
  X:0001H         SYMBOL        VGATrigger
  -------         ENDDO         
  C:A9F1H         LINE#         2119
  C:A9F1H         LINE#         2120
  C:A9F1H         LINE#         2122
  C:A9F6H         LINE#         2125
  C:A9F6H         LINE#         2126
  C:A9F6H         LINE#         2158
  C:A9FEH         LINE#         2164
  C:AA00H         LINE#         2165
  C:AA00H         LINE#         2166
  C:AA05H         LINE#         2176
  C:AA0AH         LINE#         2177
  C:AA0CH         LINE#         2180
  C:AA0EH         LINE#         2182
  C:AA0EH         LINE#         2183
  C:AA16H         LINE#         2185
  C:AA1CH         LINE#         2186
  C:AA1CH         LINE#         2187
  C:AA1FH         LINE#         2188
  C:AA24H         LINE#         2189
BL51 BANKED LINKER/LOCATER V6.22.2.0                                                  06/22/2022  16:23:04  PAGE 73


  C:AA24H         LINE#         2191
  C:AA24H         LINE#         2198
  C:AA2CH         LINE#         2200
  C:AA36H         LINE#         2201
  C:AA36H         LINE#         2202
  C:AA3BH         LINE#         2203
  C:AA43H         LINE#         2204
  C:AA45H         LINE#         2205
  C:AA45H         LINE#         2207
  C:AA45H         LINE#         2256
  C:AA48H         LINE#         2258
  C:AA4AH         LINE#         2269
  C:AA4DH         LINE#         2270
  C:AA50H         LINE#         2272
  C:AA5CH         LINE#         2273
  C:AA62H         LINE#         2276
  C:AA64H         LINE#         2280
  C:AA69H         LINE#         2283
  -------         ENDPROC       WAITPOWERON
  -------         ENDMOD        MAIN

  -------         MODULE        MEASURE
  C:0000H         SYMBOL        _ICE_DUMMY_
  -------         ENDMOD        MEASURE

  -------         MODULE        OSDBASIC
  C:0000H         SYMBOL        _ICE_DUMMY_
  C:B868H         PUBLIC        _ShowOSDWindow_TW88
  C:7FA8H         PUBLIC        Init_Osd_DisplayMuteInfo
  C:BFDEH         PUBLIC        _ClearDataCnt
  C:8006H         PUBLIC        Init_Osd_DisplayInput_B
  C:8050H         PUBLIC        Init_Osd_BarWindow
  C:AECCH         PUBLIC        Change_OSDColorLookup
  C:C3C0H         PUBLIC        _strlen
  C:8019H         PUBLIC        Init_Osd_MainMenu
  C:BF52H         PUBLIC        _ShowOSDWindowAll
  D:0066H         PUBLIC        OSDStrInfo
  C:7F6AH         PUBLIC        FontTestWindow
  C:8519H         PUBLIC        _utoa
  C:7FBBH         PUBLIC        Init_Osd_DisplayTVChannel
  C:BE28H         PUBLIC        _WriteStringToAddr
  C:7F95H         PUBLIC        Init_Osd_DisplayVchipWindow
  C:BEC1H         PUBLIC        _DrawAttrCnt
  C:81A5H         PUBLIC        _DisplayRAMFont
  C:B173H         PUBLIC        _DownloadFont
  C:BD59H         PUBLIC        WaitEndofDisplayArea
  C:B675H         PUBLIC        _GetOSDWindowX
  C:B444H         PUBLIC        _GetOSDWindowY
  C:8CC0H         PUBLIC        _DisplayROMFont
  C:B9EEH         PUBLIC        _SetOSDWindowX_TW88
  C:B92EH         PUBLIC        _SetOSDWindowY_TW88
  C:7FE1H         PUBLIC        Init_Osd_DisplayInput
  C:7F82H         PUBLIC        Init_Osd_DisplayLogo
  D:006EH         PUBLIC        ptrFont
  C:B8ABH         PUBLIC        DownloadUDFont
  C:A22FH         PUBLIC        _InitOSDWindow
  C:7FCEH         PUBLIC        Init_Osd_DisplayPCInfo
BL51 BANKED LINKER/LOCATER V6.22.2.0                                                  06/22/2022  16:23:04  PAGE 74


  C:9A03H         SYMBOL        Com0067
  C:9A03H         SYMBOL        L?0104
  C:9A03H         SYMBOL        L?0105
  C:9A05H         SYMBOL        L?0106
  C:9A11H         SYMBOL        L?0107
  C:9A33H         SYMBOL        L?0108
  C:9A36H         SYMBOL        L?0109
  C:9A37H         SYMBOL        L?0110
  C:9A42H         SYMBOL        L?0111
  C:9A42H         SYMBOL        L?0112
  C:9A44H         SYMBOL        L?0113
  C:9A4BH         SYMBOL        L?0115
  C:9A4BH         SYMBOL        L?0116
  C:9A54H         SYMBOL        L?0117
  C:9A54H         SYMBOL        L?0118
  C:9A5CH         SYMBOL        L?0119
  C:9A6EH         SYMBOL        L?0121
  C:9A7DH         SYMBOL        L?0123
  C:9A7DH         SYMBOL        L?0124
  C:9A86H         SYMBOL        L?0127
  C:9A86H         SYMBOL        L?0128
  C:9A8DH         SYMBOL        L?0129
  C:9A9AH         SYMBOL        L?0130
  C:9A9AH         SYMBOL        L?0131
  C:9AA2H         SYMBOL        L?0132
  C:9AAEH         SYMBOL        L?0135
  C:9AAFH         SYMBOL        L?0136
  C:9AB6H         SYMBOL        L?0139
  C:9AC0H         SYMBOL        L?0140
  C:9AC0H         SYMBOL        L?0141
  -------         PROC          COM0067
  -------         ENDPROC       COM0067
  C:BD82H         SYMBOL        L?0137
  -------         PROC          WAITENDOFDISPLAYAREA
  -------         DO            
  X:0028H         SYMBOL        ret
  X:0029H         SYMBOL        i
  -------         ENDDO         
  C:BD59H         LINE#         41
  C:BD59H         LINE#         42
  C:BD59H         LINE#         45
  C:BD60H         LINE#         47
  C:BD70H         LINE#         48
  C:BD70H         LINE#         49
  C:BD7BH         LINE#         50
  C:BD81H         LINE#         51
  -------         ENDPROC       WAITENDOFDISPLAYAREA
  C:AF26H         SYMBOL        L?0138
  -------         PROC          CHANGE_OSDCOLORLOOKUP
  -------         DO            
  X:000DH         SYMBOL        i
  X:000EH         SYMBOL        j
  -------         ENDDO         
  C:AECCH         LINE#         56
  C:AECCH         LINE#         57
  C:AECCH         LINE#         59
  C:AEDEH         LINE#         60
BL51 BANKED LINKER/LOCATER V6.22.2.0                                                  06/22/2022  16:23:04  PAGE 75


  C:AEEEH         LINE#         61
  C:AEF9H         LINE#         62
  C:AF16H         LINE#         63
  C:AF1DH         LINE#         64
  C:AF25H         LINE#         65
  -------         ENDPROC       CHANGE_OSDCOLORLOOKUP
  C:B1C1H         SYMBOL        L?0133
  C:B1CAH         SYMBOL        L?0142
  -------         PROC          _DOWNLOADFONT
  X:0006H         SYMBOL        cod
  X:0007H         SYMBOL        fontdata
  C:B173H         LINE#         98
  C:B17CH         LINE#         99
  C:B17CH         LINE#         100
  C:B186H         LINE#         101
  C:B18FH         LINE#         104
  C:B1A1H         LINE#         105
  C:B1B4H         LINE#         107
  C:B1C1H         LINE#         108
  -------         ENDPROC       _DOWNLOADFONT
  -------         PROC          DOWNLOADUDFONT
  -------         DO            
  X:0005H         SYMBOL        i
  -------         ENDDO         
  C:B8ABH         LINE#         110
  C:B8ABH         LINE#         111
  C:B8ABH         LINE#         114
  C:B8B4H         LINE#         116
  C:B8D2H         LINE#         117
  C:B8E4H         LINE#         118
  C:B8ECH         LINE#         119
  -------         ENDPROC       DOWNLOADUDFONT
  -------         PROC          _SETOSDWINDOWX_TW88
  D:0007H         SYMBOL        winno
  X:0015H         SYMBOL        x
  -------         DO            
  X:0016H         SYMBOL        tmp
  D:0005H         SYMBOL        dat
  -------         ENDDO         
  C:B9EEH         LINE#         177
  C:B9F1H         LINE#         178
  C:B9F1H         LINE#         182
  C:B9FBH         LINE#         183
  C:BA01H         LINE#         185
  C:BA07H         LINE#         187
  C:BA11H         LINE#         188
  C:BA16H         LINE#         190
  C:BA1EH         LINE#         191
  C:BA2BH         LINE#         192
  -------         ENDPROC       _SETOSDWINDOWX_TW88
  -------         PROC          _SETOSDWINDOWY_TW88
  D:0007H         SYMBOL        winno
  X:0015H         SYMBOL        y
  -------         DO            
  X:0016H         SYMBOL        tmp
  D:0005H         SYMBOL        dat
  -------         ENDDO         
BL51 BANKED LINKER/LOCATER V6.22.2.0                                                  06/22/2022  16:23:04  PAGE 76


  C:B92EH         LINE#         194
  C:B931H         LINE#         195
  C:B931H         LINE#         199
  C:B93BH         LINE#         200
  C:B941H         LINE#         202
  C:B947H         LINE#         204
  C:B951H         LINE#         205
  C:B959H         LINE#         207
  C:B961H         LINE#         208
  C:B96EH         LINE#         209
  -------         ENDPROC       _SETOSDWINDOWY_TW88
  -------         PROC          _SHOWOSDWINDOWALL
  X:0018H         SYMBOL        on
  -------         DO            
  X:0019H         SYMBOL        rd
  -------         ENDDO         
  C:BF52H         LINE#         214
  C:BF57H         LINE#         215
  C:BF57H         LINE#         218
  C:BF5AH         LINE#         219
  C:BF66H         LINE#         221
  C:BF6CH         LINE#         222
  C:BF72H         LINE#         224
  C:BF80H         LINE#         226
  -------         ENDPROC       _SHOWOSDWINDOWALL
  -------         PROC          _SHOWOSDWINDOW_TW88
  D:0007H         SYMBOL        winno
  X:0018H         SYMBOL        onoff
  -------         DO            
  X:0019H         SYMBOL        rd
  -------         ENDDO         
  C:B868H         LINE#         227
  C:B86BH         LINE#         228
  C:B86BH         LINE#         231
  C:B875H         LINE#         232
  C:B87BH         LINE#         234
  C:B887H         LINE#         235
  C:B894H         LINE#         236
  C:B89BH         LINE#         238
  C:B89EH         LINE#         239
  C:B8AAH         LINE#         240
  -------         ENDPROC       _SHOWOSDWINDOW_TW88
  -------         PROC          _GETOSDWINDOWX
  D:0007H         SYMBOL        winno
  -------         DO            
  X:0028H         SYMBOL        x
  -------         ENDDO         
  C:B675H         LINE#         243
  C:B675H         LINE#         244
  C:B675H         LINE#         247
  C:B683H         LINE#         248
  C:B689H         LINE#         250
  C:B69AH         LINE#         251
  C:B6AAH         LINE#         253
  C:B6BDH         LINE#         254
  -------         ENDPROC       _GETOSDWINDOWX
  -------         PROC          _GETOSDWINDOWY
BL51 BANKED LINKER/LOCATER V6.22.2.0                                                  06/22/2022  16:23:04  PAGE 77


  D:0007H         SYMBOL        winno
  -------         DO            
  X:0028H         SYMBOL        y
  -------         ENDDO         
  C:B444H         LINE#         257
  C:B444H         LINE#         258
  C:B444H         LINE#         261
  C:B452H         LINE#         262
  C:B458H         LINE#         264
  C:B475H         LINE#         265
  C:B485H         LINE#         267
  C:B498H         LINE#         268
  -------         ENDPROC       _GETOSDWINDOWY
  C:8D67H         SYMBOL        L?0101
  C:8DA0H         SYMBOL        L?0114
  C:8DA8H         SYMBOL        L?0122
  C:8DB0H         SYMBOL        L?0125
  C:8DBAH         SYMBOL        L?0143
  -------         PROC          _DISPLAYROMFONT
  X:0002H         SYMBOL        scode
  -------         DO            
  X:0003H         SYMBOL        i
  -------         ENDDO         
  C:8CC0H         LINE#         284
  C:8CC5H         LINE#         285
  C:8CC5H         LINE#         288
  C:8CCAH         LINE#         289
  C:8CCFH         LINE#         290
  C:8CE1H         LINE#         291
  C:8CEFH         LINE#         292
  C:8CF5H         LINE#         293
  C:8CF9H         LINE#         294
  C:8D06H         LINE#         295
  C:8D08H         LINE#         296
  C:8D13H         LINE#         297
  C:8D17H         LINE#         298
  C:8D1EH         LINE#         299
  C:8D1EH         LINE#         300
  C:8D1EH         LINE#         301
  C:8D21H         LINE#         302
  C:8D2AH         LINE#         303
  C:8D30H         LINE#         304
  C:8D33H         LINE#         305
  C:8D38H         LINE#         306
  C:8D41H         LINE#         307
  C:8D46H         LINE#         308
  C:8D46H         LINE#         309
  C:8D4AH         LINE#         310
  C:8D4AH         LINE#         311
  C:8D4AH         LINE#         312
  C:8D4AH         LINE#         313
  C:8D4DH         LINE#         314
  C:8D4DH         LINE#         315
  C:8D4DH         LINE#         316
  C:8D4DH         LINE#         317
  C:8D52H         LINE#         318
  C:8D55H         LINE#         319
BL51 BANKED LINKER/LOCATER V6.22.2.0                                                  06/22/2022  16:23:04  PAGE 78


  C:8D55H         LINE#         320
  C:8D5EH         LINE#         321
  C:8D67H         LINE#         322
  -------         ENDPROC       _DISPLAYROMFONT
  C:827FH         SYMBOL        L?0102
  C:82B8H         SYMBOL        L?0120
  C:82C3H         SYMBOL        L?0126
  -------         PROC          _DISPLAYRAMFONT
  X:0002H         SYMBOL        scode
  -------         DO            
  X:0003H         SYMBOL        i
  X:0004H         SYMBOL        j
  D:0006H         SYMBOL        takenTime
  -------         ENDDO         
  C:81A5H         LINE#         325
  C:81AAH         LINE#         326
  C:81AAH         LINE#         330
  C:81B3H         LINE#         331
  C:81B7H         LINE#         332
  C:81C7H         LINE#         333
  C:81D5H         LINE#         334
  C:81DBH         LINE#         335
  C:81DFH         LINE#         336
  C:81EDH         LINE#         337
  C:81EFH         LINE#         338
  C:81FAH         LINE#         339
  C:81FEH         LINE#         340
  C:8205H         LINE#         341
  C:8205H         LINE#         342
  C:820DH         LINE#         343
  C:8216H         LINE#         344
  C:821BH         LINE#         345
  C:8221H         LINE#         346
  C:822AH         LINE#         347
  C:8233H         LINE#         348
  C:823CH         LINE#         349
  C:8241H         LINE#         350
  C:8241H         LINE#         351
  C:8245H         LINE#         352
  C:8245H         LINE#         353
  C:8245H         LINE#         354
  C:8245H         LINE#         355
  C:8248H         LINE#         356
  C:8248H         LINE#         357
  C:8248H         LINE#         358
  C:8248H         LINE#         359
  C:824DH         LINE#         360
  C:8250H         LINE#         361
  C:8250H         LINE#         362
  C:8250H         LINE#         363
  C:8255H         LINE#         364
  C:8258H         LINE#         365
  C:825CH         LINE#         366
  C:826DH         LINE#         367
  C:826DH         LINE#         368
  C:8276H         LINE#         369
  C:827FH         LINE#         370
BL51 BANKED LINKER/LOCATER V6.22.2.0                                                  06/22/2022  16:23:04  PAGE 79


  -------         ENDPROC       _DISPLAYRAMFONT
  -------         PROC          _WRITESTRINGTOADDR
  X:004FH         SYMBOL        addr
  X:0051H         SYMBOL        str
  X:0054H         SYMBOL        cnt
  C:BE28H         LINE#         908
  C:BE31H         LINE#         909
  C:BE31H         LINE#         911
  C:BE37H         LINE#         913
  C:BE40H         LINE#         914
  C:BE55H         LINE#         917
  -------         ENDPROC       _WRITESTRINGTOADDR
  -------         PROC          _DRAWATTRCNT
  X:0030H         SYMBOL        addr
  X:0032H         SYMBOL        color
  X:0033H         SYMBOL        cnt
  C:BEC1H         LINE#         932
  C:BECBH         LINE#         933
  C:BECBH         LINE#         934
  C:BED1H         LINE#         935
  C:BEDAH         LINE#         936
  C:BEECH         LINE#         938
  -------         ENDPROC       _DRAWATTRCNT
  -------         PROC          _CLEARDATACNT
  X:0030H         SYMBOL        addr
  X:0032H         SYMBOL        cnt
  C:BFDEH         LINE#         941
  C:BFE5H         LINE#         942
  C:BFE5H         LINE#         944
  C:BFEBH         LINE#         945
  C:BFF4H         LINE#         946
  C:C005H         LINE#         949
  -------         ENDPROC       _CLEARDATACNT
  -------         PROC          _UTOA
  X:004FH         SYMBOL        value
  X:0051H         SYMBOL        str
  X:0054H         SYMBOL        radix
  -------         DO            
  X:0055H         SYMBOL        cnt
  X:0056H         SYMBOL        str1
  X:0059H         SYMBOL        i
  X:005BH         SYMBOL        div
  -------         ENDDO         
  C:8519H         LINE#         957
  C:8522H         LINE#         958
  C:8522H         LINE#         966
  C:8528H         LINE#         967
  C:852DH         LINE#         968
  C:8535H         LINE#         969
  C:854AH         LINE#         970
  C:854DH         LINE#         971
  C:8552H         LINE#         972
  C:855CH         LINE#         973
  C:8562H         LINE#         974
  C:8564H         LINE#         975
  C:856AH         LINE#         976
  C:8579H         LINE#         978
BL51 BANKED LINKER/LOCATER V6.22.2.0                                                  06/22/2022  16:23:04  PAGE 80


  C:858AH         LINE#         979
  C:85A0H         LINE#         980
  C:85ABH         LINE#         981
  C:85ABH         LINE#         982
  C:85AEH         LINE#         983
  C:85B9H         LINE#         984
  C:85CDH         LINE#         985
  C:85D0H         LINE#         986
  C:85D5H         LINE#         987
  C:85E5H         LINE#         988
  C:85EAH         LINE#         990
  C:85F4H         LINE#         991
  C:85FDH         LINE#         992
  C:85FDH         LINE#         993
  C:8611H         LINE#         994
  C:861CH         LINE#         995
  C:8621H         LINE#         997
  C:862DH         LINE#         998
  C:8637H         LINE#         999
  C:8637H         LINE#         1000
  C:8639H         LINE#         1001
  -------         ENDPROC       _UTOA
  -------         PROC          _STRLEN
  X:004FH         SYMBOL        str
  -------         DO            
  D:0007H         SYMBOL        i
  -------         ENDDO         
  C:C3C0H         LINE#         1002
  C:C3C6H         LINE#         1003
  C:C3C6H         LINE#         1004
  C:C3C8H         LINE#         1006
  C:C3DAH         LINE#         1007
  C:C3DAH         LINE#         1008
  -------         ENDPROC       _STRLEN
  C:A2BEH         SYMBOL        L?0134
  C:A2C7H         SYMBOL        L?0144
  -------         PROC          _INITOSDWINDOW
  X:0016H         SYMBOL        ptr
  -------         DO            
  X:0019H         SYMBOL        i
  X:001AH         SYMBOL        page
  -------         ENDDO         
  C:A22FH         LINE#         1014
  C:A235H         LINE#         1015
  C:A235H         LINE#         1018
  C:A241H         LINE#         1019
  C:A24BH         LINE#         1021
  C:A258H         LINE#         1023
  C:A25DH         LINE#         1024
  C:A263H         LINE#         1025
  C:A27DH         LINE#         1026
  C:A298H         LINE#         1028
  C:A2A3H         LINE#         1029
  C:A2A5H         LINE#         1031
  C:A2B2H         LINE#         1032
  C:A2BEH         LINE#         1033
  -------         ENDPROC       _INITOSDWINDOW
BL51 BANKED LINKER/LOCATER V6.22.2.0                                                  06/22/2022  16:23:04  PAGE 81


  -------         ENDMOD        OSDBASIC

  -------         MODULE        OSDMENU
  C:0000H         SYMBOL        _ICE_DUMMY_
  C:0D23H         PUBLIC        Str_Secord
  C:076EH         PUBLIC        ReversModeString
  C:0294H         PUBLIC        Str_Sharpness_F
  X:00DFH         PUBLIC        MenuChild
  C:0250H         PUBLIC        Str_Saturation_S
  C:015FH         PUBLIC        Str_LCDVersion_E
  C:0D7FH         PUBLIC        RECORDSDCARD_ICON
  X:00E1H         PUBLIC        PW_FirstNumber
  C:0E1DH         PUBLIC        FWUpdateSelectMenu
  C:0B88H         PUBLIC        Str_DVR_DISPLAY
  C:0511H         PUBLIC        Str_UpdateConfig_E
  C:002EH         PUBLIC        OSDHighMenu
  C:ACC3H         PUBLIC        ResetVideoValue
  C:0190H         PUBLIC        Str_OSDPosition_E
  C:C614H         PUBLIC        IsInputAnalogRGB
  C:0D73H         PUBLIC        VIDEO_ICON
  C:02ABH         PUBLIC        Str_Sharpness_K
  C:6FB0H         PUBLIC        _OSDCursorMove
  D:00E8H         PUBLIC        P4
  C:14F3H         PUBLIC        PanelBrightnessRange
  C:11A9H         PUBLIC        RECORDSELECT
  C:0D53H         PUBLIC        Str_FourthNumber
  C:0CF3H         PUBLIC        Str_FPS
  X:00E2H         PUBLIC        MenuFormat
  C:0CF9H         PUBLIC        Str_RecordMode
  C:0A08H         PUBLIC        Str_Version
  C:0D50H         PUBLIC        Str_ThirdNumber
  C:0D38H         PUBLIC        Str_RETURNAPPLY
  C:0A86H         PUBLIC        Str_OSDLang
  C:0837H         PUBLIC        ResolutionChoiceString
  C:052DH         PUBLIC        Str_CamADelay_E
  X:00E4H         PUBLIC        BarRange
  C:14FFH         PUBLIC        PanelHueRange
  C:0533H         PUBLIC        Str_CamBDelay_E
  C:0CF6H         PUBLIC        Str_Quality
  C:0C93H         PUBLIC        Str_VER
  C:0C90H         PUBLIC        Str_SPACE
  C:0539H         PUBLIC        Str_CamCDelay_E
  C:0352H         PUBLIC        Str_TIMEOUT_STEP_E
  C:01AAH         PUBLIC        Str_OSDPosition_K
  C:0D0BH         PUBLIC        Str_ManualRecordStop
  C:0994H         PUBLIC        ONOFFChineseChoiceString
  C:03B1H         PUBLIC        Str_RecordLength_E
  C:1125H         PUBLIC        DMUtility
  C:0A62H         PUBLIC        CheckPCCableStr
  C:154BH         PUBLIC        PCColorTempRGB
  C:151DH         PUBLIC        VideoBrightnessRange
  C:0BD3H         PUBLIC        Str_CVBSA
  C:04F7H         PUBLIC        Str_TriggerDelay_E
  C:02A3H         PUBLIC        Str_Sharpness_S
  C:0D44H         PUBLIC        Str_YES
  C:0BE2H         PUBLIC        Str_CVBSB
  C:0BA6H         PUBLIC        Str_OSD_LOCK
BL51 BANKED LINKER/LOCATER V6.22.2.0                                                  06/22/2022  16:23:04  PAGE 82


  D:0075H         SYMBOL        MenuIndexStack
  C:0BF1H         PUBLIC        Str_CVBSC
  C:049CH         PUBLIC        Str_SecondNumber_E
  C:C487H         PUBLIC        GetOSDLang
  C:1529H         PUBLIC        VideoHueRange
  C:0F49H         PUBLIC        DateTimeSelectMenu
  C:0560H         PUBLIC        Str_DISTANCE_E
  C:9F9DH         PUBLIC        _DisplayVolumebar
  C:0DB5H         PUBLIC        InputSelectMenu
  C:9EF7H         PUBLIC        _DisplayViewBar
  C:552DH         PUBLIC        _DisplayOSDMenuOneItem
  C:1121H         PUBLIC        UtilityMenu
  C:0D20H         PUBLIC        Str_Minute
  C:019DH         PUBLIC        Str_OSDPosition_S
  X:00E6H         PUBLIC        MenuStack
  C:14D5H         PUBLIC        UserRange
  C:0DB3H         PUBLIC        NumberOnly
  C:0BB5H         PUBLIC        Str_PASSWORD
  C:0983H         PUBLIC        bpsChoiceString
  C:0220H         PUBLIC        Str_Contrast_D
  C:1389H         PUBLIC        TRIGGERSelectMenu
  C:0D4AH         PUBLIC        Str_FirstNumber
  C:0C0FH         PUBLIC        Str_Auto_Day_Night
  C:0430H         PUBLIC        Str_TimeBegines_E
  C:020DH         PUBLIC        Str_Contrast_E
  C:0188H         PUBLIC        Str_GETWAY_E
  X:00EEH         PUBLIC        DVR_DataChange
  C:BE5BH         PUBLIC        OpenOSDMenu
  C:1271H         PUBLIC        DMUserPicture
  C:089EH         PUBLIC        RecordLengthChoiceString
  C:0216H         PUBLIC        Str_Contrast_F
  C:1505H         PUBLIC        PanelSaturationRange
  C:03F2H         PUBLIC        Str_Snapshot_E
  C:A4AFH         PUBLIC        _DoAction
  C:A6E8H         PUBLIC        InitOSDMenu
  C:0D62H         PUBLIC        Str_Informmation
  C:053FH         PUBLIC        Str_CamRDelay_E
  C:03DBH         PUBLIC        Str_ManualRecordStart_E
  C:046BH         PUBLIC        Str_AudioRecord_E
  C:016BH         PUBLIC        Str_DVRVersion_E
  C:102DH         PUBLIC        DMDVRRecallSELECT
  C:0FFDH         PUBLIC        DMMonitorRecallSELECT
  C:0233H         PUBLIC        Str_Contrast_K
  C:0133H         PUBLIC        AutoAdjustInfo
  C:0D02H         PUBLIC        Str_PostAlarmLength
  C:0CFFH         PUBLIC        Str_PreAlarmLength
  C:C534H         PUBLIC        ClearValueWin
  C:0C9CH         PUBLIC        Str_GAUGE_RECALL
  C:0A65H         PUBLIC        OutOfRangeStr
  C:1523H         PUBLIC        VideoSaturationRange
  C:0D6FH         PUBLIC        INPUT_ICON
  C:0C00H         PUBLIC        Str_CVBSR
  X:00EFH         PUBLIC        MenuTitle
  C:0CA2H         PUBLIC        Str_ReversMode
  C:02E7H         PUBLIC        Str_MIRROR_E
  C:0E51H         PUBLIC        ChangePasswordSelectMenu
  C:0D3BH         PUBLIC        Str_FormatSD
BL51 BANKED LINKER/LOCATER V6.22.2.0                                                  06/22/2022  16:23:04  PAGE 83


  C:0DB9H         PUBLIC        InputSourceMenu
  C:0C9FH         PUBLIC        Str_PRIORITY
  C:0AE0H         PUBLIC        Str_Reset
  C:14F9H         PUBLIC        PanelSharpnessRange
  C:0D5CH         PUBLIC        Str_TriggerSet
  C:0722H         PUBLIC        CaptionChoice
  C:0229H         PUBLIC        Str_Contrast_S
  C:074DH         PUBLIC        NMhoiceString
  C:030EH         PUBLIC        Str_RETURN_E
  C:017FH         PUBLIC        Str_WIFI_MAC_E
  C:0D17H         PUBLIC        Str_Month
  C:0D05H         PUBLIC        Str_Apply
  C:0C99H         PUBLIC        Str_GAUGE_STEP
  C:092AH         PUBLIC        AudioRecordChoiceString
  C:041DH         PUBLIC        Str_Secord_E
  C:09A2H         PUBLIC        IMAGEChineseString
  C:109DH         PUBLIC        InformationMenu
  C:0DAFH         PUBLIC        BookMark_ICON
  C:12F9H         PUBLIC        DMCAMSELECT
  C:0EC9H         PUBLIC        FORMATSDSELECT
  C:07FDH         PUBLIC        REARString
  C:0554H         PUBLIC        Str_DVR_DISPLAY_E
  C:152FH         PUBLIC        VideoSharpnessRange
  C:0D2FH         PUBLIC        Str_Week
  C:0382H         PUBLIC        Str_ReverseMode_E
  C:04B7H         PUBLIC        Str_FourthNumber_E
  C:0399H         PUBLIC        Str_FPS_E
  C:03A5H         PUBLIC        Str_RecordMode_E
  C:01C6H         PUBLIC        Str_OSDLang_D
  C:0157H         PUBLIC        Str_Version_E
  C:0FCDH         PUBLIC        DMRecallSELECT
  C:0D32H         PUBLIC        Str_Time
  C:04AAH         PUBLIC        Str_ThirdNumber_E
  C:044FH         PUBLIC        Str_RETURNAPPLY_E
  C:01B6H         PUBLIC        Str_OSDLang_E
  C:0D11H         PUBLIC        Str_DateTime
  C:01BFH         PUBLIC        Str_OSDLang_F
  C:0D14H         PUBLIC        Str_Year
  C:0C45H         PUBLIC        Str_CAMA
  C:090DH         PUBLIC        TimeBeginesWeekChoiceString
  C:039DH         PUBLIC        Str_Quality_E
  C:0342H         PUBLIC        Str_VER_E
  C:0340H         PUBLIC        Str_SPACE_E
  C:9E50H         PUBLIC        OSDHighMenu_sub
  C:0D9FH         PUBLIC        NoGsensor_ICON
  C:0D68H         PUBLIC        Str_SDCARDCOVERDET
  C:0C54H         PUBLIC        Str_CAMB
  C:03E7H         PUBLIC        Str_ManualRecordStop_E
  C:0C63H         PUBLIC        Str_CAMC
  C:0100H         PUBLIC        CheckPCCableStr_E
  C:8EC2H         PUBLIC        _SetVideoMode
  C:7C58H         PUBLIC        DisplayInfo_OSD
  C:15A3H         PUBLIC        OSDInfoStr
  C:1465H         PUBLIC        DMMainMenu
  C:0C81H         PUBLIC        Str_CAMD
  C:058EH         PUBLIC        Str_CVBSA_E
  C:0595H         PUBLIC        Str_CVBSB_E
BL51 BANKED LINKER/LOCATER V6.22.2.0                                                  06/22/2022  16:23:04  PAGE 84


  C:056FH         PUBLIC        Str_OSD_LOCK_E
  C:0488H         PUBLIC        Str_YES_E
  C:01D5H         PUBLIC        Str_OSDLang_K
  C:11FDH         PUBLIC        SDCARD
  C:059CH         PUBLIC        Str_CVBSC_E
  C:0D93H         PUBLIC        NoGPS_ICON
  C:0C2DH         PUBLIC        Str_DIR_IMAGE_CAMA
  C:0B79H         PUBLIC        Str_DISPLAY
  C:0B0DH         PUBLIC        Str_SEQ_TIME_STEP
  X:00F1H         SYMBOL        cursor_item
  C:6783H         PUBLIC        _GetItemValue
  C:0D6BH         PUBLIC        TV_ICON
  C:0C30H         PUBLIC        Str_DIR_IMAGE_CAMB
  C:084AH         PUBLIC        FPSChoiceString
  C:BF81H         PUBLIC        _Get_cursor_item
  C:0C33H         PUBLIC        Str_DIR_IMAGE_CAMC
  C:0889H         PUBLIC        RecordModeChoiceString
  C:0419H         PUBLIC        Str_Minute_E
  C:0A74H         PUBLIC        StrVolume
  C:0578H         PUBLIC        Str_PASSWORD_E
  B:0023H.7       PUBLIC        displayOnValueWindow
  X:00F2H         SYMBOL        title_item
  C:14EDH         PUBLIC        PanelContrastRange
  C:0D47H         PUBLIC        Str_NO
  C:AD96H         PUBLIC        _SetVideoBacklight
  C:085EH         PUBLIC        QualityChoiceString
  C:082BH         PUBLIC        JUMPString
  C:05AAH         PUBLIC        Str_Auto_Day_Night_E
  C:048FH         PUBLIC        Str_FirstNumber_E
  C:0DA7H         PUBLIC        NoWiFi_ICON
  C:0D1AH         PUBLIC        Str_Day
  C:0C36H         PUBLIC        Str_REAR_SETUP
  C:01CEH         PUBLIC        Str_OSDLang_S
  C:B33CH         PUBLIC        CheckPanelImage
  C:0D1DH         PUBLIC        Str_Hour
  C:0A95H         PUBLIC        Str_Brightness
  D:0079H         SYMBOL        MenuSP
  C:0505H         PUBLIC        Str_Informmation_E
  C:13E1H         PUBLIC        DMCAMERA
  X:00F3H         SYMBOL        val_osdwin
  C:153BH         PUBLIC        Contast_Reg_Addr
  C:0D7BH         PUBLIC        SDCARD_ICON
  C:0D56H         PUBLIC        Str_ChangePassword
  C:0B5BH         PUBLIC        Str_DVRRECALL
  C:0B4CH         PUBLIC        Str_MonitorRECALL
  C:0AC2H         PUBLIC        Str_Hue
  C:1517H         PUBLIC        TW2835VideoContrastRange
  C:1511H         PUBLIC        VideoContrastRange
  C:0C72H         PUBLIC        Str_CAMR
  C:126DH         PUBLIC        UserPictureMenuType
  C:0C1EH         PUBLIC        Str_DIR_IMAGE
  C:03C9H         PUBLIC        Str_PostAlarmLength_E
  C:03BFH         PUBLIC        Str_PreAlarmLength_E
  X:00F4H         SYMBOL        val_index
  C:2BABH         PUBLIC        _SetItemValue
  C:A411H         PUBLIC        _ChangeVideoData
  C:036CH         PUBLIC        Str_GAUGE_RECALL_E
BL51 BANKED LINKER/LOCATER V6.22.2.0                                                  06/22/2022  16:23:04  PAGE 85


  C:0110H         PUBLIC        OutOfRangeStr_E
  C:159DH         PUBLIC        Init_DTV_Data
  C:14E7H         PUBLIC        PCUserColorTempRange
  C:05A3H         PUBLIC        Str_CVBSR_E
  C:9349H         PUBLIC        _DrawNum
  C:1647H         SYMBOL        _?ix1000
  C:13DDH         PUBLIC        CAMERAMenu
  C:0D26H         PUBLIC        Str_DaylightSaving
  C:C0B9H         PUBLIC        SaveValue1
  C:168DH         SYMBOL        _?ix1001
  C:9CF8H         PUBLIC        _SetPCColor
  X:00F5H         SYMBOL        cur_osdwin
  C:C5FBH         PUBLIC        _GetVideoDatawithOffset
  C:1697H         SYMBOL        _?ix1002
  C:0D41H         PUBLIC        Str_FirmwareUpdate
  C:0A35H         PUBLIC        Str_WIFI_IP
  C:0744H         PUBLIC        ONOFFChoiceString
  C:045CH         PUBLIC        Str_FormatSD_E
  C:02C1H         PUBLIC        Str_Reset_D
  C:16A1H         SYMBOL        _?ix1003
  C:0B1CH         PUBLIC        Str_CAM_OUT
  C:0379H         PUBLIC        Str_PRIORITY_E
  C:02B4H         PUBLIC        Str_Reset_E
  C:16ADH         SYMBOL        _?ix1004
  C:04DFH         PUBLIC        Str_TriggerSet_E
  C:02BAH         PUBLIC        Str_Reset_F
  C:011DH         PUBLIC        OutOfRangeStr_K
  C:14E1H         PUBLIC        OSDMenuXRange
  C:0E21H         PUBLIC        FWUpdateSELECT
  C:B1D1H         PUBLIC        InitOSDMenuXY
  C:14DBH         PUBLIC        OSDMenuYRange
  C:040AH         PUBLIC        Str_Month_E
  C:03D5H         PUBLIC        Str_Apply_E
  C:0360H         PUBLIC        Str_GAUGE_STEP_E
  C:BF22H         PUBLIC        _SetVideoBrightness
  C:1461H         PUBLIC        TVMainMenu
  C:0D77H         PUBLIC        UTIL_ICON
  C:0545H         PUBLIC        Str_AVDelay_E
  C:11F9H         PUBLIC        SDCARDMenu
  C:0D35H         PUBLIC        Str_TimeZone
  C:08E3H         PUBLIC        PostAlarmLengthChoiceString
  C:08CBH         PUBLIC        PreAlarmLengthChoiceString
  C:7815H         PUBLIC        OSDSelect
  C:0AB3H         PUBLIC        Str_Saturation
  C:02E1H         PUBLIC        Str_Reset_K
  C:B394H         PUBLIC        _SetVideoHue
  C:1597H         PUBLIC        Init_Video_Data
  C:0D8BH         PUBLIC        SDCardOverWrite_ICON
  C:9795H         PUBLIC        _DrawStringByLang
  C:12F5H         PUBLIC        CAMSelectMenu
  C:0D83H         PUBLIC        PC_ADJ_ICON
  C:043BH         PUBLIC        Str_Week_E
  C:0B3DH         PUBLIC        Str_RECALL
  C:0D2CH         PUBLIC        Str_Standard
  C:0B2BH         PUBLIC        Str_JumpAV
  C:0440H         PUBLIC        Str_Time_E
  C:1541H         PUBLIC        OSDPOSITIONMODE_TABLE
BL51 BANKED LINKER/LOCATER V6.22.2.0                                                  06/22/2022  16:23:04  PAGE 86


  C:03FBH         PUBLIC        Str_DateTime_E
  C:0D5FH         PUBLIC        Str_TriggerVGA
  C:0BC4H         PUBLIC        Str_SOURCE_TITLE
  C:05F2H         PUBLIC        Str_CAMA_E
  C:0405H         PUBLIC        Str_Year_E
  C:060CH         PUBLIC        Str_CAMB_E
  C:051FH         PUBLIC        Str_SDCARDCOVERDET_E
  C:02D0H         PUBLIC        Str_Reset_S
  C:0F4DH         PUBLIC        DateTimeSELECT
  C:0619H         PUBLIC        Str_CAMC_E
  X:00F6H         PUBLIC        PW_SecondNumber
  C:0CF0H         PUBLIC        Str_Resolution
  C:0B6AH         PUBLIC        Str_EXIT
  C:064FH         PUBLIC        ModeChoice
  C:061FH         PUBLIC        Str_CAMD_E
  C:C253H         PUBLIC        _SetLanguage
  X:00F7H         SYMBOL        OSDMenuX
  C:B7DFH         PUBLIC        _GetLowerMenuItem
  C:0AFEH         PUBLIC        Str_JUMP
  C:0AD1H         PUBLIC        Str_Sharpness
  X:00F8H         SYMBOL        OSDMenuY
  C:05C3H         PUBLIC        Str_DIR_IMAGE_CAMA_E
  C:054BH         PUBLIC        Str_DISPLAY_E
  C:02F3H         PUBLIC        Str_SEQ_TIME_STEP_E
  C:909DH         PUBLIC        DisplayOSDMenu
  C:C00BH         PUBLIC        pushMenu
  C:0A17H         PUBLIC        Str_LCDVersion
  C:0702H         PUBLIC        OsdPositionModeChoice
  C:05CFH         PUBLIC        Str_DIR_IMAGE_CAMB_E
  C:AAEAH         PUBLIC        _SetVideoSaturation
  C:C5B0H         PUBLIC        _GetUpperMenuItem
  C:05DBH         PUBLIC        Str_DIR_IMAGE_CAMC_E
  C:0D65H         PUBLIC        Str_UpdateConfig
  C:012AH         PUBLIC        StrVolume_E
  C:95E7H         PUBLIC        DisplayCursor
  C:10A1H         PUBLIC        DMINFORMATION
  C:0D87H         PUBLIC        NoSDCard_ICON
  C:0A77H         PUBLIC        Str_OSDPosition
  C:048CH         PUBLIC        Str_NO_E
  C:A7EEH         PUBLIC        _AWT_DisplayViewBar
  C:AA6EH         PUBLIC        _SetPCColorTemp
  C:AE66H         PUBLIC        _SetRGBContrast
  C:11A5H         PUBLIC        RecordSelectMenu
  C:097BH         PUBLIC        PDChoiceString
  C:05E7H         PUBLIC        Str_REAR_SETUP_E
  C:0410H         PUBLIC        Str_Day_E
  C:01F3H         PUBLIC        Str_Brightness_D
  C:1535H         PUBLIC        DigitalVideoSaturationRange
  C:0EC5H         PUBLIC        FORMATSDSelectMenu
  C:0DB4H         PUBLIC        DefaultBar
  C:0783H         PUBLIC        IMAGEString
  C:0414H         PUBLIC        Str_Hour_E
  C:01DDH         PUBLIC        Str_Brightness_E
  C:14B5H         PUBLIC        DefaultMenu
  C:0CB4H         PUBLIC        Str_CamADelay
  C:07A0H         PUBLIC        IMAGE_A_String
  C:01E8H         PUBLIC        Str_Brightness_F
BL51 BANKED LINKER/LOCATER V6.22.2.0                                                  06/22/2022  16:23:04  PAGE 87


  C:82CDH         PUBLIC        _OSDValueUpDn
  C:0CC3H         PUBLIC        Str_CamBDelay
  C:07BFH         PUBLIC        IMAGE_B_String
  C:0271H         PUBLIC        Str_Hue_D
  C:0D59H         PUBLIC        Str_Str_OverWrite
  C:0CD2H         PUBLIC        Str_CamCDelay
  C:0C96H         PUBLIC        Str_TIMEOUT_STEP
  C:07DEH         PUBLIC        IMAGE_C_String
  C:04C5H         PUBLIC        Str_ChangePassword_E
  C:032BH         PUBLIC        Str_DVRRECALL_E
  C:031CH         PUBLIC        Str_MonitorRECALL_E
  C:0264H         PUBLIC        Str_Hue_E
  B:0024H.0       PUBLIC        OnChangingValue
  C:0CFCH         PUBLIC        Str_RecordLength
  C:05FFH         PUBLIC        Str_CAMR_E
  C:0268H         PUBLIC        Str_Hue_F
  C:05B9H         PUBLIC        Str_DIR_IMAGE_E
  C:0E55H         PUBLIC        ChangePasswordSELECT
  C:0D97H         PUBLIC        NoGPS_ICON2
  C:0CA5H         PUBLIC        Str_TriggerDelay
  C:06D3H         PUBLIC        VInputStdChoice
  C:0205H         PUBLIC        Str_Brightness_K
  C:A18BH         PUBLIC        _SetVideoSharpness
  C:0625H         PUBLIC        OSDLangString
  C:7180H         PUBLIC        _DrawMenulist
  C:C2C6H         PUBLIC        popMenu
  C:0D4DH         PUBLIC        Str_SecondNumber
  C:0421H         PUBLIC        Str_DaylightSaving_E
  C:0B97H         PUBLIC        Str_DISTANCE
  C:0281H         PUBLIC        Str_Hue_K
  C:075DH         PUBLIC        DayChoiceString
  C:0478H         PUBLIC        Str_FirmwareUpdate_E
  C:0177H         PUBLIC        Str_WIFI_IP_E
  C:0306H         PUBLIC        Str_CAM_OUT_E
  X:00F9H         SYMBOL        OSDLang
  C:B6BEH         PUBLIC        ClearCursor
  C:C611H         PUBLIC        GetOSDPositionMode
  C:138DH         PUBLIC        DMTRIGGERSELECT
  C:1557H         PUBLIC        VideoModeTable
  C:04D5H         PUBLIC        Str_OverWrite_E
  C:1339H         PUBLIC        DelaySelectMenu
  C:105DH         PUBLIC        RecallMenu
  C:0DABH         PUBLIC        WiFiLittle_ICON
  C:0D29H         PUBLIC        Str_TimeBegines
  C:0AA4H         PUBLIC        Str_Contrast
  C:0A53H         PUBLIC        Str_GETWAY
  C:01FEH         PUBLIC        Str_Brightness_S
  C:6DCCH         PUBLIC        ResetOSDValue
  C:C2E2H         PUBLIC        _GetNextCursorMenuItem
  C:0D9BH         PUBLIC        Gsensor_ICON
  C:0D0EH         PUBLIC        Str_Snapshot
  C:0445H         PUBLIC        Str_TimeZone_E
  C:0246H         PUBLIC        Str_Saturation_D
  C:0277H         PUBLIC        Str_Hue_S
  C:023BH         PUBLIC        Str_Saturation_E
  X:00FAH         PUBLIC        PW_FourthNumber
  C:1285H         PUBLIC        DMPicture
BL51 BANKED LINKER/LOCATER V6.22.2.0                                                  06/22/2022  16:23:04  PAGE 88


  C:0D08H         PUBLIC        Str_ManualRecordStart
  C:0CE1H         PUBLIC        Str_CamRDelay
  C:150BH         PUBLIC        PanelBacklightRange
  C:0D3EH         PUBLIC        Str_AudioRecord
  C:0A26H         PUBLIC        Str_DVRVersion
  C:08FBH         PUBLIC        DaylightSavingChoiceString
  X:00FBH         PUBLIC        PW_ThridNumber
  C:B96FH         PUBLIC        _GetTargetChild
  C:0D8FH         PUBLIC        GPS_ICON
  C:0315H         PUBLIC        Str_RECALL_E
  C:0779H         PUBLIC        ONOFFChoiceString1
  C:0437H         PUBLIC        Str_Standard_E
  C:02FEH         PUBLIC        Str_JumpAV_E
  C:B53EH         PUBLIC        _CAMOutDSel
  C:025BH         PUBLIC        Str_Saturation_K
  C:7988H         PUBLIC        _SetOSDPositionMode
  C:1281H         PUBLIC        PictureMenu
  C:0DBDH         PUBLIC        DMINPUTSOURCE
  C:0AEFH         PUBLIC        Str_MIRROR
  C:0581H         PUBLIC        Str_SOURCE_TITLE_E
  C:04EBH         PUBLIC        Str_TriggerVGA_E
  C:BAA6H         PUBLIC        CloseOSDMenu
  C:014DH         PUBLIC        Str_Composite_E
  X:00FCH         SYMBOL        OSDItemValue
  X:00FEH         PUBLIC        OSDMenuLevel
  C:0DA3H         PUBLIC        WiFi_ICON
  C:0934H         PUBLIC        TimeZoneChoiceString
  C:038EH         PUBLIC        Str_Resolution_E
  C:0336H         PUBLIC        Str_EXIT_E
  C:029BH         PUBLIC        Str_Sharpness_D
  C:C090H         PUBLIC        _SetVideoContrast
  C:0B2EH         PUBLIC        Str_RETURN
  C:0A44H         PUBLIC        Str_WIFI_MAC
  C:09CAH         PUBLIC        JUMPChineseString
  C:02EEH         PUBLIC        Str_JUMP_E
  C:028AH         PUBLIC        Str_Sharpness_E
  C:515EH         SYMBOL        Com02FB
  C:515EH         SYMBOL        L?0764
  C:515EH         SYMBOL        L?0765
  C:5161H         SYMBOL        L?0766
  C:516AH         SYMBOL        L?0767
  C:516AH         SYMBOL        L?0768
  C:5171H         SYMBOL        L?0769
  C:5178H         SYMBOL        L?0771
  C:5181H         SYMBOL        L?0775
  C:5188H         SYMBOL        L?0776
  C:518EH         SYMBOL        L?0777
  C:5197H         SYMBOL        L?0779
  C:51ABH         SYMBOL        L?0780
  C:51B1H         SYMBOL        L?0781
  C:51BEH         SYMBOL        L?0782
  C:51C7H         SYMBOL        L?0784
  C:51C7H         SYMBOL        L?0785
  C:51CDH         SYMBOL        L?0786
  C:51D4H         SYMBOL        L?0787
  C:51D5H         SYMBOL        L?0788
  C:51DBH         SYMBOL        L?0790
BL51 BANKED LINKER/LOCATER V6.22.2.0                                                  06/22/2022  16:23:04  PAGE 89


  C:51DBH         SYMBOL        L?0791
  C:51DEH         SYMBOL        L?0792
  C:51E5H         SYMBOL        L?0793
  C:51E5H         SYMBOL        L?0794
  C:51E6H         SYMBOL        L?0795
  C:51EEH         SYMBOL        L?0798
  C:51F2H         SYMBOL        L?0799
  C:51FDH         SYMBOL        L?0801
  C:51FDH         SYMBOL        L?0802
  C:5214H         SYMBOL        L?0803
  C:521AH         SYMBOL        L?0805
  C:521AH         SYMBOL        L?0806
  C:5221H         SYMBOL        L?0807
  C:5221H         SYMBOL        L?0808
  C:522AH         SYMBOL        L?0809
  C:522AH         SYMBOL        L?0810
  C:522DH         SYMBOL        L?0811
  C:5235H         SYMBOL        L?0814
  C:5235H         SYMBOL        L?0815
  C:5238H         SYMBOL        L?0816
  C:5242H         SYMBOL        L?0820
  C:5242H         SYMBOL        L?0821
  C:524AH         SYMBOL        L?0823
  C:524AH         SYMBOL        L?0824
  C:5251H         SYMBOL        L?0825
  C:5258H         SYMBOL        L?0826
  C:525FH         SYMBOL        L?0828
  C:5268H         SYMBOL        L?0829
  C:5271H         SYMBOL        L?0830
  C:5273H         SYMBOL        L?0831
  C:527CH         SYMBOL        L?0832
  C:5285H         SYMBOL        L?0833
  C:528CH         SYMBOL        L?0834
  C:528CH         SYMBOL        L?0835
  C:5295H         SYMBOL        L?0836
  C:5295H         SYMBOL        L?0837
  C:529CH         SYMBOL        L?0844
  C:52A3H         SYMBOL        L?0845
  C:52A5H         SYMBOL        L?0846
  C:52ACH         SYMBOL        L?0851
  C:52C9H         SYMBOL        L?0852
  C:52D2H         SYMBOL        L?0855
  C:52D2H         SYMBOL        L?0856
  C:52D4H         SYMBOL        L?0857
  C:52D5H         SYMBOL        L?0858
  C:52DCH         SYMBOL        L?0859
  C:52DEH         SYMBOL        L?0860
  C:52ECH         SYMBOL        L?0861
  C:5306H         SYMBOL        L?0862
  C:5306H         SYMBOL        L?0863
  C:5309H         SYMBOL        L?0864
  C:5312H         SYMBOL        L?0865
  C:5312H         SYMBOL        L?0866
  C:531FH         SYMBOL        L?0868
  C:5335H         SYMBOL        L?0869
  C:534BH         SYMBOL        L?0870
  C:534BH         SYMBOL        L?0871
BL51 BANKED LINKER/LOCATER V6.22.2.0                                                  06/22/2022  16:23:04  PAGE 90


  C:534CH         SYMBOL        L?0872
  C:5353H         SYMBOL        L?0873
  C:5353H         SYMBOL        L?0874
  C:5360H         SYMBOL        L?0875
  C:5360H         SYMBOL        L?0876
  C:5366H         SYMBOL        L?0878
  C:537AH         SYMBOL        L?0879
  C:537AH         SYMBOL        L?0880
  C:5382H         SYMBOL        L?0882
  C:5383H         SYMBOL        L?0883
  C:5385H         SYMBOL        L?0884
  C:538CH         SYMBOL        L?0885
  C:538FH         SYMBOL        L?0886
  C:5397H         SYMBOL        L?0887
  C:5397H         SYMBOL        L?0888
  C:539EH         SYMBOL        L?0891
  C:53AFH         SYMBOL        L?0893
  C:53BFH         SYMBOL        L?0894
  C:53C7H         SYMBOL        L?0895
  C:53C7H         SYMBOL        L?0896
  C:53CEH         SYMBOL        L?0897
  C:53CEH         SYMBOL        L?0898
  C:53D5H         SYMBOL        L?0899
  C:53E0H         SYMBOL        L?0900
  C:53F0H         SYMBOL        L?0903
  C:53FFH         SYMBOL        L?0904
  C:540EH         SYMBOL        L?0905
  C:541DH         SYMBOL        L?0906
  C:542CH         SYMBOL        L?0910
  C:543AH         SYMBOL        L?0911
  C:5448H         SYMBOL        L?0912
  C:544AH         SYMBOL        L?0913
  C:5452H         SYMBOL        L?0916
  C:5452H         SYMBOL        L?0917
  C:5459H         SYMBOL        L?0918
  C:5466H         SYMBOL        L?0919
  C:5468H         SYMBOL        L?0920
  C:546FH         SYMBOL        L?0921
  C:5476H         SYMBOL        L?0922
  C:5476H         SYMBOL        L?0923
  C:547CH         SYMBOL        L?0926
  C:5488H         SYMBOL        L?0927
  C:5494H         SYMBOL        L?0928
  C:5494H         SYMBOL        L?0929
  C:549CH         SYMBOL        L?0930
  C:549CH         SYMBOL        L?0931
  C:54A4H         SYMBOL        L?0932
  C:54A4H         SYMBOL        L?0933
  C:54ACH         SYMBOL        L?0935
  C:54B7H         SYMBOL        L?0936
  C:54B8H         SYMBOL        L?0937
  C:54BFH         SYMBOL        L?0938
  C:54CAH         SYMBOL        L?0939
  C:54D1H         SYMBOL        L?0940
  C:54DCH         SYMBOL        L?0942
  C:54E6H         SYMBOL        L?0943
  C:54EDH         SYMBOL        L?0944
BL51 BANKED LINKER/LOCATER V6.22.2.0                                                  06/22/2022  16:23:04  PAGE 91


  C:54EDH         SYMBOL        L?0945
  C:54F4H         SYMBOL        L?0946
  C:54FEH         SYMBOL        L?0947
  C:54FEH         SYMBOL        L?0948
  C:5505H         SYMBOL        L?0949
  C:550FH         SYMBOL        L?0950
  C:5519H         SYMBOL        L?0951
  C:5523H         SYMBOL        L?0952
  -------         PROC          COM02FB
  -------         ENDPROC       COM02FB
  -------         PROC          GETOSDPOSITIONMODE
  -------         DO            
  D:0007H         SYMBOL        val
  -------         ENDDO         
  C:C611H         LINE#         125
  C:C611H         LINE#         126
  C:C611H         LINE#         128
  -------         ENDPROC       GETOSDPOSITIONMODE
  C:7AE8H         SYMBOL        L?0907
  -------         PROC          _SETOSDPOSITIONMODE
  X:0012H         SYMBOL        flag
  -------         DO            
  D:0004H         SYMBOL        val
  X:0013H         SYMBOL        addx
  X:0015H         SYMBOL        addy
  X:0017H         SYMBOL        i
  D:0007H         SYMBOL        inc
  X:0018H         SYMBOL        winno
  X:0019H         SYMBOL        OSDStart
  D:0002H         SYMBOL        tmp
  -------         ENDDO         
  C:7988H         LINE#         134
  C:798DH         LINE#         135
  C:798DH         LINE#         147
  C:7995H         LINE#         148
  C:79A3H         LINE#         149
  C:79A6H         LINE#         150
  C:79ABH         LINE#         152
  C:79B8H         LINE#         153
  C:79CBH         LINE#         154
  C:79CFH         LINE#         156
  C:79DCH         LINE#         157
  C:79EFH         LINE#         158
  C:79F4H         LINE#         160
  C:7A03H         LINE#         161
  C:7A0CH         LINE#         162
  C:7A0FH         LINE#         163
  C:7A12H         LINE#         164
  C:7A25H         LINE#         165
  C:7A2BH         LINE#         167
  C:7A34H         LINE#         168
  C:7A37H         LINE#         169
  C:7A3AH         LINE#         170
  C:7A4CH         LINE#         171
  C:7A69H         LINE#         172
  C:7A72H         LINE#         174
  C:7A75H         LINE#         187
BL51 BANKED LINKER/LOCATER V6.22.2.0                                                  06/22/2022  16:23:04  PAGE 92


  C:7A82H         LINE#         188
  C:7A90H         LINE#         189
  C:7A9AH         LINE#         190
  C:7AB9H         LINE#         191
  C:7AC1H         LINE#         193
  C:7ACEH         LINE#         194
  C:7AD6H         LINE#         196
  C:7AD9H         LINE#         197
  C:7AE2H         LINE#         200
  C:7AE7H         LINE#         201
  -------         ENDPROC       _SETOSDPOSITIONMODE
  C:6F44H         SYMBOL        L?0813
  C:6F4CH         SYMBOL        L?0818
  C:6F54H         SYMBOL        L?0827
  C:6F5CH         SYMBOL        L?0838
  C:6F63H         SYMBOL        L?0841
  C:6F6BH         SYMBOL        L?0842
  C:6F72H         SYMBOL        L?0853
  C:6F79H         SYMBOL        L?0854
  C:6F81H         SYMBOL        L?0877
  C:6F88H         SYMBOL        L?0881
  C:6F90H         SYMBOL        L?0892
  C:6F9AH         SYMBOL        L?0901
  C:6FA1H         SYMBOL        L?0934
  C:6FA9H         SYMBOL        L?0953
  -------         PROC          RESETOSDVALUE
  C:6DCCH         LINE#         283
  C:6DCCH         LINE#         284
  C:6DCCH         LINE#         285
  C:6DD5H         LINE#         286
  C:6DDEH         LINE#         288
  C:6DE3H         LINE#         291
  C:6DE8H         LINE#         293
  C:6DEDH         LINE#         297
  C:6DF9H         LINE#         298
  C:6DFEH         LINE#         299
  C:6E03H         LINE#         300
  C:6E08H         LINE#         302
  C:6E0DH         LINE#         306
  C:6E12H         LINE#         307
  C:6E17H         LINE#         308
  C:6E1CH         LINE#         309
  C:6E21H         LINE#         310
  C:6E26H         LINE#         311
  C:6E2BH         LINE#         312
  C:6E30H         LINE#         313
  C:6E39H         LINE#         314
  C:6E3FH         LINE#         315
  C:6E44H         LINE#         316
  C:6E4DH         LINE#         317
  C:6E56H         LINE#         319
  C:6E5BH         LINE#         320
  C:6E60H         LINE#         321
  C:6E65H         LINE#         335
  C:6E6AH         LINE#         336
  C:6E70H         LINE#         352
  C:6E75H         LINE#         354
BL51 BANKED LINKER/LOCATER V6.22.2.0                                                  06/22/2022  16:23:04  PAGE 93


  C:6E7DH         LINE#         358
  C:6E82H         LINE#         359
  C:6E87H         LINE#         360
  C:6E90H         LINE#         361
  C:6E98H         LINE#         363
  C:6E9DH         LINE#         364
  C:6EA2H         LINE#         365
  C:6EA7H         LINE#         366
  C:6EACH         LINE#         367
  C:6EB1H         LINE#         368
  C:6EB4H         LINE#         369
  C:6EB9H         LINE#         371
  C:6EBEH         LINE#         372
  C:6ECAH         LINE#         377
  C:6ECFH         LINE#         378
  C:6EDBH         LINE#         379
  C:6EE0H         LINE#         380
  C:6EECH         LINE#         381
  C:6EF5H         LINE#         382
  C:6F01H         LINE#         383
  C:6F09H         LINE#         384
  C:6F0EH         LINE#         386
  C:6F13H         LINE#         387
  C:6F1BH         LINE#         390
  C:6F1DH         LINE#         391
  C:6F27H         LINE#         392
  C:6F29H         LINE#         393
  C:6F33H         LINE#         397
  C:6F35H         LINE#         398
  C:6F3EH         LINE#         404
  C:6F41H         LINE#         407
  C:6F44H         LINE#         409
  -------         ENDPROC       RESETOSDVALUE
  -------         PROC          GETOSDLANG
  C:C487H         LINE#         444
  C:C487H         LINE#         445
  C:C487H         LINE#         446
  C:C48FH         LINE#         447
  C:C497H         LINE#         448
  C:C497H         LINE#         449
  -------         ENDPROC       GETOSDLANG
  -------         PROC          _SETLANGUAGE
  D:0007H         SYMBOL        flag
  -------         DO            
  D:0007H         SYMBOL        inc
  -------         ENDDO         
  C:C253H         LINE#         451
  C:C253H         LINE#         452
  C:C253H         LINE#         454
  C:C25EH         LINE#         455
  C:C261H         LINE#         456
  C:C268H         LINE#         458
  C:C26BH         LINE#         460
  C:C270H         LINE#         461
  -------         ENDPROC       _SETLANGUAGE
  -------         PROC          _SETRGBCONTRAST
  D:0007H         SYMBOL        temp
BL51 BANKED LINKER/LOCATER V6.22.2.0                                                  06/22/2022  16:23:04  PAGE 94


  X:0014H         SYMBOL        val
  -------         DO            
  X:0015H         SYMBOL        index
  X:0017H         SYMBOL        i
  X:0018H         SYMBOL        newval
  X:001AH         SYMBOL        toValue
  -------         ENDDO         
  C:AE66H         LINE#         497
  C:AE6BH         LINE#         498
  C:AE6BH         LINE#         503
  C:AE7BH         LINE#         504
  C:AE86H         LINE#         505
  C:AE86H         LINE#         506
  C:AE9CH         LINE#         507
  C:AEABH         LINE#         508
  C:AEC3H         LINE#         509
  C:AECBH         LINE#         510
  -------         ENDPROC       _SETRGBCONTRAST
  -------         PROC          _SETPCCOLORTEMP
  D:0007H         SYMBOL        flag
  -------         DO            
  D:0007H         SYMBOL        val
  X:0012H         SYMBOL        regv
  D:0007H         SYMBOL        inc
  -------         ENDDO         
  C:AA6EH         LINE#         524
  C:AA6EH         LINE#         525
  C:AA6EH         LINE#         532
  C:AA79H         LINE#         533
  C:AA95H         LINE#         534
  C:AA9DH         LINE#         536
  C:AAA3H         LINE#         537
  C:AAAAH         LINE#         538
  C:AABFH         LINE#         539
  C:AACBH         LINE#         541
  C:AAD9H         LINE#         542
  C:AADDH         LINE#         544
  C:AAE6H         LINE#         546
  C:AAE9H         LINE#         547
  -------         ENDPROC       _SETPCCOLORTEMP
  -------         PROC          _SETPCCOLOR
  X:0012H         SYMBOL        color
  D:0005H         SYMBOL        flag
  -------         DO            
  X:0013H         SYMBOL        newval
  X:0015H         SYMBOL        toValue
  X:0017H         SYMBOL        regv
  -------         ENDDO         
  C:9CF8H         LINE#         557
  C:9CFDH         LINE#         558
  C:9CFDH         LINE#         562
  C:9D21H         LINE#         563
  C:9D3BH         LINE#         564
  C:9D3EH         LINE#         566
  C:9D49H         LINE#         567
  C:9D58H         LINE#         568
  C:9D69H         LINE#         570
BL51 BANKED LINKER/LOCATER V6.22.2.0                                                  06/22/2022  16:23:04  PAGE 95


  C:9D76H         LINE#         571
  C:9D89H         LINE#         573
  C:9DA2H         LINE#         575
  C:9DA5H         LINE#         576
  -------         ENDPROC       _SETPCCOLOR
  C:B38AH         SYMBOL        L?0848
  -------         PROC          CHECKPANELIMAGE
  C:B33CH         LINE#         632
  C:B33CH         LINE#         633
  C:B33CH         LINE#         654
  C:B33CH         LINE#         655
  C:B34EH         LINE#         656
  C:B350H         LINE#         657
  C:B35AH         LINE#         658
  C:B35CH         LINE#         659
  C:B366H         LINE#         660
  C:B36FH         LINE#         661
  C:B378H         LINE#         662
  C:B38AH         LINE#         663
  C:B38AH         LINE#         664
  -------         ENDPROC       CHECKPANELIMAGE
  -------         PROC          _SETVIDEOMODE
  X:0019H         SYMBOL        mode
  -------         DO            
  X:001AH         SYMBOL        i
  X:001CH         SYMBOL        regv
  -------         DO            
  X:001EH         SYMBOL        userv
  -------         ENDDO         
  -------         ENDDO         
  C:8EC2H         LINE#         676
  C:8EC8H         LINE#         677
  C:8EC8H         LINE#         680
  C:8ECFH         LINE#         682
  C:8ED7H         LINE#         684
  C:8EEEH         LINE#         685
  C:8F2DH         LINE#         687
  C:8F45H         LINE#         688
  C:8F45H         LINE#         689
  C:8F45H         LINE#         691
  C:8F47H         LINE#         693
  C:8F47H         LINE#         695
  C:8F47H         LINE#         699
  C:8F4FH         LINE#         700
  C:8F57H         LINE#         701
  C:8F63H         LINE#         702
  C:8F6FH         LINE#         703
  C:8F77H         LINE#         705
  C:8F86H         LINE#         706
  C:8F99H         LINE#         707
  C:8F99H         LINE#         708
  C:8FA2H         LINE#         709
  C:8FB2H         LINE#         714
  C:8FB2H         LINE#         716
  -------         ENDPROC       _SETVIDEOMODE
  -------         PROC          ISINPUTANALOGRGB
  C:C614H         LINE#         718
BL51 BANKED LINKER/LOCATER V6.22.2.0                                                  06/22/2022  16:23:04  PAGE 96


  C:C614H         LINE#         719
  C:C614H         LINE#         726
  C:C616H         LINE#         727
  -------         ENDPROC       ISINPUTANALOGRGB
  -------         PROC          _GETVIDEODATAWITHOFFSET
  D:0007H         SYMBOL        offset
  C:C5FBH         LINE#         729
  C:C5FBH         LINE#         730
  C:C5FBH         LINE#         731
  C:C601H         LINE#         733
  C:C601H         LINE#         734
  -------         ENDPROC       _GETVIDEODATAWITHOFFSET
  -------         PROC          _CHANGEVIDEODATA
  X:0012H         SYMBOL        offset
  D:0005H         SYMBOL        flag
  -------         DO            
  X:0013H         SYMBOL        newv
  D:0006H         SYMBOL        inc
  -------         ENDDO         
  C:A411H         LINE#         736
  C:A416H         LINE#         737
  C:A416H         LINE#         740
  C:A424H         LINE#         742
  C:A434H         LINE#         743
  C:A44FH         LINE#         744
  C:A452H         LINE#         745
  C:A452H         LINE#         747
  C:A46AH         LINE#         748
  C:A46AH         LINE#         749
  C:A46FH         LINE#         750
  C:A471H         LINE#         751
  C:A477H         LINE#         752
  C:A479H         LINE#         753
  C:A479H         LINE#         754
  C:A479H         LINE#         755
  C:A487H         LINE#         756
  C:A489H         LINE#         757
  C:A48FH         LINE#         758
  C:A491H         LINE#         759
  C:A497H         LINE#         760
  C:A497H         LINE#         761
  C:A497H         LINE#         763
  C:A4A3H         LINE#         765
  C:A4AEH         LINE#         766
  C:A4AEH         LINE#         768
  -------         ENDPROC       _CHANGEVIDEODATA
  -------         PROC          _SETVIDEOCONTRAST
  D:0007H         SYMBOL        newv
  -------         DO            
  X:0020H         SYMBOL        regv
  -------         ENDDO         
  C:C090H         LINE#         770
  C:C090H         LINE#         771
  C:C090H         LINE#         779
  C:C0A5H         LINE#         782
  -------         ENDPROC       _SETVIDEOCONTRAST
  -------         PROC          _SETVIDEOBRIGHTNESS
BL51 BANKED LINKER/LOCATER V6.22.2.0                                                  06/22/2022  16:23:04  PAGE 97


  D:0007H         SYMBOL        newv
  -------         DO            
  X:0020H         SYMBOL        regv
  -------         ENDDO         
  C:BF22H         LINE#         786
  C:BF22H         LINE#         787
  C:BF22H         LINE#         789
  C:BF22H         LINE#         799
  C:BF37H         LINE#         801
  C:BF40H         LINE#         802
  C:BF47H         LINE#         804
  C:BF51H         LINE#         805
  C:BF51H         LINE#         806
  -------         ENDPROC       _SETVIDEOBRIGHTNESS
  C:ADF8H         SYMBOL        L?0954
  -------         PROC          _SETVIDEOBACKLIGHT
  D:0007H         SYMBOL        newv
  -------         DO            
  X:0015H         SYMBOL        regv
  X:0017H         SYMBOL        page
  -------         ENDDO         
  C:AD96H         LINE#         807
  C:AD96H         LINE#         808
  C:AD96H         LINE#         813
  C:ADABH         LINE#         824
  C:ADB7H         LINE#         825
  C:ADBDH         LINE#         826
  C:ADCEH         LINE#         827
  C:ADECH         LINE#         828
  C:ADF8H         LINE#         830
  -------         ENDPROC       _SETVIDEOBACKLIGHT
  -------         PROC          _SETVIDEOHUE
  X:0020H         SYMBOL        newv
  -------         DO            
  X:0021H         SYMBOL        regv
  -------         ENDDO         
  C:B394H         LINE#         832
  C:B399H         LINE#         833
  C:B399H         LINE#         837
  C:B3A1H         LINE#         838
  C:B3AEH         LINE#         839
  C:B3C2H         LINE#         840
  C:B3C4H         LINE#         841
  C:B3C4H         LINE#         842
  C:B3D1H         LINE#         843
  C:B3DAH         LINE#         844
  C:B3E1H         LINE#         846
  C:B3EBH         LINE#         847
  C:B3EBH         LINE#         849
  -------         ENDPROC       _SETVIDEOHUE
  -------         PROC          _SETVIDEOSATURATION
  X:0020H         SYMBOL        svtype
  X:0021H         SYMBOL        newv
  -------         DO            
  X:0022H         SYMBOL        regv
  -------         ENDDO         
  C:AAEAH         LINE#         851
BL51 BANKED LINKER/LOCATER V6.22.2.0                                                  06/22/2022  16:23:04  PAGE 98


  C:AAF2H         LINE#         852
  C:AAF2H         LINE#         856
  C:AAF8H         LINE#         857
  C:AB09H         LINE#         858
  C:AB27H         LINE#         859
  C:AB29H         LINE#         860
  C:AB29H         LINE#         862
  C:AB43H         LINE#         864
  C:AB4EH         LINE#         865
  C:AB51H         LINE#         866
  C:AB53H         LINE#         867
  C:AB53H         LINE#         868
  C:AB62H         LINE#         869
  C:AB62H         LINE#         870
  C:AB62H         LINE#         871
  -------         ENDPROC       _SETVIDEOSATURATION
  -------         PROC          _SETVIDEOSHARPNESS
  X:0012H         SYMBOL        flag
  -------         DO            
  D:0007H         SYMBOL        orgv
  D:0007H         SYMBOL        inc
  X:0013H         SYMBOL        newv
  X:0015H         SYMBOL        regv
  -------         ENDDO         
  C:A18BH         LINE#         874
  C:A190H         LINE#         875
  C:A190H         LINE#         880
  C:A19AH         LINE#         881
  C:A1A2H         LINE#         882
  C:A1B0H         LINE#         883
  C:A1BCH         LINE#         884
  C:A1DDH         LINE#         886
  C:A1E1H         LINE#         888
  C:A1FFH         LINE#         890
  C:A208H         LINE#         892
  C:A218H         LINE#         895
  C:A223H         LINE#         896
  C:A22EH         LINE#         898
  C:A22EH         LINE#         899
  -------         ENDPROC       _SETVIDEOSHARPNESS
  C:AD20H         SYMBOL        L?0924
  -------         PROC          RESETVIDEOVALUE
  -------         DO            
  X:0009H         SYMBOL        i
  X:000AH         SYMBOL        CurInput
  -------         ENDDO         
  C:ACC3H         LINE#         948
  C:ACC3H         LINE#         949
  C:ACC3H         LINE#         955
  C:ACCBH         LINE#         956
  C:ACE1H         LINE#         958
  C:ACE6H         LINE#         959
  C:ACE6H         LINE#         960
  C:ACEFH         LINE#         961
  C:ACF3H         LINE#         962
  C:ACF8H         LINE#         963
  C:ACF8H         LINE#         964
BL51 BANKED LINKER/LOCATER V6.22.2.0                                                  06/22/2022  16:23:04  PAGE 99


  C:ACF8H         LINE#         965
  C:AD02H         LINE#         971
  C:AD06H         LINE#         972
  C:AD0BH         LINE#         973
  C:AD0BH         LINE#         974
  C:AD13H         LINE#         975
  C:AD1BH         LINE#         976
  C:AD20H         LINE#         978
  -------         ENDPROC       RESETVIDEOVALUE
  -------         PROC          PUSHMENU
  C:C00BH         LINE#         140
  C:C00BH         LINE#         141
  C:C00BH         LINE#         145
  C:C013H         LINE#         158
  C:C023H         LINE#         159
  C:C032H         LINE#         160
  C:C035H         LINE#         161
  C:C035H         LINE#         162
  C:C037H         LINE#         163
  -------         ENDPROC       PUSHMENU
  -------         PROC          POPMENU
  C:C2C6H         LINE#         165
  C:C2C6H         LINE#         166
  C:C2C6H         LINE#         170
  C:C2CAH         LINE#         171
  C:C2D2H         LINE#         172
  C:C2DCH         LINE#         186
  C:C2DFH         LINE#         187
  C:C2DFH         LINE#         188
  C:C2E1H         LINE#         189
  -------         ENDPROC       POPMENU
  -------         PROC          _GETLOWERMENUITEM
  X:001DH         SYMBOL        DMp
  X:0020H         SYMBOL        itemno
  C:B7DFH         LINE#         191
  C:B7EAH         LINE#         192
  C:B7EAH         LINE#         193
  C:B7EDH         LINE#         194
  C:B7F0H         LINE#         195
  C:B7F6H         LINE#         196
  C:B81BH         LINE#         197
  C:B81EH         LINE#         198
  C:B823H         LINE#         200
  -------         ENDPROC       _GETLOWERMENUITEM
  -------         PROC          _GETUPPERMENUITEM
  D:0007H         SYMBOL        itemno
  C:C5B0H         LINE#         202
  C:C5B0H         LINE#         203
  C:C5B0H         LINE#         205
  C:C5B4H         LINE#         206
  C:C5B7H         LINE#         207
  C:C5B8H         LINE#         208
  C:C5B8H         LINE#         209
  -------         ENDPROC       _GETUPPERMENUITEM
  -------         PROC          _GETTARGETCHILD
  D:0004H         SYMBOL        tid
  -------         DO            
BL51 BANKED LINKER/LOCATER V6.22.2.0                                                  06/22/2022  16:23:04  PAGE 100


  D:0006H         SYMBOL        i
  -------         ENDDO         
  C:B96FH         LINE#         211
  C:B971H         LINE#         212
  C:B971H         LINE#         216
  C:B97FH         LINE#         217
  C:B981H         LINE#         224
  C:B985H         LINE#         230
  C:B99DH         LINE#         231
  C:B9A0H         LINE#         232
  C:B9ABH         LINE#         233
  C:B9ADH         LINE#         235
  C:B9AFH         LINE#         236
  -------         ENDPROC       _GETTARGETCHILD
  C:7D89H         SYMBOL        L?0822
  C:7DA6H         SYMBOL        L?0914
  C:7DB4H         SYMBOL        L?0941
  -------         PROC          DISPLAYINFO_OSD
  -------         DO            
  X:0009H         SYMBOL        i
  X:000AH         SYMBOL        title
  X:000BH         SYMBOL        len
  D:0007H         SYMBOL        inputs
  X:000CH         SYMBOL        mstr
  -------         ENDDO         
  C:7C58H         LINE#         282
  C:7C58H         LINE#         283
  C:7C58H         LINE#         284
  C:7C5EH         LINE#         287
  C:7C61H         LINE#         288
  C:7C69H         LINE#         289
  C:7C6FH         LINE#         291
  C:7C75H         LINE#         293
  C:7C7CH         LINE#         294
  C:7C82H         LINE#         296
  C:7C87H         LINE#         298
  C:7C8FH         LINE#         299
  C:7CA9H         LINE#         300
  C:7CE5H         LINE#         303
  C:7CE8H         LINE#         304
  C:7CEEH         LINE#         305
  C:7D09H         LINE#         306
  C:7D0DH         LINE#         307
  C:7D27H         LINE#         318
  C:7D27H         LINE#         319
  C:7D2AH         LINE#         320
  C:7D44H         LINE#         321
  C:7D44H         LINE#         335
  C:7D49H         LINE#         336
  C:7D4FH         LINE#         337
  C:7D53H         LINE#         338
  C:7D58H         LINE#         339
  C:7D63H         LINE#         340
  C:7D6AH         LINE#         341
  C:7D6DH         LINE#         349
  C:7D89H         LINE#         352
  -------         ENDPROC       DISPLAYINFO_OSD
BL51 BANKED LINKER/LOCATER V6.22.2.0                                                  06/22/2022  16:23:04  PAGE 101


  -------         PROC          _DISPLAYVOLUMEBAR
  X:0008H         SYMBOL        val
  -------         DO            
  C:163FH         SYMBOL        BAR_ROM_TABLE
  D:0007H         SYMBOL        i
  X:0009H         SYMBOL        Bar_str
  D:0006H         SYMBOL        addr
  -------         ENDDO         
  C:9F9DH         LINE#         362
  C:9FA2H         LINE#         363
  C:9FA2H         LINE#         375
  C:9FAFH         LINE#         382
  C:9FBCH         LINE#         383
  C:9FBCH         LINE#         384
  C:9FD4H         LINE#         385
  C:9FE1H         LINE#         386
  C:9FF0H         LINE#         387
  C:9FF0H         LINE#         389
  C:9FF8H         LINE#         390
  C:9FFEH         LINE#         393
  C:A006H         LINE#         394
  C:A009H         LINE#         397
  C:A017H         LINE#         398
  C:A022H         LINE#         399
  C:A029H         LINE#         401
  C:A02CH         LINE#         402
  C:A02FH         LINE#         404
  C:A033H         LINE#         406
  -------         ENDPROC       _DISPLAYVOLUMEBAR
  -------         PROC          _GET_CURSOR_ITEM
  D:0007H         SYMBOL        id
  -------         DO            
  X:0008H         SYMBOL        i
  X:0009H         SYMBOL        tid
  -------         ENDDO         
  C:BF81H         LINE#         448
  C:BF81H         LINE#         449
  C:BF81H         LINE#         450
  C:BF87H         LINE#         457
  C:BF8CH         LINE#         458
  C:BF94H         LINE#         459
  C:BF96H         LINE#         461
  C:BF99H         LINE#         462
  C:BF99H         LINE#         464
  C:BFA6H         LINE#         466
  C:BFA9H         LINE#         468
  C:BFAAH         LINE#         469
  C:BFAAH         LINE#         475
  C:BFAFH         LINE#         476
  -------         ENDPROC       _GET_CURSOR_ITEM
  C:57EEH         SYMBOL        L?0756
  C:581DH         SYMBOL        L?0758
  C:585CH         SYMBOL        L?0760
  C:589BH         SYMBOL        L?0800
  C:58B7H         SYMBOL        L?0817
  C:58CCH         SYMBOL        L?0840
  C:58E1H         SYMBOL        L?0902
BL51 BANKED LINKER/LOCATER V6.22.2.0                                                  06/22/2022  16:23:04  PAGE 102


  C:58E9H         SYMBOL        L?0908
  -------         PROC          _DISPLAYOSDMENUONEITEM
  X:001DH         SYMBOL        winno
  X:001FH         SYMBOL        DMp
  X:0022H         SYMBOL        x
  X:0023H         SYMBOL        y
  X:0024H         SYMBOL        NOTViewflag
  -------         DO            
  D:0007H         SYMBOL        i
  X:0025H         SYMBOL        j
  X:0026H         SYMBOL        k
  X:0027H         SYMBOL        IconColor
  X:0028H         SYMBOL        addr
  X:002AH         SYMBOL        Str
  C:165CH         SYMBOL        RightSign_str
  C:1668H         SYMBOL        SpaceStr
  C:1674H         SYMBOL        Dot
  C:1676H         SYMBOL        Colon
  -------         DO            
  X:002DH         SYMBOL        ptr
  X:002DH         SYMBOL        ptr
  X:002DH         SYMBOL        ptr
  -------         ENDDO         
  -------         DO            
  X:002DH         SYMBOL        ptr
  X:002DH         SYMBOL        ptr
  -------         ENDDO         
  -------         DO            
  X:002DH         SYMBOL        ptr
  -------         ENDDO         
  -------         ENDDO         
  C:552DH         LINE#         482
  C:5536H         LINE#         483
  C:5536H         LINE#         503
  C:5546H         LINE#         504
  C:5549H         LINE#         514
  C:556FH         LINE#         521
  C:557CH         LINE#         524
  C:5584H         LINE#         526
  C:558CH         LINE#         527
  C:5590H         LINE#         531
  C:559FH         LINE#         534
  C:55A6H         LINE#         535
  C:55A6H         LINE#         542
  C:55AEH         LINE#         546
  C:55BDH         LINE#         548
  C:55C3H         LINE#         549
  C:55C6H         LINE#         551
  C:55D4H         LINE#         552
  C:55F4H         LINE#         558
  C:5606H         LINE#         560
  C:5623H         LINE#         561
  C:563CH         LINE#         563
  C:5646H         LINE#         565
  C:5646H         LINE#         567
  C:5650H         LINE#         568
  C:565BH         LINE#         578
BL51 BANKED LINKER/LOCATER V6.22.2.0                                                  06/22/2022  16:23:04  PAGE 103


  C:5686H         LINE#         579
  C:5686H         LINE#         581
  C:569DH         LINE#         583
  C:56A3H         LINE#         586
  C:56ACH         LINE#         587
  C:56ACH         LINE#         589
  C:56ACH         LINE#         590
  C:56ACH         LINE#         592
  C:56ACH         LINE#         593
  C:56B3H         LINE#         599
  C:56B3H         LINE#         600
  C:56C4H         LINE#         601
  C:56C7H         LINE#         602
  C:56C7H         LINE#         603
  C:56C7H         LINE#         604
  C:56C7H         LINE#         606
  C:56C7H         LINE#         607
  C:56C7H         LINE#         609
  C:56C7H         LINE#         610
  C:56DEH         LINE#         611
  C:56DEH         LINE#         612
  C:56DEH         LINE#         613
  C:56E4H         LINE#         614
  C:56E4H         LINE#         615
  C:56EFH         LINE#         616
  C:56EFH         LINE#         617
  C:56F5H         LINE#         618
  C:56F5H         LINE#         619
  C:56FEH         LINE#         620
  C:5701H         LINE#         622
  C:5701H         LINE#         623
  C:570AH         LINE#         624
  C:570FH         LINE#         625
  C:571DH         LINE#         626
  C:5722H         LINE#         627
  C:5733H         LINE#         628
  C:5740H         LINE#         629
  C:5751H         LINE#         630
  C:5763H         LINE#         631
  C:5778H         LINE#         632
  C:5781H         LINE#         633
  C:5792H         LINE#         634
  C:5795H         LINE#         636
  C:5795H         LINE#         637
  C:579BH         LINE#         638
  C:579BH         LINE#         639
  C:57A6H         LINE#         640
  C:57A6H         LINE#         641
  C:57ACH         LINE#         642
  C:57ACH         LINE#         643
  C:57B8H         LINE#         644
  C:57B8H         LINE#         645
  C:57B8H         LINE#         646
  C:57B8H         LINE#         647
  C:57B8H         LINE#         649
  C:57B8H         LINE#         650
  C:57B8H         LINE#         653
BL51 BANKED LINKER/LOCATER V6.22.2.0                                                  06/22/2022  16:23:04  PAGE 104


  C:57B8H         LINE#         654
  C:57D3H         LINE#         656
  C:57D3H         LINE#         657
  C:57D3H         LINE#         659
  C:57D3H         LINE#         660
  C:57D3H         LINE#         661
  C:57D3H         LINE#         662
  C:57D3H         LINE#         663
  C:57DCH         LINE#         664
  C:57DEH         LINE#         672
  C:57DEH         LINE#         673
  C:57EDH         LINE#         674
  C:57EDH         LINE#         675
  C:57EDH         LINE#         676
  -------         ENDPROC       _DISPLAYOSDMENUONEITEM
  -------         PROC          CLEARCURSOR
  -------         DO            
  D:0007H         SYMBOL        cursor_y
  X:000AH         SYMBOL        addr
  -------         ENDDO         
  C:B6BEH         LINE#         678
  C:B6BEH         LINE#         679
  C:B6BEH         LINE#         684
  C:B6C6H         LINE#         688
  C:B6D7H         LINE#         689
  C:B6E7H         LINE#         690
  C:B6EAH         LINE#         692
  C:B6F9H         LINE#         693
  C:B706H         LINE#         697
  -------         ENDPROC       CLEARCURSOR
  -------         PROC          DISPLAYCURSOR
  -------         DO            
  X:000EH         SYMBOL        cursor_y
  X:000FH         SYMBOL        i
  X:0010H         SYMBOL        addr
  -------         ENDDO         
  C:95E7H         LINE#         699
  C:95E7H         LINE#         700
  C:95E7H         LINE#         701
  C:95ECH         LINE#         706
  C:95F6H         LINE#         710
  C:9609H         LINE#         711
  C:9609H         LINE#         712
  C:960EH         LINE#         713
  C:9614H         LINE#         714
  C:9622H         LINE#         715
  C:962FH         LINE#         716
  C:9637H         LINE#         718
  C:9657H         LINE#         724
  C:966AH         LINE#         725
  C:966DH         LINE#         727
  C:9679H         LINE#         729
  C:967FH         LINE#         730
  C:9681H         LINE#         732
  C:9681H         LINE#         733
  C:9684H         LINE#         734
  C:9684H         LINE#         735
BL51 BANKED LINKER/LOCATER V6.22.2.0                                                  06/22/2022  16:23:04  PAGE 105


  C:969DH         LINE#         736
  C:96A1H         LINE#         737
  C:96A3H         LINE#         739
  C:96A3H         LINE#         740
  C:96ACH         LINE#         741
  C:96C1H         LINE#         742
  C:96C1H         LINE#         743
  C:96C1H         LINE#         767
  -------         ENDPROC       DISPLAYCURSOR
  C:6942H         SYMBOL        L?0770
  C:694CH         SYMBOL        L?0772
  C:6956H         SYMBOL        L?0774
  C:6960H         SYMBOL        L?0783
  C:696AH         SYMBOL        L?0789
  C:6974H         SYMBOL        L?0797
  C:697EH         SYMBOL        L?0804
  C:6988H         SYMBOL        L?0812
  C:6992H         SYMBOL        L?0819
  C:699CH         SYMBOL        L?0839
  C:69A6H         SYMBOL        L?0849
  C:69B0H         SYMBOL        L?0889
  C:69BAH         SYMBOL        L?0955
  -------         PROC          _GETITEMVALUE
  X:0030H         SYMBOL        id
  -------         DO            
  X:0031H         SYMBOL        val
  -------         ENDDO         
  C:6783H         LINE#         773
  C:6788H         LINE#         774
  C:6788H         LINE#         775
  C:678DH         LINE#         781
  C:680AH         LINE#         798
  C:680FH         LINE#         803
  C:6818H         LINE#         820
  C:6821H         LINE#         822
  C:6821H         LINE#         823
  C:6821H         LINE#         824
  C:6821H         LINE#         825
  C:6821H         LINE#         826
  C:6821H         LINE#         827
  C:6821H         LINE#         828
  C:682DH         LINE#         829
  C:682DH         LINE#         831
  C:6830H         LINE#         832
  C:6835H         LINE#         834
  C:683AH         LINE#         835
  C:683CH         LINE#         845
  C:6848H         LINE#         846
  C:684BH         LINE#         852
  C:684BH         LINE#         853
  C:6856H         LINE#         855
  C:6859H         LINE#         856
  C:6859H         LINE#         857
  C:685EH         LINE#         858
  C:6861H         LINE#         859
  C:6861H         LINE#         860
  C:6866H         LINE#         861
BL51 BANKED LINKER/LOCATER V6.22.2.0                                                  06/22/2022  16:23:04  PAGE 106


  C:6869H         LINE#         862
  C:6869H         LINE#         863
  C:686EH         LINE#         864
  C:6871H         LINE#         865
  C:6871H         LINE#         866
  C:6876H         LINE#         867
  C:6879H         LINE#         868
  C:6879H         LINE#         869
  C:687EH         LINE#         870
  C:6881H         LINE#         871
  C:6881H         LINE#         872
  C:6886H         LINE#         873
  C:6889H         LINE#         875
  C:6889H         LINE#         876
  C:688EH         LINE#         877
  C:6891H         LINE#         878
  C:6891H         LINE#         879
  C:6896H         LINE#         880
  C:6899H         LINE#         881
  C:6899H         LINE#         882
  C:689EH         LINE#         883
  C:68A1H         LINE#         884
  C:68A1H         LINE#         885
  C:68A6H         LINE#         886
  C:68A9H         LINE#         887
  C:68A9H         LINE#         888
  C:68AEH         LINE#         889
  C:68B1H         LINE#         890
  C:68B1H         LINE#         891
  C:68B6H         LINE#         892
  C:68B9H         LINE#         893
  C:68B9H         LINE#         894
  C:68BEH         LINE#         895
  C:68C1H         LINE#         896
  C:68C1H         LINE#         897
  C:68C6H         LINE#         898
  C:68C9H         LINE#         899
  C:68C9H         LINE#         900
  C:68CEH         LINE#         901
  C:68D1H         LINE#         902
  C:68D1H         LINE#         903
  C:68D6H         LINE#         904
  C:68D9H         LINE#         927
  C:68D9H         LINE#         928
  C:68DEH         LINE#         929
  C:68E1H         LINE#         930
  C:68E1H         LINE#         931
  C:68E6H         LINE#         932
  C:68E8H         LINE#         933
  C:68E8H         LINE#         934
  C:68EDH         LINE#         936
  C:68EFH         LINE#         939
  C:68EFH         LINE#         940
  C:6900H         LINE#         941
  C:6904H         LINE#         942
  C:6906H         LINE#         1042
  C:6906H         LINE#         1043
BL51 BANKED LINKER/LOCATER V6.22.2.0                                                  06/22/2022  16:23:04  PAGE 107


  C:690BH         LINE#         1044
  C:690DH         LINE#         1045
  C:690DH         LINE#         1046
  C:6912H         LINE#         1047
  C:6914H         LINE#         1049
  C:6914H         LINE#         1050
  C:6919H         LINE#         1051
  C:691BH         LINE#         1053
  C:691BH         LINE#         1054
  C:6920H         LINE#         1055
  C:6922H         LINE#         1057
  C:6922H         LINE#         1058
  C:6927H         LINE#         1059
  C:6929H         LINE#         1061
  C:6929H         LINE#         1062
  C:692EH         LINE#         1063
  C:6930H         LINE#         1065
  C:6930H         LINE#         1066
  C:6939H         LINE#         1067
  C:6939H         LINE#         1069
  C:6939H         LINE#         1071
  C:6941H         LINE#         1072
  -------         ENDPROC       _GETITEMVALUE
  C:3420H         SYMBOL        L?0750
  C:3434H         SYMBOL        L?0751
  C:3448H         SYMBOL        L?0752
  C:345CH         SYMBOL        L?0753
  C:3470H         SYMBOL        L?0754
  C:3484H         SYMBOL        L?0755
  C:3498H         SYMBOL        L?0757
  C:34ACH         SYMBOL        L?0759
  C:34C0H         SYMBOL        L?0761
  C:34CEH         SYMBOL        L?0762
  C:34DCH         SYMBOL        L?0773
  C:34EAH         SYMBOL        L?0778
  C:34F8H         SYMBOL        L?0796
  C:3507H         SYMBOL        L?0843
  C:3510H         SYMBOL        L?0867
  C:3519H         SYMBOL        L?0890
  C:3527H         SYMBOL        L?0915
  -------         PROC          _SETITEMVALUE
  X:000EH         SYMBOL        id
  X:000FH         SYMBOL        flag
  -------         DO            
  X:0010H         SYMBOL        val
  -------         ENDDO         
  C:2BABH         LINE#         1077
  C:2BB5H         LINE#         1078
  C:2BB5H         LINE#         1079
  C:2BB8H         LINE#         1083
  C:2BC8H         LINE#         1086
  C:2C4EH         LINE#         1125
  C:2C59H         LINE#         1131
  C:2C64H         LINE#         1145
  C:2C6FH         LINE#         1147
  C:2C7CH         LINE#         1148
  C:2C89H         LINE#         1149
BL51 BANKED LINKER/LOCATER V6.22.2.0                                                  06/22/2022  16:23:04  PAGE 108


  C:2C96H         LINE#         1151
  C:2C98H         LINE#         1152
  C:2CA6H         LINE#         1153
  C:2CB4H         LINE#         1154
  C:2CC0H         LINE#         1155
  C:2CC3H         LINE#         1157
  C:2CD1H         LINE#         1161
  C:2CD5H         LINE#         1167
  C:2CDEH         LINE#         1169
  C:2CE1H         LINE#         1171
  C:2CE1H         LINE#         1172
  C:2CE1H         LINE#         1173
  C:2CE4H         LINE#         1174
  C:2CE6H         LINE#         1175
  C:2CECH         LINE#         1176
  C:2CF9H         LINE#         1177
  C:2CFCH         LINE#         1179
  C:2D06H         LINE#         1180
  C:2D06H         LINE#         1182
  C:2D1AH         LINE#         1199
  C:2D1AH         LINE#         1200
  C:2D1CH         LINE#         1205
  C:2D21H         LINE#         1206
  C:2D34H         LINE#         1208
  C:2D4AH         LINE#         1239
  C:2D51H         LINE#         1240
  C:2D53H         LINE#         1245
  C:2D56H         LINE#         1247
  C:2D56H         LINE#         1248
  C:2D58H         LINE#         1249
  C:2D5DH         LINE#         1250
  C:2D70H         LINE#         1252
  C:2D85H         LINE#         1253
  C:2D87H         LINE#         1255
  C:2D90H         LINE#         1261
  C:2D93H         LINE#         1263
  C:2D93H         LINE#         1264
  C:2D95H         LINE#         1265
  C:2D9AH         LINE#         1266
  C:2DADH         LINE#         1268
  C:2DC2H         LINE#         1269
  C:2DC7H         LINE#         1270
  C:2DCAH         LINE#         1272
  C:2DCAH         LINE#         1273
  C:2DCCH         LINE#         1274
  C:2DD1H         LINE#         1275
  C:2DE4H         LINE#         1277
  C:2DF9H         LINE#         1278
  C:2DFEH         LINE#         1279
  C:2E01H         LINE#         1281
  C:2E01H         LINE#         1282
  C:2E03H         LINE#         1283
  C:2E08H         LINE#         1284
  C:2E1BH         LINE#         1286
  C:2E30H         LINE#         1287
  C:2E32H         LINE#         1288
  C:2E3BH         LINE#         1289
BL51 BANKED LINKER/LOCATER V6.22.2.0                                                  06/22/2022  16:23:04  PAGE 109


  C:2E3EH         LINE#         1291
  C:2E3EH         LINE#         1292
  C:2E40H         LINE#         1293
  C:2E45H         LINE#         1294
  C:2E58H         LINE#         1296
  C:2E6DH         LINE#         1298
  C:2E76H         LINE#         1299
  C:2E78H         LINE#         1300
  C:2E78H         LINE#         1301
  C:2E7FH         LINE#         1302
  C:2E88H         LINE#         1303
  C:2E8EH         LINE#         1304
  C:2E90H         LINE#         1306
  C:2E90H         LINE#         1307
  C:2E99H         LINE#         1308
  C:2EA1H         LINE#         1309
  C:2EA6H         LINE#         1310
  C:2EAFH         LINE#         1311
  C:2EAFH         LINE#         1312
  C:2EB2H         LINE#         1313
  C:2EB5H         LINE#         1314
  C:2EC1H         LINE#         1315
  C:2EC1H         LINE#         1316
  C:2EC1H         LINE#         1318
  C:2EC6H         LINE#         1319
  C:2EC9H         LINE#         1321
  C:2EC9H         LINE#         1322
  C:2ECBH         LINE#         1323
  C:2ED0H         LINE#         1324
  C:2EE3H         LINE#         1326
  C:2EF8H         LINE#         1327
  C:2EFDH         LINE#         1328
  C:2F06H         LINE#         1329
  C:2F09H         LINE#         1331
  C:2F09H         LINE#         1332
  C:2F0BH         LINE#         1333
  C:2F10H         LINE#         1334
  C:2F23H         LINE#         1336
  C:2F38H         LINE#         1337
  C:2F3DH         LINE#         1339
  C:2F4AH         LINE#         1340
  C:2F4DH         LINE#         1351
  C:2F4DH         LINE#         1352
  C:2F4FH         LINE#         1353
  C:2F54H         LINE#         1354
  C:2F67H         LINE#         1356
  C:2F7CH         LINE#         1357
  C:2F81H         LINE#         1359
  C:2F8EH         LINE#         1360
  C:2F91H         LINE#         1362
  C:2F91H         LINE#         1369
  C:2F94H         LINE#         1371
  C:2F94H         LINE#         1372
  C:2F96H         LINE#         1373
  C:2F9BH         LINE#         1374
  C:2FAEH         LINE#         1376
  C:2FC3H         LINE#         1377
BL51 BANKED LINKER/LOCATER V6.22.2.0                                                  06/22/2022  16:23:04  PAGE 110


  C:2FC8H         LINE#         1379
  C:2FD5H         LINE#         1380
  C:2FD7H         LINE#         1382
  C:2FD7H         LINE#         1389
  C:2FD9H         LINE#         1391
  C:2FD9H         LINE#         1392
  C:2FDBH         LINE#         1393
  C:2FE0H         LINE#         1394
  C:2FF3H         LINE#         1396
  C:3008H         LINE#         1397
  C:300DH         LINE#         1399
  C:301AH         LINE#         1400
  C:3021H         LINE#         1402
  C:3025H         LINE#         1409
  C:3028H         LINE#         1427
  C:3028H         LINE#         1428
  C:302AH         LINE#         1429
  C:302FH         LINE#         1430
  C:302FH         LINE#         1431
  C:303DH         LINE#         1432
  C:3040H         LINE#         1433
  C:3042H         LINE#         1435
  C:3042H         LINE#         1436
  C:3050H         LINE#         1437
  C:3056H         LINE#         1438
  C:3056H         LINE#         1439
  C:305BH         LINE#         1440
  C:305EH         LINE#         1442
  C:305EH         LINE#         1443
  C:3060H         LINE#         1444
  C:3065H         LINE#         1445
  C:3065H         LINE#         1446
  C:3073H         LINE#         1447
  C:3076H         LINE#         1448
  C:3078H         LINE#         1450
  C:3078H         LINE#         1451
  C:3086H         LINE#         1452
  C:308CH         LINE#         1453
  C:308CH         LINE#         1454
  C:3091H         LINE#         1455
  C:3094H         LINE#         1457
  C:3094H         LINE#         1458
  C:3096H         LINE#         1459
  C:309BH         LINE#         1460
  C:309BH         LINE#         1461
  C:30A9H         LINE#         1462
  C:30ACH         LINE#         1463
  C:30AEH         LINE#         1465
  C:30AEH         LINE#         1466
  C:30BCH         LINE#         1467
  C:30C2H         LINE#         1468
  C:30C2H         LINE#         1469
  C:30C7H         LINE#         1470
  C:30CAH         LINE#         1473
  C:30CAH         LINE#         1474
  C:30CCH         LINE#         1475
  C:30D1H         LINE#         1476
BL51 BANKED LINKER/LOCATER V6.22.2.0                                                  06/22/2022  16:23:04  PAGE 111


  C:30D1H         LINE#         1480
  C:30DDH         LINE#         1482
  C:30E3H         LINE#         1484
  C:30E6H         LINE#         1485
  C:30E8H         LINE#         1487
  C:30E8H         LINE#         1488
  C:30EDH         LINE#         1489
  C:30F6H         LINE#         1491
  C:30F6H         LINE#         1495
  C:30FCH         LINE#         1497
  C:30FCH         LINE#         1498
  C:30FCH         LINE#         1499
  C:3101H         LINE#         1500
  C:3104H         LINE#         1502
  C:3104H         LINE#         1503
  C:3109H         LINE#         1504
  C:310EH         LINE#         1505
  C:3121H         LINE#         1507
  C:3136H         LINE#         1508
  C:313BH         LINE#         1510
  C:313EH         LINE#         1648
  C:313EH         LINE#         1649
  C:3143H         LINE#         1650
  C:3148H         LINE#         1651
  C:3148H         LINE#         1652
  C:3156H         LINE#         1653
  C:3159H         LINE#         1654
  C:315BH         LINE#         1656
  C:315BH         LINE#         1657
  C:3169H         LINE#         1658
  C:316FH         LINE#         1659
  C:316FH         LINE#         1661
  C:3174H         LINE#         1673
  C:3177H         LINE#         1676
  C:3177H         LINE#         1677
  C:317CH         LINE#         1678
  C:3181H         LINE#         1679
  C:3181H         LINE#         1680
  C:3193H         LINE#         1682
  C:3199H         LINE#         1684
  C:319BH         LINE#         1686
  C:319BH         LINE#         1687
  C:31ADH         LINE#         1689
  C:31B3H         LINE#         1691
  C:31B3H         LINE#         1693
  C:31B8H         LINE#         1694
  C:31C1H         LINE#         1695
  C:31C4H         LINE#         1699
  C:31C4H         LINE#         1700
  C:31C9H         LINE#         1702
  C:31CEH         LINE#         1703
  C:31E1H         LINE#         1705
  C:31F6H         LINE#         1708
  C:3200H         LINE#         1709
  C:320EH         LINE#         1710
  C:3211H         LINE#         2125
  C:3211H         LINE#         2126
BL51 BANKED LINKER/LOCATER V6.22.2.0                                                  06/22/2022  16:23:04  PAGE 112


  C:3216H         LINE#         2127
  C:321BH         LINE#         2128
  C:321BH         LINE#         2129
  C:322DH         LINE#         2130
  C:3230H         LINE#         2131
  C:3232H         LINE#         2133
  C:3232H         LINE#         2134
  C:3240H         LINE#         2135
  C:3246H         LINE#         2136
  C:3246H         LINE#         2137
  C:324DH         LINE#         2138
  C:324FH         LINE#         2139
  C:3252H         LINE#         2141
  C:3252H         LINE#         2142
  C:3257H         LINE#         2143
  C:325CH         LINE#         2144
  C:326FH         LINE#         2146
  C:3284H         LINE#         2147
  C:328BH         LINE#         2148
  C:328DH         LINE#         2149
  C:328FH         LINE#         2151
  C:328FH         LINE#         2152
  C:3299H         LINE#         2153
  C:329EH         LINE#         2154
  C:329EH         LINE#         2155
  C:32ACH         LINE#         2156
  C:32AFH         LINE#         2157
  C:32B1H         LINE#         2159
  C:32B1H         LINE#         2160
  C:32BFH         LINE#         2161
  C:32C5H         LINE#         2162
  C:32C5H         LINE#         2163
  C:32CCH         LINE#         2164
  C:32D0H         LINE#         2165
  C:32D3H         LINE#         2167
  C:32D3H         LINE#         2168
  C:32DBH         LINE#         2169
  C:32E0H         LINE#         2170
  C:32E0H         LINE#         2171
  C:32EEH         LINE#         2172
  C:32F3H         LINE#         2173
  C:32F5H         LINE#         2175
  C:32F5H         LINE#         2176
  C:330AH         LINE#         2177
  C:3310H         LINE#         2178
  C:3310H         LINE#         2179
  C:3319H         LINE#         2180
  C:331FH         LINE#         2181
  C:3322H         LINE#         2183
  C:3322H         LINE#         2184
  C:3327H         LINE#         2185
  C:332CH         LINE#         2186
  C:332CH         LINE#         2187
  C:3334H         LINE#         2188
  C:333AH         LINE#         2190
  C:3340H         LINE#         2191
  C:3342H         LINE#         2193
BL51 BANKED LINKER/LOCATER V6.22.2.0                                                  06/22/2022  16:23:04  PAGE 113


  C:3342H         LINE#         2194
  C:3347H         LINE#         2195
  C:3350H         LINE#         2197
  C:3353H         LINE#         2198
  C:3353H         LINE#         2199
  C:335AH         LINE#         2200
  C:335DH         LINE#         2202
  C:335DH         LINE#         2203
  C:3362H         LINE#         2204
  C:3367H         LINE#         2205
  C:3367H         LINE#         2206
  C:336FH         LINE#         2207
  C:3375H         LINE#         2209
  C:337BH         LINE#         2210
  C:337DH         LINE#         2212
  C:337DH         LINE#         2213
  C:3382H         LINE#         2214
  C:338BH         LINE#         2216
  C:338EH         LINE#         2217
  C:338EH         LINE#         2218
  C:3395H         LINE#         2219
  C:3398H         LINE#         2221
  C:3398H         LINE#         2222
  C:33A2H         LINE#         2223
  C:33A7H         LINE#         2224
  C:33A7H         LINE#         2225
  C:33AFH         LINE#         2226
  C:33B5H         LINE#         2228
  C:33BBH         LINE#         2229
  C:33BDH         LINE#         2231
  C:33BDH         LINE#         2232
  C:33C2H         LINE#         2233
  C:33CBH         LINE#         2235
  C:33CEH         LINE#         2236
  C:33CEH         LINE#         2237
  C:33D5H         LINE#         2238
  C:33D7H         LINE#         2240
  C:33D7H         LINE#         2241
  C:33E1H         LINE#         2242
  C:33E6H         LINE#         2243
  C:33E6H         LINE#         2244
  C:33EEH         LINE#         2245
  C:33F4H         LINE#         2247
  C:33FAH         LINE#         2248
  C:33FCH         LINE#         2250
  C:33FCH         LINE#         2251
  C:3401H         LINE#         2252
  C:340AH         LINE#         2254
  C:340DH         LINE#         2255
  C:340DH         LINE#         2256
  C:3417H         LINE#         2257
  C:3417H         LINE#         2260
  C:3417H         LINE#         2262
  C:341FH         LINE#         2263
  -------         ENDPROC       _SETITEMVALUE
  -------         PROC          _DISPLAYVIEWBAR
  X:0030H         SYMBOL        addr
BL51 BANKED LINKER/LOCATER V6.22.2.0                                                  06/22/2022  16:23:04  PAGE 114


  X:0032H         SYMBOL        val
  -------         DO            
  C:1678H         SYMBOL        BAR_ROM_TABLE
  X:0033H         SYMBOL        i
  X:0034H         SYMBOL        Bar_str
  -------         ENDDO         
  C:9EF7H         LINE#         2266
  C:9EFFH         LINE#         2267
  C:9EFFH         LINE#         2288
  C:9F02H         LINE#         2290
  C:9F14H         LINE#         2296
  C:9F21H         LINE#         2297
  C:9F21H         LINE#         2298
  C:9F39H         LINE#         2300
  C:9F47H         LINE#         2301
  C:9F5BH         LINE#         2303
  C:9F5BH         LINE#         2306
  C:9F63H         LINE#         2307
  C:9F66H         LINE#         2310
  C:9F76H         LINE#         2311
  C:9F83H         LINE#         2312
  C:9F8AH         LINE#         2313
  C:9F90H         LINE#         2375
  -------         ENDPROC       _DISPLAYVIEWBAR
  -------         PROC          _AWT_DISPLAYVIEWBAR
  X:0030H         SYMBOL        addr
  X:0032H         SYMBOL        val
  -------         DO            
  X:0033H         SYMBOL        i
  X:0034H         SYMBOL        Bar_str
  -------         ENDDO         
  C:A7EEH         LINE#         2382
  C:A7F6H         LINE#         2383
  C:A7F6H         LINE#         2387
  C:A803H         LINE#         2389
  C:A80BH         LINE#         2390
  C:A80BH         LINE#         2391
  C:A816H         LINE#         2392
  C:A816H         LINE#         2393
  C:A816H         LINE#         2394
  C:A81BH         LINE#         2395
  C:A81BH         LINE#         2396
  C:A81DH         LINE#         2398
  C:A81DH         LINE#         2399
  C:A823H         LINE#         2400
  C:A829H         LINE#         2401
  C:A82BH         LINE#         2403
  C:A82BH         LINE#         2404
  C:A831H         LINE#         2405
  C:A836H         LINE#         2406
  C:A836H         LINE#         2408
  C:A836H         LINE#         2409
  C:A836H         LINE#         2410
  C:A836H         LINE#         2412
  C:A83EH         LINE#         2413
  C:A853H         LINE#         2414
  C:A853H         LINE#         2417
BL51 BANKED LINKER/LOCATER V6.22.2.0                                                  06/22/2022  16:23:04  PAGE 115


  C:A85DH         LINE#         2418
  C:A863H         LINE#         2457
  -------         ENDPROC       _AWT_DISPLAYVIEWBAR
  -------         PROC          _DRAWNUM
  X:0030H         SYMBOL        addr
  X:0032H         SYMBOL        nptr
  X:0035H         SYMBOL        val
  -------         DO            
  X:0037H         SYMBOL        x
  X:0038H         SYMBOL        i
  X:0039H         SYMBOL        j
  X:003AH         SYMBOL        k
  D:0007H         SYMBOL        len
  X:003BH         SYMBOL        mstr
  X:0040H         SYMBOL        Num_str
  X:004CH         SYMBOL        str
  -------         ENDDO         
  C:9349H         LINE#         2460
  C:9352H         LINE#         2461
  C:9352H         LINE#         2463
  C:935DH         LINE#         2466
  C:9363H         LINE#         2467
  C:9375H         LINE#         2468
  C:937AH         LINE#         2469
  C:9383H         LINE#         2472
  C:9386H         LINE#         2473
  C:9399H         LINE#         2474
  C:93A9H         LINE#         2476
  C:93BCH         LINE#         2477
  C:93C5H         LINE#         2478
  C:93D1H         LINE#         2479
  C:93DFH         LINE#         2480
  C:93F1H         LINE#         2483
  C:93F7H         LINE#         2484
  C:9406H         LINE#         2485
  C:9419H         LINE#         2486
  -------         ENDPROC       _DRAWNUM
  C:9849H         SYMBOL        L?0850
  -------         PROC          _DRAWSTRINGBYLANG
  X:0030H         SYMBOL        addr
  X:0032H         SYMBOL        yptr
  X:0035H         SYMBOL        val
  -------         DO            
  X:0037H         SYMBOL        j
  D:0005H         SYMBOL        l
  X:0038H         SYMBOL        Size_val
  X:0039H         SYMBOL        Buf
  X:0045H         SYMBOL        Str
  -------         ENDDO         
  C:9795H         LINE#         2490
  C:979EH         LINE#         2491
  C:979EH         LINE#         2494
  C:97A9H         LINE#         2497
  C:97B6H         LINE#         2498
  C:97BFH         LINE#         2500
  C:97CDH         LINE#         2501
  C:97CDH         LINE#         2502
BL51 BANKED LINKER/LOCATER V6.22.2.0                                                  06/22/2022  16:23:04  PAGE 116


  C:97ECH         LINE#         2503
  C:97F1H         LINE#         2504
  C:97F1H         LINE#         2506
  C:97FBH         LINE#         2507
  C:9813H         LINE#         2508
  C:9818H         LINE#         2509
  C:9818H         LINE#         2511
  C:9828H         LINE#         2513
  C:9833H         LINE#         2515
  C:9849H         LINE#         2517
  -------         ENDPROC       _DRAWSTRINGBYLANG
  -------         PROC          _DRAWMENULIST
  X:0011H         SYMBOL        NOTViewflag
  -------         DO            
  X:0012H         SYMBOL        i
  X:0013H         SYMBOL        j
  X:0014H         SYMBOL        k
  X:0015H         SYMBOL        x
  X:0016H         SYMBOL        y
  D:0001H         SYMBOL        DMp
  X:0017H         SYMBOL        Desc
  X:001AH         SYMBOL        Max_y
  X:001BH         SYMBOL        addr
  -------         ENDDO         
  C:7180H         LINE#         2545
  C:7185H         LINE#         2546
  C:7185H         LINE#         2547
  C:718CH         LINE#         2557
  C:719BH         LINE#         2563
  C:71AEH         LINE#         2564
  C:71B7H         LINE#         2565
  C:71BFH         LINE#         2567
  C:71D6H         LINE#         2568
  C:71FBH         LINE#         2574
  C:720FH         LINE#         2575
  C:7224H         LINE#         2582
  C:723FH         LINE#         2585
  C:7245H         LINE#         2586
  C:7245H         LINE#         2588
  C:7256H         LINE#         2589
  C:725CH         LINE#         2595
  C:7272H         LINE#         2597
  C:7288H         LINE#         2598
  C:729FH         LINE#         2600
  C:72A5H         LINE#         2601
  C:72A7H         LINE#         2602
  C:72B0H         LINE#         2603
  C:72B0H         LINE#         2605
  C:72BDH         LINE#         2607
  C:72C5H         LINE#         2608
  C:72F7H         LINE#         2609
  C:7307H         LINE#         2610
  C:7309H         LINE#         2611
  C:7309H         LINE#         2615
  C:731AH         LINE#         2617
  C:731AH         LINE#         2618
  C:732CH         LINE#         2619
BL51 BANKED LINKER/LOCATER V6.22.2.0                                                  06/22/2022  16:23:04  PAGE 117


  C:7335H         LINE#         2621
  C:733BH         LINE#         2622
  C:733DH         LINE#         2623
  C:7345H         LINE#         2624
  C:7345H         LINE#         2633
  -------         ENDPROC       _DRAWMENULIST
  -------         PROC          DISPLAYOSDMENU
  C:909DH         LINE#         2639
  C:909DH         LINE#         2640
  C:909DH         LINE#         2657
  C:90A7H         LINE#         2661
  C:90C5H         LINE#         2662
  C:90CBH         LINE#         2664
  C:90CBH         LINE#         2665
  C:910DH         LINE#         2667
  C:910DH         LINE#         2668
  C:9115H         LINE#         2669
  C:911BH         LINE#         2670
  C:911DH         LINE#         2672
  C:9128H         LINE#         2673
  C:9128H         LINE#         2680
  C:912DH         LINE#         2683
  C:9132H         LINE#         2684
  C:9132H         LINE#         2685
  C:9135H         LINE#         2686
  C:913BH         LINE#         2687
  C:913FH         LINE#         2689
  C:9152H         LINE#         2690
  C:9155H         LINE#         2691
  C:915BH         LINE#         2693
  C:9160H         LINE#         2695
  C:9163H         LINE#         2696
  C:9176H         LINE#         2697
  C:9179H         LINE#         2698
  C:917FH         LINE#         2699
  C:917FH         LINE#         2705
  -------         ENDPROC       DISPLAYOSDMENU
  -------         PROC          OSDHIGHMENU_SUB
  -------         DO            
  X:0009H         SYMBOL        temp_cursor
  -------         ENDDO         
  C:9E50H         LINE#         2708
  C:9E50H         LINE#         2709
  C:9E50H         LINE#         2715
  C:9E58H         LINE#         2716
  C:9E62H         LINE#         2717
  C:9E6AH         LINE#         2719
  C:9E70H         LINE#         2720
  C:9E73H         LINE#         2722
  C:9E73H         LINE#         2723
  C:9E79H         LINE#         2724
  C:9E80H         LINE#         2725
  C:9E88H         LINE#         2733
  C:9E88H         LINE#         2736
  C:9E9EH         LINE#         2739
  C:9EC2H         LINE#         2741
  C:9EC8H         LINE#         2743
BL51 BANKED LINKER/LOCATER V6.22.2.0                                                  06/22/2022  16:23:04  PAGE 118


  C:9ECDH         LINE#         2744
  C:9ED3H         LINE#         2745
  C:9ED6H         LINE#         2746
  C:9ED8H         LINE#         2748
  C:9ED8H         LINE#         2749
  C:9EDDH         LINE#         2750
  C:9EE0H         LINE#         2751
  C:9EE0H         LINE#         2754
  C:9EE5H         LINE#         2755
  C:9EEDH         LINE#         2756
  C:9EF6H         LINE#         2757
  C:9EF6H         LINE#         2760
  -------         ENDPROC       OSDHIGHMENU_SUB
  C:A538H         SYMBOL        L?0925
  -------         PROC          _DOACTION
  D:0007H         SYMBOL        id
  -------         DO            
  X:0008H         SYMBOL        ret
  -------         ENDDO         
  C:A4AFH         LINE#         2763
  C:A4AFH         LINE#         2764
  C:A4AFH         LINE#         2765
  C:A4B5H         LINE#         2770
  C:A4D5H         LINE#         2772
  C:A4D5H         LINE#         2773
  C:A4D5H         LINE#         2774
  C:A4D5H         LINE#         2785
  C:A4DCH         LINE#         2786
  C:A4DEH         LINE#         2827
  C:A4DEH         LINE#         2831
  C:A4DEH         LINE#         2832
  C:A4DEH         LINE#         2834
  C:A4E1H         LINE#         2843
  C:A4E3H         LINE#         2866
  C:A4E5H         LINE#         2876
  C:A4E5H         LINE#         2877
  C:A4E5H         LINE#         2879
  C:A4E5H         LINE#         2880
  C:A4E5H         LINE#         2882
  C:A4E8H         LINE#         2884
  C:A4EBH         LINE#         2885
  C:A4F9H         LINE#         2886
  C:A4FBH         LINE#         2910
  C:A4FEH         LINE#         2911
  C:A500H         LINE#         2931
  C:A500H         LINE#         2932
  C:A503H         LINE#         2933
  C:A505H         LINE#         2934
  C:A507H         LINE#         2936
  C:A50AH         LINE#         2938
  C:A516H         LINE#         2939
  C:A51CH         LINE#         2941
  C:A51FH         LINE#         2943
  C:A521H         LINE#         2946
  C:A526H         LINE#         2947
  C:A52AH         LINE#         2948
  C:A52EH         LINE#         2949
BL51 BANKED LINKER/LOCATER V6.22.2.0                                                  06/22/2022  16:23:04  PAGE 119


  C:A532H         LINE#         2954
  C:A532H         LINE#         3214
  C:A532H         LINE#         3215
  C:A537H         LINE#         3216
  -------         ENDPROC       _DOACTION
  -------         PROC          _GETNEXTCURSORMENUITEM
  D:0001H         SYMBOL        DMp
  D:0005H         SYMBOL        itemno
  X:000EH         SYMBOL        flag
  -------         DO            
  D:0006H         SYMBOL        new_cursor
  -------         ENDDO         
  C:C2E2H         LINE#         3219
  C:C2E2H         LINE#         3220
  C:C2E2H         LINE#         3223
  C:C2EDH         LINE#         3224
  C:C2F6H         LINE#         3225
  C:C2FBH         LINE#         3226
  C:C2FBH         LINE#         3227
  C:C2FDH         LINE#         3228
  -------         ENDPROC       _GETNEXTCURSORMENUITEM
  -------         PROC          SAVEVALUE1
  C:C0B9H         LINE#         3233
  C:C0B9H         LINE#         3234
  C:C0B9H         LINE#         3237
  C:C0D3H         LINE#         3239
  C:C0D3H         LINE#         3240
  C:C0DEH         LINE#         3244
  C:C0DEH         LINE#         3246
  C:C0DEH         LINE#         3248
  C:C0DEH         LINE#         3249
  C:C0DEH         LINE#         3251
  C:C0E0H         LINE#         3252
  -------         ENDPROC       SAVEVALUE1
  -------         PROC          CLEARVALUEWIN
  C:C534H         LINE#         3254
  C:C534H         LINE#         3255
  C:C534H         LINE#         3256
  C:C537H         LINE#         3258
  C:C53DH         LINE#         3259
  C:C53FH         LINE#         3260
  -------         ENDPROC       CLEARVALUEWIN
  C:7178H         SYMBOL        L?0909
  -------         PROC          _OSDCURSORMOVE
  X:0006H         SYMBOL        flag
  -------         DO            
  X:0007H         SYMBOL        new_cursor
  X:0008H         SYMBOL        old_cursor
  D:0002H         SYMBOL        dat
  B:0024H.1       SYMBOL        OSDLANG_Changing
  -------         DO            
  X:0009H         SYMBOL        i
  -------         ENDDO         
  -------         ENDDO         
  C:6FB0H         LINE#         3262
  C:6FB5H         LINE#         3263
  C:6FB5H         LINE#         3270
BL51 BANKED LINKER/LOCATER V6.22.2.0                                                  06/22/2022  16:23:04  PAGE 120


  C:6FB7H         LINE#         3276
  C:6FBDH         LINE#         3278
  C:6FE1H         LINE#         3281
  C:7005H         LINE#         3283
  C:701DH         LINE#         3285
  C:7020H         LINE#         3287
  C:7028H         LINE#         3288
  C:703AH         LINE#         3289
  C:703FH         LINE#         3290
  C:704FH         LINE#         3292
  C:704FH         LINE#         3295
  C:7054H         LINE#         3296
  C:7054H         LINE#         3298
  C:7057H         LINE#         3299
  C:705AH         LINE#         3300
  C:705AH         LINE#         3301
  C:705FH         LINE#         3302
  C:7062H         LINE#         3388
  C:7090H         LINE#         3390
  C:7090H         LINE#         3391
  C:7094H         LINE#         3392
  C:709AH         LINE#         3393
  C:709AH         LINE#         3394
  C:70CAH         LINE#         3396
  C:70CAH         LINE#         3397
  C:70CFH         LINE#         3398
  C:70D4H         LINE#         3399
  C:70D4H         LINE#         3402
  C:70DCH         LINE#         3403
  C:70E4H         LINE#         3404
  C:70E9H         LINE#         3405
  C:70E9H         LINE#         3406
  C:70ECH         LINE#         3408
  C:70F1H         LINE#         3409
  C:70FAH         LINE#         3410
  C:7101H         LINE#         3419
  C:710AH         LINE#         3421
  C:7124H         LINE#         3426
  C:712BH         LINE#         3429
  C:7130H         LINE#         3433
  C:713EH         LINE#         3435
  C:7141H         LINE#         3436
  C:7148H         LINE#         3438
  C:7151H         LINE#         3439
  C:715AH         LINE#         3442
  C:715AH         LINE#         3444
  C:715AH         LINE#         3445
  C:7170H         LINE#         3446
  C:7174H         LINE#         3447
  C:7177H         LINE#         3448
  C:7177H         LINE#         3456
  -------         ENDPROC       _OSDCURSORMOVE
  C:83D6H         SYMBOL        L?0847
  -------         PROC          _OSDVALUEUPDN
  X:0006H         SYMBOL        flag
  -------         DO            
  X:0007H         SYMBOL        ptr
BL51 BANKED LINKER/LOCATER V6.22.2.0                                                  06/22/2022  16:23:04  PAGE 121


  X:000AH         SYMBOL        val
  X:000CH         SYMBOL        addr
  -------         ENDDO         
  C:82CDH         LINE#         3458
  C:82D2H         LINE#         3459
  C:82D2H         LINE#         3465
  C:82D8H         LINE#         3466
  C:8304H         LINE#         3468
  C:8323H         LINE#         3470
  C:8323H         LINE#         3471
  C:8347H         LINE#         3474
  C:836DH         LINE#         3476
  C:8373H         LINE#         3479
  C:8379H         LINE#         3480
  C:8379H         LINE#         3490
  C:8379H         LINE#         3491
  C:8388H         LINE#         3492
  C:839BH         LINE#         3499
  C:839BH         LINE#         3500
  C:839BH         LINE#         3501
  C:83A5H         LINE#         3502
  C:83A5H         LINE#         3503
  C:83A5H         LINE#         3505
  C:83A5H         LINE#         3527
  C:83A5H         LINE#         3528
  C:83B4H         LINE#         3529
  C:83C7H         LINE#         3530
  C:83D5H         LINE#         3531
  C:83D5H         LINE#         3533
  C:83D5H         LINE#         3534
  C:83D5H         LINE#         3535
  -------         ENDPROC       _OSDVALUEUPDN
  -------         PROC          CLOSEOSDMENU
  -------         DO            
  X:0017H         SYMBOL        i
  -------         ENDDO         
  C:BAA6H         LINE#         3537
  C:BAA6H         LINE#         3538
  C:BAA6H         LINE#         3542
  C:BAABH         LINE#         3545
  C:BAAEH         LINE#         3546
  C:BABCH         LINE#         3547
  C:BABCH         LINE#         3548
  C:BAC6H         LINE#         3549
  C:BACFH         LINE#         3550
  C:BAD7H         LINE#         3552
  C:BADCH         LINE#         3558
  C:BADFH         LINE#         3576
  C:BAE1H         LINE#         3577
  -------         ENDPROC       CLOSEOSDMENU
  -------         PROC          INITOSDMENUXY
  -------         DO            
  X:000EH         SYMBOL        val
  X:0010H         SYMBOL        addx
  X:0012H         SYMBOL        addy
  X:0014H         SYMBOL        winno
  -------         ENDDO         
BL51 BANKED LINKER/LOCATER V6.22.2.0                                                  06/22/2022  16:23:04  PAGE 122


  C:B1D1H         LINE#         3579
  C:B1D1H         LINE#         3580
  C:B1D1H         LINE#         3584
  C:B1E2H         LINE#         3585
  C:B1F3H         LINE#         3595
  C:B1FFH         LINE#         3597
  C:B202H         LINE#         3598
  C:B20FH         LINE#         3600
  C:B217H         LINE#         3601
  C:B224H         LINE#         3602
  C:B22CH         LINE#         3603
  -------         ENDPROC       INITOSDMENUXY
  -------         PROC          OPENOSDMENU
  -------         DO            
  X:0006H         SYMBOL        i
  -------         ENDDO         
  C:BE5BH         LINE#         3609
  C:BE5BH         LINE#         3611
  C:BE5BH         LINE#         3616
  C:BE5EH         LINE#         3617
  C:BE5EH         LINE#         3621
  C:BE61H         LINE#         3623
  C:BE61H         LINE#         3631
  C:BE70H         LINE#         3633
  C:BE70H         LINE#         3634
  C:BE75H         LINE#         3635
  C:BE7DH         LINE#         3637
  C:BE84H         LINE#         3638
  C:BE89H         LINE#         3639
  -------         ENDPROC       OPENOSDMENU
  -------         PROC          INITOSDMENU
  -------         DO            
  X:000DH         SYMBOL        i
  -------         ENDDO         
  C:A6E8H         LINE#         3702
  C:A6E8H         LINE#         3704
  C:A6E8H         LINE#         3706
  C:A6EDH         LINE#         3709
  C:A6F5H         LINE#         3711
  C:A6F8H         LINE#         3728
  C:A6F8H         LINE#         3748
  C:A702H         LINE#         3750
  C:A702H         LINE#         3751
  C:A702H         LINE#         3753
  C:A705H         LINE#         3754
  C:A709H         LINE#         3755
  C:A722H         LINE#         3757
  C:A728H         LINE#         3758
  C:A72DH         LINE#         3760
  C:A730H         LINE#         3761
  C:A735H         LINE#         3763
  C:A73BH         LINE#         3764
  C:A73EH         LINE#         3765
  C:A740H         LINE#         3773
  C:A749H         LINE#         3774
  C:A751H         LINE#         3778
  C:A758H         LINE#         3780
BL51 BANKED LINKER/LOCATER V6.22.2.0                                                  06/22/2022  16:23:04  PAGE 123


  C:A75EH         LINE#         3781
  C:A765H         LINE#         3783
  C:A768H         LINE#         3787
  -------         ENDPROC       INITOSDMENU
  -------         PROC          OSDHIGHMENU
  C:002EH         LINE#         3790
  C:002EH         LINE#         3791
  C:002EH         LINE#         3796
  C:0031H         LINE#         3797
  C:0031H         LINE#         3799
  C:0034H         LINE#         3801
  C:0039H         LINE#         3802
  C:003CH         LINE#         3805
  C:003CH         LINE#         3807
  C:003EH         LINE#         3808
  C:0057H         LINE#         3810
  C:005FH         LINE#         3811
  C:0062H         LINE#         3820
  -------         ENDPROC       OSDHIGHMENU
  -------         PROC          OSDSELECT
  -------         DO            
  D:0007H         SYMBOL        ret
  X:0006H         SYMBOL        addr
  -------         ENDDO         
  C:7815H         LINE#         3822
  C:7815H         LINE#         3823
  C:7815H         LINE#         3827
  C:7820H         LINE#         3828
  C:783CH         LINE#         3830
  C:7865H         LINE#         3834
  C:787EH         LINE#         3835
  C:7884H         LINE#         3837
  C:78B6H         LINE#         3838
  C:78B6H         LINE#         3839
  C:78C5H         LINE#         3842
  C:78C5H         LINE#         3843
  C:78C8H         LINE#         3844
  C:78CBH         LINE#         3845
  C:78CBH         LINE#         3847
  C:78CBH         LINE#         3848
  C:78CBH         LINE#         3849
  C:78CDH         LINE#         3850
  C:78D0H         LINE#         3851
  C:78E6H         LINE#         3890
  C:78E6H         LINE#         3891
  C:78E8H         LINE#         3893
  C:78FBH         LINE#         3894
  C:78FBH         LINE#         3895
  C:78FBH         LINE#         3898
  C:78FEH         LINE#         3899
  C:78FEH         LINE#         3902
  C:78FEH         LINE#         3903
  C:78FEH         LINE#         3904
  C:7903H         LINE#         3905
  C:791DH         LINE#         3908
  C:7926H         LINE#         3909
  C:792FH         LINE#         3910
BL51 BANKED LINKER/LOCATER V6.22.2.0                                                  06/22/2022  16:23:04  PAGE 124


  C:792FH         LINE#         3912
  C:7935H         LINE#         3914
  C:7938H         LINE#         3915
  C:7938H         LINE#         3916
  C:793FH         LINE#         3918
  C:7956H         LINE#         3919
  C:795EH         LINE#         3920
  C:7974H         LINE#         3922
  C:797CH         LINE#         3923
  C:7981H         LINE#         3925
  C:7984H         LINE#         3927
  C:7987H         LINE#         3928
  C:7987H         LINE#         3929
  C:7987H         LINE#         3931
  -------         ENDPROC       OSDSELECT
  -------         PROC          _CAMOUTDSEL
  X:0009H         SYMBOL        val
  C:B53EH         LINE#         3951
  C:B543H         LINE#         3952
  C:B543H         LINE#         3953
  C:B545H         LINE#         3954
  C:B54DH         LINE#         3955
  C:B555H         LINE#         3956
  C:B55DH         LINE#         3957
  C:B565H         LINE#         3958
  C:B56DH         LINE#         3959
  C:B575H         LINE#         3960
  C:B57DH         LINE#         3961
  C:B585H         LINE#         3962
  C:B58EH         LINE#         3963
  -------         ENDPROC       _CAMOUTDSEL
  -------         ENDMOD        OSDMENU

  -------         MODULE        PC_EEP
  C:0000H         SYMBOL        _ICE_DUMMY_
  -------         ENDMOD        PC_EEP

  -------         MODULE        PRINTF
  C:0000H         SYMBOL        _ICE_DUMMY_
  D:00E8H         PUBLIC        P4
  C:C498H         PUBLIC        Hex
  C:C3DBH         PUBLIC        _Puts
  D:0099H         PUBLIC        SBUF
  C:5F6AH         PUBLIC        _DoPrint
  C:BE8EH         PUBLIC        _Printf
  C:ADFFH         SYMBOL        Com005C
  C:ADFFH         SYMBOL        L?0093
  C:ADFFH         SYMBOL        L?0094
  C:AE02H         SYMBOL        L?0095
  C:AE03H         SYMBOL        L?0096
  C:AE0CH         SYMBOL        L?0097
  C:AE0CH         SYMBOL        L?0098
  C:AE0FH         SYMBOL        L?0099
  C:AE1DH         SYMBOL        L?0100
  C:AE1DH         SYMBOL        L?0101
  C:AE23H         SYMBOL        L?0102
  C:AE29H         SYMBOL        L?0103
BL51 BANKED LINKER/LOCATER V6.22.2.0                                                  06/22/2022  16:23:04  PAGE 125


  C:AE29H         SYMBOL        L?0104
  C:AE2FH         SYMBOL        L?0105
  C:AE2FH         SYMBOL        L?0106
  C:AE35H         SYMBOL        L?0107
  C:AE35H         SYMBOL        L?0108
  C:AE3FH         SYMBOL        L?0109
  C:AE42H         SYMBOL        L?0110
  C:AE49H         SYMBOL        L?0111
  C:AE4DH         SYMBOL        L?0112
  C:AE53H         SYMBOL        L?0113
  C:AE60H         SYMBOL        L?0114
  C:AE60H         SYMBOL        L?0115
  -------         PROC          COM005C
  -------         ENDPROC       COM005C
  -------         PROC          _DOPRINT
  X:0047H         SYMBOL        fmt
  X:004AH         SYMBOL        ap
  -------         DO            
  X:004DH         SYMBOL        ch
  X:004EH         SYMBOL        i
  X:004FH         SYMBOL        value
  B:0024H.1       SYMBOL        fl_zero
  B:0024H.2       SYMBOL        fl_num
  X:0053H         SYMBOL        fl_len
  X:0054H         SYMBOL        cnt
  X:0055H         SYMBOL        mask
  X:0059H         SYMBOL        ptr
  -------         ENDDO         
  C:5F6AH         LINE#         17
  C:5F70H         LINE#         18
  C:5F70H         LINE#         26
  C:5F7AH         LINE#         32
  C:5F7AH         LINE#         36
  C:5F8AH         LINE#         37
  C:5F8AH         LINE#         38
  C:5F93H         LINE#         39
  C:5F9DH         LINE#         40
  C:5FAAH         LINE#         41
  C:5FAAH         LINE#         42
  C:5FAAH         LINE#         46
  C:5FACH         LINE#         47
  C:5FAEH         LINE#         48
  C:5FB3H         LINE#         50
  C:5FBDH         LINE#         52
  C:5FC2H         LINE#         53
  C:5FC4H         LINE#         54
  C:5FCBH         LINE#         55
  C:5FCBH         LINE#         56
  C:5FCBH         LINE#         57
  C:5FCDH         LINE#         58
  C:5FE9H         LINE#         59
  C:5FF3H         LINE#         60
  C:5FFAH         LINE#         61
  C:5FFAH         LINE#         65
  C:6000H         LINE#         67
  C:6014H         LINE#         68
  C:6014H         LINE#         69
BL51 BANKED LINKER/LOCATER V6.22.2.0                                                  06/22/2022  16:23:04  PAGE 126


  C:6023H         LINE#         70
  C:6023H         LINE#         71
  C:6030H         LINE#         72
  C:6030H         LINE#         76
  C:605CH         LINE#         78
  C:605CH         LINE#         79
  C:605CH         LINE#         81
  C:606CH         LINE#         82
  C:606CH         LINE#         83
  C:607FH         LINE#         84
  C:6087H         LINE#         85
  C:6089H         LINE#         87
  C:6089H         LINE#         88
  C:609EH         LINE#         89
  C:60A4H         LINE#         90
  C:60A6H         LINE#         92
  C:60A6H         LINE#         93
  C:60AAH         LINE#         94
  C:60B3H         LINE#         95
  C:60B3H         LINE#         96
  C:60B3H         LINE#         98
  C:60BAH         LINE#         99
  C:60C2H         LINE#         100
  C:60D1H         LINE#         101
  C:60D1H         LINE#         103
  C:60D7H         LINE#         104
  C:60EBH         LINE#         106
  C:6105H         LINE#         107
  C:6116H         LINE#         108
  C:611CH         LINE#         109
  C:6124H         LINE#         110
  C:6124H         LINE#         112
  C:615BH         LINE#         114
  C:615BH         LINE#         115
  C:6169H         LINE#         116
  C:6186H         LINE#         117
  C:6188H         LINE#         118
  C:6193H         LINE#         120
  C:61A4H         LINE#         121
  C:61B0H         LINE#         123
  C:61BEH         LINE#         124
  C:61C1H         LINE#         125
  C:61C1H         LINE#         126
  C:61C1H         LINE#         128
  C:61C1H         LINE#         129
  C:61C1H         LINE#         131
  C:61D1H         LINE#         132
  C:61DEH         LINE#         133
  C:61E6H         LINE#         134
  C:61EFH         LINE#         135
  C:61EFH         LINE#         137
  C:61FDH         LINE#         139
  C:6214H         LINE#         140
  C:6244H         LINE#         141
  C:624CH         LINE#         142
  C:624CH         LINE#         144
  C:624CH         LINE#         155
BL51 BANKED LINKER/LOCATER V6.22.2.0                                                  06/22/2022  16:23:04  PAGE 127


  C:625BH         LINE#         156
  C:6266H         LINE#         157
  C:6275H         LINE#         158
  C:6275H         LINE#         163
  C:6275H         LINE#         164
  C:6281H         LINE#         165
  C:628EH         LINE#         166
  C:628EH         LINE#         168
  C:628EH         LINE#         169
  C:6297H         LINE#         170
  C:629AH         LINE#         171
  C:629AH         LINE#         172
  C:629AH         LINE#         173
  -------         ENDPROC       _DOPRINT
  -------         PROC          _PRINTF
  X:0019H         SYMBOL        fmt
  -------         DO            
  X:001CH         SYMBOL        ellipsis_40
  X:0044H         SYMBOL        ap
  -------         ENDDO         
  C:BE8EH         LINE#         180
  C:BE94H         LINE#         181
  C:BE94H         LINE#         184
  C:BEA0H         LINE#         185
  C:BEB5H         LINE#         186
  -------         ENDPROC       _PRINTF
  -------         PROC          _PUTS
  X:0014H         SYMBOL        ptr
  C:C3DBH         LINE#         189
  C:C3E1H         LINE#         190
  C:C3E1H         LINE#         191
  C:C3E9H         LINE#         192
  C:C3F5H         LINE#         193
  -------         ENDPROC       _PUTS
  -------         ENDMOD        PRINTF

  -------         MODULE        TABLE
  C:0000H         SYMBOL        _ICE_DUMMY_
  C:629BH         PUBLIC        NTSC_Regs
  C:63EBH         PUBLIC        PAL_Regs
  -------         ENDMOD        TABLE

  -------         MODULE        TW88
  C:0000H         SYMBOL        _ICE_DUMMY_
  C:C336H         PUBLIC        COMPOSITE3Input
  C:C352H         PUBLIC        COMPOSITE4Input
  C:A042H         PUBLIC        _Mapping1
  C:9182H         PUBLIC        _LCDPowerON
  D:00E8H         PUBLIC        P4
  C:C271H         PUBLIC        _ClearAutoDetectStd
  X:0146H         PUBLIC        Backlight_TO
  B:00B0H.5       PUBLIC        P3_5
  C:B0B6H         PUBLIC        DetectDecoderInput
  C:C61EH         PUBLIC        ON_LVDS
  C:C1B9H         PUBLIC        SetAutoDetectStd
  X:0147H         PUBLIC        CAM_QUAD_TO
  C:BCEAH         PUBLIC        LCDPower
BL51 BANKED LINKER/LOCATER V6.22.2.0                                                  06/22/2022  16:23:04  PAGE 128


  X:0148H         SYMBOL        m_cStandard
  C:C61FH         PUBLIC        OFF_LVDS
  C:C2FEH         PUBLIC        COMPOSITE1Input
  C:C31AH         PUBLIC        COMPOSITE2Input
  C:B056H         SYMBOL        Com0027
  C:B056H         SYMBOL        L?0040
  C:B05DH         SYMBOL        L?0041
  C:B060H         SYMBOL        L?0042
  C:B063H         SYMBOL        L?0043
  C:B069H         SYMBOL        L?0044
  C:B08CH         SYMBOL        L?0045
  C:B08CH         SYMBOL        L?0046
  C:B095H         SYMBOL        L?0047
  C:B0A5H         SYMBOL        L?0049
  C:B0A5H         SYMBOL        L?0050
  C:B0ACH         SYMBOL        L?0053
  -------         PROC          COM0027
  -------         ENDPROC       COM0027
  -------         PROC          SETAUTODETECTSTD
  -------         DO            
  D:0007H         SYMBOL        val
  -------         ENDDO         
  C:C1B9H         LINE#         33
  C:C1B9H         LINE#         34
  C:C1B9H         LINE#         40
  C:C1BFH         LINE#         41
  C:C1C7H         LINE#         42
  C:C1CEH         LINE#         43
  -------         ENDPROC       SETAUTODETECTSTD
  -------         PROC          _CLEARAUTODETECTSTD
  X:0019H         SYMBOL        std
  -------         DO            
  D:0007H         SYMBOL        val
  -------         ENDDO         
  C:C271H         LINE#         46
  C:C276H         LINE#         47
  C:C276H         LINE#         54
  C:C27DH         LINE#         55
  C:C286H         LINE#         56
  -------         ENDPROC       _CLEARAUTODETECTSTD
  C:B10AH         SYMBOL        L?0052
  -------         PROC          DETECTDECODERINPUT
  -------         DO            
  X:0018H         SYMBOL        std
  X:0019H         SYMBOL        val
  -------         ENDDO         
  C:B0B6H         LINE#         90
  C:B0B6H         LINE#         91
  C:B0B6H         LINE#         96
  C:B0BBH         LINE#         97
  C:B0C1H         LINE#         98
  C:B0C6H         LINE#         99
  C:B0C8H         LINE#         100
  C:B0C8H         LINE#         102
  C:B0DAH         LINE#         103
  C:B0DFH         LINE#         107
  C:B0E2H         LINE#         108
BL51 BANKED LINKER/LOCATER V6.22.2.0                                                  06/22/2022  16:23:04  PAGE 129


  C:B0E7H         LINE#         109
  C:B0E9H         LINE#         110
  C:B0E9H         LINE#         111
  C:B0F1H         LINE#         112
  C:B0F8H         LINE#         113
  C:B0FFH         LINE#         114
  C:B0FFH         LINE#         115
  C:B107H         LINE#         128
  C:B109H         LINE#         129
  -------         ENDPROC       DETECTDECODERINPUT
  -------         PROC          COMPOSITE1INPUT
  C:C2FEH         LINE#         136
  C:C2FEH         LINE#         137
  C:C2FEH         LINE#         138
  C:C307H         LINE#         139
  C:C30DH         LINE#         140
  -------         ENDPROC       COMPOSITE1INPUT
  -------         PROC          COMPOSITE2INPUT
  C:C31AH         LINE#         154
  C:C31AH         LINE#         155
  C:C31AH         LINE#         156
  C:C323H         LINE#         157
  C:C329H         LINE#         158
  -------         ENDPROC       COMPOSITE2INPUT
  -------         PROC          COMPOSITE3INPUT
  C:C336H         LINE#         161
  C:C336H         LINE#         162
  C:C336H         LINE#         163
  C:C33FH         LINE#         164
  C:C345H         LINE#         165
  -------         ENDPROC       COMPOSITE3INPUT
  -------         PROC          COMPOSITE4INPUT
  C:C352H         LINE#         168
  C:C352H         LINE#         169
  C:C352H         LINE#         170
  C:C35BH         LINE#         171
  C:C361H         LINE#         172
  -------         ENDPROC       COMPOSITE4INPUT
  -------         PROC          ON_LVDS
  C:C61EH         LINE#         349
  C:C61EH         LINE#         350
  C:C61EH         LINE#         360
  -------         ENDPROC       ON_LVDS
  -------         PROC          OFF_LVDS
  C:C61FH         LINE#         362
  C:C61FH         LINE#         363
  C:C61FH         LINE#         374
  -------         ENDPROC       OFF_LVDS
  C:9250H         SYMBOL        L?0048
  C:925EH         SYMBOL        L?0051
  -------         PROC          _LCDPOWERON
  X:0013H         SYMBOL        mute
  C:9182H         LINE#         376
  C:9187H         LINE#         377
  C:9187H         LINE#         379
  C:919CH         LINE#         382
  C:91A1H         LINE#         393
BL51 BANKED LINKER/LOCATER V6.22.2.0                                                  06/22/2022  16:23:04  PAGE 130


  C:91A9H         LINE#         394
  C:91A9H         LINE#         400
  C:91ACH         LINE#         405
  C:91AEH         LINE#         409
  C:91B3H         LINE#         410
  C:91B8H         LINE#         412
  C:91BDH         LINE#         417
  C:91C2H         LINE#         418
  C:91C5H         LINE#         421
  C:91CEH         LINE#         449
  C:91D3H         LINE#         453
  C:91D9H         LINE#         456
  C:91E2H         LINE#         457
  C:91E9H         LINE#         458
  C:91F2H         LINE#         460
  C:91F2H         LINE#         461
  C:91FEH         LINE#         462
  C:91FEH         LINE#         465
  C:920AH         LINE#         466
  C:920AH         LINE#         467
  C:920CH         LINE#         468
  C:9213H         LINE#         469
  C:9213H         LINE#         470
  C:9213H         LINE#         471
  C:9216H         LINE#         472
  C:9218H         LINE#         474
  C:9218H         LINE#         475
  C:9220H         LINE#         476
  C:9220H         LINE#         477
  C:9222H         LINE#         479
  C:9222H         LINE#         480
  C:9222H         LINE#         481
  C:9225H         LINE#         482
  C:922CH         LINE#         483
  C:922EH         LINE#         485
  C:922EH         LINE#         486
  C:9230H         LINE#         488
  C:9233H         LINE#         491
  C:9239H         LINE#         492
  C:9239H         LINE#         493
  C:9239H         LINE#         496
  C:924FH         LINE#         505
  C:924FH         LINE#         507
  -------         ENDPROC       _LCDPOWERON
  -------         PROC          LCDPOWER
  -------         DO            
  X:0145H         SYMBOL        state
  -------         ENDDO         
  C:BCEAH         LINE#         562
  C:BCEAH         LINE#         563
  C:BCEAH         LINE#         568
  C:BCF2H         LINE#         569
  C:BCF3H         LINE#         570
  C:BCF6H         LINE#         571
  C:BCFBH         LINE#         573
  C:BD01H         LINE#         574
  C:BD03H         LINE#         576
BL51 BANKED LINKER/LOCATER V6.22.2.0                                                  06/22/2022  16:23:04  PAGE 131


  C:BD03H         LINE#         578
  C:BD08H         LINE#         579
  C:BD0DH         LINE#         586
  C:BD13H         LINE#         587
  C:BD18H         LINE#         589
  C:BD21H         LINE#         590
  C:BD21H         LINE#         591
  -------         ENDPROC       LCDPOWER
  -------         PROC          _MAPPING1
  X:0024H         SYMBOL        fromValue
  X:0026H         SYMBOL        fromRange
  X:0029H         SYMBOL        toValue
  X:002CH         SYMBOL        toRange
  -------         DO            
  X:002FH         SYMBOL        a
  X:0031H         SYMBOL        b
  -------         ENDDO         
  C:A042H         LINE#         1802
  C:A04EH         LINE#         1803
  C:A04EH         LINE#         1810
  C:A060H         LINE#         1811
  C:A074H         LINE#         1812
  C:A086H         LINE#         1814
  C:A08DH         LINE#         1816
  C:A09DH         LINE#         1817
  C:A0A0H         LINE#         1818
  C:A0A0H         LINE#         1819
  C:A0A9H         LINE#         1820
  C:A0AFH         LINE#         1822
  C:A0B6H         LINE#         1824
  C:A0E4H         LINE#         1825
  C:A0E4H         LINE#         1832
  C:A0E6H         LINE#         1834
  -------         ENDPROC       _MAPPING1
  -------         ENDMOD        TW88

  -------         MODULE        UDFONT
  C:0000H         SYMBOL        _ICE_DUMMY_
  C:16B9H         PUBLIC        OSD_Color_LookUp_Data_Table
  C:16C9H         PUBLIC        RAMFONTDATA
  -------         ENDMOD        UDFONT

  -------         MODULE        HS_KEYREMO
  C:0000H         SYMBOL        _ICE_DUMMY_
  D:00E8H         PUBLIC        P4
  C:7676H         PUBLIC        JumpTable
  B:0023H.1       PUBLIC        ParkFlag
  B:0080H.0       PUBLIC        P0_0
  B:0080H.1       PUBLIC        P0_1
  B:0080H.2       PUBLIC        P0_2
  B:0080H.3       PUBLIC        P0_3
  B:0023H.2       PUBLIC        AVFlag
  X:011AH         PUBLIC        SelectBoxMode
  C:9DA6H         PUBLIC        SetSelectMode
  C:5C32H         PUBLIC        _TriggerHandler
  C:0026H         PUBLIC        SetRightSource
  C:AF31H         PUBLIC        SetRearSource
BL51 BANKED LINKER/LOCATER V6.22.2.0                                                  06/22/2022  16:23:04  PAGE 132


  X:011BH         PUBLIC        TimeStep
  C:000EH         PUBLIC        SetLeftSource
  C:8063H         PUBLIC        CheckTrigger
  C:769AH         PUBLIC        JumpTable_S
  X:011CH         PUBLIC        Attr_A
  X:011DH         PUBLIC        Attr_B
  X:011EH         PUBLIC        Attr_C
  X:011FH         PUBLIC        NowModeState
  X:0120H         PUBLIC        Gauge_Flag
  X:0121H         PUBLIC        Attr_R
  C:B499H         PUBLIC        SetJumpMode
  B:0023H.3       PUBLIC        VGAAudio
  C:7696H         PUBLIC        SEQTable
  X:0122H         PUBLIC        TriggerFlag
  X:0123H         PUBLIC        SelectBoxADC
  C:A870H         PUBLIC        _CheckSourceMode
  C:9C42H         PUBLIC        CheckMirror
  X:0124H         PUBLIC        TriggerMode
  X:0125H         PUBLIC        SEQIndex
  X:0126H         PUBLIC        SEQFlag
  C:BD8DH         PUBLIC        SetNowMode
  C:768EH         PUBLIC        RightTable
  X:0127H         PUBLIC        AV_MODE_DELAY
  C:BB59H         PUBLIC        SEQMode
  C:7684H         PUBLIC        RearTable
  C:7692H         PUBLIC        LeftTable
  C:7655H         PUBLIC        ParkTable
  C:B22DH         SYMBOL        Com00BC
  C:B22DH         SYMBOL        L?0189
  C:B22DH         SYMBOL        L?0190
  C:B237H         SYMBOL        L?0191
  C:B237H         SYMBOL        L?0192
  C:B243H         SYMBOL        L?0198
  C:B24FH         SYMBOL        L?0199
  C:B253H         SYMBOL        L?0200
  C:B25AH         SYMBOL        L?0201
  C:B25EH         SYMBOL        L?0202
  C:B265H         SYMBOL        L?0204
  C:B268H         SYMBOL        L?0205
  C:B26FH         SYMBOL        L?0206
  C:B26FH         SYMBOL        L?0207
  C:B276H         SYMBOL        L?0210
  C:B278H         SYMBOL        L?0211
  C:B27FH         SYMBOL        L?0215
  -------         PROC          COM00BC
  -------         ENDPROC       COM00BC
  -------         PROC          SETSELECTMODE
  C:9DA6H         LINE#         562
  C:9DA6H         LINE#         563
  C:9DA6H         LINE#         565
  C:9DABH         LINE#         566
  C:9DB3H         LINE#         567
  C:9DB3H         LINE#         568
  C:9DB4H         LINE#         570
  C:9DBCH         LINE#         572
  C:9DBCH         LINE#         578
  C:9DBFH         LINE#         579
BL51 BANKED LINKER/LOCATER V6.22.2.0                                                  06/22/2022  16:23:04  PAGE 133


  C:9DBFH         LINE#         581
  C:9DC2H         LINE#         582
  C:9DC2H         LINE#         583
  C:9DC7H         LINE#         585
  C:9DCAH         LINE#         586
  C:9DCCH         LINE#         587
  C:9DCCH         LINE#         588
  C:9DCEH         LINE#         590
  C:9DCEH         LINE#         593
  C:9DD3H         LINE#         594
  C:9DD8H         LINE#         595
  C:9DDEH         LINE#         596
  C:9DE6H         LINE#         597
  C:9DEFH         LINE#         598
  C:9DF4H         LINE#         608
  C:9DF7H         LINE#         610
  C:9DFFH         LINE#         611
  C:9DFFH         LINE#         614
  C:9E05H         LINE#         617
  C:9E07H         LINE#         621
  C:9E07H         LINE#         625
  C:9E0CH         LINE#         626
  C:9E11H         LINE#         627
  C:9E1AH         LINE#         628
  C:9E1FH         LINE#         630
  C:9E22H         LINE#         644
  C:9E2AH         LINE#         647
  C:9E33H         LINE#         650
  C:9E33H         LINE#         652
  C:9E42H         LINE#         653
  C:9E49H         LINE#         654
  C:9E4FH         LINE#         655
  -------         ENDPROC       SETSELECTMODE
  -------         PROC          _CHECKSOURCEMODE
  D:0007H         SYMBOL        sorce
  C:A870H         LINE#         662
  C:A870H         LINE#         663
  C:A870H         LINE#         665
  C:A883H         LINE#         666
  C:A883H         LINE#         667
  C:A883H         LINE#         669
  C:A88CH         LINE#         671
  C:A88EH         LINE#         672
  C:A890H         LINE#         684
  C:A890H         LINE#         686
  C:A899H         LINE#         688
  C:A89BH         LINE#         689
  C:A89DH         LINE#         692
  C:A89DH         LINE#         695
  C:A8A6H         LINE#         697
  C:A8A8H         LINE#         701
  C:A8AAH         LINE#         703
  C:A8AAH         LINE#         706
  C:A8B3H         LINE#         708
  C:A8B8H         LINE#         712
  C:A8BAH         LINE#         714
  C:A8BAH         LINE#         715
BL51 BANKED LINKER/LOCATER V6.22.2.0                                                  06/22/2022  16:23:04  PAGE 134


  C:A8BFH         LINE#         716
  C:A8C2H         LINE#         717
  C:A8CAH         LINE#         718
  C:A8CDH         LINE#         719
  C:A8CDH         LINE#         720
  C:A8CDH         LINE#         724
  C:A8DCH         LINE#         725
  C:A8E3H         LINE#         727
  -------         ENDPROC       _CHECKSOURCEMODE
  -------         PROC          SEQMODE
  C:BB59H         LINE#         751
  C:BB59H         LINE#         752
  C:BB59H         LINE#         763
  C:BB61H         LINE#         767
  C:BB69H         LINE#         768
  C:BB6DH         LINE#         769
  C:BB73H         LINE#         770
  C:BB7AH         LINE#         771
  C:BB86H         LINE#         772
  C:BB8DH         LINE#         774
  C:BB93H         LINE#         801
  -------         ENDPROC       SEQMODE
  -------         PROC          SETJUMPMODE
  -------         DO            
  X:0004H         SYMBOL        val
  -------         ENDDO         
  C:B499H         LINE#         803
  C:B499H         LINE#         804
  C:B499H         LINE#         807
  C:B4A1H         LINE#         808
  C:B4A1H         LINE#         809
  C:B4ACH         LINE#         818
  C:B4B1H         LINE#         823
  C:B4B3H         LINE#         825
  C:B4B3H         LINE#         827
  C:B4B8H         LINE#         832
  C:B4C0H         LINE#         835
  C:B4D3H         LINE#         840
  C:B4D3H         LINE#         841
  C:B4D9H         LINE#         844
  C:B4E5H         LINE#         845
  C:B4EBH         LINE#         847
  -------         ENDPROC       SETJUMPMODE
  C:9CB9H         SYMBOL        L?0182
  C:9CC6H         SYMBOL        L?0183
  C:9CD1H         SYMBOL        L?0185
  C:9CE2H         SYMBOL        L?0186
  C:9CEDH         SYMBOL        L?0213
  -------         PROC          CHECKMIRROR
  -------         DO            
  X:0018H         SYMBOL        val
  -------         ENDDO         
  C:9C42H         LINE#         853
  C:9C42H         LINE#         854
  C:9C42H         LINE#         857
  C:9C54H         LINE#         858
  C:9C54H         LINE#         859
BL51 BANKED LINKER/LOCATER V6.22.2.0                                                  06/22/2022  16:23:04  PAGE 135


  C:9C54H         LINE#         860
  C:9C56H         LINE#         861
  C:9C5BH         LINE#         862
  C:9C5BH         LINE#         863
  C:9C5BH         LINE#         864
  C:9C5EH         LINE#         866
  C:9C60H         LINE#         867
  C:9C60H         LINE#         868
  C:9C60H         LINE#         870
  C:9C63H         LINE#         872
  C:9C63H         LINE#         873
  C:9C63H         LINE#         874
  C:9C66H         LINE#         876
  C:9C68H         LINE#         877
  C:9C68H         LINE#         878
  C:9C68H         LINE#         880
  C:9C68H         LINE#         881
  C:9C6AH         LINE#         883
  C:9C6AH         LINE#         884
  C:9C6CH         LINE#         885
  C:9C71H         LINE#         886
  C:9C71H         LINE#         887
  C:9C71H         LINE#         888
  C:9C74H         LINE#         890
  C:9C76H         LINE#         891
  C:9C76H         LINE#         892
  C:9C76H         LINE#         893
  C:9C78H         LINE#         895
  C:9C78H         LINE#         896
  C:9C78H         LINE#         897
  C:9C7BH         LINE#         899
  C:9C7DH         LINE#         900
  C:9C7DH         LINE#         901
  C:9C7DH         LINE#         902
  C:9C7DH         LINE#         903
  C:9C7FH         LINE#         905
  C:9C7FH         LINE#         906
  C:9C8BH         LINE#         907
  C:9C93H         LINE#         908
  C:9C93H         LINE#         909
  C:9C93H         LINE#         910
  C:9C96H         LINE#         912
  C:9C98H         LINE#         913
  C:9C98H         LINE#         914
  C:9C98H         LINE#         917
  C:9C9AH         LINE#         919
  C:9C9AH         LINE#         920
  C:9C9AH         LINE#         921
  C:9C9DH         LINE#         923
  C:9C9FH         LINE#         924
  C:9C9FH         LINE#         925
  C:9C9FH         LINE#         927
  C:9C9FH         LINE#         928
  C:9CA1H         LINE#         930
  C:9CA1H         LINE#         931
  C:9CA5H         LINE#         932
  C:9CA8H         LINE#         934
BL51 BANKED LINKER/LOCATER V6.22.2.0                                                  06/22/2022  16:23:04  PAGE 136


  C:9CACH         LINE#         935
  C:9CAFH         LINE#         936
  C:9CB8H         LINE#         937
  C:9CB8H         LINE#         938
  C:9CB8H         LINE#         939
  -------         ENDPROC       CHECKMIRROR
  -------         PROC          SETNOWMODE
  -------         DO            
  D:0007H         SYMBOL        val
  -------         ENDDO         
  C:BD8DH         LINE#         942
  C:BD8DH         LINE#         943
  C:BD8DH         LINE#         945
  C:BD9CH         LINE#         946
  C:BDA2H         LINE#         947
  C:BDA2H         LINE#         952
  C:BDAAH         LINE#         954
  C:BDAFH         LINE#         955
  C:BDB0H         LINE#         957
  C:BDB0H         LINE#         958
  C:BDB7H         LINE#         967
  C:BDC0H         LINE#         969
  C:BDC0H         LINE#         970
  -------         ENDPROC       SETNOWMODE
  -------         PROC          SETREARSOURCE
  C:AF31H         LINE#         972
  C:AF31H         LINE#         973
  C:AF31H         LINE#         981
  C:AF36H         LINE#         992
  C:AF3EH         LINE#         995
  C:AF3EH         LINE#         1026
  C:AF43H         LINE#         1027
  C:AF43H         LINE#         1028
  C:AF4CH         LINE#         1029
  C:AF55H         LINE#         1030
  C:AF57H         LINE#         1031
  C:AF59H         LINE#         1033
  C:AF59H         LINE#         1034
  C:AF62H         LINE#         1035
  C:AF6BH         LINE#         1036
  C:AF74H         LINE#         1037
  C:AF7DH         LINE#         1038
  C:AF7DH         LINE#         1047
  C:AF7DH         LINE#         1050
  C:AF90H         LINE#         1051
  C:AF93H         LINE#         1053
  -------         ENDPROC       SETREARSOURCE
  -------         PROC          SETLEFTSOURCE
  C:000EH         LINE#         1055
  C:000EH         LINE#         1056
  C:000EH         LINE#         1067
  -------         ENDPROC       SETLEFTSOURCE
  -------         PROC          SETRIGHTSOURCE
  C:0026H         LINE#         1071
  C:0026H         LINE#         1072
  C:0026H         LINE#         1082
  -------         ENDPROC       SETRIGHTSOURCE
BL51 BANKED LINKER/LOCATER V6.22.2.0                                                  06/22/2022  16:23:04  PAGE 137


  C:8195H         SYMBOL        L?0193
  C:819DH         SYMBOL        L?0212
  -------         PROC          CHECKTRIGGER
  -------         DO            
  X:0014H         SYMBOL        TriggerFlagtemp
  X:0118H         SYMBOL        CPON
  X:0119H         SYMBOL        PPON
  D:0007H         SYMBOL        x
  -------         ENDDO         
  C:8063H         LINE#         1123
  C:8063H         LINE#         1124
  C:8063H         LINE#         1131
  C:806BH         LINE#         1132
  C:8070H         LINE#         1134
  C:8072H         LINE#         1135
  C:8075H         LINE#         1136
  C:8075H         LINE#         1137
  C:807BH         LINE#         1138
  C:807EH         LINE#         1139
  C:8085H         LINE#         1140
  C:8085H         LINE#         1142
  C:8087H         LINE#         1143
  C:808AH         LINE#         1144
  C:808AH         LINE#         1145
  C:808DH         LINE#         1146
  C:8090H         LINE#         1147
  C:8097H         LINE#         1148
  C:8097H         LINE#         1150
  C:8099H         LINE#         1151
  C:809CH         LINE#         1152
  C:809CH         LINE#         1153
  C:809FH         LINE#         1154
  C:80A2H         LINE#         1155
  C:80A9H         LINE#         1156
  C:80A9H         LINE#         1158
  C:80ACH         LINE#         1159
  C:80ACH         LINE#         1160
  C:80AFH         LINE#         1161
  C:80B2H         LINE#         1162
  C:80B9H         LINE#         1163
  C:80B9H         LINE#         1165
  C:80CEH         LINE#         1166
  C:80CEH         LINE#         1168
  C:80D7H         LINE#         1169
  C:80D7H         LINE#         1170
  C:80DEH         LINE#         1172
  C:80E3H         LINE#         1174
  C:80E5H         LINE#         1175
  C:80E8H         LINE#         1176
  C:80E8H         LINE#         1177
  C:80EEH         LINE#         1178
  C:80F1H         LINE#         1179
  C:80F8H         LINE#         1180
  C:80F8H         LINE#         1183
  C:80FAH         LINE#         1184
  C:80FDH         LINE#         1185
  C:80FDH         LINE#         1186
BL51 BANKED LINKER/LOCATER V6.22.2.0                                                  06/22/2022  16:23:04  PAGE 138


  C:8100H         LINE#         1187
  C:8103H         LINE#         1188
  C:810AH         LINE#         1189
  C:810AH         LINE#         1191
  C:810CH         LINE#         1192
  C:810FH         LINE#         1193
  C:810FH         LINE#         1194
  C:8116H         LINE#         1195
  C:8119H         LINE#         1196
  C:8120H         LINE#         1197
  C:8120H         LINE#         1200
  C:8122H         LINE#         1202
  C:8122H         LINE#         1203
  C:8126H         LINE#         1204
  C:8128H         LINE#         1205
  C:8128H         LINE#         1207
  C:8130H         LINE#         1209
  C:8133H         LINE#         1211
  C:813AH         LINE#         1212
  C:813AH         LINE#         1214
  C:813AH         LINE#         1216
  C:8148H         LINE#         1217
  C:8148H         LINE#         1218
  C:814CH         LINE#         1219
  C:8150H         LINE#         1220
  C:8152H         LINE#         1221
  C:8152H         LINE#         1222
  C:8168H         LINE#         1223
  C:8168H         LINE#         1224
  C:8170H         LINE#         1225
  C:8174H         LINE#         1227
  C:8174H         LINE#         1229
  C:8174H         LINE#         1231
  C:8177H         LINE#         1232
  C:817EH         LINE#         1234
  C:8186H         LINE#         1235
  C:8186H         LINE#         1236
  C:8188H         LINE#         1237
  C:818AH         LINE#         1239
  C:818CH         LINE#         1282
  C:8194H         LINE#         1287
  C:8194H         LINE#         1289
  -------         ENDPROC       CHECKTRIGGER
  C:5EF4H         SYMBOL        L?0184
  C:5F01H         SYMBOL        L?0187
  C:5F0CH         SYMBOL        L?0194
  C:5F19H         SYMBOL        L?0195
  C:5F23H         SYMBOL        L?0196
  C:5F33H         SYMBOL        L?0197
  C:5F3BH         SYMBOL        L?0203
  C:5F45H         SYMBOL        L?0208
  C:5F52H         SYMBOL        L?0209
  C:5F5FH         SYMBOL        L?0214
  -------         PROC          _TRIGGERHANDLER
  X:0002H         SYMBOL        T_Flag
  -------         DO            
  X:0003H         SYMBOL        i
BL51 BANKED LINKER/LOCATER V6.22.2.0                                                  06/22/2022  16:23:04  PAGE 139


  X:0004H         SYMBOL        ReverseMask
  X:0005H         SYMBOL        LeftMask
  X:0006H         SYMBOL        RightMask
  X:0007H         SYMBOL        CamCMask
  X:0008H         SYMBOL        CamDMask
  X:0009H         SYMBOL        VGAMask
  X:000AH         SYMBOL        delaytrigger
  X:000BH         SYMBOL        j
  X:000CH         SYMBOL        CTri
  -------         ENDDO         
  C:5C32H         LINE#         1777
  C:5C37H         LINE#         1778
  C:5C37H         LINE#         1790
  C:5C3FH         LINE#         1797
  C:5C45H         LINE#         1798
  C:5C45H         LINE#         1799
  C:5C45H         LINE#         1800
  C:5C45H         LINE#         1801
  C:5C45H         LINE#         1802
  C:5C45H         LINE#         1803
  C:5C4BH         LINE#         1804
  C:5C4FH         LINE#         1805
  C:5C51H         LINE#         1807
  C:5C51H         LINE#         1809
  C:5C52H         LINE#         1810
  C:5C52H         LINE#         1811
  C:5C52H         LINE#         1812
  C:5C52H         LINE#         1814
  C:5C58H         LINE#         1815
  C:5C5CH         LINE#         1816
  C:5C5CH         LINE#         1838
  C:5C6EH         LINE#         1839
  C:5C6EH         LINE#         1840
  C:5C79H         LINE#         1841
  C:5C79H         LINE#         1846
  C:5C80H         LINE#         1848
  C:5C80H         LINE#         1849
  C:5C80H         LINE#         1850
  C:5C80H         LINE#         1851
  C:5C83H         LINE#         1855
  C:5C83H         LINE#         1858
  C:5C86H         LINE#         1859
  C:5C86H         LINE#         1860
  C:5C88H         LINE#         1862
  C:5C88H         LINE#         1865
  C:5C8FH         LINE#         1866
  C:5C95H         LINE#         1867
  C:5C98H         LINE#         1868
  C:5C9EH         LINE#         1870
  C:5C9FH         LINE#         1872
  C:5C9FH         LINE#         1875
  C:5CB1H         LINE#         1876
  C:5CB1H         LINE#         1877
  C:5CBCH         LINE#         1878
  C:5CBCH         LINE#         1883
  C:5CC3H         LINE#         1885
  C:5CC3H         LINE#         1886
BL51 BANKED LINKER/LOCATER V6.22.2.0                                                  06/22/2022  16:23:04  PAGE 140


  C:5CC3H         LINE#         1887
  C:5CC3H         LINE#         1888
  C:5CC6H         LINE#         1892
  C:5CC6H         LINE#         1895
  C:5CC9H         LINE#         1896
  C:5CC9H         LINE#         1897
  C:5CCBH         LINE#         1899
  C:5CCBH         LINE#         1901
  C:5CD2H         LINE#         1902
  C:5CD5H         LINE#         1903
  C:5CDBH         LINE#         1904
  C:5CDEH         LINE#         1905
  C:5CE0H         LINE#         1908
  C:5CE5H         LINE#         1909
  C:5CE8H         LINE#         1911
  C:5CE8H         LINE#         1912
  C:5CE8H         LINE#         1916
  C:5CEAH         LINE#         1918
  C:5CEAH         LINE#         1920
  C:5CFCH         LINE#         1921
  C:5CFCH         LINE#         1922
  C:5D07H         LINE#         1923
  C:5D07H         LINE#         1928
  C:5D0EH         LINE#         1930
  C:5D0EH         LINE#         1931
  C:5D11H         LINE#         1932
  C:5D14H         LINE#         1933
  C:5D17H         LINE#         1937
  C:5D17H         LINE#         1940
  C:5D1AH         LINE#         1941
  C:5D1AH         LINE#         1942
  C:5D1CH         LINE#         1944
  C:5D1CH         LINE#         1947
  C:5D23H         LINE#         1948
  C:5D26H         LINE#         1949
  C:5D2CH         LINE#         1950
  C:5D2FH         LINE#         1951
  C:5D31H         LINE#         1954
  C:5D36H         LINE#         1955
  C:5D39H         LINE#         1956
  C:5D39H         LINE#         1957
  C:5D3FH         LINE#         1960
  C:5D3FH         LINE#         1962
  C:5D3FH         LINE#         2038
  C:5D4AH         LINE#         2039
  C:5D4AH         LINE#         2040
  C:5D51H         LINE#         2043
  C:5D51H         LINE#         2047
  C:5D54H         LINE#         2048
  C:5D54H         LINE#         2049
  C:5D56H         LINE#         2051
  C:5D59H         LINE#         2054
  C:5D59H         LINE#         2057
  C:5D68H         LINE#         2058
  C:5D68H         LINE#         2059
  C:5D68H         LINE#         2060
  C:5D6AH         LINE#         2061
BL51 BANKED LINKER/LOCATER V6.22.2.0                                                  06/22/2022  16:23:04  PAGE 141


  C:5D6CH         LINE#         2063
  C:5D6CH         LINE#         2064
  C:5D6EH         LINE#         2065
  C:5D70H         LINE#         2067
  C:5D70H         LINE#         2068
  C:5D7CH         LINE#         2069
  C:5D7EH         LINE#         2081
  C:5D7EH         LINE#         2082
  C:5D7EH         LINE#         2083
  C:5D7EH         LINE#         2084
  C:5D7EH         LINE#         2085
  C:5D83H         LINE#         2086
  C:5D83H         LINE#         2087
  C:5D83H         LINE#         2091
  C:5D8BH         LINE#         2092
  C:5D8BH         LINE#         2093
  C:5D94H         LINE#         2094
  C:5D94H         LINE#         2095
  C:5D9EH         LINE#         2096
  C:5D9EH         LINE#         2097
  C:5D9EH         LINE#         2098
  C:5DA6H         LINE#         2100
  C:5DA6H         LINE#         2101
  C:5DABH         LINE#         2102
  C:5DB0H         LINE#         2103
  C:5DB0H         LINE#         2105
  C:5DB0H         LINE#         2107
  C:5DBAH         LINE#         2108
  C:5DBAH         LINE#         2109
  C:5DCCH         LINE#         2110
  C:5DCCH         LINE#         2111
  C:5DCCH         LINE#         2112
  C:5DD4H         LINE#         2114
  C:5DD4H         LINE#         2115
  C:5DD9H         LINE#         2116
  C:5DDEH         LINE#         2117
  C:5DDEH         LINE#         2136
  C:5DE6H         LINE#         2137
  C:5DE6H         LINE#         2138
  C:5DE9H         LINE#         2139
  C:5DF2H         LINE#         2140
  C:5DF2H         LINE#         2141
  C:5DF8H         LINE#         2142
  C:5DF8H         LINE#         2155
  C:5DF8H         LINE#         2204
  C:5DF8H         LINE#         2205
  C:5DFEH         LINE#         2206
  C:5E01H         LINE#         2211
  C:5E01H         LINE#         2230
  C:5E09H         LINE#         2231
  C:5E09H         LINE#         2232
  C:5E0DH         LINE#         2233
  C:5E16H         LINE#         2234
  C:5E1BH         LINE#         2235
  C:5E34H         LINE#         2236
  C:5E34H         LINE#         2238
  C:5E36H         LINE#         2240
BL51 BANKED LINKER/LOCATER V6.22.2.0                                                  06/22/2022  16:23:04  PAGE 142


  C:5E3CH         LINE#         2241
  C:5E3CH         LINE#         2243
  C:5E3FH         LINE#         2244
  C:5E3FH         LINE#         2245
  C:5E3FH         LINE#         2247
  C:5E44H         LINE#         2248
  C:5E44H         LINE#         2250
  C:5E47H         LINE#         2252
  C:5E55H         LINE#         2253
  C:5E5AH         LINE#         2255
  C:5E64H         LINE#         2256
  C:5E64H         LINE#         2257
  C:5E6EH         LINE#         2258
  C:5E6EH         LINE#         2259
  C:5E71H         LINE#         2260
  C:5E77H         LINE#         2262
  C:5E7AH         LINE#         2265
  C:5E7AH         LINE#         2266
  C:5E7FH         LINE#         2267
  C:5E84H         LINE#         2268
  C:5E87H         LINE#         2270
  C:5E87H         LINE#         2271
  C:5E87H         LINE#         2274
  C:5E8AH         LINE#         2275
  C:5E8AH         LINE#         2280
  C:5E96H         LINE#         2281
  C:5E9CH         LINE#         2283
  C:5E9CH         LINE#         2303
  C:5E9CH         LINE#         2310
  C:5E9FH         LINE#         2311
  C:5E9FH         LINE#         2312
  C:5E9FH         LINE#         2316
  C:5EA4H         LINE#         2318
  C:5EA4H         LINE#         2322
  C:5EADH         LINE#         2325
  C:5EB0H         LINE#         2327
  C:5EBEH         LINE#         2328
  C:5EC3H         LINE#         2330
  C:5ECDH         LINE#         2331
  C:5ECDH         LINE#         2332
  C:5ED7H         LINE#         2333
  C:5ED7H         LINE#         2334
  C:5EDAH         LINE#         2335
  C:5EE0H         LINE#         2337
  C:5EE3H         LINE#         2340
  C:5EE3H         LINE#         2341
  C:5EE8H         LINE#         2342
  C:5EEDH         LINE#         2345
  C:5EF0H         LINE#         2346
  C:5EF3H         LINE#         2347
  C:5EF3H         LINE#         2348
  C:5EF3H         LINE#         2355
  -------         ENDPROC       _TRIGGERHANDLER
  -------         ENDMOD        HS_KEYREMO

  -------         MODULE        HS_DISPLAYOSD
  C:0000H         SYMBOL        _ICE_DUMMY_
BL51 BANKED LINKER/LOCATER V6.22.2.0                                                  06/22/2022  16:23:04  PAGE 143


  C:C4E6H         PUBLIC        ClearGAUGEINFO
  C:9472H         PUBLIC        GaugeString1
  C:9476H         PUBLIC        GaugeString2
  C:947AH         PUBLIC        GaugeString3
  C:947EH         PUBLIC        GaugeString4
  C:9482H         PUBLIC        GaugeString5
  C:9496H         PUBLIC        GaugeString6
  C:94AEH         PUBLIC        GaugeString7
  C:8FB3H         PUBLIC        DisplayGaugeOSD
  C:94C6H         PUBLIC        Init_Osd_DisplayGAUGEWindow
  B:0024H.3       PUBLIC        Init_DisplayInput
  C:9460H         PUBLIC        GaugeString
  C:8A9EH         PUBLIC        _DisplayInformation
  C:BB94H         SYMBOL        Com001C
  C:BB94H         SYMBOL        L?0029
  C:BB98H         SYMBOL        L?0030
  C:BB9AH         SYMBOL        L?0031
  C:BBA1H         SYMBOL        L?0032
  C:BBAAH         SYMBOL        L?0033
  C:BBB3H         SYMBOL        L?0035
  C:BBBCH         SYMBOL        L?0036
  C:BBC3H         SYMBOL        L?0037
  -------         PROC          COM001C
  -------         ENDPROC       COM001C
  -------         PROC          DISPLAYGAUGEOSD
  -------         DO            
  X:000DH         SYMBOL        i
  -------         ENDDO         
  C:8FB3H         LINE#         123
  C:8FB3H         LINE#         157
  C:8FB3H         LINE#         169
  C:8FBCH         LINE#         177
  C:8FE6H         LINE#         186
  C:8FF1H         LINE#         187
  C:9001H         LINE#         188
  C:9014H         LINE#         190
  C:901FH         LINE#         191
  C:9029H         LINE#         192
  C:9037H         LINE#         194
  C:903FH         LINE#         195
  C:9045H         LINE#         197
  C:9056H         LINE#         199
  C:9061H         LINE#         200
  C:906BH         LINE#         201
  C:907BH         LINE#         239
  C:9080H         LINE#         244
  C:9085H         LINE#         245
  C:9088H         LINE#         248
  C:908FH         LINE#         249
  C:9094H         LINE#         250
  -------         ENDPROC       DISPLAYGAUGEOSD
  -------         PROC          CLEARGAUGEINFO
  C:C4E6H         LINE#         254
  C:C4E6H         LINE#         255
  C:C4E6H         LINE#         256
  C:C4EDH         LINE#         257
  C:C4F4H         LINE#         258
BL51 BANKED LINKER/LOCATER V6.22.2.0                                                  06/22/2022  16:23:04  PAGE 144


  -------         ENDPROC       CLEARGAUGEINFO
  C:8BA6H         SYMBOL        L?0034
  -------         PROC          _DISPLAYINFORMATION
  X:0004H         SYMBOL        info
  -------         DO            
  C:94D9H         SYMBOL        Str_LOCK_Mirror
  C:94F1H         SYMBOL        Str_ACTIVE_Mirror
  -------         ENDDO         
  C:8A9EH         LINE#         329
  C:8AA3H         LINE#         330
  C:8AA3H         LINE#         337
  C:8AACH         LINE#         343
  C:8AB5H         LINE#         345
  C:8AD6H         LINE#         346
  C:8AD6H         LINE#         347
  C:8AD6H         LINE#         349
  C:8ADDH         LINE#         350
  C:8ADDH         LINE#         351
  C:8AE1H         LINE#         352
  C:8AEAH         LINE#         353
  C:8AEDH         LINE#         355
  C:8AEDH         LINE#         356
  C:8AF2H         LINE#         357
  C:8AFBH         LINE#         358
  C:8AFBH         LINE#         363
  C:8AFEH         LINE#         365
  C:8AFEH         LINE#         367
  C:8B05H         LINE#         368
  C:8B05H         LINE#         369
  C:8B09H         LINE#         370
  C:8B12H         LINE#         371
  C:8B14H         LINE#         373
  C:8B14H         LINE#         374
  C:8B19H         LINE#         375
  C:8B22H         LINE#         376
  C:8B22H         LINE#         381
  C:8B24H         LINE#         455
  C:8B24H         LINE#         456
  C:8B27H         LINE#         457
  C:8B35H         LINE#         458
  C:8B37H         LINE#         460
  C:8B37H         LINE#         461
  C:8B3AH         LINE#         462
  C:8B45H         LINE#         463
  C:8B47H         LINE#         465
  C:8B47H         LINE#         466
  C:8B51H         LINE#         467
  C:8B5AH         LINE#         468
  C:8B5CH         LINE#         471
  C:8B5CH         LINE#         473
  C:8B63H         LINE#         474
  C:8B6AH         LINE#         476
  C:8B71H         LINE#         481
  C:8B7BH         LINE#         482
  C:8B7EH         LINE#         483
  C:8B8CH         LINE#         490
  C:8B8CH         LINE#         492
BL51 BANKED LINKER/LOCATER V6.22.2.0                                                  06/22/2022  16:23:04  PAGE 145


  C:8B8CH         LINE#         494
  C:8B91H         LINE#         495
  C:8B98H         LINE#         496
  C:8B9DH         LINE#         497
  C:8BA6H         LINE#         498
  -------         ENDPROC       _DISPLAYINFORMATION
  -------         ENDMOD        HS_DISPLAYOSD

  -------         MODULE        AUDIO
  C:0000H         SYMBOL        _ICE_DUMMY_
  D:00E8H         PUBLIC        P4
  C:C5B9H         PUBLIC        AudioMute
  B:0090H.7       PUBLIC        P1_7
  X:0149H         PUBLIC        AudioVol
  X:014AH         PUBLIC        PCAudioVol
  C:83F5H         PUBLIC        _ChangeVol
  -------         PROC          AUDIOMUTE
  B:0024H.1       SYMBOL        mute
  C:C5B9H         LINE#         288
  C:C5B9H         LINE#         289
  C:C5B9H         LINE#         305
  C:C5BCH         LINE#         306
  C:C5BFH         LINE#         308
  C:C5C1H         LINE#         317
  -------         ENDPROC       AUDIOMUTE
  C:8501H         SYMBOL        L?0028
  C:8511H         SYMBOL        L?0029
  -------         PROC          _CHANGEVOL
  D:0007H         SYMBOL        amount
  -------         DO            
  D:0006H         SYMBOL        chg
  X:0013H         SYMBOL        VCOM
  X:0014H         SYMBOL        AudioTemp
  -------         ENDDO         
  C:83F5H         LINE#         319
  C:83F5H         LINE#         320
  C:83F5H         LINE#         322
  C:83F7H         LINE#         328
  C:83FAH         LINE#         329
  C:83FAH         LINE#         330
  C:83FDH         LINE#         331
  C:83FFH         LINE#         333
  C:83FFH         LINE#         334
  C:8407H         LINE#         335
  C:8407H         LINE#         337
  C:8413H         LINE#         338
  C:8417H         LINE#         340
  C:8417H         LINE#         341
  C:841CH         LINE#         342
  C:841CH         LINE#         343
  C:842DH         LINE#         344
  C:842DH         LINE#         345
  C:8449H         LINE#         346
  C:844BH         LINE#         347
  C:844DH         LINE#         349
  C:844DH         LINE#         350
  C:8464H         LINE#         351
BL51 BANKED LINKER/LOCATER V6.22.2.0                                                  06/22/2022  16:23:04  PAGE 146


  C:8466H         LINE#         352
  C:8466H         LINE#         354
  C:8469H         LINE#         355
  C:8469H         LINE#         356
  C:846FH         LINE#         358
  C:8480H         LINE#         359
  C:8488H         LINE#         361
  C:849BH         LINE#         363
  C:84A0H         LINE#         365
  C:84ACH         LINE#         367
  C:84B1H         LINE#         375
  C:84BBH         LINE#         377
  C:84BBH         LINE#         394
  C:84C5H         LINE#         397
  C:84D1H         LINE#         398
  C:84D5H         LINE#         400
  C:84DAH         LINE#         402
  C:84E2H         LINE#         403
  C:84E2H         LINE#         404
  C:84E6H         LINE#         405
  C:84E9H         LINE#         406
  C:84EBH         LINE#         408
  C:84EBH         LINE#         409
  C:84EFH         LINE#         410
  C:84F2H         LINE#         411
  C:84F2H         LINE#         413
  C:84F5H         LINE#         414
  C:84FBH         LINE#         416
  C:8500H         LINE#         418
  -------         ENDPROC       _CHANGEVOL
  -------         ENDMOD        AUDIO

  -------         MODULE        DEBUG
  C:0000H         SYMBOL        _ICE_DUMMY_
  D:00E8H         PUBLIC        P4
  -------         ENDMOD        DEBUG

  -------         MODULE        HS_DVRPROTOCOL
  C:0000H         SYMBOL        _ICE_DUMMY_
  X:005DH         PUBLIC        PresetMode
  B:0022H.1       PUBLIC        FormatStart
  X:005EH         PUBLIC        second
  X:005FH         PUBLIC        UpdateOK
  B:0022H.2       PUBLIC        SpeedDomeMode
  D:00E8H         PUBLIC        P4
  X:0060H         PUBLIC        DVR_Resolution
  X:0061H         PUBLIC        DVR_timebeginesmonth
  X:0062H         PUBLIC        Information
  X:0070H         PUBLIC        DVR_timebeginesweek
  X:0071H         PUBLIC        minute
  X:0072H         PUBLIC        DVR_RecordLength
  B:0022H.3       PUBLIC        DoorState
  X:0073H         PUBLIC        CommandBuffer
  X:0075H         PUBLIC        month
  X:0076H         PUBLIC        InformationLen
  B:0022H.4       PUBLIC        GetDVRStatusflag
  X:0077H         PUBLIC        DVR_daylightsaving
BL51 BANKED LINKER/LOCATER V6.22.2.0                                                  06/22/2022  16:23:04  PAGE 147


  X:0078H         PUBLIC        DVR_FPS
  X:0079H         PUBLIC        DVR_RecordMode
  X:007AH         PUBLIC        DVR_RecordStatus
  X:007BH         PUBLIC        DVR_Quality
  X:007CH         PUBLIC        day
  X:007DH         PUBLIC        hour
  B:0022H.5       PUBLIC        DVR_Ready
  X:007EH         PUBLIC        DVR_standardtimebeginesWeek
  X:007FH         PUBLIC        DVR_standardtimebeginesTime
  C:A8F2H         PUBLIC        Send_PelcoD_Command
  X:0080H         PUBLIC        DVR_PostAlarmLength
  X:0081H         PUBLIC        DVR_PreAlarmLength
  D:008DH         PUBLIC        TH1
  X:0082H         PUBLIC        DVR_sandardtimebeginesMonth
  C:69C4H         PUBLIC        _CAM_TxCommand_toRS485
  X:0083H         PUBLIC        SerialNumber
  X:0084H         PUBLIC        DVR_System
  C:A76BH         PUBLIC        Send_PelcoP_Command
  X:0085H         PUBLIC        DVRVersion
  X:0096H         PUBLIC        TriggerStatus
  X:0097H         PUBLIC        PresetNumber
  X:0098H         PUBLIC        year1
  X:0099H         PUBLIC        year2
  X:009AH         PUBLIC        DVR_SDCardAvailable
  D:00BAH         PUBLIC        S2BRT
  X:009BH         PUBLIC        GPSState
  X:009CH         PUBLIC        DVR_Busy
  X:009DH         PUBLIC        DVR_timebeginesTime
  X:009EH         PUBLIC        FormatStatus
  X:009FH         PUBLIC        DVRVersionLen
  X:00A0H         PUBLIC        gb_P_Com
  X:00A2H         PUBLIC        DVR_OverWrite
  X:00A3H         PUBLIC        gb_PTZ_Speed
  X:00A4H         PUBLIC        DVR_TimeZone
  C:B707H         SYMBOL        Com005D
  C:B707H         SYMBOL        L?0094
  C:B707H         SYMBOL        L?0095
  C:B70EH         SYMBOL        L?0096
  C:B70EH         SYMBOL        L?0097
  C:B711H         SYMBOL        L?0098
  C:B719H         SYMBOL        L?0099
  C:B719H         SYMBOL        L?0100
  C:B722H         SYMBOL        L?0101
  C:B722H         SYMBOL        L?0102
  C:B72BH         SYMBOL        L?0103
  C:B72DH         SYMBOL        L?0104
  C:B735H         SYMBOL        L?0105
  C:B735H         SYMBOL        L?0106
  C:B73CH         SYMBOL        L?0107
  C:B746H         SYMBOL        L?0108
  -------         PROC          COM005D
  -------         ENDPROC       COM005D
  -------         PROC          _CAM_TXCOMMAND_TORS485
  X:0004H         SYMBOL        Com_ID
  -------         DO            
  X:0005H         SYMBOL        j
  -------         ENDDO         
BL51 BANKED LINKER/LOCATER V6.22.2.0                                                  06/22/2022  16:23:04  PAGE 148


  C:69C4H         LINE#         994
  C:69C9H         LINE#         995
  C:69C9H         LINE#         1001
  C:69D9H         LINE#         1002
  C:69D9H         LINE#         1003
  C:69D9H         LINE#         1005
  C:69E6H         LINE#         1006
  C:69F3H         LINE#         1007
  C:69F9H         LINE#         1009
  C:6A02H         LINE#         1010
  C:6A08H         LINE#         1012
  C:6A34H         LINE#         1013
  C:6A34H         LINE#         1026
  C:6A34H         LINE#         1027
  C:6A34H         LINE#         1028
  C:6A39H         LINE#         1029
  C:6A39H         LINE#         1030
  C:6A39H         LINE#         1031
  C:6A39H         LINE#         1032
  C:6A3BH         LINE#         1040
  C:6A3BH         LINE#         1041
  C:6A40H         LINE#         1042
  C:6A40H         LINE#         1043
  C:6A40H         LINE#         1044
  C:6A40H         LINE#         1045
  C:6A40H         LINE#         1046
  C:6A43H         LINE#         1048
  C:6A43H         LINE#         1049
  C:6A43H         LINE#         1050
  C:6A49H         LINE#         1051
  C:6A4AH         LINE#         1052
  C:6A4AH         LINE#         1053
  C:6A4AH         LINE#         1054
  C:6A4DH         LINE#         1112
  C:6A4DH         LINE#         1113
  C:6A4DH         LINE#         1114
  C:6A52H         LINE#         1115
  C:6A52H         LINE#         1119
  C:6A52H         LINE#         1120
  C:6A52H         LINE#         1121
  C:6A54H         LINE#         1122
  C:6A54H         LINE#         1123
  C:6A54H         LINE#         1124
  C:6A59H         LINE#         1125
  C:6A59H         LINE#         1129
  C:6A5CH         LINE#         1130
  C:6A5CH         LINE#         1131
  C:6A5EH         LINE#         1132
  C:6A5EH         LINE#         1133
  C:6A5EH         LINE#         1134
  C:6A64H         LINE#         1135
  C:6A67H         LINE#         1136
  C:6A6DH         LINE#         1138
  C:6A70H         LINE#         1139
  C:6A71H         LINE#         1140
  C:6A71H         LINE#         1141
  C:6A73H         LINE#         1142
BL51 BANKED LINKER/LOCATER V6.22.2.0                                                  06/22/2022  16:23:04  PAGE 149


  C:6A73H         LINE#         1143
  C:6A73H         LINE#         1144
  C:6A79H         LINE#         1145
  C:6A7CH         LINE#         1146
  C:6A82H         LINE#         1148
  C:6A85H         LINE#         1149
  C:6A89H         LINE#         1150
  C:6A89H         LINE#         1151
  C:6A8BH         LINE#         1152
  C:6A8BH         LINE#         1153
  C:6A8BH         LINE#         1154
  C:6A91H         LINE#         1155
  C:6A94H         LINE#         1156
  C:6A97H         LINE#         1157
  C:6A9DH         LINE#         1159
  C:6AA0H         LINE#         1160
  C:6AA0H         LINE#         1161
  C:6AA2H         LINE#         1162
  C:6AA2H         LINE#         1163
  C:6AA2H         LINE#         1164
  C:6AA8H         LINE#         1165
  C:6AABH         LINE#         1166
  C:6AAEH         LINE#         1167
  C:6AB4H         LINE#         1169
  C:6AB7H         LINE#         1170
  C:6AB7H         LINE#         1171
  C:6AB9H         LINE#         1172
  C:6AB9H         LINE#         1173
  C:6AB9H         LINE#         1174
  C:6ABCH         LINE#         1175
  C:6ABCH         LINE#         1176
  C:6AC0H         LINE#         1177
  C:6AC0H         LINE#         1178
  C:6AC2H         LINE#         1179
  C:6AC2H         LINE#         1180
  C:6AC8H         LINE#         1181
  C:6ACBH         LINE#         1182
  C:6ACDH         LINE#         1183
  C:6ACFH         LINE#         1184
  C:6AD2H         LINE#         1185
  C:6AD2H         LINE#         1216
  C:6AD2H         LINE#         1217
  C:6AD2H         LINE#         1218
  C:6AD2H         LINE#         1220
  C:6ADFH         LINE#         1221
  C:6AECH         LINE#         1222
  C:6AF2H         LINE#         1224
  C:6AFAH         LINE#         1226
  C:6B26H         LINE#         1227
  C:6B26H         LINE#         1240
  C:6B26H         LINE#         1241
  C:6B26H         LINE#         1242
  C:6B2BH         LINE#         1243
  C:6B2BH         LINE#         1244
  C:6B2BH         LINE#         1245
  C:6B2BH         LINE#         1246
  C:6B2DH         LINE#         1254
BL51 BANKED LINKER/LOCATER V6.22.2.0                                                  06/22/2022  16:23:04  PAGE 150


  C:6B2DH         LINE#         1255
  C:6B32H         LINE#         1256
  C:6B32H         LINE#         1257
  C:6B32H         LINE#         1258
  C:6B32H         LINE#         1259
  C:6B32H         LINE#         1260
  C:6B35H         LINE#         1262
  C:6B35H         LINE#         1263
  C:6B35H         LINE#         1264
  C:6B3BH         LINE#         1265
  C:6B3CH         LINE#         1266
  C:6B3CH         LINE#         1267
  C:6B3CH         LINE#         1268
  C:6B3FH         LINE#         1320
  C:6B3FH         LINE#         1321
  C:6B3FH         LINE#         1322
  C:6B45H         LINE#         1323
  C:6B48H         LINE#         1324
  C:6B4EH         LINE#         1326
  C:6B51H         LINE#         1327
  C:6B51H         LINE#         1328
  C:6B51H         LINE#         1329
  C:6B53H         LINE#         1330
  C:6B53H         LINE#         1331
  C:6B53H         LINE#         1332
  C:6B59H         LINE#         1333
  C:6B5CH         LINE#         1334
  C:6B62H         LINE#         1336
  C:6B65H         LINE#         1337
  C:6B66H         LINE#         1338
  C:6B66H         LINE#         1339
  C:6B68H         LINE#         1340
  C:6B68H         LINE#         1341
  C:6B68H         LINE#         1342
  C:6B6EH         LINE#         1343
  C:6B71H         LINE#         1344
  C:6B74H         LINE#         1345
  C:6B7AH         LINE#         1347
  C:6B7DH         LINE#         1348
  C:6B7DH         LINE#         1349
  C:6B7FH         LINE#         1350
  C:6B7FH         LINE#         1351
  C:6B7FH         LINE#         1352
  C:6B85H         LINE#         1353
  C:6B88H         LINE#         1354
  C:6B8BH         LINE#         1355
  C:6B91H         LINE#         1357
  C:6B94H         LINE#         1358
  C:6B94H         LINE#         1359
  C:6B96H         LINE#         1360
  C:6B96H         LINE#         1361
  C:6B96H         LINE#         1362
  C:6B9BH         LINE#         1363
  C:6B9BH         LINE#         1367
  C:6BA2H         LINE#         1368
  C:6BA2H         LINE#         1369
  C:6BA4H         LINE#         1370
BL51 BANKED LINKER/LOCATER V6.22.2.0                                                  06/22/2022  16:23:04  PAGE 151


  C:6BA4H         LINE#         1371
  C:6BA4H         LINE#         1372
  C:6BA9H         LINE#         1373
  C:6BA9H         LINE#         1377
  C:6BB0H         LINE#         1378
  C:6BB0H         LINE#         1379
  C:6BB2H         LINE#         1380
  C:6BB2H         LINE#         1381
  C:6BB2H         LINE#         1382
  C:6BB5H         LINE#         1383
  C:6BB5H         LINE#         1384
  C:6BB9H         LINE#         1385
  C:6BB9H         LINE#         1386
  C:6BBBH         LINE#         1387
  C:6BBBH         LINE#         1388
  C:6BC1H         LINE#         1389
  C:6BC4H         LINE#         1390
  C:6BC6H         LINE#         1391
  C:6BC8H         LINE#         1392
  C:6BCBH         LINE#         1393
  C:6BCBH         LINE#         1424
  C:6BCBH         LINE#         1425
  C:6BCBH         LINE#         1498
  C:6BCBH         LINE#         1500
  -------         ENDPROC       _CAM_TXCOMMAND_TORS485
  -------         PROC          SEND_PELCOP_COMMAND
  -------         DO            
  X:0006H         SYMBOL        ii
  D:0003H         SYMBOL        j
  -------         ENDDO         
  C:A76BH         LINE#         1508
  C:A76BH         LINE#         1509
  C:A76BH         LINE#         1513
  C:A773H         LINE#         1514
  C:A77BH         LINE#         1515
  C:A791H         LINE#         1521
  C:A79FH         LINE#         1522
  C:A79FH         LINE#         1523
  C:A79FH         LINE#         1524
  C:A7A2H         LINE#         1525
  C:A7A4H         LINE#         1526
  C:A7A4H         LINE#         1527
  C:A7A7H         LINE#         1528
  C:A7A9H         LINE#         1529
  C:A7A9H         LINE#         1530
  C:A7ACH         LINE#         1531
  C:A7ACH         LINE#         1532
  C:A7ACH         LINE#         1534
  C:A7BFH         LINE#         1535
  C:A7C6H         LINE#         1536
  C:A7D3H         LINE#         1537
  C:A7D3H         LINE#         1538
  C:A7DBH         LINE#         1539
  C:A7E3H         LINE#         1540
  C:A7EAH         LINE#         1541
  C:A7EDH         LINE#         1546
  -------         ENDPROC       SEND_PELCOP_COMMAND
BL51 BANKED LINKER/LOCATER V6.22.2.0                                                  06/22/2022  16:23:04  PAGE 152


  -------         PROC          SEND_PELCOD_COMMAND
  -------         DO            
  X:0006H         SYMBOL        ii
  D:0007H         SYMBOL        j
  -------         ENDDO         
  C:A8F2H         LINE#         1554
  C:A8F2H         LINE#         1555
  C:A8F2H         LINE#         1559
  C:A8FAH         LINE#         1560
  C:A906H         LINE#         1561
  C:A914H         LINE#         1563
  C:A922H         LINE#         1564
  C:A922H         LINE#         1565
  C:A922H         LINE#         1566
  C:A925H         LINE#         1567
  C:A927H         LINE#         1568
  C:A927H         LINE#         1569
  C:A92AH         LINE#         1570
  C:A92CH         LINE#         1571
  C:A92CH         LINE#         1572
  C:A92FH         LINE#         1573
  C:A92FH         LINE#         1574
  C:A92FH         LINE#         1576
  C:A945H         LINE#         1577
  C:A94CH         LINE#         1580
  C:A959H         LINE#         1581
  C:A959H         LINE#         1582
  C:A961H         LINE#         1583
  C:A969H         LINE#         1585
  C:A970H         LINE#         1586
  C:A973H         LINE#         1589
  -------         ENDPROC       SEND_PELCOD_COMMAND
  -------         ENDMOD        HS_DVRPROTOCOL

  -------         MODULE        MONITOR
  C:0000H         SYMBOL        _ICE_DUMMY_
  D:00A0H         PUBLIC        P2
  C:9509H         PUBLIC        MonDumpI2C
  D:00E8H         PUBLIC        P4
  C:C197H         PUBLIC        Prompt
  C:BAE2H         PUBLIC        _stricmp
  C:BA69H         PUBLIC        MonTxDump
  C:7346H         PUBLIC        MonGetCommand
  C:C379H         PUBLIC        _toupper
  C:AB63H         PUBLIC        _MonIncDecI2C
  C:B5DEH         PUBLIC        MonNewReadI2C
  B:00B0H.4       PUBLIC        P3_4
  B:0080H.7       PUBLIC        P0_7
  B:00B0H.7       PUBLIC        P3_7
  X:00A8H         PUBLIC        MonRdata
  X:00A9H         PUBLIC        argc
  X:00AAH         PUBLIC        MonWdata
  B:0023H.4       PUBLIC        AccessEnable
  B:0023H.5       PUBLIC        echo
  C:C61AH         PUBLIC        _SetMonAddress
  C:B289H         PUBLIC        MonNewWriteI2C
  X:00ABH         PUBLIC        monstr
BL51 BANKED LINKER/LOCATER V6.22.2.0                                                  06/22/2022  16:23:04  PAGE 153


  X:00C9H         PUBLIC        MonIndex
  C:9B86H         PUBLIC        MonNewDumpI2C
  X:00CAH         PUBLIC        argv
  C:A2D1H         PUBLIC        MonHelp
  B:0023H.6       SYMBOL        indirect
  C:8DC4H         PUBLIC        MonWriteBit
  C:BDC1H         PUBLIC        _Asc1Bin
  C:BC7FH         PUBLIC        _Asc2Bin
  C:B62AH         PUBLIC        MonReadI2C
  C:4D4DH         PUBLIC        Monitor
  D:007CH         PUBLIC        MonAddress
  C:C617H         PUBLIC        _Mon_tx
  C:ABDCH         PUBLIC        MonWriteI2C
  C:AC53H         PUBLIC        _a2i
  C:7DBFH         SYMBOL        Com011B
  C:7DBFH         SYMBOL        L?0284
  C:7DC5H         SYMBOL        L?0285
  C:7DE3H         SYMBOL        L?0286
  C:7DEAH         SYMBOL        L?0292
  C:7DFDH         SYMBOL        L?0293
  C:7E00H         SYMBOL        L?0294
  C:7E04H         SYMBOL        L?0295
  C:7E0BH         SYMBOL        L?0300
  C:7E18H         SYMBOL        L?0301
  C:7E19H         SYMBOL        L?0302
  C:7E1CH         SYMBOL        L?0303
  C:7E22H         SYMBOL        L?0305
  C:7E22H         SYMBOL        L?0306
  C:7E35H         SYMBOL        L?0308
  C:7E35H         SYMBOL        L?0309
  C:7E45H         SYMBOL        L?0310
  C:7E45H         SYMBOL        L?0311
  C:7E4CH         SYMBOL        L?0312
  C:7E53H         SYMBOL        L?0313
  C:7E53H         SYMBOL        L?0314
  C:7E56H         SYMBOL        L?0315
  C:7E5EH         SYMBOL        L?0317
  C:7E61H         SYMBOL        L?0318
  C:7E69H         SYMBOL        L?0319
  C:7E69H         SYMBOL        L?0320
  C:7E71H         SYMBOL        L?0321
  C:7E71H         SYMBOL        L?0322
  C:7E7DH         SYMBOL        L?0323
  C:7E7DH         SYMBOL        L?0324
  C:7E89H         SYMBOL        L?0326
  C:7E97H         SYMBOL        L?0327
  C:7E9EH         SYMBOL        L?0328
  C:7E9EH         SYMBOL        L?0329
  C:7EA1H         SYMBOL        L?0330
  C:7EA9H         SYMBOL        L?0331
  C:7EB1H         SYMBOL        L?0332
  C:7EB8H         SYMBOL        L?0334
  C:7EB8H         SYMBOL        L?0335
  C:7EC4H         SYMBOL        L?0336
  C:7EC4H         SYMBOL        L?0337
  C:7ECBH         SYMBOL        L?0338
  C:7ECBH         SYMBOL        L?0339
BL51 BANKED LINKER/LOCATER V6.22.2.0                                                  06/22/2022  16:23:04  PAGE 154


  C:7ED3H         SYMBOL        L?0341
  C:7EE1H         SYMBOL        L?0343
  C:7EE4H         SYMBOL        L?0344
  C:7EEAH         SYMBOL        L?0345
  C:7EF7H         SYMBOL        L?0346
  C:7EF7H         SYMBOL        L?0347
  C:7EFFH         SYMBOL        L?0348
  C:7F06H         SYMBOL        L?0349
  C:7F06H         SYMBOL        L?0350
  C:7F0DH         SYMBOL        L?0351
  -------         PROC          COM011B
  -------         ENDPROC       COM011B
  -------         PROC          PROMPT
  C:C197H         LINE#         53
  C:C197H         LINE#         54
  C:C197H         LINE#         56
  C:C19FH         LINE#         57
  C:C1A8H         LINE#         59
  C:C1B8H         LINE#         60
  -------         ENDPROC       PROMPT
  -------         PROC          _MON_TX
  D:0007H         SYMBOL        ch
  C:C617H         LINE#         63
  C:C617H         LINE#         64
  C:C617H         LINE#         65
  -------         ENDPROC       _MON_TX
  -------         PROC          _A2I
  X:0004H         SYMBOL        str
  -------         DO            
  X:0007H         SYMBOL        num
  X:000BH         SYMBOL        i
  -------         ENDDO         
  C:AC53H         LINE#         74
  C:AC59H         LINE#         75
  C:AC59H         LINE#         76
  C:AC63H         LINE#         79
  C:AC68H         LINE#         80
  C:AC71H         LINE#         81
  C:ACAFH         LINE#         82
  C:ACBDH         LINE#         83
  -------         ENDPROC       _A2I
  -------         PROC          _ASC1BIN
  D:0007H         SYMBOL        asc
  C:BDC1H         LINE#         86
  C:BDC1H         LINE#         87
  C:BDC1H         LINE#         88
  C:BDD3H         LINE#         89
  C:BDE4H         LINE#         90
  C:BDF4H         LINE#         95
  -------         ENDPROC       _ASC1BIN
  C:BC79H         SYMBOL        L?0290
  -------         PROC          L?0289
  -------         ENDPROC       L?0289
  C:BC79H         SYMBOL        L?0290
  -------         PROC          _ASC2BIN
  D:0001H         SYMBOL        s
  -------         DO            
BL51 BANKED LINKER/LOCATER V6.22.2.0                                                  06/22/2022  16:23:04  PAGE 155


  D:0004H         SYMBOL        bin
  -------         ENDDO         
  C:BC7FH         LINE#         97
  C:BC7FH         LINE#         98
  C:BC7FH         LINE#         101
  C:BC82H         LINE#         102
  C:BC8BH         LINE#         103
  C:BC99H         LINE#         104
  C:BCA6H         LINE#         105
  C:BCADH         LINE#         106
  C:BCAFH         LINE#         107
  C:BCB1H         LINE#         108
  -------         ENDPROC       _ASC2BIN
  -------         PROC          L?0340
  -------         ENDPROC       L?0340
  -------         PROC          _TOUPPER
  D:0007H         SYMBOL        ch
  C:C379H         LINE#         112
  C:C379H         LINE#         113
  C:C379H         LINE#         114
  C:C385H         LINE#         115
  C:C389H         LINE#         120
  -------         ENDPROC       _TOUPPER
  -------         PROC          _STRICMP
  X:0002H         SYMBOL        ptr1
  X:0005H         SYMBOL        ptr2
  -------         DO            
  X:0008H         SYMBOL        i
  D:0006H         SYMBOL        ret
  -------         ENDDO         
  C:BAE2H         LINE#         123
  C:BAE8H         LINE#         124
  C:BAE8H         LINE#         128
  C:BAF7H         LINE#         129
  C:BB0EH         LINE#         130
  C:BB12H         LINE#         131
  C:BB1AH         LINE#         132
  C:BB1DH         LINE#         133
  -------         ENDPROC       _STRICMP
  -------         PROC          _SETMONADDRESS
  D:0007H         SYMBOL        addr
  C:C61AH         LINE#         139
  C:C61AH         LINE#         140
  C:C61AH         LINE#         141
  C:C61CH         LINE#         142
  -------         ENDPROC       _SETMONADDRESS
  -------         PROC          MONREADI2C
  C:B62AH         LINE#         146
  C:B62AH         LINE#         147
  C:B62AH         LINE#         148
  C:B639H         LINE#         149
  C:B639H         LINE#         150
  C:B63FH         LINE#         152
  C:B63FH         LINE#         154
  C:B644H         LINE#         155
  C:B64AH         LINE#         157
  C:B656H         LINE#         159
BL51 BANKED LINKER/LOCATER V6.22.2.0                                                  06/22/2022  16:23:04  PAGE 156


  C:B659H         LINE#         160
  C:B66CH         LINE#         162
  C:B674H         LINE#         163
  -------         ENDPROC       MONREADI2C
  -------         PROC          MONWRITEI2C
  C:ABDCH         LINE#         166
  C:ABDCH         LINE#         167
  C:ABDCH         LINE#         168
  C:ABE1H         LINE#         169
  C:ABE7H         LINE#         171
  C:ABE7H         LINE#         173
  C:ABEFH         LINE#         174
  C:ABFAH         LINE#         176
  C:ABFDH         LINE#         177
  C:AC13H         LINE#         178
  C:AC18H         LINE#         179
  C:AC20H         LINE#         180
  C:AC23H         LINE#         181
  C:AC25H         LINE#         182
  C:AC25H         LINE#         183
  C:AC2DH         LINE#         184
  C:AC38H         LINE#         185
  C:AC38H         LINE#         186
  C:AC3EH         LINE#         187
  C:AC3EH         LINE#         188
  C:AC3EH         LINE#         189
  C:AC43H         LINE#         190
  C:AC48H         LINE#         191
  C:AC4AH         LINE#         192
  C:AC4AH         LINE#         193
  C:AC52H         LINE#         194
  C:AC52H         LINE#         195
  C:AC52H         LINE#         196
  -------         ENDPROC       MONWRITEI2C
  -------         PROC          _MONINCDECI2C
  D:0007H         SYMBOL        inc
  C:AB63H         LINE#         202
  C:AB63H         LINE#         203
  C:AB63H         LINE#         205
  C:AB72H         LINE#         206
  C:AB7AH         LINE#         207
  C:AB82H         LINE#         208
  C:AB8BH         LINE#         209
  C:AB92H         LINE#         210
  C:AB92H         LINE#         213
  C:AB97H         LINE#         214
  C:AB9FH         LINE#         215
  C:ABA2H         LINE#         216
  C:ABA4H         LINE#         217
  C:ABA4H         LINE#         218
  C:ABACH         LINE#         219
  C:ABB7H         LINE#         220
  C:ABB7H         LINE#         222
  C:ABBAH         LINE#         223
  C:ABD3H         LINE#         224
  C:ABD9H         LINE#         225
  C:ABD9H         LINE#         227
BL51 BANKED LINKER/LOCATER V6.22.2.0                                                  06/22/2022  16:23:04  PAGE 157


  -------         ENDPROC       _MONINCDECI2C
  C:95ADH         SYMBOL        L?0296
  -------         PROC          MONDUMPI2C
  -------         DO            
  X:0002H         SYMBOL        ToMonIndex
  X:0003H         SYMBOL        cnt
  -------         ENDDO         
  C:9509H         LINE#         231
  C:9509H         LINE#         232
  C:9509H         LINE#         234
  C:9512H         LINE#         236
  C:951FH         LINE#         237
  C:9531H         LINE#         238
  C:9540H         LINE#         239
  C:9550H         LINE#         240
  C:9565H         LINE#         242
  C:9568H         LINE#         243
  C:956EH         LINE#         244
  C:9573H         LINE#         245
  C:9575H         LINE#         246
  C:9575H         LINE#         247
  C:9575H         LINE#         248
  C:957AH         LINE#         249
  C:957AH         LINE#         250
  C:957AH         LINE#         251
  C:957FH         LINE#         252
  C:9581H         LINE#         253
  C:9581H         LINE#         254
  C:9581H         LINE#         255
  C:9586H         LINE#         256
  C:9586H         LINE#         257
  C:9586H         LINE#         258
  C:9586H         LINE#         259
  C:958CH         LINE#         260
  C:9591H         LINE#         261
  C:9597H         LINE#         262
  C:9597H         LINE#         263
  C:959CH         LINE#         264
  C:959CH         LINE#         265
  C:959CH         LINE#         266
  C:95A1H         LINE#         267
  C:95A7H         LINE#         268
  C:95A7H         LINE#         269
  C:95ACH         LINE#         270
  C:95ACH         LINE#         271
  C:95ACH         LINE#         272
  -------         ENDPROC       MONDUMPI2C
  -------         PROC          MONNEWREADI2C
  -------         DO            
  X:0002H         SYMBOL        Slave
  -------         ENDDO         
  C:B5DEH         LINE#         276
  C:B5DEH         LINE#         277
  C:B5DEH         LINE#         280
  C:B5F0H         LINE#         281
  C:B5F0H         LINE#         282
  C:B5F6H         LINE#         284
BL51 BANKED LINKER/LOCATER V6.22.2.0                                                  06/22/2022  16:23:04  PAGE 158


  C:B5F6H         LINE#         285
  C:B5FEH         LINE#         287
  C:B602H         LINE#         288
  C:B607H         LINE#         290
  C:B615H         LINE#         292
  C:B618H         LINE#         293
  C:B621H         LINE#         295
  C:B629H         LINE#         296
  -------         ENDPROC       MONNEWREADI2C
  -------         PROC          MONNEWWRITEI2C
  -------         DO            
  X:0002H         SYMBOL        Slave
  -------         ENDDO         
  C:B289H         LINE#         298
  C:B289H         LINE#         299
  C:B289H         LINE#         302
  C:B296H         LINE#         303
  C:B29CH         LINE#         305
  C:B29CH         LINE#         307
  C:B29CH         LINE#         308
  C:B2A4H         LINE#         309
  C:B2ACH         LINE#         311
  C:B2B0H         LINE#         312
  C:B2B8H         LINE#         313
  C:B2BBH         LINE#         314
  C:B2BDH         LINE#         315
  C:B2BDH         LINE#         316
  C:B2C8H         LINE#         317
  C:B2D6H         LINE#         318
  C:B2D6H         LINE#         320
  C:B2D9H         LINE#         321
  C:B2E2H         LINE#         323
  -------         ENDPROC       MONNEWWRITEI2C
  C:9C04H         SYMBOL        L?0299
  -------         PROC          MONNEWDUMPI2C
  -------         DO            
  X:0002H         SYMBOL        ToMonIndex
  X:0003H         SYMBOL        Slave
  X:0004H         SYMBOL        i
  -------         ENDDO         
  C:9B86H         LINE#         325
  C:9B86H         LINE#         326
  C:9B86H         LINE#         330
  C:9B96H         LINE#         331
  C:9BA3H         LINE#         332
  C:9BABH         LINE#         334
  C:9BAEH         LINE#         335
  C:9BB3H         LINE#         336
  C:9BBBH         LINE#         337
  C:9BBDH         LINE#         338
  C:9BBDH         LINE#         339
  C:9BC2H         LINE#         340
  C:9BC2H         LINE#         341
  C:9BC2H         LINE#         342
  C:9BCAH         LINE#         343
  C:9BCFH         LINE#         344
  C:9BCFH         LINE#         345
BL51 BANKED LINKER/LOCATER V6.22.2.0                                                  06/22/2022  16:23:04  PAGE 159


  C:9BD4H         LINE#         346
  C:9BD4H         LINE#         347
  C:9BD4H         LINE#         348
  C:9BD4H         LINE#         349
  C:9BDCH         LINE#         350
  C:9BE4H         LINE#         351
  C:9BE9H         LINE#         352
  C:9BEEH         LINE#         353
  C:9BEEH         LINE#         354
  C:9BEEH         LINE#         355
  C:9BF6H         LINE#         356
  C:9BFEH         LINE#         357
  C:9C03H         LINE#         358
  C:9C03H         LINE#         359
  C:9C03H         LINE#         360
  -------         ENDPROC       MONNEWDUMPI2C
  C:8EA6H         SYMBOL        L?0325
  -------         PROC          MONWRITEBIT
  -------         DO            
  X:0002H         SYMBOL        mask
  D:0006H         SYMBOL        i
  X:0003H         SYMBOL        FromBit
  X:0004H         SYMBOL        ToBit
  X:0005H         SYMBOL        MonMask
  D:0004H         SYMBOL        val
  X:0006H         SYMBOL        Slave
  -------         ENDDO         
  C:8DC4H         LINE#         363
  C:8DC4H         LINE#         364
  C:8DC4H         LINE#         369
  C:8DD1H         LINE#         370
  C:8DD7H         LINE#         372
  C:8DD7H         LINE#         373
  C:8DDFH         LINE#         375
  C:8DDFH         LINE#         376
  C:8DE9H         LINE#         377
  C:8DF3H         LINE#         378
  C:8DFEH         LINE#         380
  C:8E1FH         LINE#         381
  C:8E28H         LINE#         383
  C:8E28H         LINE#         385
  C:8E2EH         LINE#         386
  C:8E30H         LINE#         387
  C:8E3CH         LINE#         388
  C:8E42H         LINE#         389
  C:8E45H         LINE#         390
  C:8E48H         LINE#         392
  C:8E4AH         LINE#         393
  C:8E56H         LINE#         394
  C:8E5CH         LINE#         395
  C:8E60H         LINE#         396
  C:8E63H         LINE#         398
  C:8E6BH         LINE#         399
  C:8E6EH         LINE#         400
  C:8E71H         LINE#         402
  C:8E77H         LINE#         403
  C:8E7AH         LINE#         404
BL51 BANKED LINKER/LOCATER V6.22.2.0                                                  06/22/2022  16:23:04  PAGE 160


  C:8E7CH         LINE#         405
  C:8E7CH         LINE#         406
  C:8E7FH         LINE#         407
  C:8E82H         LINE#         409
  C:8E88H         LINE#         410
  C:8E93H         LINE#         411
  C:8E93H         LINE#         413
  C:8E96H         LINE#         414
  C:8EA5H         LINE#         416
  -------         ENDPROC       MONWRITEBIT
  -------         PROC          MONTXDUMP
  -------         DO            
  X:0002H         SYMBOL        count
  -------         ENDDO         
  C:BA69H         LINE#         442
  C:BA69H         LINE#         443
  C:BA69H         LINE#         446
  C:BA6EH         LINE#         447
  C:BA77H         LINE#         449
  C:BA77H         LINE#         450
  C:BA88H         LINE#         451
  C:BA88H         LINE#         452
  C:BA95H         LINE#         453
  C:BA9BH         LINE#         454
  C:BAA5H         LINE#         455
  -------         ENDPROC       MONTXDUMP
  C:A352H         SYMBOL        L?0298
  C:A363H         SYMBOL        L?0316
  C:A36BH         SYMBOL        L?0333
  -------         PROC          MONHELP
  C:A2D1H         LINE#         461
  C:A2D1H         LINE#         462
  C:A2D1H         LINE#         463
  C:A2DAH         LINE#         464
  C:A2DEH         LINE#         465
  C:A2DEH         LINE#         466
  C:A2E8H         LINE#         467
  C:A2ECH         LINE#         468
  C:A2F6H         LINE#         469
  C:A2FAH         LINE#         470
  C:A304H         LINE#         471
  C:A308H         LINE#         472
  C:A312H         LINE#         473
  C:A316H         LINE#         474
  C:A320H         LINE#         475
  C:A329H         LINE#         476
  C:A332H         LINE#         477
  C:A33BH         LINE#         478
  C:A344H         LINE#         479
  C:A348H         LINE#         480
  C:A348H         LINE#         481
  C:A352H         LINE#         482
  -------         ENDPROC       MONHELP
  C:74F2H         SYMBOL        L?0342
  -------         PROC          MONGETCOMMAND
  -------         DO            
  X:00A5H         SYMBOL        comment
BL51 BANKED LINKER/LOCATER V6.22.2.0                                                  06/22/2022  16:23:04  PAGE 161


  X:00A6H         SYMBOL        incnt
  X:00A7H         SYMBOL        last_argc
  X:0002H         SYMBOL        i
  X:0003H         SYMBOL        ch
  X:0004H         SYMBOL        ret
  -------         ENDDO         
  C:7346H         LINE#         487
  C:7346H         LINE#         488
  C:7346H         LINE#         492
  C:734BH         LINE#         494
  C:7353H         LINE#         496
  C:735BH         LINE#         499
  C:7361H         LINE#         500
  C:7376H         LINE#         501
  C:7376H         LINE#         502
  C:737BH         LINE#         503
  C:737DH         LINE#         504
  C:737DH         LINE#         505
  C:737DH         LINE#         506
  C:7385H         LINE#         507
  C:738BH         LINE#         508
  C:738EH         LINE#         509
  C:7391H         LINE#         510
  C:7391H         LINE#         513
  C:73B4H         LINE#         515
  C:73B4H         LINE#         516
  C:73B9H         LINE#         517
  C:73B9H         LINE#         518
  C:73B9H         LINE#         519
  C:73B9H         LINE#         520
  C:73BBH         LINE#         523
  C:73BBH         LINE#         525
  C:73C1H         LINE#         526
  C:73C4H         LINE#         527
  C:73C7H         LINE#         528
  C:73C7H         LINE#         530
  C:73D6H         LINE#         531
  C:73DAH         LINE#         533
  C:73EFH         LINE#         535
  C:73F5H         LINE#         536
  C:73F9H         LINE#         537
  C:73FDH         LINE#         538
  C:7400H         LINE#         539
  C:7403H         LINE#         540
  C:7403H         LINE#         541
  C:740CH         LINE#         542
  C:7411H         LINE#         543
  C:741DH         LINE#         544
  C:7422H         LINE#         546
  C:7424H         LINE#         547
  C:7437H         LINE#         548
  C:743DH         LINE#         549
  C:7440H         LINE#         550
  C:7457H         LINE#         551
  C:7457H         LINE#         552
  C:7457H         LINE#         553
  C:745CH         LINE#         555
BL51 BANKED LINKER/LOCATER V6.22.2.0                                                  06/22/2022  16:23:04  PAGE 162


  C:7461H         LINE#         556
  C:7464H         LINE#         557
  C:7469H         LINE#         559
  C:746CH         LINE#         562
  C:746CH         LINE#         563
  C:7474H         LINE#         564
  C:747AH         LINE#         565
  C:747CH         LINE#         568
  C:747CH         LINE#         569
  C:7482H         LINE#         570
  C:7484H         LINE#         571
  C:7487H         LINE#         572
  C:748CH         LINE#         573
  C:748FH         LINE#         574
  C:748FH         LINE#         575
  C:7491H         LINE#         578
  C:7491H         LINE#         579
  C:7497H         LINE#         580
  C:7497H         LINE#         581
  C:7497H         LINE#         582
  C:7499H         LINE#         584
  C:749BH         LINE#         585
  C:749DH         LINE#         587
  C:749DH         LINE#         588
  C:74A3H         LINE#         589
  C:74A3H         LINE#         590
  C:74A3H         LINE#         591
  C:74A5H         LINE#         593
  C:74A7H         LINE#         594
  C:74A9H         LINE#         596
  C:74A9H         LINE#         597
  C:74AFH         LINE#         598
  C:74AFH         LINE#         599
  C:74AFH         LINE#         600
  C:74B1H         LINE#         602
  C:74B3H         LINE#         603
  C:74B5H         LINE#         605
  C:74B5H         LINE#         606
  C:74BBH         LINE#         607
  C:74BBH         LINE#         608
  C:74BBH         LINE#         609
  C:74BDH         LINE#         611
  C:74C2H         LINE#         612
  C:74C4H         LINE#         614
  C:74C4H         LINE#         615
  C:74CCH         LINE#         616
  C:74DDH         LINE#         617
  C:74DDH         LINE#         618
  C:74DDH         LINE#         620
  C:74E4H         LINE#         621
  C:74E8H         LINE#         622
  C:74EBH         LINE#         623
  C:74ECH         LINE#         624
  C:74ECH         LINE#         625
  C:74ECH         LINE#         626
  C:74F1H         LINE#         627
  C:74F1H         LINE#         628
BL51 BANKED LINKER/LOCATER V6.22.2.0                                                  06/22/2022  16:23:04  PAGE 163


  -------         ENDPROC       MONGETCOMMAND
  C:5012H         SYMBOL        L?0273
  C:5026H         SYMBOL        L?0274
  C:503AH         SYMBOL        L?0275
  C:504EH         SYMBOL        L?0276
  C:5062H         SYMBOL        L?0277
  C:507AH         SYMBOL        L?0278
  C:508EH         SYMBOL        L?0279
  C:50A6H         SYMBOL        L?0280
  C:50BAH         SYMBOL        L?0281
  C:50D2H         SYMBOL        L?0282
  C:50E6H         SYMBOL        L?0287
  C:50FAH         SYMBOL        L?0288
  C:510EH         SYMBOL        L?0291
  C:5122H         SYMBOL        L?0297
  C:5136H         SYMBOL        L?0304
  C:514AH         SYMBOL        L?0307
  -------         PROC          MONITOR
  -------         DO            
  X:0001H         SYMBOL        mode
  -------         ENDDO         
  C:4D4DH         LINE#         634
  C:4D4DH         LINE#         635
  C:4D4DH         LINE#         636
  C:4D56H         LINE#         650
  C:4D58H         LINE#         653
  C:4D61H         LINE#         654
  C:4D64H         LINE#         655
  C:4D67H         LINE#         656
  C:4D70H         LINE#         657
  C:4D72H         LINE#         658
  C:4D75H         LINE#         659
  C:4D78H         LINE#         671
  C:4D81H         LINE#         672
  C:4D84H         LINE#         673
  C:4D87H         LINE#         674
  C:4D90H         LINE#         675
  C:4D92H         LINE#         676
  C:4D95H         LINE#         677
  C:4D98H         LINE#         688
  C:4DA1H         LINE#         689
  C:4DAAH         LINE#         690
  C:4DADH         LINE#         691
  C:4DB0H         LINE#         692
  C:4DB9H         LINE#         693
  C:4DBBH         LINE#         694
  C:4DBEH         LINE#         695
  C:4DC1H         LINE#         698
  C:4DCAH         LINE#         699
  C:4DCDH         LINE#         700
  C:4DD0H         LINE#         784
  C:4DD9H         LINE#         785
  C:4DDEH         LINE#         786
  C:4DE1H         LINE#         789
  C:4DFCH         LINE#         790
  C:4DFFH         LINE#         792
  C:4E02H         LINE#         794
BL51 BANKED LINKER/LOCATER V6.22.2.0                                                  06/22/2022  16:23:04  PAGE 164


  C:4E0BH         LINE#         796
  C:4E13H         LINE#         797
  C:4E1CH         LINE#         798
  C:4E25H         LINE#         799
  C:4E2BH         LINE#         800
  C:4E2EH         LINE#         801
  C:4E2EH         LINE#         803
  C:4E36H         LINE#         805
  C:4E36H         LINE#         806
  C:4E39H         LINE#         816
  C:4E42H         LINE#         817
  C:4E45H         LINE#         818
  C:4E48H         LINE#         870
  C:4E51H         LINE#         871
  C:4E59H         LINE#         872
  C:4E61H         LINE#         873
  C:4E64H         LINE#         874
  C:4E64H         LINE#         875
  C:4E77H         LINE#         876
  C:4E7AH         LINE#         879
  C:4E83H         LINE#         880
  C:4E88H         LINE#         881
  C:4E8AH         LINE#         882
  C:4E90H         LINE#         883
  C:4E93H         LINE#         884
  C:4E93H         LINE#         885
  C:4E95H         LINE#         886
  C:4E9BH         LINE#         887
  C:4E9BH         LINE#         888
  C:4E9EH         LINE#         890
  C:4EA7H         LINE#         891
  C:4EACH         LINE#         892
  C:4EAEH         LINE#         893
  C:4EB4H         LINE#         894
  C:4EB7H         LINE#         895
  C:4EBCH         LINE#         896
  C:4EBEH         LINE#         897
  C:4EC4H         LINE#         898
  C:4EC7H         LINE#         899
  C:4EC7H         LINE#         900
  C:4ED2H         LINE#         901
  C:4ED2H         LINE#         902
  C:4ED5H         LINE#         903
  C:4EDEH         LINE#         904
  C:4EE3H         LINE#         906
  C:4EE9H         LINE#         907
  C:4EECH         LINE#         908
  C:4EF3H         LINE#         910
  C:4EF7H         LINE#         911
  C:4EFAH         LINE#         912
  C:4EFAH         LINE#         913
  C:4F03H         LINE#         914
  C:4F03H         LINE#         915
  C:4F06H         LINE#         916
  C:4F0FH         LINE#         917
  C:4F18H         LINE#         918
  C:4F1AH         LINE#         919
BL51 BANKED LINKER/LOCATER V6.22.2.0                                                  06/22/2022  16:23:04  PAGE 165


  C:4F20H         LINE#         920
  C:4F23H         LINE#         921
  C:4F2CH         LINE#         922
  C:4F2EH         LINE#         923
  C:4F34H         LINE#         924
  C:4F37H         LINE#         925
  C:4F37H         LINE#         926
  C:4F42H         LINE#         927
  C:4F42H         LINE#         928
  C:4F45H         LINE#         930
  C:4F4EH         LINE#         931
  C:4F5AH         LINE#         933
  C:4F5AH         LINE#         934
  C:4F63H         LINE#         935
  C:4F6CH         LINE#         936
  C:4F75H         LINE#         937
  C:4F7EH         LINE#         938
  C:4F80H         LINE#         939
  C:4F80H         LINE#         940
  C:4F89H         LINE#         941
  C:4F8CH         LINE#         942
  C:4F8FH         LINE#         943
  C:4F94H         LINE#         944
  C:4F98H         LINE#         945
  C:4F98H         LINE#         1087
  C:4F9BH         LINE#         1090
  C:4FA4H         LINE#         1091
  C:4FA7H         LINE#         1092
  C:4FA9H         LINE#         1095
  C:4FC2H         LINE#         1096
  C:4FCBH         LINE#         1097
  C:4FD4H         LINE#         1098
  C:4FD6H         LINE#         1099
  C:4FEFH         LINE#         1100
  C:4FF8H         LINE#         1101
  C:4FFAH         LINE#         1102
  C:4FFAH         LINE#         1103
  C:5003H         LINE#         1104
  C:5003H         LINE#         1105
  C:5005H         LINE#         1130
  C:5005H         LINE#         1131
  C:500EH         LINE#         1132
  C:500EH         LINE#         1134
  C:5011H         LINE#         1136
  -------         ENDPROC       MONITOR
  -------         ENDMOD        MONITOR

  -------         MODULE        ?C?COPY
  C:43E3H         PUBLIC        ?C?COPY
  -------         ENDMOD        ?C?COPY

  -------         MODULE        ?C?CLDPTR
  C:4409H         PUBLIC        ?C?CLDPTR
  -------         ENDMOD        ?C?CLDPTR

  -------         MODULE        ?C?CLDOPTR
  C:4422H         PUBLIC        ?C?CLDOPTR
BL51 BANKED LINKER/LOCATER V6.22.2.0                                                  06/22/2022  16:23:04  PAGE 166


  -------         ENDMOD        ?C?CLDOPTR

  -------         MODULE        ?C?CSTPTR
  C:444FH         PUBLIC        ?C?CSTPTR
  -------         ENDMOD        ?C?CSTPTR

  -------         MODULE        ?C?IMUL
  C:4461H         PUBLIC        ?C?IMUL
  -------         ENDMOD        ?C?IMUL

  -------         MODULE        ?C?UIDIV
  C:4473H         PUBLIC        ?C?UIDIV
  -------         ENDMOD        ?C?UIDIV

  -------         MODULE        ?C?SIDIV
  C:44C8H         PUBLIC        ?C?SIDIV
  -------         ENDMOD        ?C?SIDIV

  -------         MODULE        ?C?IILDX
  C:44FEH         PUBLIC        ?C?IILDX
  -------         ENDMOD        ?C?IILDX

  -------         MODULE        ?C?ILDPTR
  C:4514H         PUBLIC        ?C?ILDPTR
  -------         ENDMOD        ?C?ILDPTR

  -------         MODULE        ?C?ILDOPTR
  C:453FH         PUBLIC        ?C?ILDOPTR
  -------         ENDMOD        ?C?ILDOPTR

  -------         MODULE        ?C?ISTPTR
  C:4577H         PUBLIC        ?C?ISTPTR
  -------         ENDMOD        ?C?ISTPTR

  -------         MODULE        ?C?LADD
  C:4596H         PUBLIC        ?C?LADD
  -------         ENDMOD        ?C?LADD

  -------         MODULE        ?C?LMUL
  C:45A3H         PUBLIC        ?C?LMUL
  -------         ENDMOD        ?C?LMUL

  -------         MODULE        ?C?ULDIV
  C:462EH         PUBLIC        ?C?ULDIV
  -------         ENDMOD        ?C?ULDIV

  -------         MODULE        ?C?ULCMP
  C:46C0H         PUBLIC        ?C?ULCMP
  -------         ENDMOD        ?C?ULCMP

  -------         MODULE        ?C?SLSHR
  C:46D1H         PUBLIC        ?C?SLSHR
  -------         ENDMOD        ?C?SLSHR

  -------         MODULE        ?C?LLDPTR
  C:46E5H         PUBLIC        ?C?LLDPTR
  -------         ENDMOD        ?C?LLDPTR
BL51 BANKED LINKER/LOCATER V6.22.2.0                                                  06/22/2022  16:23:04  PAGE 167



  -------         MODULE        ?C?LLDXDATA
  C:4705H         PUBLIC        ?C?LLDXDATA
  -------         ENDMOD        ?C?LLDXDATA

  -------         MODULE        ?C?LLDXDATA0
  C:4711H         PUBLIC        ?C?LLDXDATA0
  -------         ENDMOD        ?C?LLDXDATA0

  -------         MODULE        ?C?LSTXDATA
  C:471DH         PUBLIC        ?C?LSTXDATA
  -------         ENDMOD        ?C?LSTXDATA

  -------         MODULE        ?C?LSTKXDATA
  C:4729H         PUBLIC        ?C?LSTKXDATA
  -------         ENDMOD        ?C?LSTKXDATA

  -------         MODULE        ?C?OFFXADD
  C:475AH         PUBLIC        ?C?OFFXADD
  -------         ENDMOD        ?C?OFFXADD

  -------         MODULE        ?C?PLDXDATA
  C:4766H         PUBLIC        ?C?PLDXDATA
  -------         ENDMOD        ?C?PLDXDATA

  -------         MODULE        ?C?PLDIXDATA
  C:476FH         PUBLIC        ?C?PLDIXDATA
  -------         ENDMOD        ?C?PLDIXDATA

  -------         MODULE        ?C?PSTXDATA
  C:4786H         PUBLIC        ?C?PSTXDATA
  -------         ENDMOD        ?C?PSTXDATA

  -------         MODULE        ?C?PLDCODE
  C:478FH         PUBLIC        ?C?PLDCODE
  -------         ENDMOD        ?C?PLDCODE

  -------         MODULE        ?C?PLDPTR
  C:479BH         PUBLIC        ?C?PLDPTR
  -------         ENDMOD        ?C?PLDPTR

  -------         MODULE        ?C?PLDOPTR
  C:47BBH         PUBLIC        ?C?PLDOPTR
  -------         ENDMOD        ?C?PLDOPTR

  -------         MODULE        ?C?CCASE
  C:47EBH         PUBLIC        ?C?CCASE
  -------         ENDMOD        ?C?CCASE

  -------         MODULE        ?C?LLDIDATA
  C:4811H         PUBLIC        ?C?LLDIDATA
  -------         ENDMOD        ?C?LLDIDATA

  -------         MODULE        ?C?LLDPDATA
  C:481DH         PUBLIC        ?C?LLDPDATA
  -------         ENDMOD        ?C?LLDPDATA

BL51 BANKED LINKER/LOCATER V6.22.2.0                                                  06/22/2022  16:23:04  PAGE 168


  -------         MODULE        ?C?LLDCODE
  C:4829H         PUBLIC        ?C?LLDCODE
  -------         ENDMOD        ?C?LLDCODE

  -------         MODULE        ?C?PLDIDATA
  C:4839H         PUBLIC        ?C?PLDIDATA
  -------         ENDMOD        ?C?PLDIDATA

  -------         MODULE        ?C?PLDPDATA
  C:4842H         PUBLIC        ?C?PLDPDATA
  -------         ENDMOD        ?C?PLDPDATA

*** WARNING L16: UNCALLED SEGMENT, IGNORED FOR OVERLAY PROCESS
    SEGMENT: ?PR?CHECKANDCLEAROSD?DISPINFO

*** WARNING L1: UNRESOLVED EXTERNAL SYMBOL
    SYMBOL:  LCDPOWEROFF
    MODULE:  .\Output\TW88.obj (TW88)

*** WARNING L2: REFERENCE MADE TO UNRESOLVED EXTERNAL
    SYMBOL:  LCDPOWEROFF
    MODULE:  .\Output\TW88.obj (TW88)
    ADDRESS: BCF4H

Program Size: data=125.4 xdata=331 code=50720
LINK/LOCATE RUN COMPLETE.  3 WARNING(S),  0 ERROR(S)
